Archive member included       because of file (symbol)

/x86/lib/libm.a(sqrt.o)       mock_generator.o (sqrt)
/x86/lib/libcpp.a(delaop.o)   mock_generator.o (__builtin_vec_delete)
/x86/lib/libcpp.a(delop.o)    generator_logger.o (__builtin_delete)
/x86/lib/libcpp.a(delop3.o)   mock_generator.o (operator delete(void *, void *))
/x86/lib/libcpp.a(exceptio.o)
                              generator_logger.o (std::terminate(void))
/x86/lib/libcpp.a(gccex.o)    mock_generator.o (std::exception::exception(void))
/x86/lib/libcpp.a(ios.o)      mock_generator.o (std::_BADOFF)
/x86/lib/libcpp.a(iostream.o)
                              mock_generator.o (std::ios_base::Init::Init(void))
/x86/lib/libcpp.a(locale.o)   mock_generator.o (std::ctype<char>::id)
/x86/lib/libcpp.a(locale0.o)  /x86/lib/libcpp.a(locale.o) (std::locale::_Locimp::_Clocptr)
/x86/lib/libcpp.a(newaop.o)   mock_generator.o (__builtin_vec_new)
/x86/lib/libcpp.a(newop.o)    generator_logger.o (__builtin_new)
/x86/lib/libcpp.a(nomemory.o)
                              mock_generator.o (std::_Nomemory(void))
/x86/lib/libcpp.a(raisehan.o)
                              /x86/lib/libcpp.a(gccex.o) (std::_Raise_handler)
/x86/lib/libcpp.a(string.o)   generator_logger.o (std::_String_base::_Xlen(void) const)
/x86/lib/libcpp.a(uncaught.o)
                              mock_generator.o (std::uncaught_exception(void))
/x86/lib/libcpp.a(wlocale.o)  /x86/lib/libcpp.a(locale.o) (std::locale::_Locimp::_Makewloc(std::_Locinfo const &, int, std::locale::_Locimp *, std::locale const *))
/x86/lib/libcpp.a(xlocale.o)  /x86/lib/libcpp.a(locale.o) (std::locale::_Locimp::_Makexloc(std::_Locinfo const &, int, std::locale::_Locimp *, std::locale const *))
/x86/lib/libcpp.a(xlock.o)    generator_logger.o (std::_Lockit::_Lockit(int))
/x86/lib/libcpp.a(xmtx.o)     /x86/lib/libcpp.a(xlock.o) (_Mtxinit)
/x86/lib/libcpp.a(xmutex.o)   mock_generator.o (std::_Mutex::_Mutex(void))
/x86/lib/libcpp.a(new.o)      /x86/lib/libcpp.a(newop.o) (std::_New_hand)
/usr/lib/gcc-lib/ntox86/2.95.3/exceptions/libgcc.a(_cmpdi2.o)
                              mock_generator.o (__cmpdi2)
/usr/lib/gcc-lib/ntox86/2.95.3/exceptions/libgcc.a(_eh.o)
                              mock_generator.o (__eh_rtime_match)
/usr/lib/gcc-lib/ntox86/2.95.3/exceptions/libgcc.a(_udivdi3.o)
                              mock_generator.o (__udivdi3)
/usr/lib/gcc-lib/ntox86/2.95.3/exceptions/libgcc.a(exception.o)
                              generator_logger.o (__start_cp_handler)
/usr/lib/gcc-lib/ntox86/2.95.3/exceptions/libgcc.a(frame.o)
                              /usr/lib/gcc-lib/ntox86/2.95.3/exceptions/libgcc.a(_eh.o) (__frame_state_for)
/usr/lib/gcc-lib/ntox86/2.95.3/exceptions/libgcc.a(tinfo.o)
                              mock_generator.o (__rtti_class)
/usr/lib/gcc-lib/ntox86/2.95.3/exceptions/libgcc.a(tinfo2.o)
                              /usr/lib/gcc-lib/ntox86/2.95.3/exceptions/libgcc.a(exception.o) (__throw_type_match_rtti)
/x86/lib/libc.a(getpid.o)     main.o (getpid)
/x86/lib/libc.a(pthread_mutex_lock.o)
                              /x86/lib/libcpp.a(xlock.o) (pthread_mutex_lock)
/x86/lib/libc.a(pthread_mutex_init.o)
                              /x86/lib/libcpp.a(xmtx.o) (pthread_mutex_init)
/x86/lib/libc.a(pthread_mutex_destroy.o)
                              /x86/lib/libcpp.a(xlock.o) (pthread_mutex_destroy)
/x86/lib/libc.a(pthread_mutex_unlock.o)
                              /x86/lib/libcpp.a(xlock.o) (pthread_mutex_unlock)
/x86/lib/libc.a(pthread_mutexattr_destroy.o)
                              /x86/lib/libcpp.a(xmtx.o) (pthread_mutexattr_destroy)
/x86/lib/libc.a(pthread_mutexattr_init.o)
                              /x86/lib/libcpp.a(xmtx.o) (pthread_mutexattr_init)
/x86/lib/libc.a(pthread_mutexattr_settype.o)
                              /x86/lib/libcpp.a(xmtx.o) (pthread_mutexattr_settype)
/x86/lib/libc.a(pthread_once.o)
                              /x86/lib/libcpp.a(xlock.o) (pthread_once)
/x86/lib/libc.a(malloc.o)     mock_generator.o (free)
/x86/lib/libc.a(util.o)       /x86/lib/libc.a(malloc.o) (malloc_abort)
/x86/lib/libc.a(_exit.o)      /x86/lib/libc.a(util.o) (_exit)
/x86/lib/libc.a(abort.o)      /x86/lib/libcpp.a(exceptio.o) (abort)
/x86/lib/libc.a(atexit.o)     /x86/lib/crt1.o (atexit)
/x86/lib/libc.a(exit.o)       /x86/lib/crt1.o (exit)
/x86/lib/libc.a(localeco.o)   mock_generator.o (_Locale)
/x86/lib/libc.a(mbrtowc.o)    /x86/lib/libcpp.a(wlocale.o) (mbrtowc)
/x86/lib/libc.a(raise.o)      /x86/lib/libc.a(abort.o) (raise)
/x86/lib/libc.a(setlocal.o)   /x86/lib/libcpp.a(locale.o) (setlocale)
/x86/lib/libc.a(wcrtomb.o)    /x86/lib/libcpp.a(wlocale.o) (wcrtomb)
/x86/lib/libc.a(xbtowc.o)     /x86/lib/libcpp.a(wlocale.o) (_Btowc)
/x86/lib/libc.a(xctype.o)     mock_generator.o (_Ctype)
/x86/lib/libc.a(xdefloc.o)    /x86/lib/libc.a(setlocal.o) (_Defloc)
/x86/lib/libc.a(xdscale.o)    /x86/lib/libm.a(sqrt.o) (_Dscale)
/x86/lib/libc.a(xdunscal.o)   /x86/lib/libm.a(sqrt.o) (_Dunscale)
/x86/lib/libc.a(xferaise.o)   /x86/lib/libm.a(sqrt.o) (_Feraise)
/x86/lib/libc.a(xgetloc.o)    /x86/lib/libc.a(setlocal.o) (_Getloc)
/x86/lib/libc.a(xmakeloc.o)   /x86/lib/libc.a(xgetloc.o) (_Makeloc)
/x86/lib/libc.a(xmakesta.o)   /x86/lib/libc.a(xmakeloc.o) (_Makestab)
/x86/lib/libc.a(xmakewct.o)   /x86/lib/libc.a(xmakeloc.o) (_Makewct)
/x86/lib/libc.a(xmbtowc.o)    /x86/lib/libc.a(mbrtowc.o) (_Mbtowc)
/x86/lib/libc.a(xreadloc.o)   /x86/lib/libc.a(xgetloc.o) (_Readloc)
/x86/lib/libc.a(xsetloc.o)    /x86/lib/libc.a(setlocal.o) (_Setloc)
/x86/lib/libc.a(xstate.o)     /x86/lib/libcpp.a(wlocale.o) (_Mbcurmax)
/x86/lib/libc.a(xstod.o)      /x86/lib/libcpp.a(locale.o) (_Stod)
/x86/lib/libc.a(xstof.o)      /x86/lib/libcpp.a(locale.o) (_Stof)
/x86/lib/libc.a(xstoflt.o)    /x86/lib/libc.a(xstod.o) (_Stoflt)
/x86/lib/libc.a(xstold.o)     /x86/lib/libcpp.a(locale.o) (_Stold)
/x86/lib/libc.a(xstopfx.o)    /x86/lib/libc.a(xstod.o) (_Stopfx)
/x86/lib/libc.a(xstoxflt.o)   /x86/lib/libc.a(xstod.o) (_Stoxflt)
/x86/lib/libc.a(xtolotab.o)   mock_generator.o (_Tolotab)
/x86/lib/libc.a(xtouptab.o)   mock_generator.o (_Touptab)
/x86/lib/libc.a(xvalues.o)    /x86/lib/libc.a(xdscale.o) (_Inf)
/x86/lib/libc.a(xwctomb.o)    /x86/lib/libc.a(wcrtomb.o) (_Wctomb)
/x86/lib/libc.a(xwctrtab.o)   /x86/lib/libc.a(setlocal.o) (_Wctrans)
/x86/lib/libc.a(xwctytab.o)   /x86/lib/libc.a(setlocal.o) (_Wctype)
/x86/lib/libc.a(ChannelCreate.o)
                              main.o (ChannelCreate)
/x86/lib/libc.a(ConnectAttach.o)
                              mock_generator.o (ConnectAttach)
/x86/lib/libc.a(MsgReceive.o)
                              mock_generator.o (MsgReceive)
/x86/lib/libc.a(MsgReply.o)   mock_generator.o (MsgReply)
/x86/lib/libc.a(SignalKill.o)
                              /x86/lib/libc.a(raise.o) (SignalKill)
/x86/lib/libc.a(SyncDestroy_r.o)
                              /x86/lib/libc.a(pthread_mutex_destroy.o) (SyncDestroy_r)
/x86/lib/libc.a(SyncMutexUnlock_r.o)
                              /x86/lib/libc.a(pthread_mutex_unlock.o) (SyncMutexUnlock_r)
/x86/lib/libc.a(SyncMutexLock_r.o)
                              /x86/lib/libc.a(pthread_mutex_lock.o) (SyncMutexLock_r)
/x86/lib/libc.a(SyncTypeCreate_r.o)
                              /x86/lib/libc.a(pthread_mutex_init.o) (SyncTypeCreate_r)
/x86/lib/libc.a(__ker_err.o)  /x86/lib/libc.a(ChannelCreate.o) (__ker_err)
/x86/lib/libc.a(gettid.o)     /x86/lib/libc.a(raise.o) (gettid)
/x86/lib/libc.a(spawnl.o)     main.o (spawnl)
/x86/lib/libc.a(spawnve.o)    /x86/lib/libc.a(spawnl.o) (spawnve)
/x86/lib/libc.a(slog.o)       generator_logger.o (vslogf)
/x86/lib/libc.a(fclose.o)     /x86/lib/libcpp.a(iostream.o) (fclose)
/x86/lib/libc.a(fflush.o)     /x86/lib/libcpp.a(iostream.o) (fflush)
/x86/lib/libc.a(fgetc.o)      /x86/lib/libcpp.a(iostream.o) (fgetc)
/x86/lib/libc.a(fgetpos.o)    /x86/lib/libcpp.a(iostream.o) (fgetpos)
/x86/lib/libc.a(fgets.o)      /x86/lib/libc.a(xreadloc.o) (fgets)
/x86/lib/libc.a(fileno.o)     /x86/lib/libc.a(fclose.o) (fileno)
/x86/lib/libc.a(flockfile.o)  /x86/lib/libc.a(fclose.o) (_stdio_mutex)
/x86/lib/libc.a(fopen.o)      /x86/lib/libc.a(xgetloc.o) (fopen)
/x86/lib/libc.a(fputc.o)      /x86/lib/libcpp.a(iostream.o) (fputc)
/x86/lib/libc.a(fputs.o)      /x86/lib/libc.a(xgetloc.o) (fputs)
/x86/lib/libc.a(fseek.o)      /x86/lib/libcpp.a(iostream.o) (fseek)
/x86/lib/libc.a(fsetpos.o)    /x86/lib/libcpp.a(iostream.o) (fsetpos)
/x86/lib/libc.a(funlockfile.o)
                              /x86/lib/libc.a(fclose.o) (funlockfile)
/x86/lib/libc.a(fwrite.o)     /x86/lib/libcpp.a(iostream.o) (fwrite)
/x86/lib/libc.a(setvbuf.o)    /x86/lib/libcpp.a(iostream.o) (setvbuf)
/x86/lib/libc.a(sprintf.o)    mock_generator.o (sprintf)
/x86/lib/libc.a(strerror.o)   mock_generator.o (strerror)
/x86/lib/libc.a(ungetc.o)     /x86/lib/libcpp.a(iostream.o) (ungetc)
/x86/lib/libc.a(vsnprintf.o)  /x86/lib/libc.a(slog.o) (vsnprintf)
/x86/lib/libc.a(vsprintf.o)   /x86/lib/libc.a(util.o) (vsprintf)
/x86/lib/libc.a(xfgpos.o)     /x86/lib/libc.a(fgetpos.o) (_Fgpos)
/x86/lib/libc.a(xfiles.o)     /x86/lib/libcpp.a(iostream.o) (_Stdin)
/x86/lib/libc.a(xfrprep.o)    /x86/lib/libc.a(fgetc.o) (_Frprep)
/x86/lib/libc.a(xfspos.o)     /x86/lib/libc.a(fseek.o) (_Fspos)
/x86/lib/libc.a(xfwprep.o)    /x86/lib/libc.a(fputc.o) (_Fwprep)
/x86/lib/libc.a(xprintf.o)    /x86/lib/libc.a(sprintf.o) (_Printf)
/x86/lib/libc.a(xputfld.o)    /x86/lib/libc.a(xprintf.o) (_Putfld)
/x86/lib/libc.a(xputstr.o)    /x86/lib/libc.a(xputfld.o) (_Putstr)
/x86/lib/libc.a(xputtxt.o)    /x86/lib/libc.a(xprintf.o) (_Puttxt)
/x86/lib/libc.a(xsnprout.o)   /x86/lib/libc.a(vsnprintf.o) (_Snprout)
/x86/lib/libc.a(xsprout.o)    /x86/lib/libc.a(sprintf.o) (_Sprout)
/x86/lib/libc.a(atoi.o)       main.o (atoi)
/x86/lib/libc.a(itoa.o)       mock_generator.o (itoa)
/x86/lib/libc.a(ltoa.o)       /x86/lib/libc.a(itoa.o) (ltoa)
/x86/lib/libc.a(memchr.o)     mock_generator.o (memchr)
/x86/lib/libc.a(memcmp.o)     /x86/lib/libcpp.a(locale.o) (memcmp)
/x86/lib/libc.a(memcpy.o)     generator_logger.o (memcpy)
/x86/lib/libc.a(memmove.o)    generator_logger.o (memmove)
/x86/lib/libc.a(memset.o)     /x86/lib/libcpp.a(iostream.o) (memset)
/x86/lib/libc.a(strcat.o)     /x86/lib/libc.a(xdefloc.o) (strcat)
/x86/lib/libc.a(strchr.o)     /x86/lib/libc.a(xmakeloc.o) (strchr)
/x86/lib/libc.a(strcmp.o)     /usr/lib/gcc-lib/ntox86/2.95.3/exceptions/libgcc.a(_eh.o) (strcmp)
/x86/lib/libc.a(strcoll.o)    /x86/lib/libcpp.a(xlocale.o) (strcoll)
/x86/lib/libc.a(strcpy.o)     /x86/lib/libc.a(setlocal.o) (strcpy)
/x86/lib/libc.a(strcspn.o)    mock_generator.o (strcspn)
/x86/lib/libc.a(strdup.o)     /x86/lib/libc.a(xdefloc.o) (strdup)
/x86/lib/libc.a(strlen.o)     generator_logger.o (strlen)
/x86/lib/libc.a(strncmp.o)    /x86/lib/libc.a(xreadloc.o) (strncmp)
/x86/lib/libc.a(strrchr.o)    /x86/lib/libc.a(xmakeloc.o) (strrchr)
/x86/lib/libc.a(strspn.o)     /x86/lib/libc.a(xgetloc.o) (strspn)
/x86/lib/libc.a(strtol.o)     /x86/lib/libcpp.a(locale.o) (strtol)
/x86/lib/libc.a(strtoll.o)    /x86/lib/libcpp.a(locale.o) (strtoll)
/x86/lib/libc.a(strtoul.o)    /x86/lib/libcpp.a(locale.o) (strtoul)
/x86/lib/libc.a(strtoull.o)   /x86/lib/libcpp.a(locale.o) (strtoull)
/x86/lib/libc.a(strxfrm.o)    /x86/lib/libcpp.a(xlocale.o) (strxfrm)
/x86/lib/libc.a(ultoa.o)      /x86/lib/libc.a(ltoa.o) (ultoa)
/x86/lib/libc.a(wcscoll.o)    /x86/lib/libcpp.a(wlocale.o) (wcscoll)
/x86/lib/libc.a(wcslen.o)     /x86/lib/libcpp.a(wlocale.o) (wcslen)
/x86/lib/libc.a(wcsxfrm.o)    /x86/lib/libcpp.a(wlocale.o) (wcsxfrm)
/x86/lib/libc.a(wmemcmp.o)    /x86/lib/libc.a(wcscoll.o) (wmemcmp)
/x86/lib/libc.a(wmemcpy.o)    generator_logger.o (wmemcpy)
/x86/lib/libc.a(wmemmove.o)   generator_logger.o (wmemmove)
/x86/lib/libc.a(wmemset.o)    /x86/lib/libcpp.a(wlocale.o) (wmemset)
/x86/lib/libc.a(xstrxfrm.o)   /x86/lib/libc.a(strcoll.o) (_CStrxfrm)
/x86/lib/libc.a(xwcsxfrm.o)   /x86/lib/libc.a(wcscoll.o) (_CWcsxfrm)
/x86/lib/libc.a(__cleanup.o)  /x86/lib/libc.a(fclose.o) (__cleanup_push)
/x86/lib/libc.a(__get_errno_ptr.o)
                              mock_generator.o (__get_errno_ptr)
/x86/lib/libc.a(__stackavail.o)
                              /x86/lib/libc.a(slog.o) (__stackavail)
/x86/lib/libc.a(__tls.o)      /x86/lib/libc.a(pthread_once.o) (__tls)
/x86/lib/libc.a(_init_libc.o)
                              /x86/lib/crt1.o (_init_libc)
/x86/lib/libc.a(_math_emu_stub.o)
                              /x86/lib/libc.a(_init_libc.o) (_math_emu_stub)
/x86/lib/libc.a(_math_emu_callout.o)
                              /x86/lib/libc.a(_math_emu_stub.o) (_emulator_callout)
/x86/lib/libc.a(asctime.o)    /x86/lib/libcpp.a(locale.o) (_Times)
/x86/lib/libc.a(time.o)       mock_generator.o (time)
/x86/lib/libc.a(xstrftim.o)   /x86/lib/libcpp.a(wlocale.o) (_CStrftime)
/x86/lib/libc.a(xtzset.o)     /x86/lib/libc.a(xstrftim.o) (_Tzset)
/x86/lib/libc.a(sys_err.o)    /x86/lib/libc.a(strerror.o) (sys_errlist)
/x86/lib/libc.a(random.o)     mock_generator.o (random)
/x86/lib/libc.a(close.o)      /x86/lib/libc.a(fclose.o) (close)
/x86/lib/libc.a(lseek.o)      /x86/lib/libc.a(xfgpos.o) (lseek64)
/x86/lib/libc.a(open.o)       /x86/lib/libc.a(slog.o) (open)
/x86/lib/libc.a(read.o)       /x86/lib/libc.a(xfrprep.o) (read)
/x86/lib/libc.a(sigaction.o)  /x86/lib/libc.a(abort.o) (sigaction)
/x86/lib/libc.a(sigdelset.o)  /x86/lib/libc.a(abort.o) (sigdelset)
/x86/lib/libc.a(sigfillset.o)
                              /x86/lib/libc.a(abort.o) (sigfillset)
/x86/lib/libc.a(sigstub.o)    /x86/lib/libc.a(sigaction.o) (__signalstub)
/x86/lib/libc.a(sysconf.o)    /x86/lib/libc.a(malloc.o) (sysconf)
/x86/lib/libc.a(waitpid.o)    /x86/lib/libc.a(spawnve.o) (waitpid)
/x86/lib/libc.a(write.o)      /x86/lib/libc.a(util.o) (write)
/x86/lib/libc.a(confstr.o)    /x86/lib/libc.a(xdefloc.o) (confstr)
/x86/lib/libc.a(__my_thread_exit.o)
                              /x86/lib/libc.a(_init_libc.o) (__my_thread_exit)
/x86/lib/libc.a(pthread_cond_broadcast.o)
                              /x86/lib/libc.a(funlockfile.o) (pthread_cond_broadcast)
/x86/lib/libc.a(pthread_cond_wait.o)
                              /x86/lib/libc.a(flockfile.o) (pthread_cond_wait)
/x86/lib/libc.a(pthread_exit.o)
                              /x86/lib/libc.a(__my_thread_exit.o) (pthread_exit)
/x86/lib/libc.a(pthread_key_data.o)
                              /x86/lib/libc.a(pthread_exit.o) (_key_count)
/x86/lib/libc.a(pthread_self.o)
                              /x86/lib/libc.a(flockfile.o) (pthread_self)
/x86/lib/libc.a(pthread_sigmask.o)
                              /x86/lib/libc.a(abort.o) (pthread_sigmask)
/x86/lib/libc.a(amblksiz.o)   /x86/lib/libc.a(malloc.o) (_amblksiz)
/x86/lib/libc.a(band.o)       /x86/lib/libc.a(malloc.o) (_band_get_aligned)
/x86/lib/libc.a(compat.o)     /x86/lib/libc.a(malloc.o) (mprobe)
/x86/lib/libc.a(dlist.o)      /x86/lib/libc.a(util.o) (_malloc_check_fd)
/x86/lib/libc.a(malloc-config.o)
                              /x86/lib/libc.a(malloc.o) (__Bands)
/x86/lib/libc.a(__exit.o)     /x86/lib/libc.a(_exit.o) (__exit)
/x86/lib/libc.a(_atexit.o)    /x86/lib/libc.a(atexit.o) (_atexit_list)
/x86/lib/libc.a(_cleanup.o)   /x86/lib/libc.a(exit.o) (_cleanup)
/x86/lib/libc.a(getenv.o)     /x86/lib/libc.a(xdefloc.o) (getenv)
/x86/lib/libc.a(xdnorm.o)     /x86/lib/libc.a(xdscale.o) (_Dnorm)
/x86/lib/libc.a(xdtento.o)    /x86/lib/libc.a(xstod.o) (_Dtento)
/x86/lib/libc.a(xfdscale.o)   /x86/lib/libc.a(xstof.o) (_FDscale)
/x86/lib/libc.a(xfdtento.o)   /x86/lib/libc.a(xstof.o) (_FDtento)
/x86/lib/libc.a(xfdunsca.o)   /x86/lib/libc.a(xfdtento.o) (_FDunscale)
/x86/lib/libc.a(xfreeloc.o)   /x86/lib/libc.a(xgetloc.o) (_Freeloc)
/x86/lib/libc.a(xfvalues.o)   /x86/lib/libc.a(xstof.o) (_FInf)
/x86/lib/libc.a(xldscale.o)   /x86/lib/libc.a(xstold.o) (_LDscale)
/x86/lib/libc.a(xldtento.o)   /x86/lib/libc.a(xstold.o) (_LDtento)
/x86/lib/libc.a(xldunsca.o)   /x86/lib/libc.a(xldtento.o) (_LDunscale)
/x86/lib/libc.a(xloctab.o)    /x86/lib/libc.a(xreadloc.o) (_Loctab)
/x86/lib/libc.a(xlocterm.o)   /x86/lib/libc.a(xmakeloc.o) (_Locvar)
/x86/lib/libc.a(xlvalues.o)   /x86/lib/libc.a(xstold.o) (_LInf)
/x86/lib/libc.a(xstoint.o)    /x86/lib/libc.a(atoi.o) (_Stoint)
/x86/lib/libc.a(ClockTime_r.o)
                              /x86/lib/libc.a(time.o) (ClockTime_r)
/x86/lib/libc.a(ConnectDetach_r.o)
                              /x86/lib/libc.a(close.o) (ConnectDetach_r)
/x86/lib/libc.a(MsgSend.o)    /x86/lib/libc.a(close.o) (MsgSend)
/x86/lib/libc.a(MsgSendnc_r.o)
                              /x86/lib/libc.a(sysconf.o) (MsgSendnc_r)
/x86/lib/libc.a(MsgSendv.o)   /x86/lib/libc.a(slog.o) (MsgSendv)
/x86/lib/libc.a(MsgSendvnc_r.o)
                              /x86/lib/libc.a(confstr.o) (MsgSendvnc_r)
/x86/lib/libc.a(SignalAction.o)
                              /x86/lib/libc.a(sigaction.o) (SignalAction)
/x86/lib/libc.a(SignalProcmask_r.o)
                              /x86/lib/libc.a(pthread_sigmask.o) (SignalProcmask_r)
/x86/lib/libc.a(SyncCondvarSignal_r.o)
                              /x86/lib/libc.a(pthread_cond_broadcast.o) (SyncCondvarSignal_r)
/x86/lib/libc.a(SyncCondvarWait_r.o)
                              /x86/lib/libc.a(pthread_cond_wait.o) (SyncCondvarWait_r)
/x86/lib/libc.a(ThreadDestroy.o)
                              /x86/lib/libc.a(__exit.o) (ThreadDestroy)
/x86/lib/libc.a(ThreadDestroy_r.o)
                              /x86/lib/libc.a(pthread_exit.o) (ThreadDestroy_r)
/x86/lib/libc.a(__SysCpupageGet.o)
                              /x86/lib/libc.a(_init_libc.o) (__SysCpupageGet)
/x86/lib/libc.a(__SysCpupageSet.o)
                              /x86/lib/libc.a(_init_libc.o) (__SysCpupageSet)
/x86/lib/libc.a(spawn.o)      /x86/lib/libc.a(spawnve.o) (spawn)
/x86/lib/libc.a(sysmgr_confstr_set.o)
                              /x86/lib/libc.a(confstr.o) (sysmgr_confstr_set)
/x86/lib/libc.a(_fsopen.o)    /x86/lib/libc.a(fopen.o) (_fsopen)
/x86/lib/libc.a(fdopen.o)     /x86/lib/libc.a(_fsopen.o) (fdopen)
/x86/lib/libc.a(fprintf.o)    /x86/lib/libc.a(random.o) (fprintf)
/x86/lib/libc.a(xfbuf.o)      /x86/lib/libc.a(xfrprep.o) (_Fbuf)
/x86/lib/libc.a(xfprout.o)    /x86/lib/libc.a(fprintf.o) (_Fprout)
/x86/lib/libc.a(xldtob.o)     /x86/lib/libc.a(xputfld.o) (_Ldtob)
/x86/lib/libc.a(xlitob.o)     /x86/lib/libc.a(xputfld.o) (_Litob)
/x86/lib/libc.a(ulltoa.o)     /x86/lib/libc.a(ultoa.o) (ulltoa)
/x86/lib/libc.a(_conf_get.o)  /x86/lib/libc.a(sysconf.o) (_conf_get)
/x86/lib/libc.a(_math_emu_load.o)
                              /x86/lib/libc.a(_math_emu_callout.o) (_math_emulator)
/x86/lib/libc.a(_vopen.o)     /x86/lib/libc.a(open.o) (_vopen)
/x86/lib/libc.a(localtim.o)   /x86/lib/libc.a(xtzset.o) (_Tzoff)
/x86/lib/libc.a(xgentime.o)   /x86/lib/libc.a(xstrftim.o) (_Gentime)
/x86/lib/libc.a(xgetdst.o)    /x86/lib/libc.a(xtzset.o) (__getsecs)
/x86/lib/libc.a(xgetrules.o)  /x86/lib/libc.a(xtzset.o) (_Getrules)
/x86/lib/libc.a(xgettime.o)   /x86/lib/libc.a(xtzset.o) (_Gettime)
/x86/lib/libc.a(xgetzone.o)   /x86/lib/libc.a(localtim.o) (_Getzone)
/x86/lib/libc.a(xttotm.o)     /x86/lib/libc.a(localtim.o) (_Ttotm)
/x86/lib/libc.a(wait4.o)      /x86/lib/libc.a(waitpid.o) (wait4)
/x86/lib/libc.a(waitid.o)     /x86/lib/libc.a(wait4.o) (waitid)
/x86/lib/libc.a(fork.o)       /x86/lib/libc.a(getenv.o) (pthread_atfork_mutex)
/x86/lib/libc.a(getpgrp.o)    /x86/lib/libc.a(waitpid.o) (getpgrp)
/x86/lib/libc.a(isatty.o)     /x86/lib/libc.a(xfbuf.o) (isatty)
/x86/lib/libc.a(core.o)       /x86/lib/libc.a(dlist.o) (morecore)
/x86/lib/libc.a(_findenv.o)   /x86/lib/libc.a(getenv.o) (_findenv)
/x86/lib/libc.a(ldiv.o)       /x86/lib/libc.a(xldtob.o) (ldiv)
/x86/lib/libc.a(xfdnorm.o)    /x86/lib/libc.a(xfdscale.o) (_FDnorm)
/x86/lib/libc.a(xldnorm.o)    /x86/lib/libc.a(xldscale.o) (_LDnorm)
/x86/lib/libc.a(ConnectDetach.o)
                              /x86/lib/libc.a(spawn.o) (ConnectDetach)
/x86/lib/libc.a(MsgSendnc.o)  /x86/lib/libc.a(fork.o) (MsgSendnc)
/x86/lib/libc.a(MsgSendvnc.o)
                              /x86/lib/libc.a(spawn.o) (MsgSendvnc)
/x86/lib/libc.a(sopen.o)      /x86/lib/libc.a(_fsopen.o) (sopen)
/x86/lib/libc.a(__fpinit.o)   /x86/lib/libc.a(fdopen.o) (__fpinit)
/x86/lib/libc.a(__parse_oflag.o)
                              /x86/lib/libc.a(_fsopen.o) (__parse_oflag)
/x86/lib/libc.a(xgenld.o)     /x86/lib/libc.a(xldtob.o) (_Genld)
/x86/lib/libc.a(strncpy.o)    /x86/lib/libc.a(_conf_get.o) (strncpy)
/x86/lib/libc.a(_connect.o)   /x86/lib/libc.a(_vopen.o) (_connect)
/x86/lib/libc.a(_connect_entry.o)
                              /x86/lib/libc.a(_connect.o) (_connect_entry)
/x86/lib/libc.a(_connect_ctrl.o)
                              /x86/lib/libc.a(_connect_entry.o) (_connect_ctrl)
/x86/lib/libc.a(_devctl.o)    /x86/lib/libc.a(isatty.o) (_devctl)
/x86/lib/libc.a(xisdst.o)     /x86/lib/libc.a(xttotm.o) (_Isdst)
/x86/lib/libc.a(mmap.o)       /x86/lib/libc.a(core.o) (mmap)
/x86/lib/libc.a(munmap.o)     /x86/lib/libc.a(core.o) (munmap)
/x86/lib/libc.a(div.o)        /x86/lib/libc.a(xgenld.o) (div)
/x86/lib/libc.a(ConnectFlags_r.o)
                              /x86/lib/libc.a(_connect_ctrl.o) (ConnectFlags_r)
/x86/lib/libc.a(procmgr_session.o)
                              /x86/lib/libc.a(_connect_ctrl.o) (procmgr_session)
/x86/lib/libc.a(__fpbufinit.o)
                              /x86/lib/libc.a(__fpinit.o) (__fpbufinit)
/usr/lib/gcc-lib/ntox86/2.95.3/exceptions/libgcc.a(_divdi3.o)
                              /x86/lib/libc.a(xlitob.o) (__divdi3)
/usr/lib/gcc-lib/ntox86/2.95.3/exceptions/libgcc.a(_moddi3.o)
                              /x86/lib/libc.a(xlitob.o) (__moddi3)
/usr/lib/gcc-lib/ntox86/2.95.3/exceptions/libgcc.a(_umoddi3.o)
                              /x86/lib/libc.a(xstoint.o) (__umoddi3)

Allocating common symbols
Common symbol       size              file

std::time_get<wchar_t, std::istreambuf_iterator<wchar_t, std::char_traits<wchar_t> > >::id
                    0x4               /x86/lib/libcpp.a(wlocale.o)
_argv               0x4               /x86/lib/libc.a(_init_libc.o)
__sn_Q23stdt10moneypunct2Zcb1.id
                    0x4               /x86/lib/libcpp.a(xlocale.o)
__func_type_info type_info node
                    0xc               /usr/lib/gcc-lib/ntox86/2.95.3/exceptions/libgcc.a(tinfo2.o)
__sn_Q23stdt10moneypunct2Zwb1.id
                    0x4               /x86/lib/libcpp.a(wlocale.o)
__attr_type_info type_info node
                    0xc               /usr/lib/gcc-lib/ntox86/2.95.3/exceptions/libgcc.a(tinfo2.o)
daylight            0x4               /x86/lib/libc.a(xtzset.o)
std::money_put<char, std::ostreambuf_iterator<char, std::char_traits<char> > > type_info node
                    0xc               /x86/lib/libcpp.a(xlocale.o)
std::basic_istream<char, std::char_traits<char> > type_info node
                    0x10              /x86/lib/libcpp.a(iostream.o)
std::collate<wchar_t>::id
                    0x4               /x86/lib/libcpp.a(wlocale.o)
_sysconf_list       0x4               /x86/lib/libc.a(sysconf.o)
_Wcstate            0x40              /x86/lib/libc.a(xstate.o)
_connect_malloc     0x1               /x86/lib/libc.a(_connect_ctrl.o)
__sn_Q23stdt8time_put2ZcZQ23stdt19ostreambuf_iterator2ZcZQ23stdt11char_traits1Zc.id
                    0x4               /x86/lib/libcpp.a(xlocale.o)
__sn_Q23stdt5ctype1Zw.id
                    0x4               /x86/lib/libcpp.a(wlocale.o)
__sn_Q23stdt8time_get2ZwZQ23stdt19istreambuf_iterator2ZwZQ23stdt11char_traits1Zw.id
                    0x4               /x86/lib/libcpp.a(wlocale.o)
errno               0x4               /x86/lib/libc.a(_init_libc.o)
std::codecvt_base type_info node
                    0xc               /x86/lib/libcpp.a(locale.o)
std::moneypunct<wchar_t, false> type_info node
                    0xc               /x86/lib/libcpp.a(wlocale.o)
bad_typeid type_info node
                    0xc               /usr/lib/gcc-lib/ntox86/2.95.3/exceptions/libgcc.a(tinfo.o)
std::ctype<char> type_info node
                    0xc               mock_generator.o
_Mbstate            0x40              /x86/lib/libc.a(xstate.o)
std::locale::_Locimp type_info node
                    0xc               /x86/lib/libcpp.a(locale0.o)
std::money_get<wchar_t, std::istreambuf_iterator<wchar_t, std::char_traits<wchar_t> > >::id
                    0x4               /x86/lib/libcpp.a(wlocale.o)
std::bad_cast type_info node
                    0xc               mock_generator.o
__sn_Q23stdt8time_put2ZwZQ23stdt19ostreambuf_iterator2ZwZQ23stdt11char_traits1Zw.id
                    0x4               /x86/lib/libcpp.a(wlocale.o)
std::messages<wchar_t>::id
                    0x4               /x86/lib/libcpp.a(wlocale.o)
_syspage_ptr        0x4               /x86/lib/libc.a(_init_libc.o)
_auxv               0x4               /x86/lib/libc.a(_init_libc.o)
std::collate<wchar_t> type_info node
                    0xc               /x86/lib/libcpp.a(wlocale.o)
std::codecvt<wchar_t, char, _Mbstatet> type_info node
                    0xc               /x86/lib/libcpp.a(wlocale.o)
_WCostate           0x40              /x86/lib/libc.a(xstate.o)
__sn_Q23stdt7codecvt3ZcZcZ9_Mbstatet.id
                    0x4               /x86/lib/libcpp.a(locale.o)
std::_Mpunct<char> type_info node
                    0xc               /x86/lib/libcpp.a(xlocale.o)
std::moneypunct<char, false>::id
                    0x4               /x86/lib/libcpp.a(xlocale.o)
bad_cast type_info node
                    0xc               /usr/lib/gcc-lib/ntox86/2.95.3/exceptions/libgcc.a(tinfo.o)
std::locale::facet type_info node
                    0x8               mock_generator.o
__sn_Q23stdt8time_get2ZcZQ23stdt19istreambuf_iterator2ZcZQ23stdt11char_traits1Zc.id
                    0x4               /x86/lib/libcpp.a(xlocale.o)
std::messages<char>::id
                    0x4               /x86/lib/libcpp.a(xlocale.o)
std::time_get<char, std::istreambuf_iterator<char, std::char_traits<char> > >::id
                    0x4               /x86/lib/libcpp.a(xlocale.o)
std::numpunct<char> type_info node
                    0xc               mock_generator.o
__sn_Q23stdt7collate1Zw.id
                    0x4               /x86/lib/libcpp.a(wlocale.o)
_malloc_fill_area   0x4               /x86/lib/libc.a(malloc.o)
_pthread_atfork_parent
                    0x4               /x86/lib/libc.a(fork.o)
tzname              0x8               /x86/lib/libc.a(xtzset.o)
std::basic_stringbuf<char, std::char_traits<char>, std::allocator<char> > type_info node
                    0xc               mock_generator.o
_confstr_list       0x4               /x86/lib/libc.a(confstr.o)
_Multi_threaded     0x4               /x86/lib/libc.a(_init_libc.o)
std::_Iosb<int> type_info node
                    0x8               /x86/lib/libcpp.a(ios.o)
std::exception type_info node
                    0x8               /x86/lib/libcpp.a(gccex.o)
std::numpunct<wchar_t>::id
                    0x4               /x86/lib/libcpp.a(wlocale.o)
std::runtime_error type_info node
                    0xc               /x86/lib/libcpp.a(ios.o)
std::ctype_base type_info node
                    0xc               mock_generator.o
std::collate<char>::id
                    0x4               /x86/lib/libcpp.a(xlocale.o)
std::num_get<wchar_t, std::istreambuf_iterator<wchar_t, std::char_traits<wchar_t> > > type_info node
                    0xc               /x86/lib/libcpp.a(wlocale.o)
environ             0x4               /x86/lib/libc.a(_init_libc.o)
_malloc_stats       0x3c              /x86/lib/libc.a(malloc.o)
std::messages_base type_info node
                    0xc               /x86/lib/libcpp.a(wlocale.o)
__ptmf_type_info type_info node
                    0xc               /usr/lib/gcc-lib/ntox86/2.95.3/exceptions/libgcc.a(tinfo2.o)
__sn_Q23stdt7num_get2ZcZQ23stdt19istreambuf_iterator2ZcZQ23stdt11char_traits1Zc.id
                    0x4               /x86/lib/libcpp.a(locale.o)
std::length_error type_info node
                    0xc               mock_generator.o
std::fpos<_Mbstatet>::_Stz
                    0x8               mock_generator.o
__sn_Q23stdt8numpunct1Zc.id
                    0x4               mock_generator.o
std::numpunct<wchar_t> type_info node
                    0xc               /x86/lib/libcpp.a(wlocale.o)
__array_type_info type_info node
                    0xc               /usr/lib/gcc-lib/ntox86/2.95.3/exceptions/libgcc.a(tinfo2.o)
std::money_base type_info node
                    0xc               /x86/lib/libcpp.a(wlocale.o)
type_info type_info node
                    0x8               /usr/lib/gcc-lib/ntox86/2.95.3/exceptions/libgcc.a(tinfo.o)
__sn_Q23stdt10moneypunct2Zcb0.id
                    0x4               /x86/lib/libcpp.a(xlocale.o)
__progname          0x4               /x86/lib/libc.a(_init_libc.o)
timezone            0x4               /x86/lib/libc.a(xtzset.o)
__sn_Q23stdt9money_put2ZwZQ23stdt19ostreambuf_iterator2ZwZQ23stdt11char_traits1Zw.id
                    0x4               /x86/lib/libcpp.a(wlocale.o)
std::numpunct<char>::id
                    0x4               mock_generator.o
__sn_Q23stdt9money_get2ZwZQ23stdt19istreambuf_iterator2ZwZQ23stdt11char_traits1Zw.id
                    0x4               /x86/lib/libcpp.a(wlocale.o)
__sn_Q23stdt8numpunct1Zw.id
                    0x4               /x86/lib/libcpp.a(wlocale.o)
__sn_Q23stdt7num_put2ZwZQ23stdt19ostreambuf_iterator2ZwZQ23stdt11char_traits1Zw.id
                    0x4               /x86/lib/libcpp.a(wlocale.o)
std::money_get<wchar_t, std::istreambuf_iterator<wchar_t, std::char_traits<wchar_t> > > type_info node
                    0xc               /x86/lib/libcpp.a(wlocale.o)
std::num_get<wchar_t, std::istreambuf_iterator<wchar_t, std::char_traits<wchar_t> > >::id
                    0x4               /x86/lib/libcpp.a(wlocale.o)
__cpu_flags         0x4               /x86/lib/libc.a(_init_libc.o)
std::messages<char> type_info node
                    0xc               /x86/lib/libcpp.a(xlocale.o)
std::time_put<wchar_t, std::ostreambuf_iterator<wchar_t, std::char_traits<wchar_t> > >::id
                    0x4               /x86/lib/libcpp.a(wlocale.o)
std::moneypunct<wchar_t, false>::id
                    0x4               /x86/lib/libcpp.a(wlocale.o)
std::num_get<char, std::istreambuf_iterator<char, std::char_traits<char> > > type_info node
                    0xc               /x86/lib/libcpp.a(locale.o)
_Costate            0x40              /x86/lib/libc.a(xstate.o)
std::ios_base type_info node
                    0xc               /x86/lib/libcpp.a(ios.o)
std::basic_filebuf<char, std::char_traits<char> > type_info node
                    0xc               /x86/lib/libcpp.a(iostream.o)
generator_exception type_info node
                    0x8               mock_generator.o
__pointer_type_info type_info node
                    0xc               /usr/lib/gcc-lib/ntox86/2.95.3/exceptions/libgcc.a(tinfo2.o)
std::time_get<wchar_t, std::istreambuf_iterator<wchar_t, std::char_traits<wchar_t> > > type_info node
                    0xc               /x86/lib/libcpp.a(wlocale.o)
std::num_get<char, std::istreambuf_iterator<char, std::char_traits<char> > >::id
                    0x4               /x86/lib/libcpp.a(locale.o)
std::ctype<wchar_t>::id
                    0x4               /x86/lib/libcpp.a(wlocale.o)
bad_exception type_info node
                    0xc               /usr/lib/gcc-lib/ntox86/2.95.3/exceptions/libgcc.a(exception.o)
std::_Mutex type_info node
                    0x8               mock_generator.o
exception type_info node
                    0x8               /usr/lib/gcc-lib/ntox86/2.95.3/exceptions/libgcc.a(exception.o)
std::basic_ios<char, std::char_traits<char> > type_info node
                    0xc               mock_generator.o
_pthread_atfork_prepare
                    0x4               /x86/lib/libc.a(fork.o)
__sn_Q23stdt9money_get2ZcZQ23stdt19istreambuf_iterator2ZcZQ23stdt11char_traits1Zc.id
                    0x4               /x86/lib/libcpp.a(xlocale.o)
std::codecvt<char, char, _Mbstatet>::id
                    0x4               /x86/lib/libcpp.a(locale.o)
std::collate<char> type_info node
                    0xc               /x86/lib/libcpp.a(xlocale.o)
__user_type_info type_info node
                    0xc               /usr/lib/gcc-lib/ntox86/2.95.3/exceptions/libgcc.a(tinfo.o)
_pthread_atfork_child
                    0x4               /x86/lib/libc.a(fork.o)
std::time_put<char, std::ostreambuf_iterator<char, std::char_traits<char> > >::id
                    0x4               /x86/lib/libcpp.a(xlocale.o)
std::num_put<wchar_t, std::ostreambuf_iterator<wchar_t, std::char_traits<wchar_t> > > type_info node
                    0xc               /x86/lib/libcpp.a(wlocale.o)
std::time_get<char, std::istreambuf_iterator<char, std::char_traits<char> > > type_info node
                    0xc               /x86/lib/libcpp.a(xlocale.o)
std::money_get<char, std::istreambuf_iterator<char, std::char_traits<char> > >::id
                    0x4               /x86/lib/libcpp.a(xlocale.o)
std::money_put<wchar_t, std::ostreambuf_iterator<wchar_t, std::char_traits<wchar_t> > >::id
                    0x4               /x86/lib/libcpp.a(wlocale.o)
__sn_Q23stdt7collate1Zc.id
                    0x4               /x86/lib/libcpp.a(xlocale.o)
std::out_of_range type_info node
                    0xc               /x86/lib/libcpp.a(string.o)
std::money_get<char, std::istreambuf_iterator<char, std::char_traits<char> > > type_info node
                    0xc               /x86/lib/libcpp.a(xlocale.o)
std::moneypunct<char, true>::id
                    0x4               /x86/lib/libcpp.a(xlocale.o)
std::codecvt<char, char, _Mbstatet> type_info node
                    0xc               /x86/lib/libcpp.a(locale.o)
std::money_put<char, std::ostreambuf_iterator<char, std::char_traits<char> > >::id
                    0x4               /x86/lib/libcpp.a(xlocale.o)
std::moneypunct<char, true> type_info node
                    0xc               /x86/lib/libcpp.a(xlocale.o)
__ptmd_type_info type_info node
                    0xc               /usr/lib/gcc-lib/ntox86/2.95.3/exceptions/libgcc.a(tinfo2.o)
std::num_put<char, std::ostreambuf_iterator<char, std::char_traits<char> > >::id
                    0x4               mock_generator.o
__sn_Q23stdt7num_put2ZcZQ23stdt19ostreambuf_iterator2ZcZQ23stdt11char_traits1Zc.id
                    0x4               mock_generator.o
std::_Mpunct<wchar_t> type_info node
                    0xc               /x86/lib/libcpp.a(wlocale.o)
std::moneypunct<wchar_t, true>::id
                    0x4               /x86/lib/libcpp.a(wlocale.o)
std::moneypunct<char, false> type_info node
                    0xc               /x86/lib/libcpp.a(xlocale.o)
std::bad_alloc type_info node
                    0xc               /x86/lib/libcpp.a(newaop.o)
std::num_put<wchar_t, std::ostreambuf_iterator<wchar_t, std::char_traits<wchar_t> > >::id
                    0x4               /x86/lib/libcpp.a(wlocale.o)
std::time_base type_info node
                    0xc               /x86/lib/libcpp.a(wlocale.o)
std::money_put<wchar_t, std::ostreambuf_iterator<wchar_t, std::char_traits<wchar_t> > > type_info node
                    0xc               /x86/lib/libcpp.a(wlocale.o)
std::moneypunct<wchar_t, true> type_info node
                    0xc               /x86/lib/libcpp.a(wlocale.o)
_pls                0x28              /x86/lib/libc.a(_init_libc.o)
std::logic_error type_info node
                    0xc               mock_generator.o
__si_type_info type_info node
                    0xc               /usr/lib/gcc-lib/ntox86/2.95.3/exceptions/libgcc.a(tinfo.o)
__sn_Q23stdt9money_put2ZcZQ23stdt19ostreambuf_iterator2ZcZQ23stdt11char_traits1Zc.id
                    0x4               /x86/lib/libcpp.a(xlocale.o)
std::basic_ostringstream<char, std::char_traits<char>, std::allocator<char> > type_info node
                    0x10              mock_generator.o
__sn_Q23stdt8messages1Zc.id
                    0x4               /x86/lib/libcpp.a(xlocale.o)
std::num_put<char, std::ostreambuf_iterator<char, std::char_traits<char> > > type_info node
                    0xc               mock_generator.o
__sn_Q23stdt8messages1Zw.id
                    0x4               /x86/lib/libcpp.a(wlocale.o)
std::basic_ostream<char, std::char_traits<char> > type_info node
                    0x10              mock_generator.o
_argc               0x4               /x86/lib/libc.a(_init_libc.o)
std::ios_base::failure type_info node
                    0xc               /x86/lib/libcpp.a(ios.o)
std::time_put<wchar_t, std::ostreambuf_iterator<wchar_t, std::char_traits<wchar_t> > > type_info node
                    0xc               /x86/lib/libcpp.a(wlocale.o)
__class_type_info type_info node
                    0xc               /usr/lib/gcc-lib/ntox86/2.95.3/exceptions/libgcc.a(tinfo.o)
__sn_Q23stdt7num_get2ZwZQ23stdt19istreambuf_iterator2ZwZQ23stdt11char_traits1Zw.id
                    0x4               /x86/lib/libcpp.a(wlocale.o)
std::basic_streambuf<char, std::char_traits<char> > type_info node
                    0xc               mock_generator.o
std::ctype<wchar_t> type_info node
                    0xc               /x86/lib/libcpp.a(wlocale.o)
__builtin_type_info type_info node
                    0xc               /usr/lib/gcc-lib/ntox86/2.95.3/exceptions/libgcc.a(tinfo2.o)
__sn_Q23stdt10moneypunct2Zwb0.id
                    0x4               /x86/lib/libcpp.a(wlocale.o)
std::messages<wchar_t> type_info node
                    0xc               /x86/lib/libcpp.a(wlocale.o)
_atexit_list        0x4               /x86/lib/libc.a(_atexit.o)
std::time_put<char, std::ostreambuf_iterator<char, std::char_traits<char> > > type_info node
                    0xc               /x86/lib/libcpp.a(xlocale.o)

Memory Configuration

Name             Origin             Length             Attributes
*default*        0x00000000         0xffffffff

Linker script and memory map

TARGET(elf32-i386)
LOAD /x86/lib/crt1.o
LOAD /x86/lib/crti.o
LOAD /usr/lib/gcc-lib/ntox86/2.95.3/crtbeginC++.o
LOAD generator_logger.o
LOAD mock_generator.o
LOAD main.o
LOAD /x86/lib/libm.a
LOAD /x86/lib/libcpp.a
LOAD /x86/lib/libcpp.a
LOAD /x86/lib/libm.a
LOAD /usr/lib/gcc-lib/ntox86/2.95.3/exceptions/libgcc.a
LOAD /x86/lib/libc.a
LOAD /x86/lib/libc.a
LOAD /usr/lib/gcc-lib/ntox86/2.95.3/exceptions/libgcc.a
LOAD /usr/lib/gcc-lib/ntox86/2.95.3/crtendC++.o
LOAD /x86/lib/crtn.o
                0x08048094                .=(0x8048000+SIZEOF_HEADERS)

.interp
 *(.interp)

.note0          0x08048094        0x0

.hash
 *(.hash)

.dynsym
 *(.dynsym)

.dynstr
 *(.dynstr)

.gnu.version
 *(.gnu.version)

.gnu.version_d
 *(.gnu.version_d)

.gnu.version_r
 *(.gnu.version_r)

.rel.init
 *(.rel.init)

.rela.init
 *(.rela.init)

.rel.text
 *(.rel.text)
 *(.rel.text.*)
 *(.rel.gnu.linkonce.t*)

.rela.text
 *(.rela.text)
 *(.rela.text.*)
 *(.rela.gnu.linkonce.t*)

.rel.fini
 *(.rel.fini)

.rela.fini
 *(.rela.fini)

.rel.rodata
 *(.rel.rodata)
 *(.rel.rodata.*)
 *(.rel.gnu.linkonce.r*)

.rela.rodata
 *(.rela.rodata)
 *(.rela.rodata.*)
 *(.rela.gnu.linkonce.r*)

.rel.data
 *(.rel.data)
 *(.rel.data.*)
 *(.rel.gnu.linkonce.d*)

.rela.data
 *(.rela.data)
 *(.rela.data.*)
 *(.rela.gnu.linkonce.d*)

.rel.ctors
 *(.rel.ctors)

.rela.ctors
 *(.rela.ctors)

.rel.dtors
 *(.rel.dtors)

.rela.dtors
 *(.rela.dtors)

.rel.got        0x08048094        0x0
 *(.rel.got)

.rela.got
 *(.rela.got)

.rel.sdata
 *(.rel.sdata)
 *(.rel.sdata.*)
 *(.rel.gnu.linkonce.s*)

.rela.sdata
 *(.rela.sdata)
 *(.rela.sdata.*)
 *(.rela.gnu.linkonce.s*)

.rel.sbss
 *(.rel.sbss)

.rela.sbss
 *(.rela.sbss)

.rel.bss
 *(.rel.bss)

.rela.bss
 *(.rela.bss)

.rel.plt
 *(.rel.plt)

.rela.plt
 *(.rela.plt)

.init           0x08048094        0xd
 *(.init)
 .init          0x08048094        0x5 /usr/lib/gcc-lib/ntox86/2.95.3/crtbeginC++.o
 .init          0x08048099        0x5 /usr/lib/gcc-lib/ntox86/2.95.3/crtendC++.o
 .init          0x0804809e        0x3 /x86/lib/crtn.o

.plt
 *(.plt)

.text           0x080480a4    0x46463
                0x080480a4                _btext=.
 *(.text)
 .text          0x080480a4       0x5f /x86/lib/crt1.o
                0x080480ac                _start
 *fill*         0x08048103        0x1 37008
 .text          0x08048104       0xce /usr/lib/gcc-lib/ntox86/2.95.3/crtbeginC++.o
 *fill*         0x080481d2        0x2 37008
 .text          0x080481d4      0x2a7 generator_logger.o
                0x080481d4                generator_logger::log_message(generator_logger::message_type, std::basic_string<char, std::char_traits<char>, std::allocator<char> >)
                0x080483e4                generator_logger::get_instance(void)
 *fill*         0x0804847b        0x1 37008
 .text          0x0804847c     0x5266 mock_generator.o
                0x0804885c                mock_generator::get_instance(void)
                0x0804908c                mock_generator::html_format_results_outputter(void)
                0x0804d37c                mock_generator::generate_pri_command_request_to_free(mock_generator::call_parameters)
                0x0804d0a4                mock_generator::generate_pri_command_request_to_occupate(int, bool)
                0x0804b198                mock_generator::run(int)
                0x0804847c                mock_generator::mock_generator(void)
                0x08048c98                mock_generator::calculate_standart_deviation(std::vector<unsigned long long, std::allocator<unsigned long long> >)
                0x08048aa4                mock_generator::calculate_sample_mean(std::vector<unsigned long long, std::allocator<unsigned long long> >)
 *fill*         0x0804d6e2        0x2 37008
 .text          0x0804d6e4      0xa4e main.o
                0x0804d7f0                main
                0x0804d6e4                usage(std::basic_string<char, std::char_traits<char>, std::allocator<char> >)
 *fill*         0x0804e132        0x2 37008
 .text          0x0804e134       0xd6 /x86/lib/libm.a(sqrt.o)
                0x0804e134                sqrt
 *fill*         0x0804e20a        0x2 37008
 .text          0x0804e20c       0x59 /x86/lib/libcpp.a(delaop.o)
                0x0804e20c                __builtin_vec_delete
 *fill*         0x0804e265        0x3 37008
 .text          0x0804e268       0x61 /x86/lib/libcpp.a(delop.o)
                0x0804e268                __builtin_delete
 *fill*         0x0804e2c9        0x3 37008
 .text          0x0804e2cc        0x5 /x86/lib/libcpp.a(delop3.o)
                0x0804e2cc                operator delete(void *, void *)
 *fill*         0x0804e2d1        0x3 37008
 .text          0x0804e2d4       0x6a /x86/lib/libcpp.a(exceptio.o)
                0x0804e310                std::set_unexpected(void (*)(void))
                0x0804e328                std::unexpected(void)
                0x0804e2e0                std::set_terminate(void (*)(void))
                0x0804e2f8                std::terminate(void)
                0x0804e2d4                std::do_abort(void)
 *fill*         0x0804e33e        0x2 37008
 .text          0x0804e340       0xbd /x86/lib/libcpp.a(gccex.o)
                0x0804e340                std::exception::_Set_raise_handler(void (*)(std::exception const &))
                0x0804e368                std::exception::~exception(void)
                0x0804e358                std::exception::exception(void)
                0x0804e398                std::exception::_Raise(void) const
                0x0804e3f8                std::exception::_Doraise(void) const
                0x0804e38c                std::exception::what(void) const
 *fill*         0x0804e3fd        0x3 37008
 .text          0x0804e400      0x832 /x86/lib/libcpp.a(ios.o)
                0x0804eb28                std::ios_base::_Init(void)
                0x0804e920                std::ios_base::~ios_base(void)
                0x0804e400                std::ios_base::clear(std::_Iosb<int>::_Iostate, bool)
                0x0804e988                std::ios_base::_Callfns(std::ios_base::event)
                0x0804e74c                std::ios_base::copyfmt(std::ios_base const &)
                0x0804ebcc                std::ios_base::_Tidy(void)
                0x0804e820                std::ios_base::imbue(std::locale const &)
                0x0804e8a8                std::ios_base::register_callback(void (*)(std::ios_base::event, std::ios_base &, int), int)
                0x0804e9c0                std::ios_base::_Findarr(int)
                0x0804eabc                std::ios_base::_Addstd(void)
 *fill*         0x0804ec32        0x2 37008
 .text          0x0804ec34      0x5eb /x86/lib/libcpp.a(iostream.o)
                0x0804ec34                std::ios_base::Init::Init(void)
                0x0804f048                std::ios_base::Init::~Init(void)
 *fill*         0x0804f21f        0x1 37008
 .text          0x0804f220     0x11c7 /x86/lib/libcpp.a(locale.o)
                0x0804f890                std::locale::global(std::locale const &)
                0x0804f220                std::locale::locale(std::locale const &, std::locale const &, int)
                0x0805005c                std::locale::_Locimp::_Addfac(std::locale::facet *, unsigned int)
                0x0804fec4                std::locale::_Locimp::_Locimp(std::locale::_Locimp const &)
                0x08050164                std::_Locinfo::_Locinfo(int, char const *)
                0x0804f9ec                std::locale::_Locimp::_Makeloc(std::_Locinfo const &, int, std::locale::_Locimp *, std::locale const *)
                0x0805023c                std::_Locinfo::_Addcats(int, char const *)
                0x0804f344                std::locale::locale(char const *, int)
                0x0804f5ac                std::locale::locale(std::locale const &, char const *, int)
 *fill*         0x080503e7        0x1 37008
 .text          0x080503e8      0x76f /x86/lib/libcpp.a(locale0.o)
                0x080503e8                std::locale::classic(void)
                0x08050628                std::locale::_Init(void)
                0x080507a8                std::locale::_Tidy(void)
                0x0805083c                std::locale::_Locimp::_Locimp(bool)
                0x0805097c                std::_Locinfo::_Locinfo(char const *)
                0x080504b4                std::locale::operator==(std::locale const &) const
                0x080503fc                std::locale::empty(void)
                0x080508b4                std::locale::_Locimp::~_Locimp(void)
                0x08050468                std::locale::_Getfacet(unsigned int) const
                0x08050a70                std::_Locinfo::~_Locinfo(void)
 *fill*         0x08050b57        0x1 37008
 .text          0x08050b58       0x65 /x86/lib/libcpp.a(newaop.o)
                0x08050b58                __builtin_vec_new
 *fill*         0x08050bbd        0x3 37008
 .text          0x08050bc0       0x81 /x86/lib/libcpp.a(newop.o)
                0x08050bc0                __builtin_new
 *fill*         0x08050c41        0x3 37008
 .text          0x08050c44       0x8f /x86/lib/libcpp.a(nomemory.o)
                0x08050c5c                std::_Nomemory(void)
 *fill*         0x08050cd3        0x1 37008
 .text          0x08050cd4      0x205 /x86/lib/libcpp.a(string.o)
                0x08050cd4                std::_String_base::_Xlen(void) const
                0x08050dd8                std::_String_base::_Xran(void) const
 *fill*         0x08050ed9        0x3 37008
 .text          0x08050edc        0x7 /x86/lib/libcpp.a(uncaught.o)
                0x08050edc                std::uncaught_exception(void)
 *fill*         0x08050ee3        0x1 37008
 .text          0x08050ee4     0x10aa /x86/lib/libcpp.a(wlocale.o)
                0x08050ee4                std::locale::_Locimp::_Makewloc(std::_Locinfo const &, int, std::locale::_Locimp *, std::locale const *)
 *fill*         0x08051f8e        0x2 37008
 .text          0x08051f90      0xa0e /x86/lib/libcpp.a(xlocale.o)
                0x08051f90                std::locale::_Locimp::_Makexloc(std::_Locinfo const &, int, std::locale::_Locimp *, std::locale const *)
 *fill*         0x0805299e        0x2 37008
 .text          0x080529a0       0xe5 /x86/lib/libcpp.a(xlock.o)
                0x08052a0c                std::_Lockit::_Lockit(int)
                0x08052a4c                std::_Lockit::~_Lockit(void)
 *fill*         0x08052a85        0x3 37008
 .text          0x08052a88       0x3f /x86/lib/libcpp.a(xmtx.o)
                0x08052a88                _Mtxinit
 *fill*         0x08052ac7        0x1 37008
 .text          0x08052ac8       0x95 /x86/lib/libcpp.a(xmutex.o)
                0x08052af4                std::_Mutex::~_Mutex(void)
                0x08052b48                std::_Mutex::_Unlock(void)
                0x08052b30                std::_Mutex::_Lock(void)
                0x08052ac8                std::_Mutex::_Mutex(void)
 *fill*         0x08052b5d        0x3 37008
 .text          0x08052b60       0x15 /x86/lib/libcpp.a(new.o)
                0x08052b60                std::set_new_handler(void (*)(void))
 *fill*         0x08052b75        0x3 37008
 .text          0x08052b78       0x35 /usr/lib/gcc-lib/ntox86/2.95.3/exceptions/libgcc.a(_cmpdi2.o)
                0x08052b78                __cmpdi2
 *fill*         0x08052bad        0x3 37008
 .text          0x08052bb0      0xcbb /usr/lib/gcc-lib/ntox86/2.95.3/exceptions/libgcc.a(_eh.o)
                0x08052be8                __throw_type_match
                0x08052cd0                __get_eh_info
                0x080537ac                __rethrow
                0x08052cb0                __get_eh_context
                0x08052e7c                __sjthrow
                0x080536f4                __throw
                0x08052c1c                __empty
                0x08053380                __unwinding_cleanup
                0x080530e0                __get_eh_table_language
                0x08052f9c                __sjpopnthrow
                0x08053094                __eh_rtime_match
                0x08052e58                __get_dynamic_handler_chain
                0x08052bb0                __default_terminate
                0x08052bc8                __terminate
                0x080530d4                __get_eh_table_version
 *fill*         0x0805386b        0x1 37008
 .text          0x0805386c      0x112 /usr/lib/gcc-lib/ntox86/2.95.3/exceptions/libgcc.a(_udivdi3.o)
                0x0805386c                __udivdi3
 *fill*         0x0805397e        0x2 37008
 .text          0x08053980      0x67c /usr/lib/gcc-lib/ntox86/2.95.3/exceptions/libgcc.a(exception.o)
                0x08053fcc                exception::what(void) const
                0x08053b34                __cp_push_exception
                0x08053a00                unexpected(void)
                0x08053a1c                __cp_exception_info
                0x080539b8                set_terminate(void (*)(void))
                0x08053c50                __uncatch_exception
                0x080539a0                __default_unexpected(void)
                0x08053c80                __check_eh_spec
                0x08053e54                __throw_bad_cast
                0x08053980                terminate(void)
                0x080539dc                set_unexpected(void (*)(void))
                0x08053a5c                __start_cp_handler
                0x08053adc                __cplus_type_matcher
                0x08053ab8                __eh_free
                0x08053ba8                __cp_pop_exception
                0x08053ef8                __throw_bad_typeid
                0x08053a3c                __cp_eh_info
                0x08053f9c                uncaught_exception(void)
                0x08053a84                __eh_alloc
 .text          0x08053ffc      0xf0b /usr/lib/gcc-lib/ntox86/2.95.3/exceptions/libgcc.a(frame.o)
                0x08054adc                __register_frame
                0x08054c98                __frame_state_for
                0x08054b8c                __register_frame_table
                0x08054bc0                __deregister_frame_info
                0x08054c6c                __deregister_frame
                0x08054b10                __register_frame_info_table
                0x08054a5c                __register_frame_info
 *fill*         0x08054f07        0x1 37008
 .text          0x08054f08      0x31d /usr/lib/gcc-lib/ntox86/2.95.3/exceptions/libgcc.a(tinfo.o)
                0x080550d0                __class_type_info::dcast(type_info const &, int, void *, type_info const *, void *) const
                0x08054f08                type_info::~type_info(void)
                0x08055008                __rtti_user
                0x08054fc8                __rtti_si
                0x0805503c                __user_type_info::dcast(type_info const &, int, void *, type_info const *, void *) const
                0x08055070                __si_type_info::dcast(type_info const &, int, void *, type_info const *, void *) const
                0x08054f40                type_info::operator==(type_info const &) const
                0x08054f80                __rtti_class
 *fill*         0x08055225        0x3 37008
 .text          0x08055228      0xaec /usr/lib/gcc-lib/ntox86/2.95.3/exceptions/libgcc.a(tinfo2.o)
                0x08055b94                unsigned int type_info function
                0x08055914                long long type_info function
                0x08055228                type_info::before(type_info const &) const
                0x08055814                __rtti_ptmd
                0x08055848                __rtti_array
                0x08055cd4                signed char type_info function
                0x0805576c                __rtti_attr
                0x08055a54                char type_info function
                0x080559d4                short type_info function
                0x080558d4                void type_info function
                0x08055994                int type_info function
                0x08055a14                bool type_info function
                0x08055258                __throw_type_match_rtti
                0x080556e0                __is_pointer(void *)
                0x08055c94                unsigned char type_info function
                0x08055c14                unsigned long long type_info function
                0x08055b14                double type_info function
                0x08055a94                wchar_t type_info function
                0x080557ac                __rtti_func
                0x08055734                __rtti_ptr
                0x08055ad4                long double type_info function
                0x08055b54                float type_info function
                0x08055bd4                unsigned long type_info function
                0x080557e0                __rtti_ptmf
                0x08055c54                unsigned short type_info function
                0x08055954                long type_info function
                0x0805587c                __dynamic_cast
 .text          0x08055d14        0xe /x86/lib/libc.a(getpid.o)
                0x08055d14                getpid
 *fill*         0x08055d22        0x2 37008
 .text          0x08055d24       0x7e /x86/lib/libc.a(pthread_mutex_lock.o)
                0x08055d24                pthread_mutex_lock
 *fill*         0x08055da2        0x2 37008
 .text          0x08055da4       0x18 /x86/lib/libc.a(pthread_mutex_init.o)
                0x08055da4                pthread_mutex_init
 .text          0x08055dbc       0x13 /x86/lib/libc.a(pthread_mutex_destroy.o)
                0x08055dbc                pthread_mutex_destroy
 *fill*         0x08055dcf        0x1 37008
 .text          0x08055dd0       0x53 /x86/lib/libc.a(pthread_mutex_unlock.o)
                0x08055dd0                pthread_mutex_unlock
 *fill*         0x08055e23        0x1 37008
 .text          0x08055e24        0x7 /x86/lib/libc.a(pthread_mutexattr_destroy.o)
                0x08055e24                pthread_mutexattr_destroy
 *fill*         0x08055e2b        0x1 37008
 .text          0x08055e2c       0x1e /x86/lib/libc.a(pthread_mutexattr_init.o)
                0x08055e2c                pthread_mutexattr_init
 *fill*         0x08055e4a        0x2 37008
 .text          0x08055e4c       0x6d /x86/lib/libc.a(pthread_mutexattr_settype.o)
                0x08055e4c                pthread_mutexattr_settype
 *fill*         0x08055eb9        0x3 37008
 .text          0x08055ebc       0xba /x86/lib/libc.a(pthread_once.o)
                0x08055ed0                __pthread_once
                0x08055f54                pthread_once
 *fill*         0x08055f76        0x2 37008
 .text          0x08055f78      0x58a /x86/lib/libc.a(malloc.o)
                0x0805602c                malloc
                0x080564cc                calloc
                0x08056250                _posix_memalign
                0x08056318                realloc
                0x08056188                memalign
                0x080562d0                valloc
                0x08056250                posix_memalign
                0x08055f78                free
 *fill*         0x08056502        0x2 37008
 .text          0x08056504       0xfa /x86/lib/libc.a(util.o)
                0x08056504                _malloc_log
                0x080565c0                malloc_abort
                0x08056590                _malloc_error
 *fill*         0x080565fe        0x2 37008
 .text          0x08056600       0x11 /x86/lib/libc.a(_exit.o)
                0x08056600                _exit
 *fill*         0x08056611        0x3 37008
 .text          0x08056614       0xc4 /x86/lib/libc.a(abort.o)
                0x08056614                abort
 .text          0x080566d8       0x37 /x86/lib/libc.a(atexit.o)
                0x080566d8                atexit
 *fill*         0x0805670f        0x1 37008
 .text          0x08056710       0x18 /x86/lib/libc.a(exit.o)
                0x08056710                exit
 .text          0x08056728        0xa /x86/lib/libc.a(localeco.o)
                0x08056728                localeconv
 *fill*         0x08056732        0x2 37008
 .text          0x08056734       0x45 /x86/lib/libc.a(mbrtowc.o)
                0x08056734                mbrtowc
 *fill*         0x08056779        0x3 37008
 .text          0x0805677c       0x25 /x86/lib/libc.a(raise.o)
                0x0805677c                raise
 *fill*         0x080567a1        0x3 37008
 .text          0x080567a4      0x48b /x86/lib/libc.a(setlocal.o)
                0x080567a4                _Getcloc
                0x080569d0                _Getlname
                0x08056b8c                setlocale
                0x0805691c                _Getnloc
 *fill*         0x08056c2f        0x1 37008
 .text          0x08056c30       0x42 /x86/lib/libc.a(wcrtomb.o)
                0x08056c30                wcrtomb
 *fill*         0x08056c72        0x2 37008
 .text          0x08056c74       0x42 /x86/lib/libc.a(xbtowc.o)
                0x08056c74                _Btowc
 *fill*         0x08056cb6        0x2 37008
 .text          0x08056cb8      0x210 /x86/lib/libc.a(xdefloc.o)
                0x08056cb8                _Defloc
 .text          0x08056ec8      0x199 /x86/lib/libc.a(xdscale.o)
                0x08056ec8                _Dscale
 *fill*         0x08057061        0x3 37008
 .text          0x08057064       0x9a /x86/lib/libc.a(xdunscal.o)
                0x08057064                _Dunscale
 *fill*         0x080570fe        0x2 37008
 .text          0x08057100       0x2d /x86/lib/libc.a(xferaise.o)
                0x08057100                _Feraise
 *fill*         0x0805712d        0x3 37008
 .text          0x08057130      0x398 /x86/lib/libc.a(xgetloc.o)
                0x08057130                _Skip
                0x0805715c                _Getloc
 .text          0x080574c8      0x42f /x86/lib/libc.a(xmakeloc.o)
                0x0805754c                _Makeloc
                0x080574f4                _Locsum
 *fill*         0x080578f7        0x1 37008
 .text          0x080578f8      0x248 /x86/lib/libc.a(xmakesta.o)
                0x080578f8                _Makestab
 .text          0x08057b40      0x2ea /x86/lib/libc.a(xmakewct.o)
                0x08057b40                _Makewct
 *fill*         0x08057e2a        0x2 37008
 .text          0x08057e2c      0x1eb /x86/lib/libc.a(xmbtowc.o)
                0x08057e2c                _Mbtowc
 *fill*         0x08058017        0x1 37008
 .text          0x08058018      0x102 /x86/lib/libc.a(xreadloc.o)
                0x08058018                _Readloc
 *fill*         0x0805811a        0x2 37008
 .text          0x0805811c      0x1f8 /x86/lib/libc.a(xsetloc.o)
                0x0805811c                _Setloc
 .text          0x08058314      0x189 /x86/lib/libc.a(xstod.o)
                0x08058314                _Stod
 *fill*         0x0805849d        0x3 37008
 .text          0x080584a0      0x106 /x86/lib/libc.a(xstof.o)
                0x080584a0                _Stof
 *fill*         0x080585a6        0x2 37008
 .text          0x080585a8      0x256 /x86/lib/libc.a(xstoflt.o)
                0x080585a8                _Stoflt
 *fill*         0x080587fe        0x2 37008
 .text          0x08058800      0x1b4 /x86/lib/libc.a(xstold.o)
                0x08058800                _Stold
 .text          0x080589b4      0x11b /x86/lib/libc.a(xstopfx.o)
                0x080589b4                _Stopfx
 *fill*         0x08058acf        0x1 37008
 .text          0x08058ad0      0x28b /x86/lib/libc.a(xstoxflt.o)
                0x08058ad0                _Stoxflt
 *fill*         0x08058d5b        0x1 37008
 .text          0x08058d5c      0x1f7 /x86/lib/libc.a(xwctomb.o)
                0x08058d5c                _Wctomb
 *fill*         0x08058f53        0x1 37008
 .text          0x08058f54       0x28 /x86/lib/libc.a(ChannelCreate.o)
                0x08058f54                ChannelCreate
 .text          0x08058f7c       0x28 /x86/lib/libc.a(ConnectAttach.o)
                0x08058f7c                ConnectAttach
 .text          0x08058fa4       0x2c /x86/lib/libc.a(MsgReceive.o)
                0x08058fa4                MsgReceive
 .text          0x08058fd0       0x2c /x86/lib/libc.a(MsgReply.o)
                0x08058fd0                MsgReply
 .text          0x08058ffc       0x28 /x86/lib/libc.a(SignalKill.o)
                0x08058ffc                SignalKill
 .text          0x08059024       0x20 /x86/lib/libc.a(SyncDestroy_r.o)
                0x08059024                SyncDestroy_r
 .text          0x08059044       0x20 /x86/lib/libc.a(SyncMutexUnlock_r.o)
                0x08059044                SyncMutexUnlock_r
 .text          0x08059064       0x20 /x86/lib/libc.a(SyncMutexLock_r.o)
                0x08059064                SyncMutexLock_r
 .text          0x08059084       0x20 /x86/lib/libc.a(SyncTypeCreate_r.o)
                0x08059084                SyncTypeCreate_r
 .text          0x080590a4       0x18 /x86/lib/libc.a(__ker_err.o)
                0x080590a4                __ker_err
 .text          0x080590bc        0xe /x86/lib/libc.a(gettid.o)
                0x080590bc                gettid
 *fill*         0x080590ca        0x2 37008
 .text          0x080590cc       0x19 /x86/lib/libc.a(spawnl.o)
                0x080590cc                spawnl
 *fill*         0x080590e5        0x3 37008
 .text          0x080590e8       0xb8 /x86/lib/libc.a(spawnve.o)
                0x08059188                spawnv
                0x080590e8                spawnve
 .text          0x080591a0      0x2d2 /x86/lib/libc.a(slog.o)
                0x08059358                vslogf
                0x080592b0                slogi
                0x0805926c                slogb
                0x08059458                slogf
 *fill*         0x08059472        0x2 37008
 .text          0x08059474      0x186 /x86/lib/libc.a(fclose.o)
                0x08059474                fclose
 *fill*         0x080595fa        0x2 37008
 .text          0x080595fc       0xbc /x86/lib/libc.a(fflush.o)
                0x08059610                fflush
                0x080595fc                flushall
 .text          0x080596b8       0x9e /x86/lib/libc.a(fgetc.o)
                0x080596b8                fgetc
 *fill*         0x08059756        0x2 37008
 .text          0x08059758       0x16 /x86/lib/libc.a(fgetpos.o)
                0x08059758                fgetpos
 *fill*         0x0805976e        0x2 37008
 .text          0x08059770      0x154 /x86/lib/libc.a(fgets.o)
                0x08059770                fgets
 .text          0x080598c4        0xb /x86/lib/libc.a(fileno.o)
                0x080598c4                fileno
 *fill*         0x080598cf        0x1 37008
 .text          0x080598d0       0x86 /x86/lib/libc.a(flockfile.o)
                0x080598d0                flockfile
 *fill*         0x08059956        0x2 37008
 .text          0x08059958       0x18 /x86/lib/libc.a(fopen.o)
                0x08059958                fopen
 .text          0x08059970       0xa3 /x86/lib/libc.a(fputc.o)
                0x08059970                fputc
 *fill*         0x08059a13        0x1 37008
 .text          0x08059a14      0x11c /x86/lib/libc.a(fputs.o)
                0x08059a14                fputs
 .text          0x08059b30       0x1e /x86/lib/libc.a(fseek.o)
                0x08059b30                fseek
 *fill*         0x08059b4e        0x2 37008
 .text          0x08059b50       0x1c /x86/lib/libc.a(fsetpos.o)
                0x08059b50                fsetpos
 .text          0x08059b6c       0x65 /x86/lib/libc.a(funlockfile.o)
                0x08059b6c                funlockfile
 *fill*         0x08059bd1        0x3 37008
 .text          0x08059bd4      0x126 /x86/lib/libc.a(fwrite.o)
                0x08059bd4                fwrite
 *fill*         0x08059cfa        0x2 37008
 .text          0x08059cfc       0xcf /x86/lib/libc.a(setvbuf.o)
                0x08059cfc                setvbuf
 *fill*         0x08059dcb        0x1 37008
 .text          0x08059dcc       0x29 /x86/lib/libc.a(sprintf.o)
                0x08059dcc                sprintf
 *fill*         0x08059df5        0x3 37008
 .text          0x08059df8       0x23 /x86/lib/libc.a(strerror.o)
                0x08059df8                strerror
 *fill*         0x08059e1b        0x1 37008
 .text          0x08059e1c       0x93 /x86/lib/libc.a(ungetc.o)
                0x08059e1c                ungetc
 *fill*         0x08059eaf        0x1 37008
 .text          0x08059eb0       0x49 /x86/lib/libc.a(vsnprintf.o)
                0x08059eb0                vsnprintf
 *fill*         0x08059ef9        0x3 37008
 .text          0x08059efc       0x28 /x86/lib/libc.a(vsprintf.o)
                0x08059efc                vsprintf
 .text          0x08059f24      0x12a /x86/lib/libc.a(xfgpos.o)
                0x08059f24                _Fgpos
 *fill*         0x0805a04e        0x2 37008
 .text          0x0805a050      0x10f /x86/lib/libc.a(xfrprep.o)
                0x0805a050                _Frprep
 *fill*         0x0805a15f        0x1 37008
 .text          0x0805a160      0x170 /x86/lib/libc.a(xfspos.o)
                0x0805a160                _Fspos
 .text          0x0805a2d0       0xa2 /x86/lib/libc.a(xfwprep.o)
                0x0805a2d0                _Fwprep
 *fill*         0x0805a372        0x2 37008
 .text          0x0805a374      0x297 /x86/lib/libc.a(xprintf.o)
                0x0805a374                _Printf
 *fill*         0x0805a60b        0x1 37008
 .text          0x0805a60c      0x391 /x86/lib/libc.a(xputfld.o)
                0x0805a60c                _Putfld
 *fill*         0x0805a99d        0x3 37008
 .text          0x0805a9a0      0x173 /x86/lib/libc.a(xputstr.o)
                0x0805a9a0                _Putstr
 *fill*         0x0805ab13        0x1 37008
 .text          0x0805ab14      0x20a /x86/lib/libc.a(xputtxt.o)
                0x0805ab14                _Puttxt
 *fill*         0x0805ad1e        0x2 37008
 .text          0x0805ad20       0x52 /x86/lib/libc.a(xsnprout.o)
                0x0805ad20                _Snprout
 *fill*         0x0805ad72        0x2 37008
 .text          0x0805ad74       0x20 /x86/lib/libc.a(xsprout.o)
                0x0805ad74                _Sprout
 .text          0x0805ad94       0x16 /x86/lib/libc.a(atoi.o)
                0x0805ad94                atoi
 *fill*         0x0805adaa        0x2 37008
 .text          0x0805adac       0x19 /x86/lib/libc.a(itoa.o)
                0x0805adac                itoa
 *fill*         0x0805adc5        0x3 37008
 .text          0x0805adc8       0x3d /x86/lib/libc.a(ltoa.o)
                0x0805adc8                ltoa
 *fill*         0x0805ae05        0x3 37008
 .text          0x0805ae08       0x1c /x86/lib/libc.a(memchr.o)
                0x0805ae08                memchr
 .text          0x0805ae24       0x37 /x86/lib/libc.a(memcmp.o)
                0x0805ae24                memcmp
 *fill*         0x0805ae5b        0x1 37008
 .text          0x0805ae5c       0x29 /x86/lib/libc.a(memcpy.o)
                0x0805ae5c                memcpy
 *fill*         0x0805ae85        0x3 37008
 .text          0x0805ae88       0x43 /x86/lib/libc.a(memmove.o)
                0x0805ae88                memmove
 *fill*         0x0805aecb        0x1 37008
 .text          0x0805aecc       0x77 /x86/lib/libc.a(memset.o)
                0x0805aecc                memset
 *fill*         0x0805af43        0x1 37008
 .text          0x0805af44       0x2b /x86/lib/libc.a(strcat.o)
                0x0805af44                strcat
 *fill*         0x0805af6f        0x1 37008
 .text          0x0805af70       0x23 /x86/lib/libc.a(strchr.o)
                0x0805af70                strchr
 *fill*         0x0805af93        0x1 37008
 .text          0x0805af94       0x30 /x86/lib/libc.a(strcmp.o)
                0x0805af94                strcmp
 .text          0x0805afc4      0x117 /x86/lib/libc.a(strcoll.o)
                0x0805afe4                strcoll
 *fill*         0x0805b0db        0x1 37008
 .text          0x0805b0dc       0x27 /x86/lib/libc.a(strcpy.o)
                0x0805b0dc                strcpy
 *fill*         0x0805b103        0x1 37008
 .text          0x0805b104       0x3d /x86/lib/libc.a(strcspn.o)
                0x0805b104                strcspn
 *fill*         0x0805b141        0x3 37008
 .text          0x0805b144       0x57 /x86/lib/libc.a(strdup.o)
                0x0805b144                _strdup
                0x0805b158                strdup
 *fill*         0x0805b19b        0x1 37008
 .text          0x0805b19c       0x1a /x86/lib/libc.a(strlen.o)
                0x0805b19c                strlen
 *fill*         0x0805b1b6        0x2 37008
 .text          0x0805b1b8       0x3b /x86/lib/libc.a(strncmp.o)
                0x0805b1b8                strncmp
 *fill*         0x0805b1f3        0x1 37008
 .text          0x0805b1f4       0x21 /x86/lib/libc.a(strrchr.o)
                0x0805b1f4                strrchr
 *fill*         0x0805b215        0x3 37008
 .text          0x0805b218       0x36 /x86/lib/libc.a(strspn.o)
                0x0805b218                strspn
 *fill*         0x0805b24e        0x2 37008
 .text          0x0805b250       0x18 /x86/lib/libc.a(strtol.o)
                0x0805b250                strtol
 .text          0x0805b268       0x18 /x86/lib/libc.a(strtoll.o)
                0x0805b268                strtoll
 .text          0x0805b280       0x18 /x86/lib/libc.a(strtoul.o)
                0x0805b280                strtoul
 .text          0x0805b298       0x18 /x86/lib/libc.a(strtoull.o)
                0x0805b298                strtoull
 .text          0x0805b2b0       0x7b /x86/lib/libc.a(strxfrm.o)
                0x0805b2b0                strxfrm
 *fill*         0x0805b32b        0x1 37008
 .text          0x0805b32c       0x1a /x86/lib/libc.a(ultoa.o)
                0x0805b32c                ultoa
 *fill*         0x0805b346        0x2 37008
 .text          0x0805b348      0x147 /x86/lib/libc.a(wcscoll.o)
                0x0805b3a4                wcscoll
 *fill*         0x0805b48f        0x1 37008
 .text          0x0805b490       0x1f /x86/lib/libc.a(wcslen.o)
                0x0805b490                wcslen
 *fill*         0x0805b4af        0x1 37008
 .text          0x0805b4b0       0xc2 /x86/lib/libc.a(wcsxfrm.o)
                0x0805b4b0                wcsxfrm
 *fill*         0x0805b572        0x2 37008
 .text          0x0805b574       0x3b /x86/lib/libc.a(wmemcmp.o)
                0x0805b574                wmemcmp
 *fill*         0x0805b5af        0x1 37008
 .text          0x0805b5b0       0x27 /x86/lib/libc.a(wmemcpy.o)
                0x0805b5b0                wmemcpy
 *fill*         0x0805b5d7        0x1 37008
 .text          0x0805b5d8       0x54 /x86/lib/libc.a(wmemmove.o)
                0x0805b5d8                wmemmove
 .text          0x0805b62c       0x21 /x86/lib/libc.a(wmemset.o)
                0x0805b62c                wmemset
 *fill*         0x0805b64d        0x3 37008
 .text          0x0805b650      0x3c6 /x86/lib/libc.a(xstrxfrm.o)
                0x0805b650                _CStrxfrm
 *fill*         0x0805ba16        0x2 37008
 .text          0x0805ba18      0x180 /x86/lib/libc.a(xwcsxfrm.o)
                0x0805ba18                _CWcsxfrm
 .text          0x0805bb98       0x52 /x86/lib/libc.a(__cleanup.o)
                0x0805bb98                __cleanup_push
                0x0805bbbc                __cleanup_pop
 *fill*         0x0805bbea        0x2 37008
 .text          0x0805bbec        0xe /x86/lib/libc.a(__get_errno_ptr.o)
                0x0805bbec                __get_errno_ptr
 *fill*         0x0805bbfa        0x2 37008
 .text          0x0805bbfc       0x12 /x86/lib/libc.a(__stackavail.o)
                0x0805bbfc                __stackavail
 *fill*         0x0805bc0e        0x2 37008
 .text          0x0805bc10        0xb /x86/lib/libc.a(__tls.o)
                0x0805bc10                __tls
 *fill*         0x0805bc1b        0x1 37008
 .text          0x0805bc1c       0xd3 /x86/lib/libc.a(_init_libc.o)
                0x0805bc1c                _init_libc
 *fill*         0x0805bcef        0x1 37008
 .text          0x0805bcf0       0x1b /x86/lib/libc.a(_math_emu_stub.o)
                0x0805bcf0                _math_emu_stub
 *fill*         0x0805bd0b        0x1 37008
 .text          0x0805bd0c       0x55 /x86/lib/libc.a(asctime.o)
                0x0805bd0c                asctime
                0x0805bd38                asctime_r
 *fill*         0x0805bd61        0x3 37008
 .text          0x0805bd64       0xbd /x86/lib/libc.a(time.o)
                0x0805bd64                time
 *fill*         0x0805be21        0x3 37008
 .text          0x0805be24      0x18a /x86/lib/libc.a(xstrftim.o)
                0x0805be24                _CStrftime
 *fill*         0x0805bfae        0x2 37008
 .text          0x0805bfb0      0x5b3 /x86/lib/libc.a(xtzset.o)
                0x0805c41c                _Tzset
 *fill*         0x0805c563        0x1 37008
 .text          0x0805c564      0x37f /x86/lib/libc.a(random.o)
                0x0805c850                random
                0x0805c764                setstate
                0x0805c5f0                initstate
                0x0805c564                srandom
 *fill*         0x0805c8e3        0x1 37008
 .text          0x0805c8e4       0x74 /x86/lib/libc.a(close.o)
                0x0805c8e4                close
 .text          0x0805c958       0xa6 /x86/lib/libc.a(lseek.o)
                0x0805c9cc                lseek
                0x0805c9e8                tell
                0x0805c9b4                tell64
                0x0805c958                lseek64
 *fill*         0x0805c9fe        0x2 37008
 .text          0x0805ca00       0x19 /x86/lib/libc.a(open.o)
                0x0805ca00                open
 *fill*         0x0805ca19        0x3 37008
 .text          0x0805ca1c       0x3d /x86/lib/libc.a(read.o)
                0x0805ca1c                read
 *fill*         0x0805ca59        0x3 37008
 .text          0x0805ca5c       0x20 /x86/lib/libc.a(sigaction.o)
                0x0805ca5c                sigaction
 .text          0x0805ca7c       0x3f /x86/lib/libc.a(sigdelset.o)
                0x0805ca7c                sigdelset
 *fill*         0x0805cabb        0x1 37008
 .text          0x0805cabc       0x17 /x86/lib/libc.a(sigfillset.o)
                0x0805cabc                sigfillset
 *fill*         0x0805cad3        0x1 37008
 .text          0x0805cad4       0x43 /x86/lib/libc.a(sigstub.o)
                0x0805cad4                __signalstub
 *fill*         0x0805cb17        0x1 37008
 .text          0x0805cb18       0x9b /x86/lib/libc.a(sysconf.o)
                0x0805cba0                sysconf
                0x0805cb78                _sysconf
 *fill*         0x0805cbb3        0x1 37008
 .text          0x0805cbb4       0x2f /x86/lib/libc.a(waitpid.o)
                0x0805cbb4                waitpid
 *fill*         0x0805cbe3        0x1 37008
 .text          0x0805cbe4       0x53 /x86/lib/libc.a(write.o)
                0x0805cbe4                write
 *fill*         0x0805cc37        0x1 37008
 .text          0x0805cc38       0xf4 /x86/lib/libc.a(confstr.o)
                0x0805ccac                confstr
 .text          0x0805cd2c       0x11 /x86/lib/libc.a(__my_thread_exit.o)
                0x0805cd2c                __my_thread_exit
 *fill*         0x0805cd3d        0x3 37008
 .text          0x0805cd40       0x15 /x86/lib/libc.a(pthread_cond_broadcast.o)
                0x0805cd40                pthread_cond_broadcast
 *fill*         0x0805cd55        0x3 37008
 .text          0x0805cd58       0x39 /x86/lib/libc.a(pthread_cond_wait.o)
                0x0805cd58                pthread_cond_wait
 *fill*         0x0805cd91        0x3 37008
 .text          0x0805cd94       0xbb /x86/lib/libc.a(pthread_exit.o)
                0x0805cd94                pthread_exit
 *fill*         0x0805ce4f        0x1 37008
 .text          0x0805ce50        0xe /x86/lib/libc.a(pthread_self.o)
                0x0805ce50                pthread_self
 *fill*         0x0805ce5e        0x2 37008
 .text          0x0805ce60       0x2b /x86/lib/libc.a(pthread_sigmask.o)
                0x0805ce60                pthread_sigmask
 *fill*         0x0805ce8b        0x1 37008
 .text          0x0805ce8c      0x476 /x86/lib/libc.a(band.o)
                0x0805cf0c                _check_bands
                0x0805d0e8                _band_get_aligned
                0x0805d1d4                _band_rlse
                0x0805d1bc                _band_get
 *fill*         0x0805d302        0x2 37008
 .text          0x0805d304      0x1a6 /x86/lib/libc.a(compat.o)
                0x0805d3ec                mprobe
                0x0805d45c                mallopt
                0x0805d304                mallinfo
                0x0805d394                mcheck
 *fill*         0x0805d4aa        0x2 37008
 .text          0x0805d4ac      0xa9a /x86/lib/libc.a(dlist.o)
                0x0805dea0                malloc_opts
                0x0805d838                _list_memalign
                0x0805dd4c                _list_resize
                0x0805db68                _list_alloc
                0x0805d4ac                _check_arena
                0x0805d5f4                _check_list
                0x0805db80                _list_release
                0x0805de98                _list_gc
 *fill*         0x0805df46        0x2 37008
 .text          0x0805df48       0x1a /x86/lib/libc.a(__exit.o)
                0x0805df48                __exit
 *fill*         0x0805df62        0x2 37008
 .text          0x0805df64       0x81 /x86/lib/libc.a(_cleanup.o)
                0x0805df64                _cleanup
 *fill*         0x0805dfe5        0x3 37008
 .text          0x0805dfe8       0x3f /x86/lib/libc.a(getenv.o)
                0x0805dfe8                getenv
 *fill*         0x0805e027        0x1 37008
 .text          0x0805e028      0x137 /x86/lib/libc.a(xdnorm.o)
                0x0805e028                _Dnorm
 *fill*         0x0805e15f        0x1 37008
 .text          0x0805e160      0x1c0 /x86/lib/libc.a(xdtento.o)
                0x0805e1c8                _Dtento
 .text          0x0805e320      0x126 /x86/lib/libc.a(xfdscale.o)
                0x0805e320                _FDscale
 *fill*         0x0805e446        0x2 37008
 .text          0x0805e448      0x190 /x86/lib/libc.a(xfdtento.o)
                0x0805e47c                _FDtento
 .text          0x0805e5d8       0x86 /x86/lib/libc.a(xfdunsca.o)
                0x0805e5d8                _FDunscale
 *fill*         0x0805e65e        0x2 37008
 .text          0x0805e660      0x12e /x86/lib/libc.a(xfreeloc.o)
                0x0805e660                _Freeloc
 *fill*         0x0805e78e        0x2 37008
 .text          0x0805e790      0x195 /x86/lib/libc.a(xldscale.o)
                0x0805e790                _LDscale
 *fill*         0x0805e925        0x3 37008
 .text          0x0805e928      0x190 /x86/lib/libc.a(xldtento.o)
                0x0805e95c                _LDtento
 .text          0x0805eab8       0xab /x86/lib/libc.a(xldunsca.o)
                0x0805eab8                _LDunscale
 *fill*         0x0805eb63        0x1 37008
 .text          0x0805eb64      0x162 /x86/lib/libc.a(xlocterm.o)
                0x0805eb64                _Locvar
                0x0805eba0                _Locterm
 *fill*         0x0805ecc6        0x2 37008
 .text          0x0805ecc8      0x3dd /x86/lib/libc.a(xstoint.o)
                0x0805ecc8                _Stoint
 *fill*         0x0805f0a5        0x3 37008
 .text          0x0805f0a8       0x20 /x86/lib/libc.a(ClockTime_r.o)
                0x0805f0a8                ClockTime_r
 .text          0x0805f0c8       0x20 /x86/lib/libc.a(ConnectDetach_r.o)
                0x0805f0c8                ConnectDetach_r
 .text          0x0805f0e8       0x30 /x86/lib/libc.a(MsgSend.o)
                0x0805f0e8                MsgSend
 .text          0x0805f118       0x2c /x86/lib/libc.a(MsgSendnc_r.o)
                0x0805f118                MsgSendnc_r
 .text          0x0805f144       0x28 /x86/lib/libc.a(MsgSendv.o)
                0x0805f144                MsgSendv
 .text          0x0805f16c       0x24 /x86/lib/libc.a(MsgSendvnc_r.o)
                0x0805f16c                MsgSendvnc_r
 .text          0x0805f190       0x28 /x86/lib/libc.a(SignalAction.o)
                0x0805f190                SignalAction
 .text          0x0805f1b8       0x20 /x86/lib/libc.a(SignalProcmask_r.o)
                0x0805f1b8                SignalProcmask_r
 .text          0x0805f1d8       0x20 /x86/lib/libc.a(SyncCondvarSignal_r.o)
                0x0805f1d8                SyncCondvarSignal_r
 .text          0x0805f1f8       0x20 /x86/lib/libc.a(SyncCondvarWait_r.o)
                0x0805f1f8                SyncCondvarWait_r
 .text          0x0805f218       0x28 /x86/lib/libc.a(ThreadDestroy.o)
                0x0805f218                ThreadDestroy
 .text          0x0805f240       0x20 /x86/lib/libc.a(ThreadDestroy_r.o)
                0x0805f240                ThreadDestroy_r
 .text          0x0805f260       0x28 /x86/lib/libc.a(__SysCpupageGet.o)
                0x0805f260                __SysCpupageGet
 .text          0x0805f288       0x28 /x86/lib/libc.a(__SysCpupageSet.o)
                0x0805f288                __SysCpupageSet
 .text          0x0805f2b0      0x407 /x86/lib/libc.a(spawn.o)
                0x0805f2b0                spawn
 *fill*         0x0805f6b7        0x1 37008
 .text          0x0805f6b8       0x84 /x86/lib/libc.a(sysmgr_confstr_set.o)
                0x0805f6b8                sysmgr_confstr_set
 .text          0x0805f73c       0x6a /x86/lib/libc.a(_fsopen.o)
                0x0805f73c                _fsopen
 *fill*         0x0805f7a6        0x2 37008
 .text          0x0805f7a8      0x112 /x86/lib/libc.a(fdopen.o)
                0x0805f7a8                fdopen
 *fill*         0x0805f8ba        0x2 37008
 .text          0x0805f8bc       0x50 /x86/lib/libc.a(fprintf.o)
                0x0805f8bc                fprintf
 .text          0x0805f90c       0x81 /x86/lib/libc.a(xfbuf.o)
                0x0805f90c                _Fbuf
 *fill*         0x0805f98d        0x3 37008
 .text          0x0805f990       0x2b /x86/lib/libc.a(xfprout.o)
                0x0805f990                _Fprout
 *fill*         0x0805f9bb        0x1 37008
 .text          0x0805f9bc      0x532 /x86/lib/libc.a(xldtob.o)
                0x0805f9bc                _Ldtob
 *fill*         0x0805feee        0x2 37008
 .text          0x0805fef0      0x1dd /x86/lib/libc.a(xlitob.o)
                0x0805fef0                _Litob
 *fill*         0x080600cd        0x3 37008
 .text          0x080600d0       0x94 /x86/lib/libc.a(ulltoa.o)
                0x080600d0                ulltoa
 .text          0x08060164      0x279 /x86/lib/libc.a(_conf_get.o)
                0x08060164                _conf_get
 *fill*         0x080603dd        0x3 37008
 .text          0x080603e0        0x8 /x86/lib/libc.a(_math_emu_load.o)
                0x080603e0                _math_emulator
 .text          0x080603e8       0x40 /x86/lib/libc.a(_vopen.o)
                0x080603e8                _vopen
 .text          0x08060428      0x122 /x86/lib/libc.a(localtim.o)
                0x08060428                _Tzoff
                0x08060520                localtime
                0x080604a4                _Tzoff_dst
 *fill*         0x0806054a        0x2 37008
 .text          0x0806054c      0xb57 /x86/lib/libc.a(xgentime.o)
                0x08060904                _Gentime
 *fill*         0x080610a3        0x1 37008
 .text          0x080610a4      0x259 /x86/lib/libc.a(xgetdst.o)
                0x08061188                _Getdst
                0x080610f8                __getsecs
 *fill*         0x080612fd        0x3 37008
 .text          0x08061300       0x98 /x86/lib/libc.a(xgetrules.o)
                0x08061300                _Getrules
 .text          0x08061398       0x75 /x86/lib/libc.a(xgettime.o)
                0x08061398                _Gettime
 *fill*         0x0806140d        0x3 37008
 .text          0x08061410        0xd /x86/lib/libc.a(xgetzone.o)
                0x08061410                _Getzone
 *fill*         0x0806141d        0x3 37008
 .text          0x08061420      0x41a /x86/lib/libc.a(xttotm.o)
                0x0806168c                _Ttotm
                0x08061420                _Daysto
 *fill*         0x0806183a        0x2 37008
 .text          0x0806183c      0x121 /x86/lib/libc.a(wait4.o)
                0x0806186c                wait4
 *fill*         0x0806195d        0x3 37008
 .text          0x08061960       0x61 /x86/lib/libc.a(waitid.o)
                0x08061960                waitid
 *fill*         0x080619c1        0x3 37008
 .text          0x080619c4      0x112 /x86/lib/libc.a(fork.o)
                0x08061aa4                fork
                0x080619c4                _fork
 *fill*         0x08061ad6        0x2 37008
 .text          0x08061ad8       0x39 /x86/lib/libc.a(getpgrp.o)
                0x08061ad8                getpgrp
 *fill*         0x08061b11        0x3 37008
 .text          0x08061b14       0x2c /x86/lib/libc.a(isatty.o)
                0x08061b14                isatty
 .text          0x08061b40      0x1c2 /x86/lib/libc.a(core.o)
                0x08061cec                core_enable
                0x08061cb0                donecore
                0x08061c54                morecore
 *fill*         0x08061d02        0x2 37008
 .text          0x08061d04      0x14c /x86/lib/libc.a(_findenv.o)
                0x08061d04                _findenv
 .text          0x08061e50       0x38 /x86/lib/libc.a(ldiv.o)
                0x08061e50                ldiv
 .text          0x08061e88       0xae /x86/lib/libc.a(xfdnorm.o)
                0x08061e88                _FDnorm
 *fill*         0x08061f36        0x2 37008
 .text          0x08061f38      0x13d /x86/lib/libc.a(xldnorm.o)
                0x08061f38                _LDnorm
 *fill*         0x08062075        0x3 37008
 .text          0x08062078       0x28 /x86/lib/libc.a(ConnectDetach.o)
                0x08062078                ConnectDetach
 .text          0x080620a0       0x30 /x86/lib/libc.a(MsgSendnc.o)
                0x080620a0                MsgSendnc
 .text          0x080620d0       0x28 /x86/lib/libc.a(MsgSendvnc.o)
                0x080620d0                MsgSendvnc
 .text          0x080620f8       0x1a /x86/lib/libc.a(sopen.o)
                0x080620f8                sopen
 *fill*         0x08062112        0x2 37008
 .text          0x08062114       0x5d /x86/lib/libc.a(__fpinit.o)
                0x08062114                __fpinit
 *fill*         0x08062171        0x3 37008
 .text          0x08062174       0x9e /x86/lib/libc.a(__parse_oflag.o)
                0x08062174                __parse_oflag
 *fill*         0x08062212        0x2 37008
 .text          0x08062214      0x3ab /x86/lib/libc.a(xgenld.o)
                0x08062214                _Genld
 *fill*         0x080625bf        0x1 37008
 .text          0x080625c0       0x39 /x86/lib/libc.a(strncpy.o)
                0x080625c0                strncpy
 *fill*         0x080625f9        0x3 37008
 .text          0x080625fc       0x41 /x86/lib/libc.a(_connect.o)
                0x080625fc                _connect
 *fill*         0x0806263d        0x3 37008
 .text          0x08062640       0xb6 /x86/lib/libc.a(_connect_entry.o)
                0x08062640                _connect_entry
 *fill*         0x080626f6        0x2 37008
 .text          0x080626f8      0xe3e /x86/lib/libc.a(_connect_ctrl.o)
                0x0806324c                _connect_ctrl
 *fill*         0x08063536        0x2 37008
 .text          0x08063538       0xcd /x86/lib/libc.a(_devctl.o)
                0x08063538                _devctl
 *fill*         0x08063605        0x3 37008
 .text          0x08063608      0x3c7 /x86/lib/libc.a(xisdst.o)
                0x08063608                _Isdst
 *fill*         0x080639cf        0x1 37008
 .text          0x080639d0       0xfe /x86/lib/libc.a(mmap.o)
                0x08063aa8                mmap
                0x08063a78                mmap64
                0x080639d0                _mmap
 *fill*         0x08063ace        0x2 37008
 .text          0x08063ad0       0x4c /x86/lib/libc.a(munmap.o)
                0x08063ad0                munmap
 .text          0x08063b1c       0x38 /x86/lib/libc.a(div.o)
                0x08063b1c                div
 .text          0x08063b54       0x24 /x86/lib/libc.a(ConnectFlags_r.o)
                0x08063b54                ConnectFlags_r
 .text          0x08063b78       0x56 /x86/lib/libc.a(procmgr_session.o)
                0x08063b78                procmgr_session
 *fill*         0x08063bce        0x2 37008
 .text          0x08063bd0       0x69 /x86/lib/libc.a(__fpbufinit.o)
                0x08063bd0                __fpbufinit
 *fill*         0x08063c39        0x3 37008
 .text          0x08063c3c      0x19e /usr/lib/gcc-lib/ntox86/2.95.3/exceptions/libgcc.a(_divdi3.o)
                0x08063c3c                __divdi3
 *fill*         0x08063dda        0x2 37008
 .text          0x08063ddc      0x216 /usr/lib/gcc-lib/ntox86/2.95.3/exceptions/libgcc.a(_moddi3.o)
                0x08063ddc                __moddi3
 *fill*         0x08063ff2        0x2 37008
 .text          0x08063ff4      0x17e /usr/lib/gcc-lib/ntox86/2.95.3/exceptions/libgcc.a(_umoddi3.o)
                0x08063ff4                __umoddi3
 *fill*         0x08064172        0x2 37008
 .text          0x08064174       0x4a /usr/lib/gcc-lib/ntox86/2.95.3/crtendC++.o
 *fill*         0x080641be        0x2 37008
 *(.text.*)
 *(.stub)
 *(.gnu.warning)
 *(.gnu.linkonce.t*)
 .gnu.linkonce.t.__Q23stdt9allocator1ZcRCQ23stdt9allocator1Zc
                0x080641c0        0xa generator_logger.o
                0x080641c0                std::allocator<char>::allocator(std::allocator<char> const &)
 *fill*         0x080641ca        0x2 37008
 .gnu.linkonce.t.__Q23stdt11_String_val2ZcZQ23stdt9allocator1ZcGQ23stdt9allocator1Zc
                0x080641cc       0x29 generator_logger.o
                0x080641cc                std::_String_val<char, std::allocator<char> >::_String_val(std::allocator<char>)
 *fill*         0x080641f5        0x3 37008
 .gnu.linkonce.t._Myptr__Q23stdt12basic_string3ZcZQ23stdt11char_traits1ZcZQ23stdt9allocator1Zc
                0x080641f8       0x1d generator_logger.o
                0x080641f8                std::basic_string<char, std::char_traits<char>, std::allocator<char> >::_Myptr(void)
 *fill*         0x08064215        0x3 37008
 .gnu.linkonce.t.deallocate__Q23stdt9allocator1ZcPcUi
                0x08064218       0x1e generator_logger.o
                0x08064218                std::allocator<char>::deallocate(char *, unsigned int)
 *fill*         0x08064236        0x2 37008
 .gnu.linkonce.t._Eos__Q23stdt12basic_string3ZcZQ23stdt11char_traits1ZcZQ23stdt9allocator1ZcUi
                0x08064238       0x39 generator_logger.o
                0x08064238                std::basic_string<char, std::char_traits<char>, std::allocator<char> >::_Eos(unsigned int)
 *fill*         0x08064271        0x3 37008
 .gnu.linkonce.t._Tidy__Q23stdt12basic_string3ZcZQ23stdt11char_traits1ZcZQ23stdt9allocator1Zcb
                0x08064274       0x57 generator_logger.o
                0x08064274                std::basic_string<char, std::char_traits<char>, std::allocator<char> >::_Tidy(bool)
 *fill*         0x080642cb        0x1 37008
 .gnu.linkonce.t.size__CQ23stdt12basic_string3ZcZQ23stdt11char_traits1ZcZQ23stdt9allocator1Zc
                0x080642cc        0xf generator_logger.o
                0x080642cc                std::basic_string<char, std::char_traits<char>, std::allocator<char> >::size(void) const
 *fill*         0x080642db        0x1 37008
 .gnu.linkonce.t.max_size__CQ23stdt9allocator1Zc
                0x080642dc       0x24 generator_logger.o
                0x080642dc                std::allocator<char>::max_size(void) const
 .gnu.linkonce.t.max_size__CQ23stdt12basic_string3ZcZQ23stdt11char_traits1ZcZQ23stdt9allocator1Zc
                0x08064300       0x3a generator_logger.o
                0x08064300                std::basic_string<char, std::char_traits<char>, std::allocator<char> >::max_size(void) const
 *fill*         0x0806433a        0x2 37008
 .gnu.linkonce.t._Allocate__H1Zc_3stdUiPX01_PX01
                0x0806433c       0x29 generator_logger.o
                0x0806433c                char * std::_Allocate<char>(unsigned int, char *)
 *fill*         0x08064365        0x3 37008
 .gnu.linkonce.t.allocate__Q23stdt9allocator1ZcUi
                0x08064368       0x26 generator_logger.o
                0x08064368                std::allocator<char>::allocate(unsigned int)
 *fill*         0x0806438e        0x2 37008
 .gnu.linkonce.t.allocate__H1Zv_Q23stdt9allocator1ZcUiPCX00_Pc
                0x08064390       0x25 generator_logger.o
                0x08064390                char * std::allocator<char>::allocate<void>(unsigned int, void const *)
 *fill*         0x080643b5        0x3 37008
 .gnu.linkonce.t._Copy__Q23stdt12basic_string3ZcZQ23stdt11char_traits1ZcZQ23stdt9allocator1ZcUiUi
                0x080643b8      0x12d generator_logger.o
                0x080643b8                std::basic_string<char, std::char_traits<char>, std::allocator<char> >::_Copy(unsigned int, unsigned int)
 *fill*         0x080644e5        0x3 37008
 .gnu.linkonce.t._Grow__Q23stdt12basic_string3ZcZQ23stdt11char_traits1ZcZQ23stdt9allocator1ZcUib
                0x080644e8       0x97 generator_logger.o
                0x080644e8                std::basic_string<char, std::char_traits<char>, std::allocator<char> >::_Grow(unsigned int, bool)
 *fill*         0x0806457f        0x1 37008
 .gnu.linkonce.t.erase__Q23stdt12basic_string3ZcZQ23stdt11char_traits1ZcZQ23stdt9allocator1ZcUiUi
                0x08064580       0xc2 generator_logger.o
                0x08064580                std::basic_string<char, std::char_traits<char>, std::allocator<char> >::erase(unsigned int, unsigned int)
 *fill*         0x08064642        0x2 37008
 .gnu.linkonce.t._Myptr__CQ23stdt12basic_string3ZcZQ23stdt11char_traits1ZcZQ23stdt9allocator1Zc
                0x08064644       0x1d generator_logger.o
                0x08064644                std::basic_string<char, std::char_traits<char>, std::allocator<char> >::_Myptr(void) const
 *fill*         0x08064661        0x3 37008
 .gnu.linkonce.t.assign__Q23stdt12basic_string3ZcZQ23stdt11char_traits1ZcZQ23stdt9allocator1ZcRCQ23stdt12basic_string3ZcZQ23stdt11char_traits1ZcZQ23stdt9allocator1ZcUiUi
                0x08064664       0xee generator_logger.o
                0x08064664                std::basic_string<char, std::char_traits<char>, std::allocator<char> >::assign(std::basic_string<char, std::char_traits<char>, std::allocator<char> > const &, unsigned int, unsigned int)
 *fill*         0x08064752        0x2 37008
 .gnu.linkonce.t.__Q23stdt12basic_string3ZcZQ23stdt11char_traits1ZcZQ23stdt9allocator1ZcRCQ23stdt12basic_string3ZcZQ23stdt11char_traits1ZcZQ23stdt9allocator1Zc
                0x08064754       0x5a generator_logger.o
                0x08064754                std::basic_string<char, std::char_traits<char>, std::allocator<char> >::basic_string(std::basic_string<char, std::char_traits<char>, std::allocator<char> > const &)
 *fill*         0x080647ae        0x2 37008
 .gnu.linkonce.t._._Q23stdt12basic_string3ZcZQ23stdt11char_traits1ZcZQ23stdt9allocator1Zc
                0x080647b0       0x35 generator_logger.o
                0x080647b0                std::basic_string<char, std::char_traits<char>, std::allocator<char> >::~basic_string(void)
 *fill*         0x080647e5        0x3 37008
 .gnu.linkonce.t.c_str__CQ23stdt12basic_string3ZcZQ23stdt11char_traits1ZcZQ23stdt9allocator1Zc
                0x080647e8       0x21 generator_logger.o
                0x080647e8                std::basic_string<char, std::char_traits<char>, std::allocator<char> >::c_str(void) const
 *fill*         0x08064809        0x3 37008
 .gnu.linkonce.t.__Q23stdt9allocator1Zc
                0x0806480c        0xa generator_logger.o
                0x0806480c                std::allocator<char>::allocator(void)
 *fill*         0x08064816        0x2 37008
 .gnu.linkonce.t.__Q23stdt12basic_string3ZcZQ23stdt11char_traits1ZcZQ23stdt9allocator1Zc
                0x08064818       0x42 generator_logger.o
                0x08064818                std::basic_string<char, std::char_traits<char>, std::allocator<char> >::basic_string(void)
 *fill*         0x0806485a        0x2 37008
 .gnu.linkonce.t.__Q23stdt6_Ptrit6ZcZiZPcZRcZPcZRcPc
                0x0806485c       0x12 generator_logger.o
                0x0806485c                std::_Ptrit<char, int, char *, char &, char *, char &>::_Ptrit(char *)
 *fill*         0x0806486e        0x2 37008
 .gnu.linkonce.t.base__CQ23stdt6_Ptrit6ZcZiZPcZRcZPcZRc
                0x08064870        0xf generator_logger.o
                0x08064870                std::_Ptrit<char, int, char *, char &, char *, char &>::base(void) const
 *fill*         0x0806487f        0x1 37008
 .gnu.linkonce.t.__Q23stdt6_Ptrit6ZcZiZPcZRcZPcZRcRCQ23stdt6_Ptrit6ZcZiZPcZRcZPcZRc
                0x08064880       0x25 generator_logger.o
                0x08064880                std::_Ptrit<char, int, char *, char &, char *, char &>::_Ptrit(std::_Ptrit<char, int, char *, char &, char *, char &> const &)
 *fill*         0x080648a5        0x3 37008
 .gnu.linkonce.t.begin__Q23stdt12basic_string3ZcZQ23stdt11char_traits1ZcZQ23stdt9allocator1Zc
                0x080648a8       0x38 generator_logger.o
                0x080648a8                std::basic_string<char, std::char_traits<char>, std::allocator<char> >::begin(void)
 .gnu.linkonce.t.end__Q23stdt12basic_string3ZcZQ23stdt11char_traits1ZcZQ23stdt9allocator1Zc
                0x080648e0       0x3d generator_logger.o
                0x080648e0                std::basic_string<char, std::char_traits<char>, std::allocator<char> >::end(void)
 *fill*         0x0806491d        0x3 37008
 .gnu.linkonce.t.__mi__CQ23stdt6_Ptrit6ZcZiZPCcZRCcZPcZRcRCQ23stdt6_Ptrit6ZcZiZPCcZRCcZPcZRc
                0x08064920       0x17 generator_logger.o
                0x08064920                std::_Ptrit<char, int, char const *, char const &, char *, char &>::operator-(std::_Ptrit<char, int, char const *, char const &, char *, char &> const &) const
 *fill*         0x08064937        0x1 37008
 .gnu.linkonce.t.base__CQ23stdt6_Ptrit6ZcZiZPCcZRCcZPcZRc
                0x08064938        0xf generator_logger.o
                0x08064938                std::_Ptrit<char, int, char const *, char const &, char *, char &>::base(void) const
 *fill*         0x08064947        0x1 37008
 .gnu.linkonce.t._Pdif__Q23stdt12basic_string3ZcZQ23stdt11char_traits1ZcZQ23stdt9allocator1ZcGQ23stdt6_Ptrit6ZcZiZPCcZRCcZPcZRcT1
                0x08064948       0x3e generator_logger.o
                0x08064948                std::basic_string<char, std::char_traits<char>, std::allocator<char> >::_Pdif(std::_Ptrit<char, int, char const *, char const &, char *, char &>, std::_Ptrit<char, int, char const *, char const &, char *, char &>)
 *fill*         0x08064986        0x2 37008
 .gnu.linkonce.t.__Q23stdt6_Ptrit6ZcZiZPCcZRCcZPcZRcRCQ23stdt6_Ptrit6ZcZiZPcZRcZPcZRc
                0x08064988       0x25 generator_logger.o
                0x08064988                std::_Ptrit<char, int, char const *, char const &, char *, char &>::_Ptrit(std::_Ptrit<char, int, char *, char &, char *, char &> const &)
 *fill*         0x080649ad        0x3 37008
 .gnu.linkonce.t._Inside__Q23stdt12basic_string3ZcZQ23stdt11char_traits1ZcZQ23stdt9allocator1ZcPCc
                0x080649b0       0x48 generator_logger.o
                0x080649b0                std::basic_string<char, std::char_traits<char>, std::allocator<char> >::_Inside(char const *)
 .gnu.linkonce.t.replace__Q23stdt12basic_string3ZcZQ23stdt11char_traits1ZcZQ23stdt9allocator1ZcUiUiRCQ23stdt12basic_string3ZcZQ23stdt11char_traits1ZcZQ23stdt9allocator1ZcUiUi
                0x080649f8      0x409 generator_logger.o
                0x080649f8                std::basic_string<char, std::char_traits<char>, std::allocator<char> >::replace(unsigned int, unsigned int, std::basic_string<char, std::char_traits<char>, std::allocator<char> > const &, unsigned int, unsigned int)
 *fill*         0x08064e01        0x3 37008
 .gnu.linkonce.t.replace__Q23stdt12basic_string3ZcZQ23stdt11char_traits1ZcZQ23stdt9allocator1ZcUiUiPCcUi
                0x08064e04      0x1c8 generator_logger.o
                0x08064e04                std::basic_string<char, std::char_traits<char>, std::allocator<char> >::replace(unsigned int, unsigned int, char const *, unsigned int)
 .gnu.linkonce.t.replace__Q23stdt12basic_string3ZcZQ23stdt11char_traits1ZcZQ23stdt9allocator1ZcGQ23stdt6_Ptrit6ZcZiZPcZRcZPcZRcT1PCcT3
                0x08064fcc      0x176 generator_logger.o
                0x08064fcc                std::basic_string<char, std::char_traits<char>, std::allocator<char> >::replace(std::_Ptrit<char, int, char *, char &, char *, char &>, std::_Ptrit<char, int, char *, char &, char *, char &>, char const *, char const *)
 *fill*         0x08065142        0x2 37008
 .gnu.linkonce.t.assign__Q23stdt12basic_string3ZcZQ23stdt11char_traits1ZcZQ23stdt9allocator1ZcPCcT1
                0x08065144       0x51 generator_logger.o
                0x08065144                std::basic_string<char, std::char_traits<char>, std::allocator<char> >::assign(char const *, char const *)
 *fill*         0x08065195        0x3 37008
 .gnu.linkonce.t._Myptr__Q23stdt12basic_string3ZwZQ23stdt11char_traits1ZwZQ23stdt9allocator1Zw
                0x08065198       0x1d generator_logger.o
                0x08065198                std::basic_string<wchar_t, std::char_traits<wchar_t>, std::allocator<wchar_t> >::_Myptr(void)
 *fill*         0x080651b5        0x3 37008
 .gnu.linkonce.t.deallocate__Q23stdt9allocator1ZwPwUi
                0x080651b8       0x1e generator_logger.o
                0x080651b8                std::allocator<wchar_t>::deallocate(wchar_t *, unsigned int)
 *fill*         0x080651d6        0x2 37008
 .gnu.linkonce.t._Eos__Q23stdt12basic_string3ZwZQ23stdt11char_traits1ZwZQ23stdt9allocator1ZwUi
                0x080651d8       0x43 generator_logger.o
                0x080651d8                std::basic_string<wchar_t, std::char_traits<wchar_t>, std::allocator<wchar_t> >::_Eos(unsigned int)
 *fill*         0x0806521b        0x1 37008
 .gnu.linkonce.t._Tidy__Q23stdt12basic_string3ZwZQ23stdt11char_traits1ZwZQ23stdt9allocator1Zwb
                0x0806521c       0x57 generator_logger.o
                0x0806521c                std::basic_string<wchar_t, std::char_traits<wchar_t>, std::allocator<wchar_t> >::_Tidy(bool)
 *fill*         0x08065273        0x1 37008
 .gnu.linkonce.t._._Q23stdt12basic_string3ZwZQ23stdt11char_traits1ZwZQ23stdt9allocator1Zw
                0x08065274       0x35 generator_logger.o
                0x08065274                std::basic_string<wchar_t, std::char_traits<wchar_t>, std::allocator<wchar_t> >::~basic_string(void)
 *fill*         0x080652a9        0x3 37008
 .gnu.linkonce.t.__Q23stdt9allocator1Zw
                0x080652ac        0xa generator_logger.o
                0x080652ac                std::allocator<wchar_t>::allocator(void)
 *fill*         0x080652b6        0x2 37008
 .gnu.linkonce.t.__Q23stdt9allocator1ZwRCQ23stdt9allocator1Zw
                0x080652b8        0xa generator_logger.o
                0x080652b8                std::allocator<wchar_t>::allocator(std::allocator<wchar_t> const &)
 *fill*         0x080652c2        0x2 37008
 .gnu.linkonce.t.__Q23stdt11_String_val2ZwZQ23stdt9allocator1ZwGQ23stdt9allocator1Zw
                0x080652c4       0x29 generator_logger.o
                0x080652c4                std::_String_val<wchar_t, std::allocator<wchar_t> >::_String_val(std::allocator<wchar_t>)
 *fill*         0x080652ed        0x3 37008
 .gnu.linkonce.t.__Q23stdt12basic_string3ZwZQ23stdt11char_traits1ZwZQ23stdt9allocator1Zw
                0x080652f0       0x42 generator_logger.o
                0x080652f0                std::basic_string<wchar_t, std::char_traits<wchar_t>, std::allocator<wchar_t> >::basic_string(void)
 *fill*         0x08065332        0x2 37008
 .gnu.linkonce.t.__Q23stdt6_Ptrit6ZwZiZPwZRwZPwZRwPw
                0x08065334       0x12 generator_logger.o
                0x08065334                std::_Ptrit<wchar_t, int, wchar_t *, wchar_t &, wchar_t *, wchar_t &>::_Ptrit(wchar_t *)
 *fill*         0x08065346        0x2 37008
 .gnu.linkonce.t.base__CQ23stdt6_Ptrit6ZwZiZPwZRwZPwZRw
                0x08065348        0xf generator_logger.o
                0x08065348                std::_Ptrit<wchar_t, int, wchar_t *, wchar_t &, wchar_t *, wchar_t &>::base(void) const
 *fill*         0x08065357        0x1 37008
 .gnu.linkonce.t.__Q23stdt6_Ptrit6ZwZiZPwZRwZPwZRwRCQ23stdt6_Ptrit6ZwZiZPwZRwZPwZRw
                0x08065358       0x25 generator_logger.o
                0x08065358                std::_Ptrit<wchar_t, int, wchar_t *, wchar_t &, wchar_t *, wchar_t &>::_Ptrit(std::_Ptrit<wchar_t, int, wchar_t *, wchar_t &, wchar_t *, wchar_t &> const &)
 *fill*         0x0806537d        0x3 37008
 .gnu.linkonce.t.begin__Q23stdt12basic_string3ZwZQ23stdt11char_traits1ZwZQ23stdt9allocator1Zw
                0x08065380       0x38 generator_logger.o
                0x08065380                std::basic_string<wchar_t, std::char_traits<wchar_t>, std::allocator<wchar_t> >::begin(void)
 .gnu.linkonce.t.end__Q23stdt12basic_string3ZwZQ23stdt11char_traits1ZwZQ23stdt9allocator1Zw
                0x080653b8       0x46 generator_logger.o
                0x080653b8                std::basic_string<wchar_t, std::char_traits<wchar_t>, std::allocator<wchar_t> >::end(void)
 *fill*         0x080653fe        0x2 37008
 .gnu.linkonce.t.__mi__CQ23stdt6_Ptrit6ZwZiZPCwZRCwZPwZRwRCQ23stdt6_Ptrit6ZwZiZPCwZRCwZPwZRw
                0x08065400       0x24 generator_logger.o
                0x08065400                std::_Ptrit<wchar_t, int, wchar_t const *, wchar_t const &, wchar_t *, wchar_t &>::operator-(std::_Ptrit<wchar_t, int, wchar_t const *, wchar_t const &, wchar_t *, wchar_t &> const &) const
 .gnu.linkonce.t.base__CQ23stdt6_Ptrit6ZwZiZPCwZRCwZPwZRw
                0x08065424        0xf generator_logger.o
                0x08065424                std::_Ptrit<wchar_t, int, wchar_t const *, wchar_t const &, wchar_t *, wchar_t &>::base(void) const
 *fill*         0x08065433        0x1 37008
 .gnu.linkonce.t._Pdif__Q23stdt12basic_string3ZwZQ23stdt11char_traits1ZwZQ23stdt9allocator1ZwGQ23stdt6_Ptrit6ZwZiZPCwZRCwZPwZRwT1
                0x08065434       0x3e generator_logger.o
                0x08065434                std::basic_string<wchar_t, std::char_traits<wchar_t>, std::allocator<wchar_t> >::_Pdif(std::_Ptrit<wchar_t, int, wchar_t const *, wchar_t const &, wchar_t *, wchar_t &>, std::_Ptrit<wchar_t, int, wchar_t const *, wchar_t const &, wchar_t *, wchar_t &>)
 *fill*         0x08065472        0x2 37008
 .gnu.linkonce.t.__Q23stdt6_Ptrit6ZwZiZPCwZRCwZPwZRwRCQ23stdt6_Ptrit6ZwZiZPwZRwZPwZRw
                0x08065474       0x25 generator_logger.o
                0x08065474                std::_Ptrit<wchar_t, int, wchar_t const *, wchar_t const &, wchar_t *, wchar_t &>::_Ptrit(std::_Ptrit<wchar_t, int, wchar_t *, wchar_t &, wchar_t *, wchar_t &> const &)
 *fill*         0x08065499        0x3 37008
 .gnu.linkonce.t.max_size__CQ23stdt9allocator1Zw
                0x0806549c       0x24 generator_logger.o
                0x0806549c                std::allocator<wchar_t>::max_size(void) const
 .gnu.linkonce.t.max_size__CQ23stdt12basic_string3ZwZQ23stdt11char_traits1ZwZQ23stdt9allocator1Zw
                0x080654c0       0x3a generator_logger.o
                0x080654c0                std::basic_string<wchar_t, std::char_traits<wchar_t>, std::allocator<wchar_t> >::max_size(void) const
 *fill*         0x080654fa        0x2 37008
 .gnu.linkonce.t._Allocate__H1Zw_3stdUiPX01_PX01
                0x080654fc       0x30 generator_logger.o
                0x080654fc                wchar_t * std::_Allocate<wchar_t>(unsigned int, wchar_t *)
 .gnu.linkonce.t.allocate__Q23stdt9allocator1ZwUi
                0x0806552c       0x26 generator_logger.o
                0x0806552c                std::allocator<wchar_t>::allocate(unsigned int)
 *fill*         0x08065552        0x2 37008
 .gnu.linkonce.t.allocate__H1Zv_Q23stdt9allocator1ZwUiPCX00_Pw
                0x08065554       0x25 generator_logger.o
                0x08065554                wchar_t * std::allocator<wchar_t>::allocate<void>(unsigned int, void const *)
 *fill*         0x08065579        0x3 37008
 .gnu.linkonce.t._Copy__Q23stdt12basic_string3ZwZQ23stdt11char_traits1ZwZQ23stdt9allocator1ZwUiUi
                0x0806557c      0x12d generator_logger.o
                0x0806557c                std::basic_string<wchar_t, std::char_traits<wchar_t>, std::allocator<wchar_t> >::_Copy(unsigned int, unsigned int)
 *fill*         0x080656a9        0x3 37008
 .gnu.linkonce.t._Grow__Q23stdt12basic_string3ZwZQ23stdt11char_traits1ZwZQ23stdt9allocator1ZwUib
                0x080656ac       0x97 generator_logger.o
                0x080656ac                std::basic_string<wchar_t, std::char_traits<wchar_t>, std::allocator<wchar_t> >::_Grow(unsigned int, bool)
 *fill*         0x08065743        0x1 37008
 .gnu.linkonce.t.erase__Q23stdt12basic_string3ZwZQ23stdt11char_traits1ZwZQ23stdt9allocator1ZwUiUi
                0x08065744       0xe1 generator_logger.o
                0x08065744                std::basic_string<wchar_t, std::char_traits<wchar_t>, std::allocator<wchar_t> >::erase(unsigned int, unsigned int)
 *fill*         0x08065825        0x3 37008
 .gnu.linkonce.t._Inside__Q23stdt12basic_string3ZwZQ23stdt11char_traits1ZwZQ23stdt9allocator1ZwPCw
                0x08065828       0x51 generator_logger.o
                0x08065828                std::basic_string<wchar_t, std::char_traits<wchar_t>, std::allocator<wchar_t> >::_Inside(wchar_t const *)
 *fill*         0x08065879        0x3 37008
 .gnu.linkonce.t.size__CQ23stdt12basic_string3ZwZQ23stdt11char_traits1ZwZQ23stdt9allocator1Zw
                0x0806587c        0xf generator_logger.o
                0x0806587c                std::basic_string<wchar_t, std::char_traits<wchar_t>, std::allocator<wchar_t> >::size(void) const
 *fill*         0x0806588b        0x1 37008
 .gnu.linkonce.t._Myptr__CQ23stdt12basic_string3ZwZQ23stdt11char_traits1ZwZQ23stdt9allocator1Zw
                0x0806588c       0x1d generator_logger.o
                0x0806588c                std::basic_string<wchar_t, std::char_traits<wchar_t>, std::allocator<wchar_t> >::_Myptr(void) const
 *fill*         0x080658a9        0x3 37008
 .gnu.linkonce.t.replace__Q23stdt12basic_string3ZwZQ23stdt11char_traits1ZwZQ23stdt9allocator1ZwUiUiRCQ23stdt12basic_string3ZwZQ23stdt11char_traits1ZwZQ23stdt9allocator1ZwUiUi
                0x080658ac      0x535 generator_logger.o
                0x080658ac                std::basic_string<wchar_t, std::char_traits<wchar_t>, std::allocator<wchar_t> >::replace(unsigned int, unsigned int, std::basic_string<wchar_t, std::char_traits<wchar_t>, std::allocator<wchar_t> > const &, unsigned int, unsigned int)
 *fill*         0x08065de1        0x3 37008
 .gnu.linkonce.t.replace__Q23stdt12basic_string3ZwZQ23stdt11char_traits1ZwZQ23stdt9allocator1ZwUiUiPCwUi
                0x08065de4      0x221 generator_logger.o
                0x08065de4                std::basic_string<wchar_t, std::char_traits<wchar_t>, std::allocator<wchar_t> >::replace(unsigned int, unsigned int, wchar_t const *, unsigned int)
 *fill*         0x08066005        0x3 37008
 .gnu.linkonce.t.replace__Q23stdt12basic_string3ZwZQ23stdt11char_traits1ZwZQ23stdt9allocator1ZwGQ23stdt6_Ptrit6ZwZiZPwZRwZPwZRwT1PCwT3
                0x08066008      0x17d generator_logger.o
                0x08066008                std::basic_string<wchar_t, std::char_traits<wchar_t>, std::allocator<wchar_t> >::replace(std::_Ptrit<wchar_t, int, wchar_t *, wchar_t &, wchar_t *, wchar_t &>, std::_Ptrit<wchar_t, int, wchar_t *, wchar_t &, wchar_t *, wchar_t &>, wchar_t const *, wchar_t const *)
 *fill*         0x08066185        0x3 37008
 .gnu.linkonce.t.assign__Q23stdt12basic_string3ZwZQ23stdt11char_traits1ZwZQ23stdt9allocator1ZwPCwT1
                0x08066188       0x51 generator_logger.o
                0x08066188                std::basic_string<wchar_t, std::char_traits<wchar_t>, std::allocator<wchar_t> >::assign(wchar_t const *, wchar_t const *)
 *fill*         0x080661d9        0x3 37008
 .gnu.linkonce.t.c_str__CQ23stdt12basic_string3ZwZQ23stdt11char_traits1ZwZQ23stdt9allocator1Zw
                0x080661dc       0x21 generator_logger.o
                0x080661dc                std::basic_string<wchar_t, std::char_traits<wchar_t>, std::allocator<wchar_t> >::c_str(void) const
 *fill*         0x080661fd        0x3 37008
 .gnu.linkonce.t._Tidy__Q23stdt8_Tidyfac1ZQ23stdt5ctype1Zc
                0x08066200       0xb0 generator_logger.o
                0x08066200                std::_Tidyfac<std::ctype<char> >::_Tidy(void)
 .gnu.linkonce.t._Save__Q23stdt8_Tidyfac1ZQ23stdt5ctype1ZcPQ23stdt5ctype1Zc
                0x080662b0       0x3a generator_logger.o
                0x080662b0                std::_Tidyfac<std::ctype<char> >::_Save(std::ctype<char> *)
 *fill*         0x080662ea        0x2 37008
 .gnu.linkonce.t.reserve__Q23stdt12basic_string3ZcZQ23stdt11char_traits1ZcZQ23stdt9allocator1ZcUi
                0x080662ec       0x29 generator_logger.o
                0x080662ec                std::basic_string<char, std::char_traits<char>, std::allocator<char> >::reserve(unsigned int)
 *fill*         0x08066315        0x3 37008
 .gnu.linkonce.t.assign__Q23stdt12basic_string3ZcZQ23stdt11char_traits1ZcZQ23stdt9allocator1ZcPCcUi
                0x08066318       0x9b generator_logger.o
                0x08066318                std::basic_string<char, std::char_traits<char>, std::allocator<char> >::assign(char const *, unsigned int)
 *fill*         0x080663b3        0x1 37008
 .gnu.linkonce.t.assign__Q23stdt12basic_string3ZcZQ23stdt11char_traits1ZcZQ23stdt9allocator1ZcPCc
                0x080663b4       0x37 generator_logger.o
                0x080663b4                std::basic_string<char, std::char_traits<char>, std::allocator<char> >::assign(char const *)
 *fill*         0x080663eb        0x1 37008
 .gnu.linkonce.t.__as__Q23stdt12basic_string3ZcZQ23stdt11char_traits1ZcZQ23stdt9allocator1ZcPCc
                0x080663ec       0x25 generator_logger.o
                0x080663ec                std::basic_string<char, std::char_traits<char>, std::allocator<char> >::operator=(char const *)
 *fill*         0x08066411        0x3 37008
 .gnu.linkonce.t.append__Q23stdt12basic_string3ZcZQ23stdt11char_traits1ZcZQ23stdt9allocator1ZcRCQ23stdt12basic_string3ZcZQ23stdt11char_traits1ZcZQ23stdt9allocator1ZcUiUi
                0x08066414       0xe9 generator_logger.o
                0x08066414                std::basic_string<char, std::char_traits<char>, std::allocator<char> >::append(std::basic_string<char, std::char_traits<char>, std::allocator<char> > const &, unsigned int, unsigned int)
 *fill*         0x080664fd        0x3 37008
 .gnu.linkonce.t.append__Q23stdt12basic_string3ZcZQ23stdt11char_traits1ZcZQ23stdt9allocator1ZcRCQ23stdt12basic_string3ZcZQ23stdt11char_traits1ZcZQ23stdt9allocator1Zc
                0x08066500       0x26 generator_logger.o
                0x08066500                std::basic_string<char, std::char_traits<char>, std::allocator<char> >::append(std::basic_string<char, std::char_traits<char>, std::allocator<char> > const &)
 *fill*         0x08066526        0x2 37008
 .gnu.linkonce.t.__apl__Q23stdt12basic_string3ZcZQ23stdt11char_traits1ZcZQ23stdt9allocator1ZcRCQ23stdt12basic_string3ZcZQ23stdt11char_traits1ZcZQ23stdt9allocator1Zc
                0x08066528       0x25 generator_logger.o
                0x08066528                std::basic_string<char, std::char_traits<char>, std::allocator<char> >::operator+=(std::basic_string<char, std::char_traits<char>, std::allocator<char> > const &)
 *fill*         0x0806654d        0x3 37008
 .gnu.linkonce.t.assign__Q23stdt11char_traits1ZwRwRCw
                0x08066550        0xf generator_logger.o
                0x08066550                std::char_traits<wchar_t>::assign(wchar_t &, wchar_t const &)
 *fill*         0x0806655f        0x1 37008
 .gnu.linkonce.t.copy__Q23stdt11char_traits1ZwPwPCwUi
                0x08066560       0x26 generator_logger.o
                0x08066560                std::char_traits<wchar_t>::copy(wchar_t *, wchar_t const *, unsigned int)
 *fill*         0x08066586        0x2 37008
 .gnu.linkonce.t.move__Q23stdt11char_traits1ZwPwPCwUi
                0x08066588       0x26 generator_logger.o
                0x08066588                std::char_traits<wchar_t>::move(wchar_t *, wchar_t const *, unsigned int)
 *fill*         0x080665ae        0x2 37008
 .gnu.linkonce.t.assign__Q23stdt11char_traits1ZcRcRCc
                0x080665b0        0xf generator_logger.o
                0x080665b0                std::char_traits<char>::assign(char &, char const &)
 *fill*         0x080665bf        0x1 37008
 .gnu.linkonce.t.length__Q23stdt11char_traits1ZcPCc
                0x080665c0       0x1e generator_logger.o
                0x080665c0                std::char_traits<char>::length(char const *)
 *fill*         0x080665de        0x2 37008
 .gnu.linkonce.t.copy__Q23stdt11char_traits1ZcPcPCcUi
                0x080665e0       0x26 generator_logger.o
                0x080665e0                std::char_traits<char>::copy(char *, char const *, unsigned int)
 *fill*         0x08066606        0x2 37008
 .gnu.linkonce.t.move__Q23stdt11char_traits1ZcPcPCcUi
                0x08066608       0x26 generator_logger.o
                0x08066608                std::char_traits<char>::move(char *, char const *, unsigned int)
 *fill*         0x0806662e        0x2 37008
 .gnu.linkonce.t._Incref__Q33std6locale5facet
                0x08066630       0x6d generator_logger.o
                0x08066630                std::locale::facet::_Incref(void)
 *fill*         0x0806669d        0x3 37008
 .gnu.linkonce.t._Decref__Q33std6locale5facet
                0x080666a0       0x8b generator_logger.o
                0x080666a0                std::locale::facet::_Decref(void)
 *fill*         0x0806672b        0x1 37008
 .gnu.linkonce.t.__16generator_logger
                0x0806672c        0xa generator_logger.o
                0x0806672c                generator_logger::generator_logger(void)
 *fill*         0x08066736        0x2 37008
 .gnu.linkonce.t.__Q23stdt9allocator1ZUx
                0x08066738        0xa mock_generator.o
                0x08066738                std::allocator<unsigned long long>::allocator(void)
 *fill*         0x08066742        0x2 37008
 .gnu.linkonce.t.__Q23stdt9allocator1ZUxRCQ23stdt9allocator1ZUx
                0x08066744        0xa mock_generator.o
                0x08066744                std::allocator<unsigned long long>::allocator(std::allocator<unsigned long long> const &)
 *fill*         0x0806674e        0x2 37008
 .gnu.linkonce.t.__Q23stdt11_Vector_val2ZUxZQ23stdt9allocator1ZUxGQ23stdt9allocator1ZUx
                0x08066750       0x26 mock_generator.o
                0x08066750                std::_Vector_val<unsigned long long, std::allocator<unsigned long long> >::_Vector_val(std::allocator<unsigned long long>)
 *fill*         0x08066776        0x2 37008
 .gnu.linkonce.t.max_size__CQ23stdt9allocator1ZUx
                0x08066778       0x24 mock_generator.o
                0x08066778                std::allocator<unsigned long long>::max_size(void) const
 .gnu.linkonce.t.max_size__CQ23stdt6vector2ZUxZQ23stdt9allocator1ZUx
                0x0806679c       0x21 mock_generator.o
                0x0806679c                std::vector<unsigned long long, std::allocator<unsigned long long> >::max_size(void) const
 *fill*         0x080667bd        0x3 37008
 .gnu.linkonce.t.__Q23stdt12basic_string3ZcZQ23stdt11char_traits1ZcZQ23stdt9allocator1ZcPCc
                0x080667c0       0x54 mock_generator.o
                0x080667c0                std::basic_string<char, std::char_traits<char>, std::allocator<char> >::basic_string(char const *)
 .gnu.linkonce.t._Xlen__CQ23stdt6vector2ZUxZQ23stdt9allocator1ZUx
                0x08066814      0x110 mock_generator.o
                0x08066814                std::vector<unsigned long long, std::allocator<unsigned long long> >::_Xlen(void) const
 .gnu.linkonce.t._Allocate__H1ZUx_3stdUiPX01_PX01
                0x08066924       0x30 mock_generator.o
                0x08066924                unsigned long long * std::_Allocate<unsigned long long>(unsigned int, unsigned long long *)
 .gnu.linkonce.t.allocate__Q23stdt9allocator1ZUxUi
                0x08066954       0x26 mock_generator.o
                0x08066954                std::allocator<unsigned long long>::allocate(unsigned int)
 *fill*         0x0806697a        0x2 37008
 .gnu.linkonce.t.allocate__H1Zv_Q23stdt9allocator1ZUxUiPCX00_PUx
                0x0806697c       0x25 mock_generator.o
                0x0806697c                unsigned long long * std::allocator<unsigned long long>::allocate<void>(unsigned int, void const *)
 *fill*         0x080669a1        0x3 37008
 .gnu.linkonce.t._Buy__Q23stdt6vector2ZUxZQ23stdt9allocator1ZUxUi
                0x080669a4       0x8d mock_generator.o
                0x080669a4                std::vector<unsigned long long, std::allocator<unsigned long long> >::_Buy(unsigned int)
 *fill*         0x08066a31        0x3 37008
 .gnu.linkonce.t.__Q23stdt6vector2ZUxZQ23stdt9allocator1ZUx
                0x08066a34       0x42 mock_generator.o
                0x08066a34                std::vector<unsigned long long, std::allocator<unsigned long long> >::vector(void)
 *fill*         0x08066a76        0x2 37008
 .gnu.linkonce.t._Ptr_cat__H2ZPUxZPUx_3stdRCX01RX11_Q23std27_Nonscalar_ptr_iterator_tag
                0x08066a78       0x20 mock_generator.o
                0x08066a78                std::_Nonscalar_ptr_iterator_tag std::_Ptr_cat<unsigned long long *, unsigned long long *>(unsigned long long * const &, unsigned long long * &)
 .gnu.linkonce.t._Destroy__H1ZUx_3stdPX01_v
                0x08066a98        0x8 mock_generator.o
                0x08066a98                void std::_Destroy<unsigned long long>(unsigned long long *)
 .gnu.linkonce.t.destroy__Q23stdt9allocator1ZUxPUx
                0x08066aa0       0x1e mock_generator.o
                0x08066aa0                std::allocator<unsigned long long>::destroy(unsigned long long *)
 *fill*         0x08066abe        0x2 37008
 .gnu.linkonce.t._Destroy_range__H2ZUxZQ23stdt9allocator1ZUx_3stdPX01T1RX11GQ23std27_Nonscalar_ptr_iterator_tag_v
                0x08066ac0       0x3c mock_generator.o
                0x08066ac0                void std::_Destroy_range<unsigned long long, std::allocator<unsigned long long> >(unsigned long long *, unsigned long long *, std::allocator<unsigned long long> &, std::_Nonscalar_ptr_iterator_tag)
 .gnu.linkonce.t._Destroy_range__H2ZUxZQ23stdt9allocator1ZUx_3stdPX01T1RX11_v
                0x08066afc       0x46 mock_generator.o
                0x08066afc                void std::_Destroy_range<unsigned long long, std::allocator<unsigned long long> >(unsigned long long *, unsigned long long *, std::allocator<unsigned long long> &)
 *fill*         0x08066b42        0x2 37008
 .gnu.linkonce.t._Destroy__Q23stdt6vector2ZUxZQ23stdt9allocator1ZUxPUxT1
                0x08066b44       0x23 mock_generator.o
                0x08066b44                std::vector<unsigned long long, std::allocator<unsigned long long> >::_Destroy(unsigned long long *, unsigned long long *)
 *fill*         0x08066b67        0x1 37008
 .gnu.linkonce.t.deallocate__Q23stdt9allocator1ZUxPUxUi
                0x08066b68       0x1e mock_generator.o
                0x08066b68                std::allocator<unsigned long long>::deallocate(unsigned long long *, unsigned int)
 *fill*         0x08066b86        0x2 37008
 .gnu.linkonce.t._._Q23stdt6vector2ZUxZQ23stdt9allocator1ZUx
                0x08066b88       0x79 mock_generator.o
                0x08066b88                std::vector<unsigned long long, std::allocator<unsigned long long> >::~vector(void)
 *fill*         0x08066c01        0x3 37008
 .gnu.linkonce.t.__Q23stdt12hash_compare2ZiZQ23stdt4less1Zi
                0x08066c04        0xf mock_generator.o
                0x08066c04                std::hash_compare<int, std::less<int> >::hash_compare(void)
 *fill*         0x08066c13        0x1 37008
 .gnu.linkonce.t.__Q23stdt9allocator1ZQ23stdt4pair2ZCiZQ214mock_generator15call_parameters
                0x08066c14        0xa mock_generator.o
                0x08066c14                std::allocator<std::pair<int const, mock_generator::call_parameters> >::allocator(void)
 *fill*         0x08066c1e        0x2 37008
 .gnu.linkonce.t.__Q33stdt4list2ZQ23stdt4pair2ZCiZQ214mock_generator15call_parametersZQ23stdt9allocator1ZQ23stdt4pair2ZCiZQ214mock_generator15call_parameters14const_iteratorPQ33stdt9_List_nod2ZQ23stdt4pair2ZCiZQ214mock_generator15call_parametersZQ23stdt9allocator1ZQ23stdt4pair2ZCiZQ214mock_generator15call_parameters5_Node
                0x08066c20       0x12 mock_generator.o
                0x08066c20                std::list<std::pair<int const, mock_generator::call_parameters>, std::allocator<std::pair<int const, mock_generator::call_parameters> > >::const_iterator::const_iterator(std::_List_nod<std::pair<int const, mock_generator::call_parameters>, std::allocator<std::pair<int const, mock_generator::call_parameters> > >::_Node *)
 *fill*         0x08066c32        0x2 37008
 .gnu.linkonce.t.__Q33stdt4list2ZQ23stdt4pair2ZCiZQ214mock_generator15call_parametersZQ23stdt9allocator1ZQ23stdt4pair2ZCiZQ214mock_generator15call_parameters8iteratorPQ33stdt9_List_nod2ZQ23stdt4pair2ZCiZQ214mock_generator15call_parametersZQ23stdt9allocator1ZQ23stdt4pair2ZCiZQ214mock_generator15call_parameters5_Node
                0x08066c34       0x23 mock_generator.o
                0x08066c34                std::list<std::pair<int const, mock_generator::call_parameters>, std::allocator<std::pair<int const, mock_generator::call_parameters> > >::iterator::iterator(std::_List_nod<std::pair<int const, mock_generator::call_parameters>, std::allocator<std::pair<int const, mock_generator::call_parameters> > >::_Node *)
 *fill*         0x08066c57        0x1 37008
 .gnu.linkonce.t.end__Q23stdt4list2ZQ23stdt4pair2ZCiZQ214mock_generator15call_parametersZQ23stdt9allocator1ZQ23stdt4pair2ZCiZQ214mock_generator15call_parameters
                0x08066c58       0x2d mock_generator.o
                0x08066c58                std::list<std::pair<int const, mock_generator::call_parameters>, std::allocator<std::pair<int const, mock_generator::call_parameters> > >::end(void)
 *fill*         0x08066c85        0x3 37008
 .gnu.linkonce.t.end__Q23stdt5_Hash1ZQ23stdt12_Hmap_traits5ZiZQ214mock_generator15call_parametersZQ23stdt12hash_compare2ZiZQ23stdt4less1ZiZQ23stdt9allocator1ZQ23stdt4pair2ZCiZQ214mock_generator15call_parametersb0
                0x08066c88       0x2b mock_generator.o
                0x08066c88                std::_Hash<std::_Hmap_traits<int, mock_generator::call_parameters, std::hash_compare<int, std::less<int> >, std::allocator<std::pair<int const, mock_generator::call_parameters> >, false> >::end(void)
 *fill*         0x08066cb3        0x1 37008
 .gnu.linkonce.t.__Q23stdt12_Hmap_traits5ZiZQ214mock_generator15call_parametersZQ23stdt12hash_compare2ZiZQ23stdt4less1ZiZQ23stdt9allocator1ZQ23stdt4pair2ZCiZQ214mock_generator15call_parametersb0RCQ23stdt12hash_compare2ZiZQ23stdt4less1Zi
                0x08066cb4       0x13 mock_generator.o
                0x08066cb4                std::_Hmap_traits<int, mock_generator::call_parameters, std::hash_compare<int, std::less<int> >, std::allocator<std::pair<int const, mock_generator::call_parameters> >, false>::_Hmap_traits(std::hash_compare<int, std::less<int> > const &)
 *fill*         0x08066cc7        0x1 37008
 .gnu.linkonce.t._Allocate__H1ZQ33stdt9_List_nod2ZQ23stdt4pair2ZCiZQ214mock_generator15call_parametersZQ23stdt9allocator1ZQ23stdt4pair2ZCiZQ214mock_generator15call_parameters5_Node_3stdUiPX01_PX01
                0x08066cc8       0x36 mock_generator.o
                0x08066cc8                std::_List_nod<std::pair<int const, mock_generator::call_parameters>, std::allocator<std::pair<int const, mock_generator::call_parameters> > >::_Node * std::_Allocate<std::_List_nod<std::pair<int const, mock_generator::call_parameters>, std::allocator<std::pair<int const, mock_generator::call_parameters> > >::_Node>(unsigned int, std::_List_nod<std::pair<int const, mock_generator::call_parameters>, std::allocator<std::pair<int const, mock_generator::call_parameters> > >::_Node *)
 *fill*         0x08066cfe        0x2 37008
 .gnu.linkonce.t.allocate__Q23stdt9allocator1ZQ33stdt9_List_nod2ZQ23stdt4pair2ZCiZQ214mock_generator15call_parametersZQ23stdt9allocator1ZQ23stdt4pair2ZCiZQ214mock_generator15call_parameters5_NodeUi
                0x08066d00       0x26 mock_generator.o
                0x08066d00                std::allocator<std::_List_nod<std::pair<int const, mock_generator::call_parameters>, std::allocator<std::pair<int const, mock_generator::call_parameters> > >::_Node>::allocate(unsigned int)
 *fill*         0x08066d26        0x2 37008
 .gnu.linkonce.t.allocate__H1Zv_Q23stdt9allocator1ZQ33stdt9_List_nod2ZQ23stdt4pair2ZCiZQ214mock_generator15call_parametersZQ23stdt9allocator1ZQ23stdt4pair2ZCiZQ214mock_generator15call_parameters5_NodeUiPCX00_PQ33stdt9_List_nod2ZQ23stdt4pair2ZCiZQ214mock_generator15call_parametersZQ23stdt9allocator1ZQ23stdt4pair2ZCiZQ214mock_generator15call_parameters5_Node
                0x08066d28       0x25 mock_generator.o
                0x08066d28                std::_List_nod<std::pair<int const, mock_generator::call_parameters>, std::allocator<std::pair<int const, mock_generator::call_parameters> > >::_Node * std::allocator<std::_List_nod<std::pair<int const, mock_generator::call_parameters>, std::allocator<std::pair<int const, mock_generator::call_parameters> > >::_Node>::allocate<void>(unsigned int, void const *)
 *fill*         0x08066d4d        0x3 37008
 .gnu.linkonce.t._Next__Q23stdt4list2ZQ23stdt4pair2ZCiZQ214mock_generator15call_parametersZQ23stdt9allocator1ZQ23stdt4pair2ZCiZQ214mock_generator15call_parametersPQ33stdt9_List_nod2ZQ23stdt4pair2ZCiZQ214mock_generator15call_parametersZQ23stdt9allocator1ZQ23stdt4pair2ZCiZQ214mock_generator15call_parameters5_Node
                0x08066d50        0xe mock_generator.o
                0x08066d50                std::list<std::pair<int const, mock_generator::call_parameters>, std::allocator<std::pair<int const, mock_generator::call_parameters> > >::_Next(std::_List_nod<std::pair<int const, mock_generator::call_parameters>, std::allocator<std::pair<int const, mock_generator::call_parameters> > >::_Node *)
 *fill*         0x08066d5e        0x2 37008
 .gnu.linkonce.t._Construct__H2ZPQ33stdt9_List_nod2ZQ23stdt4pair2ZCiZQ214mock_generator15call_parametersZQ23stdt9allocator1ZQ23stdt4pair2ZCiZQ214mock_generator15call_parameters5_NodeZPQ33stdt9_List_nod2ZQ23stdt4pair2ZCiZQ214mock_generator15call_parametersZQ23stdt9allocator1ZQ23stdt4pair2ZCiZQ214mock_generator15call_parameters5_Node_3stdPX01RCX11_v
                0x08066d60       0xc4 mock_generator.o
                0x08066d60                void std::_Construct<std::_List_nod<std::pair<int const, mock_generator::call_parameters>, std::allocator<std::pair<int const, mock_generator::call_parameters> > >::_Node *, std::_List_nod<std::pair<int const, mock_generator::call_parameters>, std::allocator<std::pair<int const, mock_generator::call_parameters> > >::_Node *>(std::_List_nod<std::pair<int const, mock_generator::call_parameters>, std::allocator<std::pair<int const, mock_generator::call_parameters> > >::_Node * *, std::_List_nod<std::pair<int const, mock_generator::call_parameters>, std::allocator<std::pair<int const, mock_generator::call_parameters> > >::_Node * const &)
 .gnu.linkonce.t.construct__Q23stdt9allocator1ZPQ33stdt9_List_nod2ZQ23stdt4pair2ZCiZQ214mock_generator15call_parametersZQ23stdt9allocator1ZQ23stdt4pair2ZCiZQ214mock_generator15call_parameters5_NodePPQ33stdt9_List_nod2ZQ23stdt4pair2ZCiZQ214mock_generator15call_parametersZQ23stdt9allocator1ZQ23stdt4pair2ZCiZQ214mock_generator15call_parameters5_NodeRCPQ33stdt9_List_nod2ZQ23stdt4pair2ZCiZQ214mock_generator15call_parametersZQ23stdt9allocator1ZQ23stdt4pair2ZCiZQ214mock_generator15call_parameters5_Node
                0x08066e24       0x22 mock_generator.o
                0x08066e24                std::allocator<std::_List_nod<std::pair<int const, mock_generator::call_parameters>, std::allocator<std::pair<int const, mock_generator::call_parameters> > >::_Node *>::construct(std::_List_nod<std::pair<int const, mock_generator::call_parameters>, std::allocator<std::pair<int const, mock_generator::call_parameters> > >::_Node **, std::_List_nod<std::pair<int const, mock_generator::call_parameters>, std::allocator<std::pair<int const, mock_generator::call_parameters> > >::_Node *const &)
 *fill*         0x08066e46        0x2 37008
 .gnu.linkonce.t._Prev__Q23stdt4list2ZQ23stdt4pair2ZCiZQ214mock_generator15call_parametersZQ23stdt9allocator1ZQ23stdt4pair2ZCiZQ214mock_generator15call_parametersPQ33stdt9_List_nod2ZQ23stdt4pair2ZCiZQ214mock_generator15call_parametersZQ23stdt9allocator1ZQ23stdt4pair2ZCiZQ214mock_generator15call_parameters5_Node
                0x08066e48       0x12 mock_generator.o
                0x08066e48                std::list<std::pair<int const, mock_generator::call_parameters>, std::allocator<std::pair<int const, mock_generator::call_parameters> > >::_Prev(std::_List_nod<std::pair<int const, mock_generator::call_parameters>, std::allocator<std::pair<int const, mock_generator::call_parameters> > >::_Node *)
 *fill*         0x08066e5a        0x2 37008
 .gnu.linkonce.t._Destroy__H1ZPQ33stdt9_List_nod2ZQ23stdt4pair2ZCiZQ214mock_generator15call_parametersZQ23stdt9allocator1ZQ23stdt4pair2ZCiZQ214mock_generator15call_parameters5_Node_3stdPX01_v
                0x08066e5c        0x8 mock_generator.o
                0x08066e5c                void std::_Destroy<std::_List_nod<std::pair<int const, mock_generator::call_parameters>, std::allocator<std::pair<int const, mock_generator::call_parameters> > >::_Node *>(std::_List_nod<std::pair<int const, mock_generator::call_parameters>, std::allocator<std::pair<int const, mock_generator::call_parameters> > >::_Node * *)
 .gnu.linkonce.t.destroy__Q23stdt9allocator1ZPQ33stdt9_List_nod2ZQ23stdt4pair2ZCiZQ214mock_generator15call_parametersZQ23stdt9allocator1ZQ23stdt4pair2ZCiZQ214mock_generator15call_parameters5_NodePPQ33stdt9_List_nod2ZQ23stdt4pair2ZCiZQ214mock_generator15call_parametersZQ23stdt9allocator1ZQ23stdt4pair2ZCiZQ214mock_generator15call_parameters5_Node
                0x08066e64       0x1e mock_generator.o
                0x08066e64                std::allocator<std::_List_nod<std::pair<int const, mock_generator::call_parameters>, std::allocator<std::pair<int const, mock_generator::call_parameters> > >::_Node *>::destroy(std::_List_nod<std::pair<int const, mock_generator::call_parameters>, std::allocator<std::pair<int const, mock_generator::call_parameters> > >::_Node **)
 *fill*         0x08066e82        0x2 37008
 .gnu.linkonce.t.deallocate__Q23stdt9allocator1ZQ33stdt9_List_nod2ZQ23stdt4pair2ZCiZQ214mock_generator15call_parametersZQ23stdt9allocator1ZQ23stdt4pair2ZCiZQ214mock_generator15call_parameters5_NodePQ33stdt9_List_nod2ZQ23stdt4pair2ZCiZQ214mock_generator15call_parametersZQ23stdt9allocator1ZQ23stdt4pair2ZCiZQ214mock_generator15call_parameters5_NodeUi
                0x08066e84       0x1e mock_generator.o
                0x08066e84                std::allocator<std::_List_nod<std::pair<int const, mock_generator::call_parameters>, std::allocator<std::pair<int const, mock_generator::call_parameters> > >::_Node>::deallocate(std::_List_nod<std::pair<int const, mock_generator::call_parameters>, std::allocator<std::pair<int const, mock_generator::call_parameters> > >::_Node *, unsigned int)
 *fill*         0x08066ea2        0x2 37008
 .gnu.linkonce.t._Buynode__Q23stdt4list2ZQ23stdt4pair2ZCiZQ214mock_generator15call_parametersZQ23stdt9allocator1ZQ23stdt4pair2ZCiZQ214mock_generator15call_parameters
                0x08066ea4      0x11d mock_generator.o
                0x08066ea4                std::list<std::pair<int const, mock_generator::call_parameters>, std::allocator<std::pair<int const, mock_generator::call_parameters> > >::_Buynode(void)
 *fill*         0x08066fc1        0x3 37008
 .gnu.linkonce.t.__Q23stdt9allocator1ZQ23stdt4pair2ZCiZQ214mock_generator15call_parametersRCQ23stdt9allocator1ZQ23stdt4pair2ZCiZQ214mock_generator15call_parameters
                0x08066fc4        0xa mock_generator.o
                0x08066fc4                std::allocator<std::pair<int const, mock_generator::call_parameters> >::allocator(std::allocator<std::pair<int const, mock_generator::call_parameters> > const &)
 *fill*         0x08066fce        0x2 37008
 .gnu.linkonce.t.__H1ZQ23stdt4pair2ZCiZQ214mock_generator15call_parameters_Q23stdt9allocator1ZQ33stdt9_List_nod2ZQ23stdt4pair2ZCiZQ214mock_generator15call_parametersZQ23stdt9allocator1ZQ23stdt4pair2ZCiZQ214mock_generator15call_parameters5_NodeRCQ23stdt9allocator1ZX00
                0x08066fd0        0xa mock_generator.o
                0x08066fd0                std::allocator<std::_List_nod<std::pair<int const, mock_generator::call_parameters>, std::allocator<std::pair<int const, mock_generator::call_parameters> > >::_Node>::allocator::<std::pair<int const, mock_generator::call_parameters> >(std::allocator<std::pair<int const, mock_generator::call_parameters> > const &)
 *fill*         0x08066fda        0x2 37008
 .gnu.linkonce.t.__Q23stdt9_List_nod2ZQ23stdt4pair2ZCiZQ214mock_generator15call_parametersZQ23stdt9allocator1ZQ23stdt4pair2ZCiZQ214mock_generator15call_parametersGQ23stdt9allocator1ZQ23stdt4pair2ZCiZQ214mock_generator15call_parameters
                0x08066fdc       0x26 mock_generator.o
                0x08066fdc                std::_List_nod<std::pair<int const, mock_generator::call_parameters>, std::allocator<std::pair<int const, mock_generator::call_parameters> > >::_List_nod(std::allocator<std::pair<int const, mock_generator::call_parameters> >)
 *fill*         0x08067002        0x2 37008
 .gnu.linkonce.t.__H1ZQ23stdt4pair2ZCiZQ214mock_generator15call_parameters_Q23stdt9allocator1ZPQ33stdt9_List_nod2ZQ23stdt4pair2ZCiZQ214mock_generator15call_parametersZQ23stdt9allocator1ZQ23stdt4pair2ZCiZQ214mock_generator15call_parameters5_NodeRCQ23stdt9allocator1ZX00
                0x08067004        0xa mock_generator.o
                0x08067004                std::allocator<std::_List_nod<std::pair<int const, mock_generator::call_parameters>, std::allocator<std::pair<int const, mock_generator::call_parameters> > >::_Node *>::allocator::<std::pair<int const, mock_generator::call_parameters> >(std::allocator<std::pair<int const, mock_generator::call_parameters> > const &)
 *fill*         0x0806700e        0x2 37008
 .gnu.linkonce.t.__Q23stdt9_List_ptr2ZQ23stdt4pair2ZCiZQ214mock_generator15call_parametersZQ23stdt9allocator1ZQ23stdt4pair2ZCiZQ214mock_generator15call_parametersGQ23stdt9allocator1ZQ23stdt4pair2ZCiZQ214mock_generator15call_parameters
                0x08067010       0x4b mock_generator.o
                0x08067010                std::_List_ptr<std::pair<int const, mock_generator::call_parameters>, std::allocator<std::pair<int const, mock_generator::call_parameters> > >::_List_ptr(std::allocator<std::pair<int const, mock_generator::call_parameters> >)
 *fill*         0x0806705b        0x1 37008
 .gnu.linkonce.t.__Q23stdt9_List_val2ZQ23stdt4pair2ZCiZQ214mock_generator15call_parametersZQ23stdt9allocator1ZQ23stdt4pair2ZCiZQ214mock_generator15call_parametersGQ23stdt9allocator1ZQ23stdt4pair2ZCiZQ214mock_generator15call_parameters
                0x0806705c       0x4b mock_generator.o
                0x0806705c                std::_List_val<std::pair<int const, mock_generator::call_parameters>, std::allocator<std::pair<int const, mock_generator::call_parameters> > >::_List_val(std::allocator<std::pair<int const, mock_generator::call_parameters> >)
 *fill*         0x080670a7        0x1 37008
 .gnu.linkonce.t.__Q23stdt4list2ZQ23stdt4pair2ZCiZQ214mock_generator15call_parametersZQ23stdt9allocator1ZQ23stdt4pair2ZCiZQ214mock_generator15call_parametersRCQ23stdt9allocator1ZQ23stdt4pair2ZCiZQ214mock_generator15call_parameters
                0x080670a8       0x4e mock_generator.o
                0x080670a8                std::list<std::pair<int const, mock_generator::call_parameters>, std::allocator<std::pair<int const, mock_generator::call_parameters> > >::list(std::allocator<std::pair<int const, mock_generator::call_parameters> > const &)
 *fill*         0x080670f6        0x2 37008
 .gnu.linkonce.t.begin__Q23stdt4list2ZQ23stdt4pair2ZCiZQ214mock_generator15call_parametersZQ23stdt9allocator1ZQ23stdt4pair2ZCiZQ214mock_generator15call_parameters
                0x080670f8       0x47 mock_generator.o
                0x080670f8                std::list<std::pair<int const, mock_generator::call_parameters>, std::allocator<std::pair<int const, mock_generator::call_parameters> > >::begin(void)
 *fill*         0x0806713f        0x1 37008
 .gnu.linkonce.t.__eq__CQ33stdt4list2ZQ23stdt4pair2ZCiZQ214mock_generator15call_parametersZQ23stdt9allocator1ZQ23stdt4pair2ZCiZQ214mock_generator15call_parameters14const_iteratorRCQ33stdt4list2ZQ23stdt4pair2ZCiZQ214mock_generator15call_parametersZQ23stdt9allocator1ZQ23stdt4pair2ZCiZQ214mock_generator15call_parameters14const_iterator
                0x08067140       0x1b mock_generator.o
                0x08067140                std::list<std::pair<int const, mock_generator::call_parameters>, std::allocator<std::pair<int const, mock_generator::call_parameters> > >::const_iterator::operator==(std::list<std::pair<int const, mock_generator::call_parameters>, std::allocator<std::pair<int const, mock_generator::call_parameters> > >::const_iterator const &) const
 *fill*         0x0806715b        0x1 37008
 .gnu.linkonce.t.__ne__CQ33stdt4list2ZQ23stdt4pair2ZCiZQ214mock_generator15call_parametersZQ23stdt9allocator1ZQ23stdt4pair2ZCiZQ214mock_generator15call_parameters14const_iteratorRCQ33stdt4list2ZQ23stdt4pair2ZCiZQ214mock_generator15call_parametersZQ23stdt9allocator1ZQ23stdt4pair2ZCiZQ214mock_generator15call_parameters14const_iterator
                0x0806715c       0x28 mock_generator.o
                0x0806715c                std::list<std::pair<int const, mock_generator::call_parameters>, std::allocator<std::pair<int const, mock_generator::call_parameters> > >::const_iterator::operator!=(std::list<std::pair<int const, mock_generator::call_parameters>, std::allocator<std::pair<int const, mock_generator::call_parameters> > >::const_iterator const &) const
 .gnu.linkonce.t.__pp__Q33stdt4list2ZQ23stdt4pair2ZCiZQ214mock_generator15call_parametersZQ23stdt9allocator1ZQ23stdt4pair2ZCiZQ214mock_generator15call_parameters8iterator
                0x08067184       0x2e mock_generator.o
                0x08067184                std::list<std::pair<int const, mock_generator::call_parameters>, std::allocator<std::pair<int const, mock_generator::call_parameters> > >::iterator::operator++(void)
 *fill*         0x080671b2        0x2 37008
 .gnu.linkonce.t.__pp__Q33stdt4list2ZQ23stdt4pair2ZCiZQ214mock_generator15call_parametersZQ23stdt9allocator1ZQ23stdt4pair2ZCiZQ214mock_generator15call_parameters8iteratori
                0x080671b4       0x3d mock_generator.o
                0x080671b4                std::list<std::pair<int const, mock_generator::call_parameters>, std::allocator<std::pair<int const, mock_generator::call_parameters> > >::iterator::operator++(int)
 *fill*         0x080671f1        0x3 37008
 .gnu.linkonce.t._Mynode__CQ33stdt4list2ZQ23stdt4pair2ZCiZQ214mock_generator15call_parametersZQ23stdt9allocator1ZQ23stdt4pair2ZCiZQ214mock_generator15call_parameters14const_iterator
                0x080671f4        0xf mock_generator.o
                0x080671f4                std::list<std::pair<int const, mock_generator::call_parameters>, std::allocator<std::pair<int const, mock_generator::call_parameters> > >::const_iterator::_Mynode(void) const
 *fill*         0x08067203        0x1 37008
 .gnu.linkonce.t._Destroy__H1ZQ33stdt9_List_nod2ZQ23stdt4pair2ZCiZQ214mock_generator15call_parametersZQ23stdt9allocator1ZQ23stdt4pair2ZCiZQ214mock_generator15call_parameters5_Node_3stdPX01_v
                0x08067204        0x8 mock_generator.o
                0x08067204                void std::_Destroy<std::_List_nod<std::pair<int const, mock_generator::call_parameters>, std::allocator<std::pair<int const, mock_generator::call_parameters> > >::_Node>(std::_List_nod<std::pair<int const, mock_generator::call_parameters>, std::allocator<std::pair<int const, mock_generator::call_parameters> > >::_Node *)
 .gnu.linkonce.t.destroy__Q23stdt9allocator1ZQ33stdt9_List_nod2ZQ23stdt4pair2ZCiZQ214mock_generator15call_parametersZQ23stdt9allocator1ZQ23stdt4pair2ZCiZQ214mock_generator15call_parameters5_NodePQ33stdt9_List_nod2ZQ23stdt4pair2ZCiZQ214mock_generator15call_parametersZQ23stdt9allocator1ZQ23stdt4pair2ZCiZQ214mock_generator15call_parameters5_Node
                0x0806720c       0x1e mock_generator.o
                0x0806720c                std::allocator<std::_List_nod<std::pair<int const, mock_generator::call_parameters>, std::allocator<std::pair<int const, mock_generator::call_parameters> > >::_Node>::destroy(std::_List_nod<std::pair<int const, mock_generator::call_parameters>, std::allocator<std::pair<int const, mock_generator::call_parameters> > >::_Node *)
 *fill*         0x0806722a        0x2 37008
 .gnu.linkonce.t.erase__Q23stdt4list2ZQ23stdt4pair2ZCiZQ214mock_generator15call_parametersZQ23stdt9allocator1ZQ23stdt4pair2ZCiZQ214mock_generator15call_parametersGQ33stdt4list2ZQ23stdt4pair2ZCiZQ214mock_generator15call_parametersZQ23stdt9allocator1ZQ23stdt4pair2ZCiZQ214mock_generator15call_parameters8iterator
                0x0806722c      0x10d mock_generator.o
                0x0806722c                std::list<std::pair<int const, mock_generator::call_parameters>, std::allocator<std::pair<int const, mock_generator::call_parameters> > >::erase(std::list<std::pair<int const, mock_generator::call_parameters>, std::allocator<std::pair<int const, mock_generator::call_parameters> > >::iterator)
 *fill*         0x08067339        0x3 37008
 .gnu.linkonce.t.erase__Q23stdt4list2ZQ23stdt4pair2ZCiZQ214mock_generator15call_parametersZQ23stdt9allocator1ZQ23stdt4pair2ZCiZQ214mock_generator15call_parametersGQ33stdt4list2ZQ23stdt4pair2ZCiZQ214mock_generator15call_parametersZQ23stdt9allocator1ZQ23stdt4pair2ZCiZQ214mock_generator15call_parameters8iteratorT1
                0x0806733c       0x79 mock_generator.o
                0x0806733c                std::list<std::pair<int const, mock_generator::call_parameters>, std::allocator<std::pair<int const, mock_generator::call_parameters> > >::erase(std::list<std::pair<int const, mock_generator::call_parameters>, std::allocator<std::pair<int const, mock_generator::call_parameters> > >::iterator, std::list<std::pair<int const, mock_generator::call_parameters>, std::allocator<std::pair<int const, mock_generator::call_parameters> > >::iterator)
 *fill*         0x080673b5        0x3 37008
 .gnu.linkonce.t._._Q23stdt4list2ZQ23stdt4pair2ZCiZQ214mock_generator15call_parametersZQ23stdt9allocator1ZQ23stdt4pair2ZCiZQ214mock_generator15call_parameters
                0x080673b8       0xeb mock_generator.o
                0x080673b8                std::list<std::pair<int const, mock_generator::call_parameters>, std::allocator<std::pair<int const, mock_generator::call_parameters> > >::~list(void)
 *fill*         0x080674a3        0x1 37008
 .gnu.linkonce.t.__H1ZQ23stdt4pair2ZCiZQ214mock_generator15call_parameters_Q23stdt9allocator1ZQ33stdt4list2ZQ23stdt4pair2ZCiZQ214mock_generator15call_parametersZQ23stdt9allocator1ZQ23stdt4pair2ZCiZQ214mock_generator15call_parameters8iteratorRCQ23stdt9allocator1ZX00
                0x080674a4        0xa mock_generator.o
                0x080674a4                std::allocator<std::list<std::pair<int const, mock_generator::call_parameters>, std::allocator<std::pair<int const, mock_generator::call_parameters> > >::iterator>::allocator::<std::pair<int const, mock_generator::call_parameters> >(std::allocator<std::pair<int const, mock_generator::call_parameters> > const &)
 *fill*         0x080674ae        0x2 37008
 .gnu.linkonce.t.__Q23stdt9allocator1ZQ33stdt4list2ZQ23stdt4pair2ZCiZQ214mock_generator15call_parametersZQ23stdt9allocator1ZQ23stdt4pair2ZCiZQ214mock_generator15call_parameters8iteratorRCQ23stdt9allocator1ZQ33stdt4list2ZQ23stdt4pair2ZCiZQ214mock_generator15call_parametersZQ23stdt9allocator1ZQ23stdt4pair2ZCiZQ214mock_generator15call_parameters8iterator
                0x080674b0        0xa mock_generator.o
                0x080674b0                std::allocator<std::list<std::pair<int const, mock_generator::call_parameters>, std::allocator<std::pair<int const, mock_generator::call_parameters> > >::iterator>::allocator(std::allocator<std::list<std::pair<int const, mock_generator::call_parameters>, std::allocator<std::pair<int const, mock_generator::call_parameters> > >::iterator> const &)
 *fill*         0x080674ba        0x2 37008
 .gnu.linkonce.t.__Q23stdt11_Vector_val2ZQ33stdt4list2ZQ23stdt4pair2ZCiZQ214mock_generator15call_parametersZQ23stdt9allocator1ZQ23stdt4pair2ZCiZQ214mock_generator15call_parameters8iteratorZQ23stdt9allocator1ZQ33stdt4list2ZQ23stdt4pair2ZCiZQ214mock_generator15call_parametersZQ23stdt9allocator1ZQ23stdt4pair2ZCiZQ214mock_generator15call_parameters8iteratorGQ23stdt9allocator1ZQ33stdt4list2ZQ23stdt4pair2ZCiZQ214mock_generator15call_parametersZQ23stdt9allocator1ZQ23stdt4pair2ZCiZQ214mock_generator15call_parameters8iterator
                0x080674bc       0x26 mock_generator.o
                0x080674bc                std::_Vector_val<std::list<std::pair<int const, mock_generator::call_parameters>, std::allocator<std::pair<int const, mock_generator::call_parameters> > >::iterator, std::allocator<std::list<std::pair<int const, mock_generator::call_parameters>, std::allocator<std::pair<int const, mock_generator::call_parameters> > >::iterator> >::_Vector_val(std::allocator<std::list<std::pair<int const, mock_generator::call_parameters>, std::allocator<std::pair<int const, mock_generator::call_parameters> > >::iterator>)
 *fill*         0x080674e2        0x2 37008
 .gnu.linkonce.t.max_size__CQ23stdt9allocator1ZQ33stdt4list2ZQ23stdt4pair2ZCiZQ214mock_generator15call_parametersZQ23stdt9allocator1ZQ23stdt4pair2ZCiZQ214mock_generator15call_parameters8iterator
                0x080674e4       0x24 mock_generator.o
                0x080674e4                std::allocator<std::list<std::pair<int const, mock_generator::call_parameters>, std::allocator<std::pair<int const, mock_generator::call_parameters> > >::iterator>::max_size(void) const
 .gnu.linkonce.t.max_size__CQ23stdt6vector2ZQ33stdt4list2ZQ23stdt4pair2ZCiZQ214mock_generator15call_parametersZQ23stdt9allocator1ZQ23stdt4pair2ZCiZQ214mock_generator15call_parameters8iteratorZQ23stdt9allocator1ZQ33stdt4list2ZQ23stdt4pair2ZCiZQ214mock_generator15call_parametersZQ23stdt9allocator1ZQ23stdt4pair2ZCiZQ214mock_generator15call_parameters8iterator
                0x08067508       0x21 mock_generator.o
                0x08067508                std::vector<std::list<std::pair<int const, mock_generator::call_parameters>, std::allocator<std::pair<int const, mock_generator::call_parameters> > >::iterator, std::allocator<std::list<std::pair<int const, mock_generator::call_parameters>, std::allocator<std::pair<int const, mock_generator::call_parameters> > >::iterator> >::max_size(void) const
 *fill*         0x08067529        0x3 37008
 .gnu.linkonce.t._Xlen__CQ23stdt6vector2ZQ33stdt4list2ZQ23stdt4pair2ZCiZQ214mock_generator15call_parametersZQ23stdt9allocator1ZQ23stdt4pair2ZCiZQ214mock_generator15call_parameters8iteratorZQ23stdt9allocator1ZQ33stdt4list2ZQ23stdt4pair2ZCiZQ214mock_generator15call_parametersZQ23stdt9allocator1ZQ23stdt4pair2ZCiZQ214mock_generator15call_parameters8iterator
                0x0806752c      0x110 mock_generator.o
                0x0806752c                std::vector<std::list<std::pair<int const, mock_generator::call_parameters>, std::allocator<std::pair<int const, mock_generator::call_parameters> > >::iterator, std::allocator<std::list<std::pair<int const, mock_generator::call_parameters>, std::allocator<std::pair<int const, mock_generator::call_parameters> > >::iterator> >::_Xlen(void) const
 .gnu.linkonce.t._Allocate__H1ZQ33stdt4list2ZQ23stdt4pair2ZCiZQ214mock_generator15call_parametersZQ23stdt9allocator1ZQ23stdt4pair2ZCiZQ214mock_generator15call_parameters8iterator_3stdUiPX01_PX01
                0x0806763c       0x30 mock_generator.o
                0x0806763c                std::list<std::pair<int const, mock_generator::call_parameters>, std::allocator<std::pair<int const, mock_generator::call_parameters> > >::iterator * std::_Allocate<std::list<std::pair<int const, mock_generator::call_parameters>, std::allocator<std::pair<int const, mock_generator::call_parameters> > >::iterator>(unsigned int, std::list<std::pair<int const, mock_generator::call_parameters>, std::allocator<std::pair<int const, mock_generator::call_parameters> > >::iterator *)
 .gnu.linkonce.t.allocate__Q23stdt9allocator1ZQ33stdt4list2ZQ23stdt4pair2ZCiZQ214mock_generator15call_parametersZQ23stdt9allocator1ZQ23stdt4pair2ZCiZQ214mock_generator15call_parameters8iteratorUi
                0x0806766c       0x26 mock_generator.o
                0x0806766c                std::allocator<std::list<std::pair<int const, mock_generator::call_parameters>, std::allocator<std::pair<int const, mock_generator::call_parameters> > >::iterator>::allocate(unsigned int)
 *fill*         0x08067692        0x2 37008
 .gnu.linkonce.t.allocate__H1Zv_Q23stdt9allocator1ZQ33stdt4list2ZQ23stdt4pair2ZCiZQ214mock_generator15call_parametersZQ23stdt9allocator1ZQ23stdt4pair2ZCiZQ214mock_generator15call_parameters8iteratorUiPCX00_PQ33stdt4list2ZQ23stdt4pair2ZCiZQ214mock_generator15call_parametersZQ23stdt9allocator1ZQ23stdt4pair2ZCiZQ214mock_generator15call_parameters8iterator
                0x08067694       0x25 mock_generator.o
                0x08067694                std::list<std::pair<int const, mock_generator::call_parameters>, std::allocator<std::pair<int const, mock_generator::call_parameters> > >::iterator * std::allocator<std::list<std::pair<int const, mock_generator::call_parameters>, std::allocator<std::pair<int const, mock_generator::call_parameters> > >::iterator>::allocate<void>(unsigned int, void const *)
 *fill*         0x080676b9        0x3 37008
 .gnu.linkonce.t._Buy__Q23stdt6vector2ZQ33stdt4list2ZQ23stdt4pair2ZCiZQ214mock_generator15call_parametersZQ23stdt9allocator1ZQ23stdt4pair2ZCiZQ214mock_generator15call_parameters8iteratorZQ23stdt9allocator1ZQ33stdt4list2ZQ23stdt4pair2ZCiZQ214mock_generator15call_parametersZQ23stdt9allocator1ZQ23stdt4pair2ZCiZQ214mock_generator15call_parameters8iteratorUi
                0x080676bc       0x8d mock_generator.o
                0x080676bc                std::vector<std::list<std::pair<int const, mock_generator::call_parameters>, std::allocator<std::pair<int const, mock_generator::call_parameters> > >::iterator, std::allocator<std::list<std::pair<int const, mock_generator::call_parameters>, std::allocator<std::pair<int const, mock_generator::call_parameters> > >::iterator> >::_Buy(unsigned int)
 *fill*         0x08067749        0x3 37008
 .gnu.linkonce.t._Ptr_cat__H2ZPQ33stdt4list2ZQ23stdt4pair2ZCiZQ214mock_generator15call_parametersZQ23stdt9allocator1ZQ23stdt4pair2ZCiZQ214mock_generator15call_parameters8iteratorZPQ33stdt4list2ZQ23stdt4pair2ZCiZQ214mock_generator15call_parametersZQ23stdt9allocator1ZQ23stdt4pair2ZCiZQ214mock_generator15call_parameters8iterator_3stdRCX01RX11_Q23std27_Nonscalar_ptr_iterator_tag
                0x0806774c       0x20 mock_generator.o
                0x0806774c                std::_Nonscalar_ptr_iterator_tag std::_Ptr_cat<std::list<std::pair<int const, mock_generator::call_parameters>, std::allocator<std::pair<int const, mock_generator::call_parameters> > >::iterator *, std::list<std::pair<int const, mock_generator::call_parameters>, std::allocator<std::pair<int const, mock_generator::call_parameters> > >::iterator *>(std::list<std::pair<int const, mock_generator::call_parameters>, std::allocator<std::pair<int const, mock_generator::call_parameters> > >::iterator * const &, std::list<std::pair<int const, mock_generator::call_parameters>, std::allocator<std::pair<int const, mock_generator::call_parameters> > >::iterator * &)
 .gnu.linkonce.t._Construct__H2ZQ33stdt4list2ZQ23stdt4pair2ZCiZQ214mock_generator15call_parametersZQ23stdt9allocator1ZQ23stdt4pair2ZCiZQ214mock_generator15call_parameters8iteratorZQ33stdt4list2ZQ23stdt4pair2ZCiZQ214mock_generator15call_parametersZQ23stdt9allocator1ZQ23stdt4pair2ZCiZQ214mock_generator15call_parameters8iterator_3stdPX01RCX11_v
                0x0806776c       0xcc mock_generator.o
                0x0806776c                void std::_Construct<std::list<std::pair<int const, mock_generator::call_parameters>, std::allocator<std::pair<int const, mock_generator::call_parameters> > >::iterator, std::list<std::pair<int const, mock_generator::call_parameters>, std::allocator<std::pair<int const, mock_generator::call_parameters> > >::iterator>(std::list<std::pair<int const, mock_generator::call_parameters>, std::allocator<std::pair<int const, mock_generator::call_parameters> > >::iterator *, std::list<std::pair<int const, mock_generator::call_parameters>, std::allocator<std::pair<int const, mock_generator::call_parameters> > >::iterator const &)
 .gnu.linkonce.t.construct__Q23stdt9allocator1ZQ33stdt4list2ZQ23stdt4pair2ZCiZQ214mock_generator15call_parametersZQ23stdt9allocator1ZQ23stdt4pair2ZCiZQ214mock_generator15call_parameters8iteratorPQ33stdt4list2ZQ23stdt4pair2ZCiZQ214mock_generator15call_parametersZQ23stdt9allocator1ZQ23stdt4pair2ZCiZQ214mock_generator15call_parameters8iteratorRCQ33stdt4list2ZQ23stdt4pair2ZCiZQ214mock_generator15call_parametersZQ23stdt9allocator1ZQ23stdt4pair2ZCiZQ214mock_generator15call_parameters8iterator
                0x08067838       0x22 mock_generator.o
                0x08067838                std::allocator<std::list<std::pair<int const, mock_generator::call_parameters>, std::allocator<std::pair<int const, mock_generator::call_parameters> > >::iterator>::construct(std::list<std::pair<int const, mock_generator::call_parameters>, std::allocator<std::pair<int const, mock_generator::call_parameters> > >::iterator *, std::list<std::pair<int const, mock_generator::call_parameters>, std::allocator<std::pair<int const, mock_generator::call_parameters> > >::iterator const &)
 *fill*         0x0806785a        0x2 37008
 .gnu.linkonce.t._Destroy__H1ZQ33stdt4list2ZQ23stdt4pair2ZCiZQ214mock_generator15call_parametersZQ23stdt9allocator1ZQ23stdt4pair2ZCiZQ214mock_generator15call_parameters8iterator_3stdPX01_v
                0x0806785c        0x8 mock_generator.o
                0x0806785c                void std::_Destroy<std::list<std::pair<int const, mock_generator::call_parameters>, std::allocator<std::pair<int const, mock_generator::call_parameters> > >::iterator>(std::list<std::pair<int const, mock_generator::call_parameters>, std::allocator<std::pair<int const, mock_generator::call_parameters> > >::iterator *)
 .gnu.linkonce.t.destroy__Q23stdt9allocator1ZQ33stdt4list2ZQ23stdt4pair2ZCiZQ214mock_generator15call_parametersZQ23stdt9allocator1ZQ23stdt4pair2ZCiZQ214mock_generator15call_parameters8iteratorPQ33stdt4list2ZQ23stdt4pair2ZCiZQ214mock_generator15call_parametersZQ23stdt9allocator1ZQ23stdt4pair2ZCiZQ214mock_generator15call_parameters8iterator
                0x08067864       0x1e mock_generator.o
                0x08067864                std::allocator<std::list<std::pair<int const, mock_generator::call_parameters>, std::allocator<std::pair<int const, mock_generator::call_parameters> > >::iterator>::destroy(std::list<std::pair<int const, mock_generator::call_parameters>, std::allocator<std::pair<int const, mock_generator::call_parameters> > >::iterator *)
 *fill*         0x08067882        0x2 37008
 .gnu.linkonce.t._Uninit_fill_n__H4ZPQ33stdt4list2ZQ23stdt4pair2ZCiZQ214mock_generator15call_parametersZQ23stdt9allocator1ZQ23stdt4pair2ZCiZQ214mock_generator15call_parameters8iteratorZUiZQ33stdt4list2ZQ23stdt4pair2ZCiZQ214mock_generator15call_parametersZQ23stdt9allocator1ZQ23stdt4pair2ZCiZQ214mock_generator15call_parameters8iteratorZQ23stdt9allocator1ZQ33stdt4list2ZQ23stdt4pair2ZCiZQ214mock_generator15call_parametersZQ23stdt9allocator1ZQ23stdt4pair2ZCiZQ214mock_generator15call_parameters8iterator_3stdX01X11RCX21RX31GQ23std27_Nonscalar_ptr_iterator_tag_v
                0x08067884       0xc4 mock_generator.o
                0x08067884                void std::_Uninit_fill_n<std::list<std::pair<int const, mock_generator::call_parameters>, std::allocator<std::pair<int const, mock_generator::call_parameters> > >::iterator *, unsigned int, std::list<std::pair<int const, mock_generator::call_parameters>, std::allocator<std::pair<int const, mock_generator::call_parameters> > >::iterator, std::allocator<std::list<std::pair<int const, mock_generator::call_parameters>, std::allocator<std::pair<int const, mock_generator::call_parameters> > >::iterator> >(std::list<std::pair<int const, mock_generator::call_parameters>, std::allocator<std::pair<int const, mock_generator::call_parameters> > >::iterator *, unsigned int, std::list<std::pair<int const, mock_generator::call_parameters>, std::allocator<std::pair<int const, mock_generator::call_parameters> > >::iterator const &, std::allocator<std::list<std::pair<int const, mock_generator::call_parameters>, std::allocator<std::pair<int const, mock_generator::call_parameters> > >::iterator> &, std::_Nonscalar_ptr_iterator_tag)
 .gnu.linkonce.t._Uninitialized_fill_n__H4ZPQ33stdt4list2ZQ23stdt4pair2ZCiZQ214mock_generator15call_parametersZQ23stdt9allocator1ZQ23stdt4pair2ZCiZQ214mock_generator15call_parameters8iteratorZUiZQ33stdt4list2ZQ23stdt4pair2ZCiZQ214mock_generator15call_parametersZQ23stdt9allocator1ZQ23stdt4pair2ZCiZQ214mock_generator15call_parameters8iteratorZQ23stdt9allocator1ZQ33stdt4list2ZQ23stdt4pair2ZCiZQ214mock_generator15call_parametersZQ23stdt9allocator1ZQ23stdt4pair2ZCiZQ214mock_generator15call_parameters8iterator_3stdX01X11RCX21RX31_v
                0x08067948       0x4f mock_generator.o
                0x08067948                void std::_Uninitialized_fill_n<std::list<std::pair<int const, mock_generator::call_parameters>, std::allocator<std::pair<int const, mock_generator::call_parameters> > >::iterator *, unsigned int, std::list<std::pair<int const, mock_generator::call_parameters>, std::allocator<std::pair<int const, mock_generator::call_parameters> > >::iterator, std::allocator<std::list<std::pair<int const, mock_generator::call_parameters>, std::allocator<std::pair<int const, mock_generator::call_parameters> > >::iterator> >(std::list<std::pair<int const, mock_generator::call_parameters>, std::allocator<std::pair<int const, mock_generator::call_parameters> > >::iterator *, unsigned int, std::list<std::pair<int const, mock_generator::call_parameters>, std::allocator<std::pair<int const, mock_generator::call_parameters> > >::iterator const &, std::allocator<std::list<std::pair<int const, mock_generator::call_parameters>, std::allocator<std::pair<int const, mock_generator::call_parameters> > >::iterator> &)
 *fill*         0x08067997        0x1 37008
 .gnu.linkonce.t._Ufill__Q23stdt6vector2ZQ33stdt4list2ZQ23stdt4pair2ZCiZQ214mock_generator15call_parametersZQ23stdt9allocator1ZQ23stdt4pair2ZCiZQ214mock_generator15call_parameters8iteratorZQ23stdt9allocator1ZQ33stdt4list2ZQ23stdt4pair2ZCiZQ214mock_generator15call_parametersZQ23stdt9allocator1ZQ23stdt4pair2ZCiZQ214mock_generator15call_parameters8iteratorPQ33stdt4list2ZQ23stdt4pair2ZCiZQ214mock_generator15call_parametersZQ23stdt9allocator1ZQ23stdt4pair2ZCiZQ214mock_generator15call_parameters8iteratorUiRCQ33stdt4list2ZQ23stdt4pair2ZCiZQ214mock_generator15call_parametersZQ23stdt9allocator1ZQ23stdt4pair2ZCiZQ214mock_generator15call_parameters8iterator
                0x08067998       0x39 mock_generator.o
                0x08067998                std::vector<std::list<std::pair<int const, mock_generator::call_parameters>, std::allocator<std::pair<int const, mock_generator::call_parameters> > >::iterator, std::allocator<std::list<std::pair<int const, mock_generator::call_parameters>, std::allocator<std::pair<int const, mock_generator::call_parameters> > >::iterator> >::_Ufill(std::list<std::pair<int const, mock_generator::call_parameters>, std::allocator<std::pair<int const, mock_generator::call_parameters> > >::iterator *, unsigned int, std::list<std::pair<int const, mock_generator::call_parameters>, std::allocator<std::pair<int const, mock_generator::call_parameters> > >::iterator const &)
 *fill*         0x080679d1        0x3 37008
 .gnu.linkonce.t.__Q23stdt6vector2ZQ33stdt4list2ZQ23stdt4pair2ZCiZQ214mock_generator15call_parametersZQ23stdt9allocator1ZQ23stdt4pair2ZCiZQ214mock_generator15call_parameters8iteratorZQ23stdt9allocator1ZQ33stdt4list2ZQ23stdt4pair2ZCiZQ214mock_generator15call_parametersZQ23stdt9allocator1ZQ23stdt4pair2ZCiZQ214mock_generator15call_parameters8iteratorUiRCQ33stdt4list2ZQ23stdt4pair2ZCiZQ214mock_generator15call_parametersZQ23stdt9allocator1ZQ23stdt4pair2ZCiZQ214mock_generator15call_parameters8iteratorRCQ23stdt9allocator1ZQ33stdt4list2ZQ23stdt4pair2ZCiZQ214mock_generator15call_parametersZQ23stdt9allocator1ZQ23stdt4pair2ZCiZQ214mock_generator15call_parameters8iterator
                0x080679d4       0x68 mock_generator.o
                0x080679d4                std::vector<std::list<std::pair<int const, mock_generator::call_parameters>, std::allocator<std::pair<int const, mock_generator::call_parameters> > >::iterator, std::allocator<std::list<std::pair<int const, mock_generator::call_parameters>, std::allocator<std::pair<int const, mock_generator::call_parameters> > >::iterator> >::vector(unsigned int, std::list<std::pair<int const, mock_generator::call_parameters>, std::allocator<std::pair<int const, mock_generator::call_parameters> > >::iterator const &, std::allocator<std::list<std::pair<int const, mock_generator::call_parameters>, std::allocator<std::pair<int const, mock_generator::call_parameters> > >::iterator> const &)
 .gnu.linkonce.t._Destroy_range__H2ZQ33stdt4list2ZQ23stdt4pair2ZCiZQ214mock_generator15call_parametersZQ23stdt9allocator1ZQ23stdt4pair2ZCiZQ214mock_generator15call_parameters8iteratorZQ23stdt9allocator1ZQ33stdt4list2ZQ23stdt4pair2ZCiZQ214mock_generator15call_parametersZQ23stdt9allocator1ZQ23stdt4pair2ZCiZQ214mock_generator15call_parameters8iterator_3stdPX01T1RX11GQ23std27_Nonscalar_ptr_iterator_tag_v
                0x08067a3c       0x3c mock_generator.o
                0x08067a3c                void std::_Destroy_range<std::list<std::pair<int const, mock_generator::call_parameters>, std::allocator<std::pair<int const, mock_generator::call_parameters> > >::iterator, std::allocator<std::list<std::pair<int const, mock_generator::call_parameters>, std::allocator<std::pair<int const, mock_generator::call_parameters> > >::iterator> >(std::list<std::pair<int const, mock_generator::call_parameters>, std::allocator<std::pair<int const, mock_generator::call_parameters> > >::iterator *, std::list<std::pair<int const, mock_generator::call_parameters>, std::allocator<std::pair<int const, mock_generator::call_parameters> > >::iterator *, std::allocator<std::list<std::pair<int const, mock_generator::call_parameters>, std::allocator<std::pair<int const, mock_generator::call_parameters> > >::iterator> &, std::_Nonscalar_ptr_iterator_tag)
 .gnu.linkonce.t._Destroy_range__H2ZQ33stdt4list2ZQ23stdt4pair2ZCiZQ214mock_generator15call_parametersZQ23stdt9allocator1ZQ23stdt4pair2ZCiZQ214mock_generator15call_parameters8iteratorZQ23stdt9allocator1ZQ33stdt4list2ZQ23stdt4pair2ZCiZQ214mock_generator15call_parametersZQ23stdt9allocator1ZQ23stdt4pair2ZCiZQ214mock_generator15call_parameters8iterator_3stdPX01T1RX11_v
                0x08067a78       0x46 mock_generator.o
                0x08067a78                void std::_Destroy_range<std::list<std::pair<int const, mock_generator::call_parameters>, std::allocator<std::pair<int const, mock_generator::call_parameters> > >::iterator, std::allocator<std::list<std::pair<int const, mock_generator::call_parameters>, std::allocator<std::pair<int const, mock_generator::call_parameters> > >::iterator> >(std::list<std::pair<int const, mock_generator::call_parameters>, std::allocator<std::pair<int const, mock_generator::call_parameters> > >::iterator *, std::list<std::pair<int const, mock_generator::call_parameters>, std::allocator<std::pair<int const, mock_generator::call_parameters> > >::iterator *, std::allocator<std::list<std::pair<int const, mock_generator::call_parameters>, std::allocator<std::pair<int const, mock_generator::call_parameters> > >::iterator> &)
 *fill*         0x08067abe        0x2 37008
 .gnu.linkonce.t._Destroy__Q23stdt6vector2ZQ33stdt4list2ZQ23stdt4pair2ZCiZQ214mock_generator15call_parametersZQ23stdt9allocator1ZQ23stdt4pair2ZCiZQ214mock_generator15call_parameters8iteratorZQ23stdt9allocator1ZQ33stdt4list2ZQ23stdt4pair2ZCiZQ214mock_generator15call_parametersZQ23stdt9allocator1ZQ23stdt4pair2ZCiZQ214mock_generator15call_parameters8iteratorPQ33stdt4list2ZQ23stdt4pair2ZCiZQ214mock_generator15call_parametersZQ23stdt9allocator1ZQ23stdt4pair2ZCiZQ214mock_generator15call_parameters8iteratorT1
                0x08067ac0       0x23 mock_generator.o
                0x08067ac0                std::vector<std::list<std::pair<int const, mock_generator::call_parameters>, std::allocator<std::pair<int const, mock_generator::call_parameters> > >::iterator, std::allocator<std::list<std::pair<int const, mock_generator::call_parameters>, std::allocator<std::pair<int const, mock_generator::call_parameters> > >::iterator> >::_Destroy(std::list<std::pair<int const, mock_generator::call_parameters>, std::allocator<std::pair<int const, mock_generator::call_parameters> > >::iterator *, std::list<std::pair<int const, mock_generator::call_parameters>, std::allocator<std::pair<int const, mock_generator::call_parameters> > >::iterator *)
 *fill*         0x08067ae3        0x1 37008
 .gnu.linkonce.t.deallocate__Q23stdt9allocator1ZQ33stdt4list2ZQ23stdt4pair2ZCiZQ214mock_generator15call_parametersZQ23stdt9allocator1ZQ23stdt4pair2ZCiZQ214mock_generator15call_parameters8iteratorPQ33stdt4list2ZQ23stdt4pair2ZCiZQ214mock_generator15call_parametersZQ23stdt9allocator1ZQ23stdt4pair2ZCiZQ214mock_generator15call_parameters8iteratorUi
                0x08067ae4       0x1e mock_generator.o
                0x08067ae4                std::allocator<std::list<std::pair<int const, mock_generator::call_parameters>, std::allocator<std::pair<int const, mock_generator::call_parameters> > >::iterator>::deallocate(std::list<std::pair<int const, mock_generator::call_parameters>, std::allocator<std::pair<int const, mock_generator::call_parameters> > >::iterator *, unsigned int)
 *fill*         0x08067b02        0x2 37008
 .gnu.linkonce.t._._Q23stdt6vector2ZQ33stdt4list2ZQ23stdt4pair2ZCiZQ214mock_generator15call_parametersZQ23stdt9allocator1ZQ23stdt4pair2ZCiZQ214mock_generator15call_parameters8iteratorZQ23stdt9allocator1ZQ33stdt4list2ZQ23stdt4pair2ZCiZQ214mock_generator15call_parametersZQ23stdt9allocator1ZQ23stdt4pair2ZCiZQ214mock_generator15call_parameters8iterator
                0x08067b04       0x79 mock_generator.o
                0x08067b04                std::vector<std::list<std::pair<int const, mock_generator::call_parameters>, std::allocator<std::pair<int const, mock_generator::call_parameters> > >::iterator, std::allocator<std::list<std::pair<int const, mock_generator::call_parameters>, std::allocator<std::pair<int const, mock_generator::call_parameters> > >::iterator> >::~vector(void)
 *fill*         0x08067b7d        0x3 37008
 .gnu.linkonce.t.__Q23stdt5_Hash1ZQ23stdt12_Hmap_traits5ZiZQ214mock_generator15call_parametersZQ23stdt12hash_compare2ZiZQ23stdt4less1ZiZQ23stdt9allocator1ZQ23stdt4pair2ZCiZQ214mock_generator15call_parametersb0RCQ23stdt12hash_compare2ZiZQ23stdt4less1ZiRCQ23stdt9allocator1ZQ23stdt4pair2ZCiZQ214mock_generator15call_parameters
                0x08067b80       0xdb mock_generator.o
                0x08067b80                std::_Hash<std::_Hmap_traits<int, mock_generator::call_parameters, std::hash_compare<int, std::less<int> >, std::allocator<std::pair<int const, mock_generator::call_parameters> >, false> >::_Hash(std::hash_compare<int, std::less<int> > const &, std::allocator<std::pair<int const, mock_generator::call_parameters> > const &)
 *fill*         0x08067c5b        0x1 37008
 .gnu.linkonce.t._._Q23stdt5_Hash1ZQ23stdt12_Hmap_traits5ZiZQ214mock_generator15call_parametersZQ23stdt12hash_compare2ZiZQ23stdt4less1ZiZQ23stdt9allocator1ZQ23stdt4pair2ZCiZQ214mock_generator15call_parametersb0
                0x08067c5c       0x49 mock_generator.o
                0x08067c5c                std::_Hash<std::_Hmap_traits<int, mock_generator::call_parameters, std::hash_compare<int, std::less<int> >, std::allocator<std::pair<int const, mock_generator::call_parameters> >, false> >::~_Hash(void)
 *fill*         0x08067ca5        0x3 37008
 .gnu.linkonce.t.__Q23stdt8hash_map4ZiZQ214mock_generator15call_parametersZQ23stdt12hash_compare2ZiZQ23stdt4less1ZiZQ23stdt9allocator1ZQ23stdt4pair2ZCiZQ214mock_generator15call_parameters
                0x08067ca8       0x7f mock_generator.o
                0x08067ca8                std::hash_map<int, mock_generator::call_parameters, std::hash_compare<int, std::less<int> >, std::allocator<std::pair<int const, mock_generator::call_parameters> > >::hash_map(void)
 *fill*         0x08067d27        0x1 37008
 .gnu.linkonce.t._Ptr_cat__H2ZPcZPc_3stdRCX01RX11_Q23std27_Nonscalar_ptr_iterator_tag
                0x08067d28       0x20 mock_generator.o
                0x08067d28                std::_Nonscalar_ptr_iterator_tag std::_Ptr_cat<char *, char *>(char * const &, char * &)
 .gnu.linkonce.t.destroy__Q23stdt9allocator1ZcPc
                0x08067d48       0x1e mock_generator.o
                0x08067d48                std::allocator<char>::destroy(char *)
 *fill*         0x08067d66        0x2 37008
 .gnu.linkonce.t._Destroy_range__H2ZcZQ23stdt9allocator1Zc_3stdPX01T1RX11GQ23std27_Nonscalar_ptr_iterator_tag_v
                0x08067d68       0x3c mock_generator.o
                0x08067d68                void std::_Destroy_range<char, std::allocator<char> >(char *, char *, std::allocator<char> &, std::_Nonscalar_ptr_iterator_tag)
 .gnu.linkonce.t._Destroy_range__H2ZcZQ23stdt9allocator1Zc_3stdPX01T1RX11_v
                0x08067da4       0x46 mock_generator.o
                0x08067da4                void std::_Destroy_range<char, std::allocator<char> >(char *, char *, std::allocator<char> &)
 *fill*         0x08067dea        0x2 37008
 .gnu.linkonce.t._Destroy__Q23stdt6vector2ZcZQ23stdt9allocator1ZcPcT1
                0x08067dec       0x23 mock_generator.o
                0x08067dec                std::vector<char, std::allocator<char> >::_Destroy(char *, char *)
 *fill*         0x08067e0f        0x1 37008
 .gnu.linkonce.t._._Q23stdt6vector2ZcZQ23stdt9allocator1Zc
                0x08067e10       0x71 mock_generator.o
                0x08067e10                std::vector<char, std::allocator<char> >::~vector(void)
 *fill*         0x08067e81        0x3 37008
 .gnu.linkonce.t.__Q23stdt11_Vector_val2ZcZQ23stdt9allocator1ZcGQ23stdt9allocator1Zc
                0x08067e84       0x26 mock_generator.o
                0x08067e84                std::_Vector_val<char, std::allocator<char> >::_Vector_val(std::allocator<char>)
 *fill*         0x08067eaa        0x2 37008
 .gnu.linkonce.t.max_size__CQ23stdt6vector2ZcZQ23stdt9allocator1Zc
                0x08067eac       0x21 mock_generator.o
                0x08067eac                std::vector<char, std::allocator<char> >::max_size(void) const
 *fill*         0x08067ecd        0x3 37008
 .gnu.linkonce.t._Xlen__CQ23stdt6vector2ZcZQ23stdt9allocator1Zc
                0x08067ed0      0x110 mock_generator.o
                0x08067ed0                std::vector<char, std::allocator<char> >::_Xlen(void) const
 .gnu.linkonce.t._Buy__Q23stdt6vector2ZcZQ23stdt9allocator1ZcUi
                0x08067fe0       0x85 mock_generator.o
                0x08067fe0                std::vector<char, std::allocator<char> >::_Buy(unsigned int)
 *fill*         0x08068065        0x3 37008
 .gnu.linkonce.t._Construct__H2ZcZc_3stdPX01RCX11_v
                0x08068068       0xc4 mock_generator.o
                0x08068068                void std::_Construct<char, char>(char *, char const &)
 .gnu.linkonce.t.construct__Q23stdt9allocator1ZcPcRCc
                0x0806812c       0x22 mock_generator.o
                0x0806812c                std::allocator<char>::construct(char *, char const &)
 *fill*         0x0806814e        0x2 37008
 .gnu.linkonce.t._Uninit_fill_n__H4ZPcZUiZcZQ23stdt9allocator1Zc_3stdX01X11RCX21RX31GQ23std27_Nonscalar_ptr_iterator_tag_v
                0x08068150       0xc4 mock_generator.o
                0x08068150                void std::_Uninit_fill_n<char *, unsigned int, char, std::allocator<char> >(char *, unsigned int, char const &, std::allocator<char> &, std::_Nonscalar_ptr_iterator_tag)
 .gnu.linkonce.t._Uninitialized_fill_n__H4ZPcZUiZcZQ23stdt9allocator1Zc_3stdX01X11RCX21RX31_v
                0x08068214       0x4f mock_generator.o
                0x08068214                void std::_Uninitialized_fill_n<char *, unsigned int, char, std::allocator<char> >(char *, unsigned int, char const &, std::allocator<char> &)
 *fill*         0x08068263        0x1 37008
 .gnu.linkonce.t._Ufill__Q23stdt6vector2ZcZQ23stdt9allocator1ZcPcUiRCc
                0x08068264       0x31 mock_generator.o
                0x08068264                std::vector<char, std::allocator<char> >::_Ufill(char *, unsigned int, char const &)
 *fill*         0x08068295        0x3 37008
 .gnu.linkonce.t.__Q23stdt6vector2ZcZQ23stdt9allocator1ZcUi
                0x08068298       0x68 mock_generator.o
                0x08068298                std::vector<char, std::allocator<char> >::vector(unsigned int)
 .gnu.linkonce.t.begin__Q23stdt6vector2ZcZQ23stdt9allocator1Zc
                0x08068300       0x2d mock_generator.o
                0x08068300                std::vector<char, std::allocator<char> >::begin(void)
 *fill*         0x0806832d        0x3 37008
 .gnu.linkonce.t.__pl__CQ23stdt6_Ptrit6ZcZiZPcZRcZPcZRci
                0x08068330       0x32 mock_generator.o
                0x08068330                std::_Ptrit<char, int, char *, char &, char *, char &>::operator+(int) const
 *fill*         0x08068362        0x2 37008
 .gnu.linkonce.t.__ml__CQ23stdt6_Ptrit6ZcZiZPcZRcZPcZRc
                0x08068364        0xf mock_generator.o
                0x08068364                std::_Ptrit<char, int, char *, char &, char *, char &>::operator*(void) const
 *fill*         0x08068373        0x1 37008
 .gnu.linkonce.t.__vc__Q23stdt6vector2ZcZQ23stdt9allocator1ZcUi
                0x08068374       0x4e mock_generator.o
                0x08068374                std::vector<char, std::allocator<char> >::operator[](unsigned int)
 *fill*         0x080683c2        0x2 37008
 .gnu.linkonce.t.size__CQ23stdt6vector2ZcZQ23stdt9allocator1Zc
                0x080683c4       0x20 mock_generator.o
                0x080683c4                std::vector<char, std::allocator<char> >::size(void) const
 .gnu.linkonce.t.append__Q23stdt12basic_string3ZcZQ23stdt11char_traits1ZcZQ23stdt9allocator1ZcPCcUi
                0x080683e4       0xcb mock_generator.o
                0x080683e4                std::basic_string<char, std::char_traits<char>, std::allocator<char> >::append(char const *, unsigned int)
 *fill*         0x080684af        0x1 37008
 .gnu.linkonce.t.append__Q23stdt12basic_string3ZcZQ23stdt11char_traits1ZcZQ23stdt9allocator1ZcPCc
                0x080684b0       0x37 mock_generator.o
                0x080684b0                std::basic_string<char, std::char_traits<char>, std::allocator<char> >::append(char const *)
 *fill*         0x080684e7        0x1 37008
 .gnu.linkonce.t.__apl__Q23stdt12basic_string3ZcZQ23stdt11char_traits1ZcZQ23stdt9allocator1ZcPCc
                0x080684e8       0x25 mock_generator.o
                0x080684e8                std::basic_string<char, std::char_traits<char>, std::allocator<char> >::operator+=(char const *)
 *fill*         0x0806850d        0x3 37008
 .gnu.linkonce.t.__cl__CQ23stdt12hash_compare2ZiZQ23stdt4less1ZiRCi
                0x08068510       0x11 mock_generator.o
                0x08068510                std::hash_compare<int, std::less<int> >::operator()(int const &) const
 *fill*         0x08068521        0x3 37008
 .gnu.linkonce.t.size__CQ23stdt6vector2ZQ33stdt4list2ZQ23stdt4pair2ZCiZQ214mock_generator15call_parametersZQ23stdt9allocator1ZQ23stdt4pair2ZCiZQ214mock_generator15call_parameters8iteratorZQ23stdt9allocator1ZQ33stdt4list2ZQ23stdt4pair2ZCiZQ214mock_generator15call_parametersZQ23stdt9allocator1ZQ23stdt4pair2ZCiZQ214mock_generator15call_parameters8iterator
                0x08068524       0x2b mock_generator.o
                0x08068524                std::vector<std::list<std::pair<int const, mock_generator::call_parameters>, std::allocator<std::pair<int const, mock_generator::call_parameters> > >::iterator, std::allocator<std::list<std::pair<int const, mock_generator::call_parameters>, std::allocator<std::pair<int const, mock_generator::call_parameters> > >::iterator> >::size(void) const
 *fill*         0x0806854f        0x1 37008
 .gnu.linkonce.t._Hashval__CQ23stdt5_Hash1ZQ23stdt12_Hmap_traits5ZiZQ214mock_generator15call_parametersZQ23stdt12hash_compare2ZiZQ23stdt4less1ZiZQ23stdt9allocator1ZQ23stdt4pair2ZCiZQ214mock_generator15call_parametersb0RCi
                0x08068550       0x54 mock_generator.o
                0x08068550                std::_Hash<std::_Hmap_traits<int, mock_generator::call_parameters, std::hash_compare<int, std::less<int> >, std::allocator<std::pair<int const, mock_generator::call_parameters> >, false> >::_Hashval(int const &) const
 .gnu.linkonce.t.__Q33stdt4list2ZQ23stdt4pair2ZCiZQ214mock_generator15call_parametersZQ23stdt9allocator1ZQ23stdt4pair2ZCiZQ214mock_generator15call_parameters8iterator
                0x080685a4       0x21 mock_generator.o
                0x080685a4                std::list<std::pair<int const, mock_generator::call_parameters>, std::allocator<std::pair<int const, mock_generator::call_parameters> > >::iterator::iterator(void)
 *fill*         0x080685c5        0x3 37008
 .gnu.linkonce.t.__Q23stdt6_Ptrit6ZQ33stdt4list2ZQ23stdt4pair2ZCiZQ214mock_generator15call_parametersZQ23stdt9allocator1ZQ23stdt4pair2ZCiZQ214mock_generator15call_parameters8iteratorZiZPQ33stdt4list2ZQ23stdt4pair2ZCiZQ214mock_generator15call_parametersZQ23stdt9allocator1ZQ23stdt4pair2ZCiZQ214mock_generator15call_parameters8iteratorZRQ33stdt4list2ZQ23stdt4pair2ZCiZQ214mock_generator15call_parametersZQ23stdt9allocator1ZQ23stdt4pair2ZCiZQ214mock_generator15call_parameters8iteratorZPQ33stdt4list2ZQ23stdt4pair2ZCiZQ214mock_generator15call_parametersZQ23stdt9allocator1ZQ23stdt4pair2ZCiZQ214mock_generator15call_parameters8iteratorZRQ33stdt4list2ZQ23stdt4pair2ZCiZQ214mock_generator15call_parametersZQ23stdt9allocator1ZQ23stdt4pair2ZCiZQ214mock_generator15call_parameters8iteratorPQ33stdt4list2ZQ23stdt4pair2ZCiZQ214mock_generator15call_parametersZQ23stdt9allocator1ZQ23stdt4pair2ZCiZQ214mock_generator15call_parameters8iterator
                0x080685c8       0x12 mock_generator.o
                0x080685c8                std::_Ptrit<std::list<std::pair<int const, mock_generator::call_parameters>, std::allocator<std::pair<int const, mock_generator::call_parameters> > >::iterator, int, std::list<std::pair<int const, mock_generator::call_parameters>, std::allocator<std::pair<int const, mock_generator::call_parameters> > >::iterator *, std::list<std::pair<int const, mock_generator::call_parameters>, std::allocator<std::pair<int const, mock_generator::call_parameters> > >::iterator &, std::list<std::pair<int const, mock_generator::call_parameters>, std::allocator<std::pair<int const, mock_generator::call_parameters> > >::iterator *, std::list<std::pair<int const, mock_generator::call_parameters>, std::allocator<std::pair<int const, mock_generator::call_parameters> > >::iterator &>::_Ptrit(std::list<std::pair<int const, mock_generator::call_parameters>, std::allocator<std::pair<int const, mock_generator::call_parameters> > >::iterator *)
 *fill*         0x080685da        0x2 37008
 .gnu.linkonce.t.base__CQ23stdt6_Ptrit6ZQ33stdt4list2ZQ23stdt4pair2ZCiZQ214mock_generator15call_parametersZQ23stdt9allocator1ZQ23stdt4pair2ZCiZQ214mock_generator15call_parameters8iteratorZiZPQ33stdt4list2ZQ23stdt4pair2ZCiZQ214mock_generator15call_parametersZQ23stdt9allocator1ZQ23stdt4pair2ZCiZQ214mock_generator15call_parameters8iteratorZRQ33stdt4list2ZQ23stdt4pair2ZCiZQ214mock_generator15call_parametersZQ23stdt9allocator1ZQ23stdt4pair2ZCiZQ214mock_generator15call_parameters8iteratorZPQ33stdt4list2ZQ23stdt4pair2ZCiZQ214mock_generator15call_parametersZQ23stdt9allocator1ZQ23stdt4pair2ZCiZQ214mock_generator15call_parameters8iteratorZRQ33stdt4list2ZQ23stdt4pair2ZCiZQ214mock_generator15call_parametersZQ23stdt9allocator1ZQ23stdt4pair2ZCiZQ214mock_generator15call_parameters8iterator
                0x080685dc        0xf mock_generator.o
                0x080685dc                std::_Ptrit<std::list<std::pair<int const, mock_generator::call_parameters>, std::allocator<std::pair<int const, mock_generator::call_parameters> > >::iterator, int, std::list<std::pair<int const, mock_generator::call_parameters>, std::allocator<std::pair<int const, mock_generator::call_parameters> > >::iterator *, std::list<std::pair<int const, mock_generator::call_parameters>, std::allocator<std::pair<int const, mock_generator::call_parameters> > >::iterator &, std::list<std::pair<int const, mock_generator::call_parameters>, std::allocator<std::pair<int const, mock_generator::call_parameters> > >::iterator *, std::list<std::pair<int const, mock_generator::call_parameters>, std::allocator<std::pair<int const, mock_generator::call_parameters> > >::iterator &>::base(void) const
 *fill*         0x080685eb        0x1 37008
 .gnu.linkonce.t.__Q23stdt6_Ptrit6ZQ33stdt4list2ZQ23stdt4pair2ZCiZQ214mock_generator15call_parametersZQ23stdt9allocator1ZQ23stdt4pair2ZCiZQ214mock_generator15call_parameters8iteratorZiZPQ33stdt4list2ZQ23stdt4pair2ZCiZQ214mock_generator15call_parametersZQ23stdt9allocator1ZQ23stdt4pair2ZCiZQ214mock_generator15call_parameters8iteratorZRQ33stdt4list2ZQ23stdt4pair2ZCiZQ214mock_generator15call_parametersZQ23stdt9allocator1ZQ23stdt4pair2ZCiZQ214mock_generator15call_parameters8iteratorZPQ33stdt4list2ZQ23stdt4pair2ZCiZQ214mock_generator15call_parametersZQ23stdt9allocator1ZQ23stdt4pair2ZCiZQ214mock_generator15call_parameters8iteratorZRQ33stdt4list2ZQ23stdt4pair2ZCiZQ214mock_generator15call_parametersZQ23stdt9allocator1ZQ23stdt4pair2ZCiZQ214mock_generator15call_parameters8iteratorRCQ23stdt6_Ptrit6ZQ33stdt4list2ZQ23stdt4pair2ZCiZQ214mock_generator15call_parametersZQ23stdt9allocator1ZQ23stdt4pair2ZCiZQ214mock_generator15call_parameters8iteratorZiZPQ33stdt4list2ZQ23stdt4pair2ZCiZQ214mock_generator15call_parametersZQ23stdt9allocator1ZQ23stdt4pair2ZCiZQ214mock_generator15call_parameters8iteratorZRQ33stdt4list2ZQ23stdt4pair2ZCiZQ214mock_generator15call_parametersZQ23stdt9allocator1ZQ23stdt4pair2ZCiZQ214mock_generator15call_parameters8iteratorZPQ33stdt4list2ZQ23stdt4pair2ZCiZQ214mock_generator15call_parametersZQ23stdt9allocator1ZQ23stdt4pair2ZCiZQ214mock_generator15call_parameters8iteratorZRQ33stdt4list2ZQ23stdt4pair2ZCiZQ214mock_generator15call_parametersZQ23stdt9allocator1ZQ23stdt4pair2ZCiZQ214mock_generator15call_parameters8iterator
                0x080685ec       0x25 mock_generator.o
                0x080685ec                std::_Ptrit<std::list<std::pair<int const, mock_generator::call_parameters>, std::allocator<std::pair<int const, mock_generator::call_parameters> > >::iterator, int, std::list<std::pair<int const, mock_generator::call_parameters>, std::allocator<std::pair<int const, mock_generator::call_parameters> > >::iterator *, std::list<std::pair<int const, mock_generator::call_parameters>, std::allocator<std::pair<int const, mock_generator::call_parameters> > >::iterator &, std::list<std::pair<int const, mock_generator::call_parameters>, std::allocator<std::pair<int const, mock_generator::call_parameters> > >::iterator *, std::list<std::pair<int const, mock_generator::call_parameters>, std::allocator<std::pair<int const, mock_generator::call_parameters> > >::iterator &>::_Ptrit(std::_Ptrit<std::list<std::pair<int const, mock_generator::call_parameters>, std::allocator<std::pair<int const, mock_generator::call_parameters> > >::iterator, int, std::list<std::pair<int const, mock_generator::call_parameters>, std::allocator<std::pair<int const, mock_generator::call_parameters> > >::iterator *, std::list<std::pair<int const, mock_generator::call_parameters>, std::allocator<std::pair<int const, mock_generator::call_parameters> > >::iterator &, std::list<std::pair<int const, mock_generator::call_parameters>, std::allocator<std::pair<int const, mock_generator::call_parameters> > >::iterator *, std::list<std::pair<int const, mock_generator::call_parameters>, std::allocator<std::pair<int const, mock_generator::call_parameters> > >::iterator &> const &)
 *fill*         0x08068611        0x3 37008
 .gnu.linkonce.t.begin__Q23stdt6vector2ZQ33stdt4list2ZQ23stdt4pair2ZCiZQ214mock_generator15call_parametersZQ23stdt9allocator1ZQ23stdt4pair2ZCiZQ214mock_generator15call_parameters8iteratorZQ23stdt9allocator1ZQ33stdt4list2ZQ23stdt4pair2ZCiZQ214mock_generator15call_parametersZQ23stdt9allocator1ZQ23stdt4pair2ZCiZQ214mock_generator15call_parameters8iterator
                0x08068614       0x2d mock_generator.o
                0x08068614                std::vector<std::list<std::pair<int const, mock_generator::call_parameters>, std::allocator<std::pair<int const, mock_generator::call_parameters> > >::iterator, std::allocator<std::list<std::pair<int const, mock_generator::call_parameters>, std::allocator<std::pair<int const, mock_generator::call_parameters> > >::iterator> >::begin(void)
 *fill*         0x08068641        0x3 37008
 .gnu.linkonce.t.__pl__CQ23stdt6_Ptrit6ZQ33stdt4list2ZQ23stdt4pair2ZCiZQ214mock_generator15call_parametersZQ23stdt9allocator1ZQ23stdt4pair2ZCiZQ214mock_generator15call_parameters8iteratorZiZPQ33stdt4list2ZQ23stdt4pair2ZCiZQ214mock_generator15call_parametersZQ23stdt9allocator1ZQ23stdt4pair2ZCiZQ214mock_generator15call_parameters8iteratorZRQ33stdt4list2ZQ23stdt4pair2ZCiZQ214mock_generator15call_parametersZQ23stdt9allocator1ZQ23stdt4pair2ZCiZQ214mock_generator15call_parameters8iteratorZPQ33stdt4list2ZQ23stdt4pair2ZCiZQ214mock_generator15call_parametersZQ23stdt9allocator1ZQ23stdt4pair2ZCiZQ214mock_generator15call_parameters8iteratorZRQ33stdt4list2ZQ23stdt4pair2ZCiZQ214mock_generator15call_parametersZQ23stdt9allocator1ZQ23stdt4pair2ZCiZQ214mock_generator15call_parameters8iteratori
                0x08068644       0x3b mock_generator.o
                0x08068644                std::_Ptrit<std::list<std::pair<int const, mock_generator::call_parameters>, std::allocator<std::pair<int const, mock_generator::call_parameters> > >::iterator, int, std::list<std::pair<int const, mock_generator::call_parameters>, std::allocator<std::pair<int const, mock_generator::call_parameters> > >::iterator *, std::list<std::pair<int const, mock_generator::call_parameters>, std::allocator<std::pair<int const, mock_generator::call_parameters> > >::iterator &, std::list<std::pair<int const, mock_generator::call_parameters>, std::allocator<std::pair<int const, mock_generator::call_parameters> > >::iterator *, std::list<std::pair<int const, mock_generator::call_parameters>, std::allocator<std::pair<int const, mock_generator::call_parameters> > >::iterator &>::operator+(int) const
 *fill*         0x0806867f        0x1 37008
 .gnu.linkonce.t.__ml__CQ23stdt6_Ptrit6ZQ33stdt4list2ZQ23stdt4pair2ZCiZQ214mock_generator15call_parametersZQ23stdt9allocator1ZQ23stdt4pair2ZCiZQ214mock_generator15call_parameters8iteratorZiZPQ33stdt4list2ZQ23stdt4pair2ZCiZQ214mock_generator15call_parametersZQ23stdt9allocator1ZQ23stdt4pair2ZCiZQ214mock_generator15call_parameters8iteratorZRQ33stdt4list2ZQ23stdt4pair2ZCiZQ214mock_generator15call_parametersZQ23stdt9allocator1ZQ23stdt4pair2ZCiZQ214mock_generator15call_parameters8iteratorZPQ33stdt4list2ZQ23stdt4pair2ZCiZQ214mock_generator15call_parametersZQ23stdt9allocator1ZQ23stdt4pair2ZCiZQ214mock_generator15call_parameters8iteratorZRQ33stdt4list2ZQ23stdt4pair2ZCiZQ214mock_generator15call_parametersZQ23stdt9allocator1ZQ23stdt4pair2ZCiZQ214mock_generator15call_parameters8iterator
                0x08068680        0xf mock_generator.o
                0x08068680                std::_Ptrit<std::list<std::pair<int const, mock_generator::call_parameters>, std::allocator<std::pair<int const, mock_generator::call_parameters> > >::iterator, int, std::list<std::pair<int const, mock_generator::call_parameters>, std::allocator<std::pair<int const, mock_generator::call_parameters> > >::iterator *, std::list<std::pair<int const, mock_generator::call_parameters>, std::allocator<std::pair<int const, mock_generator::call_parameters> > >::iterator &, std::list<std::pair<int const, mock_generator::call_parameters>, std::allocator<std::pair<int const, mock_generator::call_parameters> > >::iterator *, std::list<std::pair<int const, mock_generator::call_parameters>, std::allocator<std::pair<int const, mock_generator::call_parameters> > >::iterator &>::operator*(void) const
 *fill*         0x0806868f        0x1 37008
 .gnu.linkonce.t.__vc__Q23stdt6vector2ZQ33stdt4list2ZQ23stdt4pair2ZCiZQ214mock_generator15call_parametersZQ23stdt9allocator1ZQ23stdt4pair2ZCiZQ214mock_generator15call_parameters8iteratorZQ23stdt9allocator1ZQ33stdt4list2ZQ23stdt4pair2ZCiZQ214mock_generator15call_parametersZQ23stdt9allocator1ZQ23stdt4pair2ZCiZQ214mock_generator15call_parameters8iteratorUi
                0x08068690       0x4e mock_generator.o
                0x08068690                std::vector<std::list<std::pair<int const, mock_generator::call_parameters>, std::allocator<std::pair<int const, mock_generator::call_parameters> > >::iterator, std::allocator<std::list<std::pair<int const, mock_generator::call_parameters>, std::allocator<std::pair<int const, mock_generator::call_parameters> > >::iterator> >::operator[](unsigned int)
 *fill*         0x080686de        0x2 37008
 .gnu.linkonce.t._Myval__Q23stdt4list2ZQ23stdt4pair2ZCiZQ214mock_generator15call_parametersZQ23stdt9allocator1ZQ23stdt4pair2ZCiZQ214mock_generator15call_parametersPQ33stdt9_List_nod2ZQ23stdt4pair2ZCiZQ214mock_generator15call_parametersZQ23stdt9allocator1ZQ23stdt4pair2ZCiZQ214mock_generator15call_parameters5_Node
                0x080686e0       0x12 mock_generator.o
                0x080686e0                std::list<std::pair<int const, mock_generator::call_parameters>, std::allocator<std::pair<int const, mock_generator::call_parameters> > >::_Myval(std::_List_nod<std::pair<int const, mock_generator::call_parameters>, std::allocator<std::pair<int const, mock_generator::call_parameters> > >::_Node *)
 *fill*         0x080686f2        0x2 37008
 .gnu.linkonce.t.__ml__CQ33stdt4list2ZQ23stdt4pair2ZCiZQ214mock_generator15call_parametersZQ23stdt9allocator1ZQ23stdt4pair2ZCiZQ214mock_generator15call_parameters8iterator
                0x080686f4       0x24 mock_generator.o
                0x080686f4                std::list<std::pair<int const, mock_generator::call_parameters>, std::allocator<std::pair<int const, mock_generator::call_parameters> > >::iterator::operator*(void) const
 .gnu.linkonce.t._Kfn__Q23stdt12_Hmap_traits5ZiZQ214mock_generator15call_parametersZQ23stdt12hash_compare2ZiZQ23stdt4less1ZiZQ23stdt9allocator1ZQ23stdt4pair2ZCiZQ214mock_generator15call_parametersb0RCQ23stdt4pair2ZCiZQ214mock_generator15call_parameters
                0x08068718        0xe mock_generator.o
                0x08068718                std::_Hmap_traits<int, mock_generator::call_parameters, std::hash_compare<int, std::less<int> >, std::allocator<std::pair<int const, mock_generator::call_parameters> >, false>::_Kfn(std::pair<int const, mock_generator::call_parameters> const &)
 *fill*         0x08068726        0x2 37008
 .gnu.linkonce.t.__cl__CQ23stdt4less1ZiRCiT1
                0x08068728       0x1c mock_generator.o
                0x08068728                std::less<int>::operator()(int const &, int const &) const
 .gnu.linkonce.t.__cl__CQ23stdt12hash_compare2ZiZQ23stdt4less1ZiRCiT1
                0x08068744       0x29 mock_generator.o
                0x08068744                std::hash_compare<int, std::less<int> >::operator()(int const &, int const &) const
 *fill*         0x0806876d        0x3 37008
 .gnu.linkonce.t.lower_bound__Q23stdt5_Hash1ZQ23stdt12_Hmap_traits5ZiZQ214mock_generator15call_parametersZQ23stdt12hash_compare2ZiZQ23stdt4less1ZiZQ23stdt9allocator1ZQ23stdt4pair2ZCiZQ214mock_generator15call_parametersb0RCi
                0x08068770      0x14b mock_generator.o
                0x08068770                std::_Hash<std::_Hmap_traits<int, mock_generator::call_parameters, std::hash_compare<int, std::less<int> >, std::allocator<std::pair<int const, mock_generator::call_parameters> >, false> >::lower_bound(int const &)
 *fill*         0x080688bb        0x1 37008
 .gnu.linkonce.t.find__Q23stdt5_Hash1ZQ23stdt12_Hmap_traits5ZiZQ214mock_generator15call_parametersZQ23stdt12hash_compare2ZiZQ23stdt4less1ZiZQ23stdt9allocator1ZQ23stdt4pair2ZCiZQ214mock_generator15call_parametersb0RCi
                0x080688bc       0x2c mock_generator.o
                0x080688bc                std::_Hash<std::_Hmap_traits<int, mock_generator::call_parameters, std::hash_compare<int, std::less<int> >, std::allocator<std::pair<int const, mock_generator::call_parameters> >, false> >::find(int const &)
 .gnu.linkonce.t.size__CQ23stdt6vector2ZUxZQ23stdt9allocator1ZUx
                0x080688e8       0x2b mock_generator.o
                0x080688e8                std::vector<unsigned long long, std::allocator<unsigned long long> >::size(void) const
 *fill*         0x08068913        0x1 37008
 .gnu.linkonce.t.empty__CQ23stdt6vector2ZUxZQ23stdt9allocator1ZUx
                0x08068914       0x29 mock_generator.o
                0x08068914                std::vector<unsigned long long, std::allocator<unsigned long long> >::empty(void) const
 *fill*         0x0806893d        0x3 37008
 .gnu.linkonce.t.__Q23stdt6_Ptrit6ZUxZiZPUxZRUxZPUxZRUxPUx
                0x08068940       0x12 mock_generator.o
                0x08068940                std::_Ptrit<unsigned long long, int, unsigned long long *, unsigned long long &, unsigned long long *, unsigned long long &>::_Ptrit(unsigned long long *)
 *fill*         0x08068952        0x2 37008
 .gnu.linkonce.t.base__CQ23stdt6_Ptrit6ZUxZiZPUxZRUxZPUxZRUx
                0x08068954        0xf mock_generator.o
                0x08068954                std::_Ptrit<unsigned long long, int, unsigned long long *, unsigned long long &, unsigned long long *, unsigned long long &>::base(void) const
 *fill*         0x08068963        0x1 37008
 .gnu.linkonce.t.__Q23stdt6_Ptrit6ZUxZiZPUxZRUxZPUxZRUxRCQ23stdt6_Ptrit6ZUxZiZPUxZRUxZPUxZRUx
                0x08068964       0x25 mock_generator.o
                0x08068964                std::_Ptrit<unsigned long long, int, unsigned long long *, unsigned long long &, unsigned long long *, unsigned long long &>::_Ptrit(std::_Ptrit<unsigned long long, int, unsigned long long *, unsigned long long &, unsigned long long *, unsigned long long &> const &)
 *fill*         0x08068989        0x3 37008
 .gnu.linkonce.t.begin__Q23stdt6vector2ZUxZQ23stdt9allocator1ZUx
                0x0806898c       0x2d mock_generator.o
                0x0806898c                std::vector<unsigned long long, std::allocator<unsigned long long> >::begin(void)
 *fill*         0x080689b9        0x3 37008
 .gnu.linkonce.t.end__Q23stdt6vector2ZUxZQ23stdt9allocator1ZUx
                0x080689bc       0x2d mock_generator.o
                0x080689bc                std::vector<unsigned long long, std::allocator<unsigned long long> >::end(void)
 *fill*         0x080689e9        0x3 37008
 .gnu.linkonce.t.__eq__CQ23stdt6_Ptrit6ZUxZiZPUxZRUxZPUxZRUxRCQ23stdt6_Ptrit6ZUxZiZPUxZRUxZPUxZRUx
                0x080689ec       0x1b mock_generator.o
                0x080689ec                std::_Ptrit<unsigned long long, int, unsigned long long *, unsigned long long &, unsigned long long *, unsigned long long &>::operator==(std::_Ptrit<unsigned long long, int, unsigned long long *, unsigned long long &, unsigned long long *, unsigned long long &> const &) const
 *fill*         0x08068a07        0x1 37008
 .gnu.linkonce.t.__ne__CQ23stdt6_Ptrit6ZUxZiZPUxZRUxZPUxZRUxRCQ23stdt6_Ptrit6ZUxZiZPUxZRUxZPUxZRUx
                0x08068a08       0x28 mock_generator.o
                0x08068a08                std::_Ptrit<unsigned long long, int, unsigned long long *, unsigned long long &, unsigned long long *, unsigned long long &>::operator!=(std::_Ptrit<unsigned long long, int, unsigned long long *, unsigned long long &, unsigned long long *, unsigned long long &> const &) const
 .gnu.linkonce.t.__pp__Q23stdt6_Ptrit6ZUxZiZPUxZRUxZPUxZRUx
                0x08068a30       0x10 mock_generator.o
                0x08068a30                std::_Ptrit<unsigned long long, int, unsigned long long *, unsigned long long &, unsigned long long *, unsigned long long &>::operator++(void)
 .gnu.linkonce.t.__ml__CQ23stdt6_Ptrit6ZUxZiZPUxZRUxZPUxZRUx
                0x08068a40        0xf mock_generator.o
                0x08068a40                std::_Ptrit<unsigned long long, int, unsigned long long *, unsigned long long &, unsigned long long *, unsigned long long &>::operator*(void) const
 *fill*         0x08068a4f        0x1 37008
 .gnu.linkonce.t.__Q23stdt6_Ptrit6ZUxZiZPUxZRUxZPUxZRUx
                0x08068a50        0xa mock_generator.o
                0x08068a50                std::_Ptrit<unsigned long long, int, unsigned long long *, unsigned long long &, unsigned long long *, unsigned long long &>::_Ptrit(void)
 *fill*         0x08068a5a        0x2 37008
 .gnu.linkonce.t.__pp__Q23stdt6_Ptrit6ZUxZiZPUxZRUxZPUxZRUxi
                0x08068a5c       0x43 mock_generator.o
                0x08068a5c                std::_Ptrit<unsigned long long, int, unsigned long long *, unsigned long long &, unsigned long long *, unsigned long long &>::operator++(int)
 *fill*         0x08068a9f        0x1 37008
 .gnu.linkonce.t._._Q23stdt9basic_ios2ZcZQ23stdt11char_traits1Zc
                0x08068aa0       0x26 mock_generator.o
                0x08068aa0                std::basic_ios<char, std::char_traits<char> >::~basic_ios(void)
 *fill*         0x08068ac6        0x2 37008
 .gnu.linkonce.t._._Q23stdt13basic_ostream2ZcZQ23stdt11char_traits1Zc
                0x08068ac8       0x81 mock_generator.o
                0x08068ac8                std::basic_ostream<char, std::char_traits<char> >::~basic_ostream(void)
 *fill*         0x08068b49        0x3 37008
 .gnu.linkonce.t.eback__CQ23stdt15basic_streambuf2ZcZQ23stdt11char_traits1Zc
                0x08068b4c       0x11 mock_generator.o
                0x08068b4c                std::basic_streambuf<char, std::char_traits<char> >::eback(void) const
 *fill*         0x08068b5d        0x3 37008
 .gnu.linkonce.t.egptr__CQ23stdt15basic_streambuf2ZcZQ23stdt11char_traits1Zc
                0x08068b60       0x11 mock_generator.o
                0x08068b60                std::basic_streambuf<char, std::char_traits<char> >::egptr(void) const
 *fill*         0x08068b71        0x3 37008
 .gnu.linkonce.t.epptr__CQ23stdt15basic_streambuf2ZcZQ23stdt11char_traits1Zc
                0x08068b74       0x11 mock_generator.o
                0x08068b74                std::basic_streambuf<char, std::char_traits<char> >::epptr(void) const
 *fill*         0x08068b85        0x3 37008
 .gnu.linkonce.t.pptr__CQ23stdt15basic_streambuf2ZcZQ23stdt11char_traits1Zc
                0x08068b88       0x11 mock_generator.o
                0x08068b88                std::basic_streambuf<char, std::char_traits<char> >::pptr(void) const
 *fill*         0x08068b99        0x3 37008
 .gnu.linkonce.t.setg__Q23stdt15basic_streambuf2ZcZQ23stdt11char_traits1ZcPcN21
                0x08068b9c       0x20 mock_generator.o
                0x08068b9c                std::basic_streambuf<char, std::char_traits<char> >::setg(char *, char *, char *)
 .gnu.linkonce.t.setp__Q23stdt15basic_streambuf2ZcZQ23stdt11char_traits1ZcPcT1
                0x08068bbc       0x20 mock_generator.o
                0x08068bbc                std::basic_streambuf<char, std::char_traits<char> >::setp(char *, char *)
 .gnu.linkonce.t._Tidy__Q23stdt15basic_stringbuf3ZcZQ23stdt11char_traits1ZcZQ23stdt9allocator1Zc
                0x08068bdc       0xb0 mock_generator.o
                0x08068bdc                std::basic_stringbuf<char, std::char_traits<char>, std::allocator<char> >::_Tidy(void)
 .gnu.linkonce.t._._Q23stdt15basic_streambuf2ZcZQ23stdt11char_traits1Zc
                0x08068c8c       0x41 mock_generator.o
                0x08068c8c                std::basic_streambuf<char, std::char_traits<char> >::~basic_streambuf(void)
 *fill*         0x08068ccd        0x3 37008
 .gnu.linkonce.t._._Q23stdt15basic_stringbuf3ZcZQ23stdt11char_traits1ZcZQ23stdt9allocator1Zc
                0x08068cd0       0x32 mock_generator.o
                0x08068cd0                std::basic_stringbuf<char, std::char_traits<char>, std::allocator<char> >::~basic_stringbuf(void)
 *fill*         0x08068d02        0x2 37008
 .gnu.linkonce.t._._Q23stdt19basic_ostringstream3ZcZQ23stdt11char_traits1ZcZQ23stdt9allocator1Zc
                0x08068d04       0xa0 mock_generator.o
                0x08068d04                std::basic_ostringstream<char, std::char_traits<char>, std::allocator<char> >::~basic_ostringstream(void)
 .gnu.linkonce.t.__Q23stdt9basic_ios2ZcZQ23stdt11char_traits1Zc
                0x08068da4       0x59 mock_generator.o
                0x08068da4                std::basic_ios<char, std::char_traits<char> >::basic_ios(void)
 *fill*         0x08068dfd        0x3 37008
 .gnu.linkonce.t._Widen__H1Zc_3stdcPX01_X01
                0x08068e00       0x1b mock_generator.o
                0x08068e00                char std::_Widen<char>(char, char *)
 *fill*         0x08068e1b        0x1 37008
 .gnu.linkonce.t.clear__Q23stdt9basic_ios2ZcZQ23stdt11char_traits1ZcQ33stdt5_Iosb1Zi8_Iostateb
                0x08068e1c       0x32 mock_generator.o
                0x08068e1c                std::basic_ios<char, std::char_traits<char> >::clear(std::_Iosb<int>::_Iostate, bool)
 *fill*         0x08068e4e        0x2 37008
 .gnu.linkonce.t.setstate__Q23stdt9basic_ios2ZcZQ23stdt11char_traits1ZcQ33stdt5_Iosb1Zi8_Iostateb
                0x08068e50       0x39 mock_generator.o
                0x08068e50                std::basic_ios<char, std::char_traits<char> >::setstate(std::_Iosb<int>::_Iostate, bool)
 *fill*         0x08068e89        0x3 37008
 .gnu.linkonce.t.init__Q23stdt9basic_ios2ZcZQ23stdt11char_traits1ZcPQ23stdt15basic_streambuf2ZcZQ23stdt11char_traits1Zcb
                0x08068e8c       0x64 mock_generator.o
                0x08068e8c                std::basic_ios<char, std::char_traits<char> >::init(std::basic_streambuf<char, std::char_traits<char> > *, bool)
 .gnu.linkonce.t.__Q23stdt13basic_ostream2ZcZQ23stdt11char_traits1ZciPQ23stdt15basic_streambuf2ZcZQ23stdt11char_traits1Zcb
                0x08068ef0       0xcc mock_generator.o
                0x08068ef0                std::basic_ostream<char, std::char_traits<char> >::basic_ostream(int, std::basic_streambuf<char, std::char_traits<char> > *, bool)
 .gnu.linkonce.t._Init__Q23stdt15basic_streambuf2ZcZQ23stdt11char_traits1Zc
                0x08068fbc       0x52 mock_generator.o
                0x08068fbc                std::basic_streambuf<char, std::char_traits<char> >::_Init(void)
 *fill*         0x0806900e        0x2 37008
 .gnu.linkonce.t.__Q23stdt15basic_streambuf2ZcZQ23stdt11char_traits1Zc
                0x08069010       0xcc mock_generator.o
                0x08069010                std::basic_streambuf<char, std::char_traits<char> >::basic_streambuf(void)
 .gnu.linkonce.t._Getstate__Q23stdt15basic_stringbuf3ZcZQ23stdt11char_traits1ZcZQ23stdt9allocator1ZcQ33stdt5_Iosb1Zi9_Openmode
                0x080690dc       0x53 mock_generator.o
                0x080690dc                std::basic_stringbuf<char, std::char_traits<char>, std::allocator<char> >::_Getstate(std::_Iosb<int>::_Openmode)
 *fill*         0x0806912f        0x1 37008
 .gnu.linkonce.t.gptr__CQ23stdt15basic_streambuf2ZcZQ23stdt11char_traits1Zc
                0x08069130       0x11 mock_generator.o
                0x08069130                std::basic_streambuf<char, std::char_traits<char> >::gptr(void) const
 *fill*         0x08069141        0x3 37008
 .gnu.linkonce.t._Init__Q23stdt15basic_stringbuf3ZcZQ23stdt11char_traits1ZcZQ23stdt9allocator1ZcPCcUii
                0x08069144       0xe2 mock_generator.o
                0x08069144                std::basic_stringbuf<char, std::char_traits<char>, std::allocator<char> >::_Init(char const *, unsigned int, int)
 *fill*         0x08069226        0x2 37008
 .gnu.linkonce.t.__Q23stdt15basic_stringbuf3ZcZQ23stdt11char_traits1ZcZQ23stdt9allocator1ZcQ33stdt5_Iosb1Zi9_Openmode
                0x08069228       0x89 mock_generator.o
                0x08069228                std::basic_stringbuf<char, std::char_traits<char>, std::allocator<char> >::basic_stringbuf(std::_Iosb<int>::_Openmode)
 *fill*         0x080692b1        0x3 37008
 .gnu.linkonce.t.__Q23stdt19basic_ostringstream3ZcZQ23stdt11char_traits1ZcZQ23stdt9allocator1ZciQ33stdt5_Iosb1Zi9_Openmode
                0x080692b4      0x124 mock_generator.o
                0x080692b4                std::basic_ostringstream<char, std::char_traits<char>, std::allocator<char> >::basic_ostringstream(int, std::_Iosb<int>::_Openmode)
 .gnu.linkonce.t.__Q23stdt6_Ptrit6ZUxZiZPCUxZRCUxZPUxZRUxPCUx
                0x080693d8       0x12 mock_generator.o
                0x080693d8                std::_Ptrit<unsigned long long, int, unsigned long long const *, unsigned long long const &, unsigned long long *, unsigned long long &>::_Ptrit(unsigned long long const *)
 *fill*         0x080693ea        0x2 37008
 .gnu.linkonce.t.begin__CQ23stdt6vector2ZUxZQ23stdt9allocator1ZUx
                0x080693ec       0x2d mock_generator.o
                0x080693ec                std::vector<unsigned long long, std::allocator<unsigned long long> >::begin(void) const
 *fill*         0x08069419        0x3 37008
 .gnu.linkonce.t.end__CQ23stdt6vector2ZUxZQ23stdt9allocator1ZUx
                0x0806941c       0x2d mock_generator.o
                0x0806941c                std::vector<unsigned long long, std::allocator<unsigned long long> >::end(void) const
 *fill*         0x08069449        0x3 37008
 .gnu.linkonce.t._Ptr_cat__H2ZQ23stdt6_Ptrit6ZUxZiZPCUxZRCUxZPUxZRUxZPUx_3stdRCX01RX11_Q23std27_Nonscalar_ptr_iterator_tag
                0x0806944c       0x20 mock_generator.o
                0x0806944c                std::_Nonscalar_ptr_iterator_tag std::_Ptr_cat<std::_Ptrit<unsigned long long, int, unsigned long long const *, unsigned long long const &, unsigned long long *, unsigned long long &>, unsigned long long *>(std::_Ptrit<unsigned long long, int, unsigned long long const *, unsigned long long const &, unsigned long long *, unsigned long long &> const &, unsigned long long * &)
 .gnu.linkonce.t.__eq__CQ23stdt6_Ptrit6ZUxZiZPCUxZRCUxZPUxZRUxRCQ23stdt6_Ptrit6ZUxZiZPCUxZRCUxZPUxZRUx
                0x0806946c       0x1b mock_generator.o
                0x0806946c                std::_Ptrit<unsigned long long, int, unsigned long long const *, unsigned long long const &, unsigned long long *, unsigned long long &>::operator==(std::_Ptrit<unsigned long long, int, unsigned long long const *, unsigned long long const &, unsigned long long *, unsigned long long &> const &) const
 *fill*         0x08069487        0x1 37008
 .gnu.linkonce.t.__ne__CQ23stdt6_Ptrit6ZUxZiZPCUxZRCUxZPUxZRUxRCQ23stdt6_Ptrit6ZUxZiZPCUxZRCUxZPUxZRUx
                0x08069488       0x28 mock_generator.o
                0x08069488                std::_Ptrit<unsigned long long, int, unsigned long long const *, unsigned long long const &, unsigned long long *, unsigned long long &>::operator!=(std::_Ptrit<unsigned long long, int, unsigned long long const *, unsigned long long const &, unsigned long long *, unsigned long long &> const &) const
 .gnu.linkonce.t.__pp__Q23stdt6_Ptrit6ZUxZiZPCUxZRCUxZPUxZRUx
                0x080694b0       0x10 mock_generator.o
                0x080694b0                std::_Ptrit<unsigned long long, int, unsigned long long const *, unsigned long long const &, unsigned long long *, unsigned long long &>::operator++(void)
 .gnu.linkonce.t.__ml__CQ23stdt6_Ptrit6ZUxZiZPCUxZRCUxZPUxZRUx
                0x080694c0        0xf mock_generator.o
                0x080694c0                std::_Ptrit<unsigned long long, int, unsigned long long const *, unsigned long long const &, unsigned long long *, unsigned long long &>::operator*(void) const
 *fill*         0x080694cf        0x1 37008
 .gnu.linkonce.t._Construct__H2ZUxZUx_3stdPX01RCX11_v
                0x080694d0       0xcc mock_generator.o
                0x080694d0                void std::_Construct<unsigned long long, unsigned long long>(unsigned long long *, unsigned long long const &)
 .gnu.linkonce.t.construct__Q23stdt9allocator1ZUxPUxRCUx
                0x0806959c       0x22 mock_generator.o
                0x0806959c                std::allocator<unsigned long long>::construct(unsigned long long *, unsigned long long const &)
 *fill*         0x080695be        0x2 37008
 .gnu.linkonce.t._Uninit_copy__H3ZQ23stdt6_Ptrit6ZUxZiZPCUxZRCUxZPUxZRUxZPUxZQ23stdt9allocator1ZUx_3stdX01X01X11RX21GQ23std27_Nonscalar_ptr_iterator_tag_X11
                0x080695c0      0x100 mock_generator.o
                0x080695c0                unsigned long long * std::_Uninit_copy<std::_Ptrit<unsigned long long, int, unsigned long long const *, unsigned long long const &, unsigned long long *, unsigned long long &>, unsigned long long *, std::allocator<unsigned long long> >(std::_Ptrit<unsigned long long, int, unsigned long long const *, unsigned long long const &, unsigned long long *, unsigned long long &>, std::_Ptrit<unsigned long long, int, unsigned long long const *, unsigned long long const &, unsigned long long *, unsigned long long &>, unsigned long long *, std::allocator<unsigned long long> &, std::_Nonscalar_ptr_iterator_tag)
 .gnu.linkonce.t._Uninitialized_copy__H3ZQ23stdt6_Ptrit6ZUxZiZPCUxZRCUxZPUxZRUxZPUxZQ23stdt9allocator1ZUx_3stdX01X01X11RX21_X11
                0x080696c0       0x64 mock_generator.o
                0x080696c0                unsigned long long * std::_Uninitialized_copy<std::_Ptrit<unsigned long long, int, unsigned long long const *, unsigned long long const &, unsigned long long *, unsigned long long &>, unsigned long long *, std::allocator<unsigned long long> >(std::_Ptrit<unsigned long long, int, unsigned long long const *, unsigned long long const &, unsigned long long *, unsigned long long &>, std::_Ptrit<unsigned long long, int, unsigned long long const *, unsigned long long const &, unsigned long long *, unsigned long long &>, unsigned long long *, std::allocator<unsigned long long> &)
 .gnu.linkonce.t._Ucopy__H1ZQ23stdt6_Ptrit6ZUxZiZPCUxZRCUxZPUxZRUx_Q23stdt6vector2ZUxZQ23stdt9allocator1ZUxX00X00PUx_PUx
                0x08069724       0x35 mock_generator.o
                0x08069724                unsigned long long * std::vector<unsigned long long, std::allocator<unsigned long long> >::_Ucopy<std::_Ptrit<unsigned long long, int, unsigned long long const *, unsigned long long const &, unsigned long long *, unsigned long long &> >(std::_Ptrit<unsigned long long, int, unsigned long long const *, unsigned long long const &, unsigned long long *, unsigned long long &>, std::_Ptrit<unsigned long long, int, unsigned long long const *, unsigned long long const &, unsigned long long *, unsigned long long &>, unsigned long long *)
 *fill*         0x08069759        0x3 37008
 .gnu.linkonce.t.__Q23stdt6vector2ZUxZQ23stdt9allocator1ZUxRCQ23stdt6vector2ZUxZQ23stdt9allocator1ZUx
                0x0806975c       0xac mock_generator.o
                0x0806975c                std::vector<unsigned long long, std::allocator<unsigned long long> >::vector(std::vector<unsigned long long, std::allocator<unsigned long long> > const &)
 .gnu.linkonce.t.__pl__CQ23stdt6_Ptrit6ZUxZiZPUxZRUxZPUxZRUxi
                0x08069808       0x3b mock_generator.o
                0x08069808                std::_Ptrit<unsigned long long, int, unsigned long long *, unsigned long long &, unsigned long long *, unsigned long long &>::operator+(int) const
 *fill*         0x08069843        0x1 37008
 .gnu.linkonce.t.__vc__Q23stdt6vector2ZUxZQ23stdt9allocator1ZUxUi
                0x08069844       0x4e mock_generator.o
                0x08069844                std::vector<unsigned long long, std::allocator<unsigned long long> >::operator[](unsigned int)
 *fill*         0x08069892        0x2 37008
 .gnu.linkonce.t.rdbuf__CQ23stdt9basic_ios2ZcZQ23stdt11char_traits1Zc
                0x08069894        0xf mock_generator.o
                0x08069894                std::basic_ios<char, std::char_traits<char> >::rdbuf(void) const
 *fill*         0x080698a3        0x1 37008
 .gnu.linkonce.t.sync__Q23stdt15basic_streambuf2ZcZQ23stdt11char_traits1Zc
                0x080698a4        0xc mock_generator.o
                0x080698a4                std::basic_streambuf<char, std::char_traits<char> >::sync(void)
 .gnu.linkonce.t.pubsync__Q23stdt15basic_streambuf2ZcZQ23stdt11char_traits1Zc
                0x080698b0       0x32 mock_generator.o
                0x080698b0                std::basic_streambuf<char, std::char_traits<char> >::pubsync(void)
 *fill*         0x080698e2        0x2 37008
 .gnu.linkonce.t.flush__Q23stdt13basic_ostream2ZcZQ23stdt11char_traits1Zc
                0x080698e4       0x76 mock_generator.o
                0x080698e4                std::basic_ostream<char, std::char_traits<char> >::flush(void)
 *fill*         0x0806995a        0x2 37008
 .gnu.linkonce.t._Osfx__Q23stdt13basic_ostream2ZcZQ23stdt11char_traits1Zc
                0x0806995c       0x3f mock_generator.o
                0x0806995c                std::basic_ostream<char, std::char_traits<char> >::_Osfx(void)
 *fill*         0x0806999b        0x1 37008
 .gnu.linkonce.t._._Q33stdt13basic_ostream2ZcZQ23stdt11char_traits1Zc6sentry
                0x0806999c       0x7b mock_generator.o
                0x0806999c                std::basic_ostream<char, std::char_traits<char> >::sentry::~sentry(void)
 *fill*         0x08069a17        0x1 37008
 .gnu.linkonce.t.tie__CQ23stdt9basic_ios2ZcZQ23stdt11char_traits1Zc
                0x08069a18        0xf mock_generator.o
                0x08069a18                std::basic_ios<char, std::char_traits<char> >::tie(void) const
 *fill*         0x08069a27        0x1 37008
 .gnu.linkonce.t.__Q33stdt13basic_ostream2ZcZQ23stdt11char_traits1Zc6sentryRQ23stdt13basic_ostream2ZcZQ23stdt11char_traits1Zc
                0x08069a28       0xb4 mock_generator.o
                0x08069a28                std::basic_ostream<char, std::char_traits<char> >::sentry::sentry(std::basic_ostream<char, std::char_traits<char> > &)
 .gnu.linkonce.t.__opb__CQ33stdt13basic_ostream2ZcZQ23stdt11char_traits1Zc6sentry
                0x08069adc        0xe mock_generator.o
                0x08069adc                std::basic_ostream<char, std::char_traits<char> >::sentry::operator bool(void) const
 *fill*         0x08069aea        0x2 37008
 .gnu.linkonce.t.fill__CQ23stdt9basic_ios2ZcZQ23stdt11char_traits1Zc
                0x08069aec       0x10 mock_generator.o
                0x08069aec                std::basic_ios<char, std::char_traits<char> >::fill(void) const
 .gnu.linkonce.t.overflow__Q23stdt15basic_streambuf2ZcZQ23stdt11char_traits1Zci
                0x08069afc       0x1a mock_generator.o
                0x08069afc                std::basic_streambuf<char, std::char_traits<char> >::overflow(int)
 *fill*         0x08069b16        0x2 37008
 .gnu.linkonce.t._Pninc__Q23stdt15basic_streambuf2ZcZQ23stdt11char_traits1Zc
                0x08069b18       0x13 mock_generator.o
                0x08069b18                std::basic_streambuf<char, std::char_traits<char> >::_Pninc(void)
 *fill*         0x08069b2b        0x1 37008
 .gnu.linkonce.t.sputc__Q23stdt15basic_streambuf2ZcZQ23stdt11char_traits1Zcc
                0x08069b2c       0xac mock_generator.o
                0x08069b2c                std::basic_streambuf<char, std::char_traits<char> >::sputc(char)
 .gnu.linkonce.t.pbump__Q23stdt15basic_streambuf2ZcZQ23stdt11char_traits1Zci
                0x08069bd8       0x1f mock_generator.o
                0x08069bd8                std::basic_streambuf<char, std::char_traits<char> >::pbump(int)
 *fill*         0x08069bf7        0x1 37008
 .gnu.linkonce.t.xsputn__Q23stdt15basic_streambuf2ZcZQ23stdt11char_traits1ZcPCci
                0x08069bf8      0x123 mock_generator.o
                0x08069bf8                std::basic_streambuf<char, std::char_traits<char> >::xsputn(char const *, int)
 *fill*         0x08069d1b        0x1 37008
 .gnu.linkonce.t.sputn__Q23stdt15basic_streambuf2ZcZQ23stdt11char_traits1ZcPCci
                0x08069d1c       0x3a mock_generator.o
                0x08069d1c                std::basic_streambuf<char, std::char_traits<char> >::sputn(char const *, int)
 *fill*         0x08069d56        0x2 37008
 .gnu.linkonce.t._Init__Q23stdt7num_put2ZcZQ23stdt19ostreambuf_iterator2ZcZQ23stdt11char_traits1ZcRCQ23std8_Locinfo
                0x08069d58        0x8 mock_generator.o
                0x08069d58                std::num_put<char, std::ostreambuf_iterator<char, std::char_traits<char> > >::_Init(std::_Locinfo const &)
 .gnu.linkonce.t.__Q23stdt7num_put2ZcZQ23stdt19ostreambuf_iterator2ZcZQ23stdt11char_traits1ZcUi
                0x08069d60       0xc8 mock_generator.o
                0x08069d60                std::num_put<char, std::ostreambuf_iterator<char, std::char_traits<char> > >::num_put(unsigned int)
 .gnu.linkonce.t._Getcat__Q23stdt7num_put2ZcZQ23stdt19ostreambuf_iterator2ZcZQ23stdt11char_traits1ZcPPCQ33std6locale5facet
                0x08069e28       0xa0 mock_generator.o
                0x08069e28                std::num_put<char, std::ostreambuf_iterator<char, std::char_traits<char> > >::_Getcat(std::locale::facet const **)
 .gnu.linkonce.t._Tidy__Q23stdt8_Tidyfac1ZQ23stdt7num_put2ZcZQ23stdt19ostreambuf_iterator2ZcZQ23stdt11char_traits1Zc
                0x08069ec8       0xb0 mock_generator.o
                0x08069ec8                std::_Tidyfac<std::num_put<char, std::ostreambuf_iterator<char, std::char_traits<char> > > >::_Tidy(void)
 .gnu.linkonce.t._Save__Q23stdt8_Tidyfac1ZQ23stdt7num_put2ZcZQ23stdt19ostreambuf_iterator2ZcZQ23stdt11char_traits1ZcPQ23stdt7num_put2ZcZQ23stdt19ostreambuf_iterator2ZcZQ23stdt11char_traits1Zc
                0x08069f78       0x3a mock_generator.o
                0x08069f78                std::_Tidyfac<std::num_put<char, std::ostreambuf_iterator<char, std::char_traits<char> > > >::_Save(std::num_put<char, std::ostreambuf_iterator<char, std::char_traits<char> > > *)
 *fill*         0x08069fb2        0x2 37008
 .gnu.linkonce.t.use_facet__H1ZQ23stdt7num_put2ZcZQ23stdt19ostreambuf_iterator2ZcZQ23stdt11char_traits1Zc_3stdRCQ23std6locale_RCX01
                0x08069fb4      0x18c mock_generator.o
                0x08069fb4                std::num_put<char, std::ostreambuf_iterator<char, std::char_traits<char> > > const & std::use_facet<std::num_put<char, std::ostreambuf_iterator<char, std::char_traits<char> > > >(std::locale const &)
 .gnu.linkonce.t.__Q23stdt19ostreambuf_iterator2ZcZQ23stdt11char_traits1ZcPQ23stdt15basic_streambuf2ZcZQ23stdt11char_traits1Zc
                0x0806a140       0x85 mock_generator.o
                0x0806a140                std::ostreambuf_iterator<char, std::char_traits<char> >::ostreambuf_iterator(std::basic_streambuf<char, std::char_traits<char> > *)
 *fill*         0x0806a1c5        0x3 37008
 .gnu.linkonce.t._Ifmt__Q23stdt7num_put2ZcZQ23stdt19ostreambuf_iterator2ZcZQ23stdt11char_traits1ZcPcPCcQ33stdt5_Iosb1Zi9_Fmtflags
                0x0806a1c8      0x121 mock_generator.o
                0x0806a1c8                std::num_put<char, std::ostreambuf_iterator<char, std::char_traits<char> > >::_Ifmt(char *, char const *, std::_Iosb<int>::_Fmtflags)
 *fill*         0x0806a2e9        0x3 37008
 .gnu.linkonce.t._Maklocstr__H1Zc_3stdPCcPX01_PX01
                0x0806a2ec       0x7b mock_generator.o
                0x0806a2ec                char * std::_Maklocstr<char>(char const *, char *)
 *fill*         0x0806a367        0x1 37008
 .gnu.linkonce.t._Init__Q23stdt8numpunct1ZcRCQ23std8_Locinfo
                0x0806a368       0xbc mock_generator.o
                0x0806a368                std::numpunct<char>::_Init(std::_Locinfo const &)
 .gnu.linkonce.t.__Q23stdt8numpunct1ZcUi
                0x0806a424       0xc8 mock_generator.o
                0x0806a424                std::numpunct<char>::numpunct(unsigned int)
 .gnu.linkonce.t._Getcat__Q23stdt8numpunct1ZcPPCQ33std6locale5facet
                0x0806a4ec       0xa0 mock_generator.o
                0x0806a4ec                std::numpunct<char>::_Getcat(std::locale::facet const **)
 .gnu.linkonce.t._Tidy__Q23stdt8_Tidyfac1ZQ23stdt8numpunct1Zc
                0x0806a58c       0xb0 mock_generator.o
                0x0806a58c                std::_Tidyfac<std::numpunct<char> >::_Tidy(void)
 .gnu.linkonce.t._Save__Q23stdt8_Tidyfac1ZQ23stdt8numpunct1ZcPQ23stdt8numpunct1Zc
                0x0806a63c       0x3a mock_generator.o
                0x0806a63c                std::_Tidyfac<std::numpunct<char> >::_Save(std::numpunct<char> *)
 *fill*         0x0806a676        0x2 37008
 .gnu.linkonce.t.use_facet__H1ZQ23stdt8numpunct1Zc_3stdRCQ23std6locale_RCX01
                0x0806a678      0x18c mock_generator.o
                0x0806a678                std::numpunct<char> const & std::use_facet<std::numpunct<char> >(std::locale const &)
 .gnu.linkonce.t.do_grouping__CQ23stdt8numpunct1Zc
                0x0806a804       0x2d mock_generator.o
                0x0806a804                std::numpunct<char>::do_grouping(void) const
 *fill*         0x0806a831        0x3 37008
 .gnu.linkonce.t.grouping__CQ23stdt8numpunct1Zc
                0x0806a834       0x3c mock_generator.o
                0x0806a834                std::numpunct<char>::grouping(void) const
 .gnu.linkonce.t.do_thousands_sep__CQ23stdt8numpunct1Zc
                0x0806a870       0x10 mock_generator.o
                0x0806a870                std::numpunct<char>::do_thousands_sep(void) const
 .gnu.linkonce.t.thousands_sep__CQ23stdt8numpunct1Zc
                0x0806a880       0x35 mock_generator.o
                0x0806a880                std::numpunct<char>::thousands_sep(void) const
 *fill*         0x0806a8b5        0x3 37008
 .gnu.linkonce.t.__pp__Q23stdt19ostreambuf_iterator2ZcZQ23stdt11char_traits1Zc
                0x0806a8b8        0xa mock_generator.o
                0x0806a8b8                std::ostreambuf_iterator<char, std::char_traits<char> >::operator++(void)
 *fill*         0x0806a8c2        0x2 37008
 .gnu.linkonce.t.__ml__Q23stdt19ostreambuf_iterator2ZcZQ23stdt11char_traits1Zc
                0x0806a8c4        0xa mock_generator.o
                0x0806a8c4                std::ostreambuf_iterator<char, std::char_traits<char> >::operator*(void)
 *fill*         0x0806a8ce        0x2 37008
 .gnu.linkonce.t.__as__Q23stdt19ostreambuf_iterator2ZcZQ23stdt11char_traits1Zcc
                0x0806a8d0       0x60 mock_generator.o
                0x0806a8d0                std::ostreambuf_iterator<char, std::char_traits<char> >::operator=(char)
 .gnu.linkonce.t._Rep__Q23stdt7num_put2ZcZQ23stdt19ostreambuf_iterator2ZcZQ23stdt11char_traits1ZcGQ23stdt19ostreambuf_iterator2ZcZQ23stdt11char_traits1ZccUi
                0x0806a930       0x6c mock_generator.o
                0x0806a930                std::num_put<char, std::ostreambuf_iterator<char, std::char_traits<char> > >::_Rep(std::ostreambuf_iterator<char, std::char_traits<char> >, char, unsigned int)
 .gnu.linkonce.t._Putc__Q23stdt7num_put2ZcZQ23stdt19ostreambuf_iterator2ZcZQ23stdt11char_traits1ZcGQ23stdt19ostreambuf_iterator2ZcZQ23stdt11char_traits1ZcPCcUi
                0x0806a99c       0x80 mock_generator.o
                0x0806a99c                std::num_put<char, std::ostreambuf_iterator<char, std::char_traits<char> > >::_Putc(std::ostreambuf_iterator<char, std::char_traits<char> >, char const *, unsigned int)
 .gnu.linkonce.t._Iput__Q23stdt7num_put2ZcZQ23stdt19ostreambuf_iterator2ZcZQ23stdt11char_traits1ZcGQ23stdt19ostreambuf_iterator2ZcZQ23stdt11char_traits1ZcRQ23std8ios_basecPcUi
                0x0806aa1c      0x4e0 mock_generator.o
                0x0806aa1c                std::num_put<char, std::ostreambuf_iterator<char, std::char_traits<char> > >::_Iput(std::ostreambuf_iterator<char, std::char_traits<char> >, std::ios_base &, char, char *, unsigned int)
 .gnu.linkonce.t.do_put__CQ23stdt7num_put2ZcZQ23stdt19ostreambuf_iterator2ZcZQ23stdt11char_traits1ZcGQ23stdt19ostreambuf_iterator2ZcZQ23stdt11char_traits1ZcRQ23std8ios_basecUl
                0x0806aefc       0x94 mock_generator.o
                0x0806aefc                std::num_put<char, std::ostreambuf_iterator<char, std::char_traits<char> > >::do_put(std::ostreambuf_iterator<char, std::char_traits<char> >, std::ios_base &, char, unsigned long) const
 .gnu.linkonce.t.put__CQ23stdt7num_put2ZcZQ23stdt19ostreambuf_iterator2ZcZQ23stdt11char_traits1ZcGQ23stdt19ostreambuf_iterator2ZcZQ23stdt11char_traits1ZcRQ23std8ios_basecUl
                0x0806af90       0x6a mock_generator.o
                0x0806af90                std::num_put<char, std::ostreambuf_iterator<char, std::char_traits<char> > >::put(std::ostreambuf_iterator<char, std::char_traits<char> >, std::ios_base &, char, unsigned long) const
 *fill*         0x0806affa        0x2 37008
 .gnu.linkonce.t.failed__CQ23stdt19ostreambuf_iterator2ZcZQ23stdt11char_traits1Zc
                0x0806affc       0x79 mock_generator.o
                0x0806affc                std::ostreambuf_iterator<char, std::char_traits<char> >::failed(void) const
 *fill*         0x0806b075        0x3 37008
 .gnu.linkonce.t.__ls__Q23stdt13basic_ostream2ZcZQ23stdt11char_traits1ZcUi
                0x0806b078      0x1f8 mock_generator.o
                0x0806b078                std::basic_ostream<char, std::char_traits<char> >::operator<<(unsigned int)
 .gnu.linkonce.t._Ffmt__Q23stdt7num_put2ZcZQ23stdt19ostreambuf_iterator2ZcZQ23stdt11char_traits1ZcPccQ33stdt5_Iosb1Zi9_Fmtflags
                0x0806b270       0xec mock_generator.o
                0x0806b270                std::num_put<char, std::ostreambuf_iterator<char, std::char_traits<char> > >::_Ffmt(char *, char, std::_Iosb<int>::_Fmtflags)
 .gnu.linkonce.t.do_decimal_point__CQ23stdt8numpunct1Zc
                0x0806b35c       0x10 mock_generator.o
                0x0806b35c                std::numpunct<char>::do_decimal_point(void) const
 .gnu.linkonce.t.decimal_point__CQ23stdt8numpunct1Zc
                0x0806b36c       0x35 mock_generator.o
                0x0806b36c                std::numpunct<char>::decimal_point(void) const
 *fill*         0x0806b3a1        0x3 37008
 .gnu.linkonce.t._Fput__Q23stdt7num_put2ZcZQ23stdt19ostreambuf_iterator2ZcZQ23stdt11char_traits1ZcGQ23stdt19ostreambuf_iterator2ZcZQ23stdt11char_traits1ZcRQ23std8ios_basecPCcUiUiUiUi
                0x0806b3a4      0x5e4 mock_generator.o
                0x0806b3a4                std::num_put<char, std::ostreambuf_iterator<char, std::char_traits<char> > >::_Fput(std::ostreambuf_iterator<char, std::char_traits<char> >, std::ios_base &, char, char const *, unsigned int, unsigned int, unsigned int, unsigned int)
 .gnu.linkonce.t.do_put__CQ23stdt7num_put2ZcZQ23stdt19ostreambuf_iterator2ZcZQ23stdt11char_traits1ZcGQ23stdt19ostreambuf_iterator2ZcZQ23stdt11char_traits1ZcRQ23std8ios_basecd
                0x0806b988      0x259 mock_generator.o
                0x0806b988                std::num_put<char, std::ostreambuf_iterator<char, std::char_traits<char> > >::do_put(std::ostreambuf_iterator<char, std::char_traits<char> >, std::ios_base &, char, double) const
 *fill*         0x0806bbe1        0x3 37008
 .gnu.linkonce.t.put__CQ23stdt7num_put2ZcZQ23stdt19ostreambuf_iterator2ZcZQ23stdt11char_traits1ZcGQ23stdt19ostreambuf_iterator2ZcZQ23stdt11char_traits1ZcRQ23std8ios_basecd
                0x0806bbe4       0x72 mock_generator.o
                0x0806bbe4                std::num_put<char, std::ostreambuf_iterator<char, std::char_traits<char> > >::put(std::ostreambuf_iterator<char, std::char_traits<char> >, std::ios_base &, char, double) const
 *fill*         0x0806bc56        0x2 37008
 .gnu.linkonce.t.__ls__Q23stdt13basic_ostream2ZcZQ23stdt11char_traits1Zcd
                0x0806bc58      0x200 mock_generator.o
                0x0806bc58                std::basic_ostream<char, std::char_traits<char> >::operator<<(double)
 .gnu.linkonce.t.widen__CQ23stdt9basic_ios2ZcZQ23stdt11char_traits1Zcc
                0x0806be58       0x9f mock_generator.o
                0x0806be58                std::basic_ios<char, std::char_traits<char> >::widen(char) const
 *fill*         0x0806bef7        0x1 37008
 .gnu.linkonce.t.put__Q23stdt13basic_ostream2ZcZQ23stdt11char_traits1Zcc
                0x0806bef8      0x17d mock_generator.o
                0x0806bef8                std::basic_ostream<char, std::char_traits<char> >::put(char)
 *fill*         0x0806c075        0x3 37008
 .gnu.linkonce.t.__ls__Q23stdt13basic_ostream2ZcZQ23stdt11char_traits1ZcPFRQ23stdt13basic_ostream2ZcZQ23stdt11char_traits1Zc_RQ23stdt13basic_ostream2ZcZQ23stdt11char_traits1Zc
                0x0806c078       0x24 mock_generator.o
                0x0806c078                std::basic_ostream<char, std::char_traits<char> >::operator<<(std::basic_ostream<char, std::char_traits<char> > &(*)(std::basic_ostream<char, std::char_traits<char> > &))
 .gnu.linkonce.t.pbase__CQ23stdt15basic_streambuf2ZcZQ23stdt11char_traits1Zc
                0x0806c09c       0x11 mock_generator.o
                0x0806c09c                std::basic_streambuf<char, std::char_traits<char> >::pbase(void) const
 *fill*         0x0806c0ad        0x3 37008
 .gnu.linkonce.t.__Q23stdt12basic_string3ZcZQ23stdt11char_traits1ZcZQ23stdt9allocator1ZcPCcUi
                0x0806c0b0       0x58 mock_generator.o
                0x0806c0b0                std::basic_string<char, std::char_traits<char>, std::allocator<char> >::basic_string(char const *, unsigned int)
 .gnu.linkonce.t.str__CQ23stdt15basic_stringbuf3ZcZQ23stdt11char_traits1ZcZQ23stdt9allocator1Zc
                0x0806c108      0x224 mock_generator.o
                0x0806c108                std::basic_stringbuf<char, std::char_traits<char>, std::allocator<char> >::str(void) const
 .gnu.linkonce.t.str__CQ23stdt19basic_ostringstream3ZcZQ23stdt11char_traits1ZcZQ23stdt9allocator1Zc
                0x0806c32c       0x2b mock_generator.o
                0x0806c32c                std::basic_ostringstream<char, std::char_traits<char>, std::allocator<char> >::str(void) const
 *fill*         0x0806c357        0x1 37008
 .gnu.linkonce.t.__vc__CQ23stdt12basic_string3ZcZQ23stdt11char_traits1ZcZQ23stdt9allocator1ZcUi
                0x0806c358       0x26 mock_generator.o
                0x0806c358                std::basic_string<char, std::char_traits<char>, std::allocator<char> >::operator[](unsigned int) const
 *fill*         0x0806c37e        0x2 37008
 .gnu.linkonce.t._Ptr_cat__H2ZPUcZPUc_3stdRCX01RX11_Q23std27_Nonscalar_ptr_iterator_tag
                0x0806c380       0x20 mock_generator.o
                0x0806c380                std::_Nonscalar_ptr_iterator_tag std::_Ptr_cat<unsigned char *, unsigned char *>(unsigned char * const &, unsigned char * &)
 .gnu.linkonce.t._Destroy__H1ZUc_3stdPX01_v
                0x0806c3a0        0x8 mock_generator.o
                0x0806c3a0                void std::_Destroy<unsigned char>(unsigned char *)
 .gnu.linkonce.t.destroy__Q23stdt9allocator1ZUcPUc
                0x0806c3a8       0x1e mock_generator.o
                0x0806c3a8                std::allocator<unsigned char>::destroy(unsigned char *)
 *fill*         0x0806c3c6        0x2 37008
 .gnu.linkonce.t._Destroy_range__H2ZUcZQ23stdt9allocator1ZUc_3stdPX01T1RX11GQ23std27_Nonscalar_ptr_iterator_tag_v
                0x0806c3c8       0x3c mock_generator.o
                0x0806c3c8                void std::_Destroy_range<unsigned char, std::allocator<unsigned char> >(unsigned char *, unsigned char *, std::allocator<unsigned char> &, std::_Nonscalar_ptr_iterator_tag)
 .gnu.linkonce.t._Destroy_range__H2ZUcZQ23stdt9allocator1ZUc_3stdPX01T1RX11_v
                0x0806c404       0x46 mock_generator.o
                0x0806c404                void std::_Destroy_range<unsigned char, std::allocator<unsigned char> >(unsigned char *, unsigned char *, std::allocator<unsigned char> &)
 *fill*         0x0806c44a        0x2 37008
 .gnu.linkonce.t._Destroy__Q23stdt6vector2ZUcZQ23stdt9allocator1ZUcPUcT1
                0x0806c44c       0x23 mock_generator.o
                0x0806c44c                std::vector<unsigned char, std::allocator<unsigned char> >::_Destroy(unsigned char *, unsigned char *)
 *fill*         0x0806c46f        0x1 37008
 .gnu.linkonce.t.deallocate__Q23stdt9allocator1ZUcPUcUi
                0x0806c470       0x1e mock_generator.o
                0x0806c470                std::allocator<unsigned char>::deallocate(unsigned char *, unsigned int)
 *fill*         0x0806c48e        0x2 37008
 .gnu.linkonce.t._._Q23stdt6vector2ZUcZQ23stdt9allocator1ZUc
                0x0806c490       0x71 mock_generator.o
                0x0806c490                std::vector<unsigned char, std::allocator<unsigned char> >::~vector(void)
 *fill*         0x0806c501        0x3 37008
 .gnu.linkonce.t.__Q23stdt9allocator1ZUc
                0x0806c504        0xa mock_generator.o
                0x0806c504                std::allocator<unsigned char>::allocator(void)
 *fill*         0x0806c50e        0x2 37008
 .gnu.linkonce.t.__Q23stdt9allocator1ZUcRCQ23stdt9allocator1ZUc
                0x0806c510        0xa mock_generator.o
                0x0806c510                std::allocator<unsigned char>::allocator(std::allocator<unsigned char> const &)
 *fill*         0x0806c51a        0x2 37008
 .gnu.linkonce.t.__Q23stdt11_Vector_val2ZUcZQ23stdt9allocator1ZUcGQ23stdt9allocator1ZUc
                0x0806c51c       0x26 mock_generator.o
                0x0806c51c                std::_Vector_val<unsigned char, std::allocator<unsigned char> >::_Vector_val(std::allocator<unsigned char>)
 *fill*         0x0806c542        0x2 37008
 .gnu.linkonce.t.max_size__CQ23stdt9allocator1ZUc
                0x0806c544       0x24 mock_generator.o
                0x0806c544                std::allocator<unsigned char>::max_size(void) const
 .gnu.linkonce.t.max_size__CQ23stdt6vector2ZUcZQ23stdt9allocator1ZUc
                0x0806c568       0x21 mock_generator.o
                0x0806c568                std::vector<unsigned char, std::allocator<unsigned char> >::max_size(void) const
 *fill*         0x0806c589        0x3 37008
 .gnu.linkonce.t._Xlen__CQ23stdt6vector2ZUcZQ23stdt9allocator1ZUc
                0x0806c58c      0x110 mock_generator.o
                0x0806c58c                std::vector<unsigned char, std::allocator<unsigned char> >::_Xlen(void) const
 .gnu.linkonce.t._Allocate__H1ZUc_3stdUiPX01_PX01
                0x0806c69c       0x29 mock_generator.o
                0x0806c69c                unsigned char * std::_Allocate<unsigned char>(unsigned int, unsigned char *)
 *fill*         0x0806c6c5        0x3 37008
 .gnu.linkonce.t.allocate__Q23stdt9allocator1ZUcUi
                0x0806c6c8       0x26 mock_generator.o
                0x0806c6c8                std::allocator<unsigned char>::allocate(unsigned int)
 *fill*         0x0806c6ee        0x2 37008
 .gnu.linkonce.t.allocate__H1Zv_Q23stdt9allocator1ZUcUiPCX00_PUc
                0x0806c6f0       0x25 mock_generator.o
                0x0806c6f0                unsigned char * std::allocator<unsigned char>::allocate<void>(unsigned int, void const *)
 *fill*         0x0806c715        0x3 37008
 .gnu.linkonce.t._Buy__Q23stdt6vector2ZUcZQ23stdt9allocator1ZUcUi
                0x0806c718       0x85 mock_generator.o
                0x0806c718                std::vector<unsigned char, std::allocator<unsigned char> >::_Buy(unsigned int)
 *fill*         0x0806c79d        0x3 37008
 .gnu.linkonce.t._Construct__H2ZUcZUc_3stdPX01RCX11_v
                0x0806c7a0       0xc4 mock_generator.o
                0x0806c7a0                void std::_Construct<unsigned char, unsigned char>(unsigned char *, unsigned char const &)
 .gnu.linkonce.t.construct__Q23stdt9allocator1ZUcPUcRCUc
                0x0806c864       0x22 mock_generator.o
                0x0806c864                std::allocator<unsigned char>::construct(unsigned char *, unsigned char const &)
 *fill*         0x0806c886        0x2 37008
 .gnu.linkonce.t._Uninit_fill_n__H4ZPUcZUiZUcZQ23stdt9allocator1ZUc_3stdX01X11RCX21RX31GQ23std27_Nonscalar_ptr_iterator_tag_v
                0x0806c888       0xc4 mock_generator.o
                0x0806c888                void std::_Uninit_fill_n<unsigned char *, unsigned int, unsigned char, std::allocator<unsigned char> >(unsigned char *, unsigned int, unsigned char const &, std::allocator<unsigned char> &, std::_Nonscalar_ptr_iterator_tag)
 .gnu.linkonce.t._Uninitialized_fill_n__H4ZPUcZUiZUcZQ23stdt9allocator1ZUc_3stdX01X11RCX21RX31_v
                0x0806c94c       0x4f mock_generator.o
                0x0806c94c                void std::_Uninitialized_fill_n<unsigned char *, unsigned int, unsigned char, std::allocator<unsigned char> >(unsigned char *, unsigned int, unsigned char const &, std::allocator<unsigned char> &)
 *fill*         0x0806c99b        0x1 37008
 .gnu.linkonce.t._Ufill__Q23stdt6vector2ZUcZQ23stdt9allocator1ZUcPUcUiRCUc
                0x0806c99c       0x31 mock_generator.o
                0x0806c99c                std::vector<unsigned char, std::allocator<unsigned char> >::_Ufill(unsigned char *, unsigned int, unsigned char const &)
 *fill*         0x0806c9cd        0x3 37008
 .gnu.linkonce.t.__Q23stdt6vector2ZUcZQ23stdt9allocator1ZUcUi
                0x0806c9d0       0x68 mock_generator.o
                0x0806c9d0                std::vector<unsigned char, std::allocator<unsigned char> >::vector(unsigned int)
 .gnu.linkonce.t.__Q23stdt6_Ptrit6ZUcZiZPUcZRUcZPUcZRUc
                0x0806ca38        0xa mock_generator.o
                0x0806ca38                std::_Ptrit<unsigned char, int, unsigned char *, unsigned char &, unsigned char *, unsigned char &>::_Ptrit(void)
 *fill*         0x0806ca42        0x2 37008
 .gnu.linkonce.t._Ptr_cat__H2ZQ23stdt6_Ptrit6ZUxZiZPUxZRUxZPUxZRUxZPUx_3stdRCX01RX11_Q23std27_Nonscalar_ptr_iterator_tag
                0x0806ca44       0x20 mock_generator.o
                0x0806ca44                std::_Nonscalar_ptr_iterator_tag std::_Ptr_cat<std::_Ptrit<unsigned long long, int, unsigned long long *, unsigned long long &, unsigned long long *, unsigned long long &>, unsigned long long *>(std::_Ptrit<unsigned long long, int, unsigned long long *, unsigned long long &, unsigned long long *, unsigned long long &> const &, unsigned long long * &)
 .gnu.linkonce.t._Copy_opt__H2ZQ23stdt6_Ptrit6ZUxZiZPUxZRUxZPUxZRUxZPUx_3stdX01X01X11GQ23std27_Nonscalar_ptr_iterator_tag_X11
                0x0806ca64       0x71 mock_generator.o
                0x0806ca64                unsigned long long * std::_Copy_opt<std::_Ptrit<unsigned long long, int, unsigned long long *, unsigned long long &, unsigned long long *, unsigned long long &>, unsigned long long *>(std::_Ptrit<unsigned long long, int, unsigned long long *, unsigned long long &, unsigned long long *, unsigned long long &>, std::_Ptrit<unsigned long long, int, unsigned long long *, unsigned long long &, unsigned long long *, unsigned long long &>, unsigned long long *, std::_Nonscalar_ptr_iterator_tag)
 *fill*         0x0806cad5        0x3 37008
 .gnu.linkonce.t.copy__H2ZQ23stdt6_Ptrit6ZUxZiZPUxZRUxZPUxZRUxZPUx_3stdX01X01X11_X11
                0x0806cad8       0x73 mock_generator.o
                0x0806cad8                unsigned long long * std::copy<std::_Ptrit<unsigned long long, int, unsigned long long *, unsigned long long &, unsigned long long *, unsigned long long &>, unsigned long long *>(std::_Ptrit<unsigned long long, int, unsigned long long *, unsigned long long &, unsigned long long *, unsigned long long &>, std::_Ptrit<unsigned long long, int, unsigned long long *, unsigned long long &, unsigned long long *, unsigned long long &>, unsigned long long *)
 *fill*         0x0806cb4b        0x1 37008
 .gnu.linkonce.t.erase__Q23stdt6vector2ZUxZQ23stdt9allocator1ZUxGQ23stdt6_Ptrit6ZUxZiZPUxZRUxZPUxZRUxT1
                0x0806cb4c       0xb1 mock_generator.o
                0x0806cb4c                std::vector<unsigned long long, std::allocator<unsigned long long> >::erase(std::_Ptrit<unsigned long long, int, unsigned long long *, unsigned long long &, unsigned long long *, unsigned long long &>, std::_Ptrit<unsigned long long, int, unsigned long long *, unsigned long long &, unsigned long long *, unsigned long long &>)
 *fill*         0x0806cbfd        0x3 37008
 .gnu.linkonce.t.clear__Q23stdt6vector2ZUxZQ23stdt9allocator1ZUx
                0x0806cc00       0x47 mock_generator.o
                0x0806cc00                std::vector<unsigned long long, std::allocator<unsigned long long> >::clear(void)
 *fill*         0x0806cc47        0x1 37008
 .gnu.linkonce.t.capacity__CQ23stdt6vector2ZUxZQ23stdt9allocator1ZUx
                0x0806cc48       0x2b mock_generator.o
                0x0806cc48                std::vector<unsigned long long, std::allocator<unsigned long long> >::capacity(void) const
 *fill*         0x0806cc73        0x1 37008
 .gnu.linkonce.t._Uninit_copy__H3ZQ23stdt6_Ptrit6ZUxZiZPUxZRUxZPUxZRUxZPUxZQ23stdt9allocator1ZUx_3stdX01X01X11RX21GQ23std27_Nonscalar_ptr_iterator_tag_X11
                0x0806cc74       0xf8 mock_generator.o
                0x0806cc74                unsigned long long * std::_Uninit_copy<std::_Ptrit<unsigned long long, int, unsigned long long *, unsigned long long &, unsigned long long *, unsigned long long &>, unsigned long long *, std::allocator<unsigned long long> >(std::_Ptrit<unsigned long long, int, unsigned long long *, unsigned long long &, unsigned long long *, unsigned long long &>, std::_Ptrit<unsigned long long, int, unsigned long long *, unsigned long long &, unsigned long long *, unsigned long long &>, unsigned long long *, std::allocator<unsigned long long> &, std::_Nonscalar_ptr_iterator_tag)
 .gnu.linkonce.t._Uninitialized_copy__H3ZQ23stdt6_Ptrit6ZUxZiZPUxZRUxZPUxZRUxZPUxZQ23stdt9allocator1ZUx_3stdX01X01X11RX21_X11
                0x0806cd6c       0x7c mock_generator.o
                0x0806cd6c                unsigned long long * std::_Uninitialized_copy<std::_Ptrit<unsigned long long, int, unsigned long long *, unsigned long long &, unsigned long long *, unsigned long long &>, unsigned long long *, std::allocator<unsigned long long> >(std::_Ptrit<unsigned long long, int, unsigned long long *, unsigned long long &, unsigned long long *, unsigned long long &>, std::_Ptrit<unsigned long long, int, unsigned long long *, unsigned long long &, unsigned long long *, unsigned long long &>, unsigned long long *, std::allocator<unsigned long long> &)
 .gnu.linkonce.t._Ucopy__H1ZQ23stdt6_Ptrit6ZUxZiZPUxZRUxZPUxZRUx_Q23stdt6vector2ZUxZQ23stdt9allocator1ZUxX00X00PUx_PUx
                0x0806cde8       0x59 mock_generator.o
                0x0806cde8                unsigned long long * std::vector<unsigned long long, std::allocator<unsigned long long> >::_Ucopy<std::_Ptrit<unsigned long long, int, unsigned long long *, unsigned long long &, unsigned long long *, unsigned long long &> >(std::_Ptrit<unsigned long long, int, unsigned long long *, unsigned long long &, unsigned long long *, unsigned long long &>, std::_Ptrit<unsigned long long, int, unsigned long long *, unsigned long long &, unsigned long long *, unsigned long long &>, unsigned long long *)
 *fill*         0x0806ce41        0x3 37008
 .gnu.linkonce.t.reserve__Q23stdt6vector2ZUxZQ23stdt9allocator1ZUxUi
                0x0806ce44      0x18d mock_generator.o
                0x0806ce44                std::vector<unsigned long long, std::allocator<unsigned long long> >::reserve(unsigned int)
 *fill*         0x0806cfd1        0x3 37008
 .gnu.linkonce.t.__Q23stdt6_Ptrit6ZUcZiZPUcZRUcZPUcZRUcPUc
                0x0806cfd4       0x12 mock_generator.o
                0x0806cfd4                std::_Ptrit<unsigned char, int, unsigned char *, unsigned char &, unsigned char *, unsigned char &>::_Ptrit(unsigned char *)
 *fill*         0x0806cfe6        0x2 37008
 .gnu.linkonce.t.base__CQ23stdt6_Ptrit6ZUcZiZPUcZRUcZPUcZRUc
                0x0806cfe8        0xf mock_generator.o
                0x0806cfe8                std::_Ptrit<unsigned char, int, unsigned char *, unsigned char &, unsigned char *, unsigned char &>::base(void) const
 *fill*         0x0806cff7        0x1 37008
 .gnu.linkonce.t.__Q23stdt6_Ptrit6ZUcZiZPUcZRUcZPUcZRUcRCQ23stdt6_Ptrit6ZUcZiZPUcZRUcZPUcZRUc
                0x0806cff8       0x25 mock_generator.o
                0x0806cff8                std::_Ptrit<unsigned char, int, unsigned char *, unsigned char &, unsigned char *, unsigned char &>::_Ptrit(std::_Ptrit<unsigned char, int, unsigned char *, unsigned char &, unsigned char *, unsigned char &> const &)
 *fill*         0x0806d01d        0x3 37008
 .gnu.linkonce.t.begin__Q23stdt6vector2ZUcZQ23stdt9allocator1ZUc
                0x0806d020       0x2d mock_generator.o
                0x0806d020                std::vector<unsigned char, std::allocator<unsigned char> >::begin(void)
 *fill*         0x0806d04d        0x3 37008
 .gnu.linkonce.t.__pl__CQ23stdt6_Ptrit6ZUcZiZPUcZRUcZPUcZRUci
                0x0806d050       0x32 mock_generator.o
                0x0806d050                std::_Ptrit<unsigned char, int, unsigned char *, unsigned char &, unsigned char *, unsigned char &>::operator+(int) const
 *fill*         0x0806d082        0x2 37008
 .gnu.linkonce.t.__ml__CQ23stdt6_Ptrit6ZUcZiZPUcZRUcZPUcZRUc
                0x0806d084        0xf mock_generator.o
                0x0806d084                std::_Ptrit<unsigned char, int, unsigned char *, unsigned char &, unsigned char *, unsigned char &>::operator*(void) const
 *fill*         0x0806d093        0x1 37008
 .gnu.linkonce.t.__vc__Q23stdt6vector2ZUcZQ23stdt9allocator1ZUcUi
                0x0806d094       0x4e mock_generator.o
                0x0806d094                std::vector<unsigned char, std::allocator<unsigned char> >::operator[](unsigned int)
 *fill*         0x0806d0e2        0x2 37008
 .gnu.linkonce.t.size__CQ23stdt6vector2ZUcZQ23stdt9allocator1ZUc
                0x0806d0e4       0x20 mock_generator.o
                0x0806d0e4                std::vector<unsigned char, std::allocator<unsigned char> >::size(void) const
 .gnu.linkonce.t.empty__CQ23stdt4list2ZQ23stdt4pair2ZCiZQ214mock_generator15call_parametersZQ23stdt9allocator1ZQ23stdt4pair2ZCiZQ214mock_generator15call_parameters
                0x0806d104       0x16 mock_generator.o
                0x0806d104                std::list<std::pair<int const, mock_generator::call_parameters>, std::allocator<std::pair<int const, mock_generator::call_parameters> > >::empty(void) const
 *fill*         0x0806d11a        0x2 37008
 .gnu.linkonce.t.empty__CQ23stdt5_Hash1ZQ23stdt12_Hmap_traits5ZiZQ214mock_generator15call_parametersZQ23stdt12hash_compare2ZiZQ23stdt4less1ZiZQ23stdt9allocator1ZQ23stdt4pair2ZCiZQ214mock_generator15call_parametersb0
                0x0806d11c       0x24 mock_generator.o
                0x0806d11c                std::_Hash<std::_Hmap_traits<int, mock_generator::call_parameters, std::hash_compare<int, std::less<int> >, std::allocator<std::pair<int const, mock_generator::call_parameters> >, false> >::empty(void) const
 .gnu.linkonce.t.empty__CQ23stdt6vector2ZUcZQ23stdt9allocator1ZUc
                0x0806d140       0x29 mock_generator.o
                0x0806d140                std::vector<unsigned char, std::allocator<unsigned char> >::empty(void) const
 *fill*         0x0806d169        0x3 37008
 .gnu.linkonce.t.__apl__Q23stdt6_Ptrit6ZUcZiZPUcZRUcZPUcZRUci
                0x0806d16c       0x12 mock_generator.o
                0x0806d16c                std::_Ptrit<unsigned char, int, unsigned char *, unsigned char &, unsigned char *, unsigned char &>::operator+=(int)
 *fill*         0x0806d17e        0x2 37008
 .gnu.linkonce.t.__eq__CQ23stdt6_Ptrit6ZUcZiZPUcZRUcZPUcZRUcRCQ23stdt6_Ptrit6ZUcZiZPUcZRUcZPUcZRUc
                0x0806d180       0x1b mock_generator.o
                0x0806d180                std::_Ptrit<unsigned char, int, unsigned char *, unsigned char &, unsigned char *, unsigned char &>::operator==(std::_Ptrit<unsigned char, int, unsigned char *, unsigned char &, unsigned char *, unsigned char &> const &) const
 *fill*         0x0806d19b        0x1 37008
 .gnu.linkonce.t.__ne__CQ23stdt6_Ptrit6ZUcZiZPUcZRUcZPUcZRUcRCQ23stdt6_Ptrit6ZUcZiZPUcZRUcZPUcZRUc
                0x0806d19c       0x28 mock_generator.o
                0x0806d19c                std::_Ptrit<unsigned char, int, unsigned char *, unsigned char &, unsigned char *, unsigned char &>::operator!=(std::_Ptrit<unsigned char, int, unsigned char *, unsigned char &, unsigned char *, unsigned char &> const &) const
 .gnu.linkonce.t.end__Q23stdt6vector2ZUcZQ23stdt9allocator1ZUc
                0x0806d1c4       0x2d mock_generator.o
                0x0806d1c4                std::vector<unsigned char, std::allocator<unsigned char> >::end(void)
 *fill*         0x0806d1f1        0x3 37008
 .gnu.linkonce.t._Ptr_cat__H2ZQ23stdt6_Ptrit6ZUcZiZPUcZRUcZPUcZRUcZPUc_3stdRCX01RX11_Q23std27_Nonscalar_ptr_iterator_tag
                0x0806d1f4       0x20 mock_generator.o
                0x0806d1f4                std::_Nonscalar_ptr_iterator_tag std::_Ptr_cat<std::_Ptrit<unsigned char, int, unsigned char *, unsigned char &, unsigned char *, unsigned char &>, unsigned char *>(std::_Ptrit<unsigned char, int, unsigned char *, unsigned char &, unsigned char *, unsigned char &> const &, unsigned char * &)
 .gnu.linkonce.t.__pp__Q23stdt6_Ptrit6ZUcZiZPUcZRUcZPUcZRUc
                0x0806d214        0xf mock_generator.o
                0x0806d214                std::_Ptrit<unsigned char, int, unsigned char *, unsigned char &, unsigned char *, unsigned char &>::operator++(void)
 *fill*         0x0806d223        0x1 37008
 .gnu.linkonce.t._Copy_opt__H2ZQ23stdt6_Ptrit6ZUcZiZPUcZRUcZPUcZRUcZPUc_3stdX01X01X11GQ23std27_Nonscalar_ptr_iterator_tag_X11
                0x0806d224       0x69 mock_generator.o
                0x0806d224                unsigned char * std::_Copy_opt<std::_Ptrit<unsigned char, int, unsigned char *, unsigned char &, unsigned char *, unsigned char &>, unsigned char *>(std::_Ptrit<unsigned char, int, unsigned char *, unsigned char &, unsigned char *, unsigned char &>, std::_Ptrit<unsigned char, int, unsigned char *, unsigned char &, unsigned char *, unsigned char &>, unsigned char *, std::_Nonscalar_ptr_iterator_tag)
 *fill*         0x0806d28d        0x3 37008
 .gnu.linkonce.t.copy__H2ZQ23stdt6_Ptrit6ZUcZiZPUcZRUcZPUcZRUcZPUc_3stdX01X01X11_X11
                0x0806d290       0x73 mock_generator.o
                0x0806d290                unsigned char * std::copy<std::_Ptrit<unsigned char, int, unsigned char *, unsigned char &, unsigned char *, unsigned char &>, unsigned char *>(std::_Ptrit<unsigned char, int, unsigned char *, unsigned char &, unsigned char *, unsigned char &>, std::_Ptrit<unsigned char, int, unsigned char *, unsigned char &, unsigned char *, unsigned char &>, unsigned char *)
 *fill*         0x0806d303        0x1 37008
 .gnu.linkonce.t.erase__Q23stdt6vector2ZUcZQ23stdt9allocator1ZUcGQ23stdt6_Ptrit6ZUcZiZPUcZRUcZPUcZRUcT1
                0x0806d304       0xb1 mock_generator.o
                0x0806d304                std::vector<unsigned char, std::allocator<unsigned char> >::erase(std::_Ptrit<unsigned char, int, unsigned char *, unsigned char &, unsigned char *, unsigned char &>, std::_Ptrit<unsigned char, int, unsigned char *, unsigned char &, unsigned char *, unsigned char &>)
 *fill*         0x0806d3b5        0x3 37008
 .gnu.linkonce.t.clear__Q23stdt6vector2ZUcZQ23stdt9allocator1ZUc
                0x0806d3b8       0x47 mock_generator.o
                0x0806d3b8                std::vector<unsigned char, std::allocator<unsigned char> >::clear(void)
 *fill*         0x0806d3ff        0x1 37008
 .gnu.linkonce.t.__Q23stdt6_Ptrit6ZUcZiZPCUcZRCUcZPUcZRUcPCUc
                0x0806d400       0x12 mock_generator.o
                0x0806d400                std::_Ptrit<unsigned char, int, unsigned char const *, unsigned char const &, unsigned char *, unsigned char &>::_Ptrit(unsigned char const *)
 *fill*         0x0806d412        0x2 37008
 .gnu.linkonce.t.begin__CQ23stdt6vector2ZUcZQ23stdt9allocator1ZUc
                0x0806d414       0x2d mock_generator.o
                0x0806d414                std::vector<unsigned char, std::allocator<unsigned char> >::begin(void) const
 *fill*         0x0806d441        0x3 37008
 .gnu.linkonce.t.end__CQ23stdt6vector2ZUcZQ23stdt9allocator1ZUc
                0x0806d444       0x2d mock_generator.o
                0x0806d444                std::vector<unsigned char, std::allocator<unsigned char> >::end(void) const
 *fill*         0x0806d471        0x3 37008
 .gnu.linkonce.t._Ptr_cat__H2ZQ23stdt6_Ptrit6ZUcZiZPCUcZRCUcZPUcZRUcZPUc_3stdRCX01RX11_Q23std27_Nonscalar_ptr_iterator_tag
                0x0806d474       0x20 mock_generator.o
                0x0806d474                std::_Nonscalar_ptr_iterator_tag std::_Ptr_cat<std::_Ptrit<unsigned char, int, unsigned char const *, unsigned char const &, unsigned char *, unsigned char &>, unsigned char *>(std::_Ptrit<unsigned char, int, unsigned char const *, unsigned char const &, unsigned char *, unsigned char &> const &, unsigned char * &)
 .gnu.linkonce.t.__eq__CQ23stdt6_Ptrit6ZUcZiZPCUcZRCUcZPUcZRUcRCQ23stdt6_Ptrit6ZUcZiZPCUcZRCUcZPUcZRUc
                0x0806d494       0x1b mock_generator.o
                0x0806d494                std::_Ptrit<unsigned char, int, unsigned char const *, unsigned char const &, unsigned char *, unsigned char &>::operator==(std::_Ptrit<unsigned char, int, unsigned char const *, unsigned char const &, unsigned char *, unsigned char &> const &) const
 *fill*         0x0806d4af        0x1 37008
 .gnu.linkonce.t.__ne__CQ23stdt6_Ptrit6ZUcZiZPCUcZRCUcZPUcZRUcRCQ23stdt6_Ptrit6ZUcZiZPCUcZRCUcZPUcZRUc
                0x0806d4b0       0x28 mock_generator.o
                0x0806d4b0                std::_Ptrit<unsigned char, int, unsigned char const *, unsigned char const &, unsigned char *, unsigned char &>::operator!=(std::_Ptrit<unsigned char, int, unsigned char const *, unsigned char const &, unsigned char *, unsigned char &> const &) const
 .gnu.linkonce.t.__pp__Q23stdt6_Ptrit6ZUcZiZPCUcZRCUcZPUcZRUc
                0x0806d4d8        0xf mock_generator.o
                0x0806d4d8                std::_Ptrit<unsigned char, int, unsigned char const *, unsigned char const &, unsigned char *, unsigned char &>::operator++(void)
 *fill*         0x0806d4e7        0x1 37008
 .gnu.linkonce.t.__ml__CQ23stdt6_Ptrit6ZUcZiZPCUcZRCUcZPUcZRUc
                0x0806d4e8        0xf mock_generator.o
                0x0806d4e8                std::_Ptrit<unsigned char, int, unsigned char const *, unsigned char const &, unsigned char *, unsigned char &>::operator*(void) const
 *fill*         0x0806d4f7        0x1 37008
 .gnu.linkonce.t._Copy_opt__H2ZQ23stdt6_Ptrit6ZUcZiZPCUcZRCUcZPUcZRUcZPUc_3stdX01X01X11GQ23std27_Nonscalar_ptr_iterator_tag_X11
                0x0806d4f8       0x70 mock_generator.o
                0x0806d4f8                unsigned char * std::_Copy_opt<std::_Ptrit<unsigned char, int, unsigned char const *, unsigned char const &, unsigned char *, unsigned char &>, unsigned char *>(std::_Ptrit<unsigned char, int, unsigned char const *, unsigned char const &, unsigned char *, unsigned char &>, std::_Ptrit<unsigned char, int, unsigned char const *, unsigned char const &, unsigned char *, unsigned char &>, unsigned char *, std::_Nonscalar_ptr_iterator_tag)
 .gnu.linkonce.t.copy__H2ZQ23stdt6_Ptrit6ZUcZiZPCUcZRCUcZPUcZRUcZPUc_3stdX01X01X11_X11
                0x0806d568       0x5e mock_generator.o
                0x0806d568                unsigned char * std::copy<std::_Ptrit<unsigned char, int, unsigned char const *, unsigned char const &, unsigned char *, unsigned char &>, unsigned char *>(std::_Ptrit<unsigned char, int, unsigned char const *, unsigned char const &, unsigned char *, unsigned char &>, std::_Ptrit<unsigned char, int, unsigned char const *, unsigned char const &, unsigned char *, unsigned char &>, unsigned char *)
 *fill*         0x0806d5c6        0x2 37008
 .gnu.linkonce.t.capacity__CQ23stdt6vector2ZUcZQ23stdt9allocator1ZUc
                0x0806d5c8       0x20 mock_generator.o
                0x0806d5c8                std::vector<unsigned char, std::allocator<unsigned char> >::capacity(void) const
 .gnu.linkonce.t.__pl__CQ23stdt6_Ptrit6ZUcZiZPCUcZRCUcZPUcZRUci
                0x0806d5e8       0x32 mock_generator.o
                0x0806d5e8                std::_Ptrit<unsigned char, int, unsigned char const *, unsigned char const &, unsigned char *, unsigned char &>::operator+(int) const
 *fill*         0x0806d61a        0x2 37008
 .gnu.linkonce.t._Uninit_copy__H3ZQ23stdt6_Ptrit6ZUcZiZPCUcZRCUcZPUcZRUcZPUcZQ23stdt9allocator1ZUc_3stdX01X01X11RX21GQ23std27_Nonscalar_ptr_iterator_tag_X11
                0x0806d61c       0xfc mock_generator.o
                0x0806d61c                unsigned char * std::_Uninit_copy<std::_Ptrit<unsigned char, int, unsigned char const *, unsigned char const &, unsigned char *, unsigned char &>, unsigned char *, std::allocator<unsigned char> >(std::_Ptrit<unsigned char, int, unsigned char const *, unsigned char const &, unsigned char *, unsigned char &>, std::_Ptrit<unsigned char, int, unsigned char const *, unsigned char const &, unsigned char *, unsigned char &>, unsigned char *, std::allocator<unsigned char> &, std::_Nonscalar_ptr_iterator_tag)
 .gnu.linkonce.t._Uninitialized_copy__H3ZQ23stdt6_Ptrit6ZUcZiZPCUcZRCUcZPUcZRUcZPUcZQ23stdt9allocator1ZUc_3stdX01X01X11RX21_X11
                0x0806d718       0x64 mock_generator.o
                0x0806d718                unsigned char * std::_Uninitialized_copy<std::_Ptrit<unsigned char, int, unsigned char const *, unsigned char const &, unsigned char *, unsigned char &>, unsigned char *, std::allocator<unsigned char> >(std::_Ptrit<unsigned char, int, unsigned char const *, unsigned char const &, unsigned char *, unsigned char &>, std::_Ptrit<unsigned char, int, unsigned char const *, unsigned char const &, unsigned char *, unsigned char &>, unsigned char *, std::allocator<unsigned char> &)
 .gnu.linkonce.t._Ucopy__H1ZQ23stdt6_Ptrit6ZUcZiZPCUcZRCUcZPUcZRUc_Q23stdt6vector2ZUcZQ23stdt9allocator1ZUcX00X00PUc_PUc
                0x0806d77c       0x35 mock_generator.o
                0x0806d77c                unsigned char * std::vector<unsigned char, std::allocator<unsigned char> >::_Ucopy<std::_Ptrit<unsigned char, int, unsigned char const *, unsigned char const &, unsigned char *, unsigned char &> >(std::_Ptrit<unsigned char, int, unsigned char const *, unsigned char const &, unsigned char *, unsigned char &>, std::_Ptrit<unsigned char, int, unsigned char const *, unsigned char const &, unsigned char *, unsigned char &>, unsigned char *)
 *fill*         0x0806d7b1        0x3 37008
 .gnu.linkonce.t.__as__Q23stdt6vector2ZUcZQ23stdt9allocator1ZUcRCQ23stdt6vector2ZUcZQ23stdt9allocator1ZUc
                0x0806d7b4      0x254 mock_generator.o
                0x0806d7b4                std::vector<unsigned char, std::allocator<unsigned char> >::operator=(std::vector<unsigned char, std::allocator<unsigned char> > const &)
 .gnu.linkonce.t._Uninit_fill_n__H4ZPUxZUiZUxZQ23stdt9allocator1ZUx_3stdX01X11RCX21RX31GQ23std27_Nonscalar_ptr_iterator_tag_v
                0x0806da08       0xc4 mock_generator.o
                0x0806da08                void std::_Uninit_fill_n<unsigned long long *, unsigned int, unsigned long long, std::allocator<unsigned long long> >(unsigned long long *, unsigned int, unsigned long long const &, std::allocator<unsigned long long> &, std::_Nonscalar_ptr_iterator_tag)
 .gnu.linkonce.t._Uninitialized_fill_n__H4ZPUxZUiZUxZQ23stdt9allocator1ZUx_3stdX01X11RCX21RX31_v
                0x0806dacc       0x4f mock_generator.o
                0x0806dacc                void std::_Uninitialized_fill_n<unsigned long long *, unsigned int, unsigned long long, std::allocator<unsigned long long> >(unsigned long long *, unsigned int, unsigned long long const &, std::allocator<unsigned long long> &)
 *fill*         0x0806db1b        0x1 37008
 .gnu.linkonce.t._Ufill__Q23stdt6vector2ZUxZQ23stdt9allocator1ZUxPUxUiRCUx
                0x0806db1c       0x39 mock_generator.o
                0x0806db1c                std::vector<unsigned long long, std::allocator<unsigned long long> >::_Ufill(unsigned long long *, unsigned int, unsigned long long const &)
 *fill*         0x0806db55        0x3 37008
 .gnu.linkonce.t.__mi__CQ23stdt6_Ptrit6ZUxZiZPUxZRUxZPUxZRUxRCQ23stdt6_Ptrit6ZUxZiZPUxZRUxZPUxZRUx
                0x0806db58       0x24 mock_generator.o
                0x0806db58                std::_Ptrit<unsigned long long, int, unsigned long long *, unsigned long long &, unsigned long long *, unsigned long long &>::operator-(std::_Ptrit<unsigned long long, int, unsigned long long *, unsigned long long &, unsigned long long *, unsigned long long &> const &) const
 .gnu.linkonce.t.__mi__CQ23stdt6_Ptrit6ZUxZiZPUxZRUxZPUxZRUxi
                0x0806db7c       0x3b mock_generator.o
                0x0806db7c                std::_Ptrit<unsigned long long, int, unsigned long long *, unsigned long long &, unsigned long long *, unsigned long long &>::operator-(int) const
 *fill*         0x0806dbb7        0x1 37008
 .gnu.linkonce.t.fill__H2ZQ23stdt6_Ptrit6ZUxZiZPUxZRUxZPUxZRUxZUx_3stdX01X01RCX11_v
                0x0806dbb8       0x60 mock_generator.o
                0x0806dbb8                void std::fill<std::_Ptrit<unsigned long long, int, unsigned long long *, unsigned long long &, unsigned long long *, unsigned long long &>, unsigned long long>(std::_Ptrit<unsigned long long, int, unsigned long long *, unsigned long long &, unsigned long long *, unsigned long long &>, std::_Ptrit<unsigned long long, int, unsigned long long *, unsigned long long &, unsigned long long *, unsigned long long &>, unsigned long long const &)
 .gnu.linkonce.t._Ptr_cat__H2ZQ23stdt6_Ptrit6ZUxZiZPUxZRUxZPUxZRUxZQ23stdt6_Ptrit6ZUxZiZPUxZRUxZPUxZRUx_3stdRCX01RX11_Q23std27_Nonscalar_ptr_iterator_tag
                0x0806dc18       0x20 mock_generator.o
                0x0806dc18                std::_Nonscalar_ptr_iterator_tag std::_Ptr_cat<std::_Ptrit<unsigned long long, int, unsigned long long *, unsigned long long &, unsigned long long *, unsigned long long &>, std::_Ptrit<unsigned long long, int, unsigned long long *, unsigned long long &, unsigned long long *, unsigned long long &> >(std::_Ptrit<unsigned long long, int, unsigned long long *, unsigned long long &, unsigned long long *, unsigned long long &> const &, std::_Ptrit<unsigned long long, int, unsigned long long *, unsigned long long &, unsigned long long *, unsigned long long &> &)
 .gnu.linkonce.t.__mm__Q23stdt6_Ptrit6ZUxZiZPUxZRUxZPUxZRUx
                0x0806dc38       0x10 mock_generator.o
                0x0806dc38                std::_Ptrit<unsigned long long, int, unsigned long long *, unsigned long long &, unsigned long long *, unsigned long long &>::operator--(void)
 .gnu.linkonce.t._Copy_backward_opt__H2ZQ23stdt6_Ptrit6ZUxZiZPUxZRUxZPUxZRUxZQ23stdt6_Ptrit6ZUxZiZPUxZRUxZPUxZRUx_3stdX01X01X11GQ23std27_Nonscalar_ptr_iterator_tag_X11
                0x0806dc48       0x9c mock_generator.o
                0x0806dc48                std::_Ptrit<unsigned long long, int, unsigned long long *, unsigned long long &, unsigned long long *, unsigned long long &> std::_Copy_backward_opt<std::_Ptrit<unsigned long long, int, unsigned long long *, unsigned long long &, unsigned long long *, unsigned long long &>, std::_Ptrit<unsigned long long, int, unsigned long long *, unsigned long long &, unsigned long long *, unsigned long long &> >(std::_Ptrit<unsigned long long, int, unsigned long long *, unsigned long long &, unsigned long long *, unsigned long long &>, std::_Ptrit<unsigned long long, int, unsigned long long *, unsigned long long &, unsigned long long *, unsigned long long &>, std::_Ptrit<unsigned long long, int, unsigned long long *, unsigned long long &, unsigned long long *, unsigned long long &>, std::_Nonscalar_ptr_iterator_tag)
 .gnu.linkonce.t.copy_backward__H2ZQ23stdt6_Ptrit6ZUxZiZPUxZRUxZPUxZRUxZQ23stdt6_Ptrit6ZUxZiZPUxZRUxZPUxZRUx_3stdX01X01X11_X11
                0x0806dce4       0x8e mock_generator.o
                0x0806dce4                std::_Ptrit<unsigned long long, int, unsigned long long *, unsigned long long &, unsigned long long *, unsigned long long &> std::copy_backward<std::_Ptrit<unsigned long long, int, unsigned long long *, unsigned long long &, unsigned long long *, unsigned long long &>, std::_Ptrit<unsigned long long, int, unsigned long long *, unsigned long long &, unsigned long long *, unsigned long long &> >(std::_Ptrit<unsigned long long, int, unsigned long long *, unsigned long long &, unsigned long long *, unsigned long long &>, std::_Ptrit<unsigned long long, int, unsigned long long *, unsigned long long &, unsigned long long *, unsigned long long &>, std::_Ptrit<unsigned long long, int, unsigned long long *, unsigned long long &, unsigned long long *, unsigned long long &>)
 *fill*         0x0806dd72        0x2 37008
 .gnu.linkonce.t._Insert_n__Q23stdt6vector2ZUxZQ23stdt9allocator1ZUxGQ23stdt6_Ptrit6ZUxZiZPUxZRUxZPUxZRUxUiRCUx
                0x0806dd74      0x54c mock_generator.o
                0x0806dd74                std::vector<unsigned long long, std::allocator<unsigned long long> >::_Insert_n(std::_Ptrit<unsigned long long, int, unsigned long long *, unsigned long long &, unsigned long long *, unsigned long long &>, unsigned int, unsigned long long const &)
 .gnu.linkonce.t.insert__Q23stdt6vector2ZUxZQ23stdt9allocator1ZUxGQ23stdt6_Ptrit6ZUxZiZPUxZRUxZPUxZRUxRCUx
                0x0806e2c0       0xa4 mock_generator.o
                0x0806e2c0                std::vector<unsigned long long, std::allocator<unsigned long long> >::insert(std::_Ptrit<unsigned long long, int, unsigned long long *, unsigned long long &, unsigned long long *, unsigned long long &>, unsigned long long const &)
 .gnu.linkonce.t.push_back__Q23stdt6vector2ZUxZQ23stdt9allocator1ZUxRCUx
                0x0806e364       0x74 mock_generator.o
                0x0806e364                std::vector<unsigned long long, std::allocator<unsigned long long> >::push_back(unsigned long long const &)
 .gnu.linkonce.t.__Q23stdt16reverse_iterator1ZQ23stdt6_Ptrit6ZUcZiZPUcZRUcZPUcZRUcGQ23stdt6_Ptrit6ZUcZiZPUcZRUcZPUcZRUc
                0x0806e3d8       0x29 mock_generator.o
                0x0806e3d8                std::reverse_iterator<std::_Ptrit<unsigned char, int, unsigned char *, unsigned char &, unsigned char *, unsigned char &> >::reverse_iterator(std::_Ptrit<unsigned char, int, unsigned char *, unsigned char &, unsigned char *, unsigned char &>)
 *fill*         0x0806e401        0x3 37008
 .gnu.linkonce.t.rend__Q23stdt6vector2ZUcZQ23stdt9allocator1ZUc
                0x0806e404       0x3d mock_generator.o
                0x0806e404                std::vector<unsigned char, std::allocator<unsigned char> >::rend(void)
 *fill*         0x0806e441        0x3 37008
 .gnu.linkonce.t.__ami__Q23stdt6_Ptrit6ZUcZiZPUcZRUcZPUcZRUci
                0x0806e444       0x12 mock_generator.o
                0x0806e444                std::_Ptrit<unsigned char, int, unsigned char *, unsigned char &, unsigned char *, unsigned char &>::operator-=(int)
 *fill*         0x0806e456        0x2 37008
 .gnu.linkonce.t.__apl__Q23stdt16reverse_iterator1ZQ23stdt6_Ptrit6ZUcZiZPUcZRUcZPUcZRUci
                0x0806e458       0x26 mock_generator.o
                0x0806e458                std::reverse_iterator<std::_Ptrit<unsigned char, int, unsigned char *, unsigned char &, unsigned char *, unsigned char &> >::operator+=(int)
 *fill*         0x0806e47e        0x2 37008
 .gnu.linkonce.t.__mi__CQ23stdt6_Ptrit6ZUcZiZPUcZRUcZPUcZRUcRCQ23stdt6_Ptrit6ZUcZiZPUcZRUcZPUcZRUc
                0x0806e480       0x17 mock_generator.o
                0x0806e480                std::_Ptrit<unsigned char, int, unsigned char *, unsigned char &, unsigned char *, unsigned char &>::operator-(std::_Ptrit<unsigned char, int, unsigned char *, unsigned char &, unsigned char *, unsigned char &> const &) const
 *fill*         0x0806e497        0x1 37008
 .gnu.linkonce.t._Minus__CQ23stdt16reverse_iterator1ZQ23stdt6_Ptrit6ZUcZiZPUcZRUcZPUcZRUcRCQ23stdt16reverse_iterator1ZQ23stdt6_Ptrit6ZUcZiZPUcZRUcZPUcZRUc
                0x0806e498       0x2b mock_generator.o
                0x0806e498                std::reverse_iterator<std::_Ptrit<unsigned char, int, unsigned char *, unsigned char &, unsigned char *, unsigned char &> >::_Minus(std::reverse_iterator<std::_Ptrit<unsigned char, int, unsigned char *, unsigned char &, unsigned char *, unsigned char &> > const &) const
 *fill*         0x0806e4c3        0x1 37008
 .gnu.linkonce.t.__mi__H1ZQ23stdt6_Ptrit6ZUcZiZPUcZRUcZPUcZRUc_3stdRCQ23stdt16reverse_iterator1ZX01T1_Q33stdt16reverse_iterator1ZX0115difference_type
                0x0806e4c4       0x28 mock_generator.o
                0x0806e4c4                std::reverse_iterator<std::_Ptrit<unsigned char, int, unsigned char *, unsigned char &, unsigned char *, unsigned char &> >::difference_type std::operator-<std::_Ptrit<unsigned char, int, unsigned char *, unsigned char &, unsigned char *, unsigned char &> >(std::reverse_iterator<std::_Ptrit<unsigned char, int, unsigned char *, unsigned char &, unsigned char *, unsigned char &> > const &, std::reverse_iterator<std::_Ptrit<unsigned char, int, unsigned char *, unsigned char &, unsigned char *, unsigned char &> > const &)
 .gnu.linkonce.t._Distance2__H2ZQ23stdt16reverse_iterator1ZQ23stdt6_Ptrit6ZUcZiZPUcZRUcZPUcZRUcZUi_3stdX01X01RX11GQ23std26random_access_iterator_tag_v
                0x0806e4ec       0x2e mock_generator.o
                0x0806e4ec                void std::_Distance2<std::reverse_iterator<std::_Ptrit<unsigned char, int, unsigned char *, unsigned char &, unsigned char *, unsigned char &> >, unsigned int>(std::reverse_iterator<std::_Ptrit<unsigned char, int, unsigned char *, unsigned char &, unsigned char *, unsigned char &> >, std::reverse_iterator<std::_Ptrit<unsigned char, int, unsigned char *, unsigned char &, unsigned char *, unsigned char &> >, unsigned int &, std::random_access_iterator_tag)
 *fill*         0x0806e51a        0x2 37008
 .gnu.linkonce.t._Distance__H2ZQ23stdt16reverse_iterator1ZQ23stdt6_Ptrit6ZUcZiZPUcZRUcZPUcZRUcZUi_3stdX01X01RX11_v
                0x0806e51c       0x67 mock_generator.o
                0x0806e51c                void std::_Distance<std::reverse_iterator<std::_Ptrit<unsigned char, int, unsigned char *, unsigned char &, unsigned char *, unsigned char &> >, unsigned int>(std::reverse_iterator<std::_Ptrit<unsigned char, int, unsigned char *, unsigned char &, unsigned char *, unsigned char &> >, std::reverse_iterator<std::_Ptrit<unsigned char, int, unsigned char *, unsigned char &, unsigned char *, unsigned char &> >, unsigned int &)
 *fill*         0x0806e583        0x1 37008
 .gnu.linkonce.t._Uninit_copy__H3ZQ23stdt6_Ptrit6ZUcZiZPUcZRUcZPUcZRUcZPUcZQ23stdt9allocator1ZUc_3stdX01X01X11RX21GQ23std27_Nonscalar_ptr_iterator_tag_X11
                0x0806e584       0xf4 mock_generator.o
                0x0806e584                unsigned char * std::_Uninit_copy<std::_Ptrit<unsigned char, int, unsigned char *, unsigned char &, unsigned char *, unsigned char &>, unsigned char *, std::allocator<unsigned char> >(std::_Ptrit<unsigned char, int, unsigned char *, unsigned char &, unsigned char *, unsigned char &>, std::_Ptrit<unsigned char, int, unsigned char *, unsigned char &, unsigned char *, unsigned char &>, unsigned char *, std::allocator<unsigned char> &, std::_Nonscalar_ptr_iterator_tag)
 .gnu.linkonce.t._Uninitialized_copy__H3ZQ23stdt6_Ptrit6ZUcZiZPUcZRUcZPUcZRUcZPUcZQ23stdt9allocator1ZUc_3stdX01X01X11RX21_X11
                0x0806e678       0x7c mock_generator.o
                0x0806e678                unsigned char * std::_Uninitialized_copy<std::_Ptrit<unsigned char, int, unsigned char *, unsigned char &, unsigned char *, unsigned char &>, unsigned char *, std::allocator<unsigned char> >(std::_Ptrit<unsigned char, int, unsigned char *, unsigned char &, unsigned char *, unsigned char &>, std::_Ptrit<unsigned char, int, unsigned char *, unsigned char &, unsigned char *, unsigned char &>, unsigned char *, std::allocator<unsigned char> &)
 .gnu.linkonce.t._Ucopy__H1ZQ23stdt6_Ptrit6ZUcZiZPUcZRUcZPUcZRUc_Q23stdt6vector2ZUcZQ23stdt9allocator1ZUcX00X00PUc_PUc
                0x0806e6f4       0x59 mock_generator.o
                0x0806e6f4                unsigned char * std::vector<unsigned char, std::allocator<unsigned char> >::_Ucopy<std::_Ptrit<unsigned char, int, unsigned char *, unsigned char &, unsigned char *, unsigned char &> >(std::_Ptrit<unsigned char, int, unsigned char *, unsigned char &, unsigned char *, unsigned char &>, std::_Ptrit<unsigned char, int, unsigned char *, unsigned char &, unsigned char *, unsigned char &>, unsigned char *)
 *fill*         0x0806e74d        0x3 37008
 .gnu.linkonce.t._Ptr_cat__H2ZQ23stdt16reverse_iterator1ZQ23stdt6_Ptrit6ZUcZiZPUcZRUcZPUcZRUcZPUc_3stdRCX01RX11_Q23std27_Nonscalar_ptr_iterator_tag
                0x0806e750       0x20 mock_generator.o
                0x0806e750                std::_Nonscalar_ptr_iterator_tag std::_Ptr_cat<std::reverse_iterator<std::_Ptrit<unsigned char, int, unsigned char *, unsigned char &, unsigned char *, unsigned char &> >, unsigned char *>(std::reverse_iterator<std::_Ptrit<unsigned char, int, unsigned char *, unsigned char &, unsigned char *, unsigned char &> > const &, unsigned char * &)
 .gnu.linkonce.t._Equal__CQ23stdt16reverse_iterator1ZQ23stdt6_Ptrit6ZUcZiZPUcZRUcZPUcZRUcRCQ23stdt16reverse_iterator1ZQ23stdt6_Ptrit6ZUcZiZPUcZRUcZPUcZRUc
                0x0806e770       0x2b mock_generator.o
                0x0806e770                std::reverse_iterator<std::_Ptrit<unsigned char, int, unsigned char *, unsigned char &, unsigned char *, unsigned char &> >::_Equal(std::reverse_iterator<std::_Ptrit<unsigned char, int, unsigned char *, unsigned char &, unsigned char *, unsigned char &> > const &) const
 *fill*         0x0806e79b        0x1 37008
 .gnu.linkonce.t.__eq__H1ZQ23stdt6_Ptrit6ZUcZiZPUcZRUcZPUcZRUc_3stdRCQ23stdt16reverse_iterator1ZX01T1_b
                0x0806e79c       0x28 mock_generator.o
                0x0806e79c                bool std::operator==<std::_Ptrit<unsigned char, int, unsigned char *, unsigned char &, unsigned char *, unsigned char &> >(std::reverse_iterator<std::_Ptrit<unsigned char, int, unsigned char *, unsigned char &, unsigned char *, unsigned char &> > const &, std::reverse_iterator<std::_Ptrit<unsigned char, int, unsigned char *, unsigned char &, unsigned char *, unsigned char &> > const &)
 .gnu.linkonce.t.__ne__H1ZQ23stdt6_Ptrit6ZUcZiZPUcZRUcZPUcZRUc_3stdRCQ23stdt16reverse_iterator1ZX01T1_b
                0x0806e7c4       0x2b mock_generator.o
                0x0806e7c4                bool std::operator!=<std::_Ptrit<unsigned char, int, unsigned char *, unsigned char &, unsigned char *, unsigned char &> >(std::reverse_iterator<std::_Ptrit<unsigned char, int, unsigned char *, unsigned char &, unsigned char *, unsigned char &> > const &, std::reverse_iterator<std::_Ptrit<unsigned char, int, unsigned char *, unsigned char &, unsigned char *, unsigned char &> > const &)
 *fill*         0x0806e7ef        0x1 37008
 .gnu.linkonce.t.__mm__Q23stdt6_Ptrit6ZUcZiZPUcZRUcZPUcZRUc
                0x0806e7f0        0xf mock_generator.o
                0x0806e7f0                std::_Ptrit<unsigned char, int, unsigned char *, unsigned char &, unsigned char *, unsigned char &>::operator--(void)
 *fill*         0x0806e7ff        0x1 37008
 .gnu.linkonce.t.__pp__Q23stdt16reverse_iterator1ZQ23stdt6_Ptrit6ZUcZiZPUcZRUcZPUcZRUc
                0x0806e800       0x22 mock_generator.o
                0x0806e800                std::reverse_iterator<std::_Ptrit<unsigned char, int, unsigned char *, unsigned char &, unsigned char *, unsigned char &> >::operator++(void)
 *fill*         0x0806e822        0x2 37008
 .gnu.linkonce.t.__ml__CQ23stdt16reverse_iterator1ZQ23stdt6_Ptrit6ZUcZiZPUcZRUcZPUcZRUc
                0x0806e824       0x47 mock_generator.o
                0x0806e824                std::reverse_iterator<std::_Ptrit<unsigned char, int, unsigned char *, unsigned char &, unsigned char *, unsigned char &> >::operator*(void) const
 *fill*         0x0806e86b        0x1 37008
 .gnu.linkonce.t._Uninit_copy__H3ZQ23stdt16reverse_iterator1ZQ23stdt6_Ptrit6ZUcZiZPUcZRUcZPUcZRUcZPUcZQ23stdt9allocator1ZUc_3stdX01X01X11RX21GQ23std27_Nonscalar_ptr_iterator_tag_X11
                0x0806e86c       0xf4 mock_generator.o
                0x0806e86c                unsigned char * std::_Uninit_copy<std::reverse_iterator<std::_Ptrit<unsigned char, int, unsigned char *, unsigned char &, unsigned char *, unsigned char &> >, unsigned char *, std::allocator<unsigned char> >(std::reverse_iterator<std::_Ptrit<unsigned char, int, unsigned char *, unsigned char &, unsigned char *, unsigned char &> >, std::reverse_iterator<std::_Ptrit<unsigned char, int, unsigned char *, unsigned char &, unsigned char *, unsigned char &> >, unsigned char *, std::allocator<unsigned char> &, std::_Nonscalar_ptr_iterator_tag)
 .gnu.linkonce.t._Uninitialized_copy__H3ZQ23stdt16reverse_iterator1ZQ23stdt6_Ptrit6ZUcZiZPUcZRUcZPUcZRUcZPUcZQ23stdt9allocator1ZUc_3stdX01X01X11RX21_X11
                0x0806e960       0x7c mock_generator.o
                0x0806e960                unsigned char * std::_Uninitialized_copy<std::reverse_iterator<std::_Ptrit<unsigned char, int, unsigned char *, unsigned char &, unsigned char *, unsigned char &> >, unsigned char *, std::allocator<unsigned char> >(std::reverse_iterator<std::_Ptrit<unsigned char, int, unsigned char *, unsigned char &, unsigned char *, unsigned char &> >, std::reverse_iterator<std::_Ptrit<unsigned char, int, unsigned char *, unsigned char &, unsigned char *, unsigned char &> >, unsigned char *, std::allocator<unsigned char> &)
 .gnu.linkonce.t._Ucopy__H1ZQ23stdt16reverse_iterator1ZQ23stdt6_Ptrit6ZUcZiZPUcZRUcZPUcZRUc_Q23stdt6vector2ZUcZQ23stdt9allocator1ZUcX00X00PUc_PUc
                0x0806e9dc       0x59 mock_generator.o
                0x0806e9dc                unsigned char * std::vector<unsigned char, std::allocator<unsigned char> >::_Ucopy<std::reverse_iterator<std::_Ptrit<unsigned char, int, unsigned char *, unsigned char &, unsigned char *, unsigned char &> > >(std::reverse_iterator<std::_Ptrit<unsigned char, int, unsigned char *, unsigned char &, unsigned char *, unsigned char &> >, std::reverse_iterator<std::_Ptrit<unsigned char, int, unsigned char *, unsigned char &, unsigned char *, unsigned char &> >, unsigned char *)
 *fill*         0x0806ea35        0x3 37008
 .gnu.linkonce.t._Ptr_cat__H2ZQ23stdt16reverse_iterator1ZQ23stdt6_Ptrit6ZUcZiZPUcZRUcZPUcZRUcZQ23stdt6_Ptrit6ZUcZiZPUcZRUcZPUcZRUc_3stdRCX01RX11_Q23std27_Nonscalar_ptr_iterator_tag
                0x0806ea38       0x20 mock_generator.o
                0x0806ea38                std::_Nonscalar_ptr_iterator_tag std::_Ptr_cat<std::reverse_iterator<std::_Ptrit<unsigned char, int, unsigned char *, unsigned char &, unsigned char *, unsigned char &> >, std::_Ptrit<unsigned char, int, unsigned char *, unsigned char &, unsigned char *, unsigned char &> >(std::reverse_iterator<std::_Ptrit<unsigned char, int, unsigned char *, unsigned char &, unsigned char *, unsigned char &> > const &, std::_Ptrit<unsigned char, int, unsigned char *, unsigned char &, unsigned char *, unsigned char &> &)
 .gnu.linkonce.t._Copy_opt__H2ZQ23stdt16reverse_iterator1ZQ23stdt6_Ptrit6ZUcZiZPUcZRUcZPUcZRUcZQ23stdt6_Ptrit6ZUcZiZPUcZRUcZPUcZRUc_3stdX01X01X11GQ23std27_Nonscalar_ptr_iterator_tag_X11
                0x0806ea58       0x9c mock_generator.o
                0x0806ea58                std::_Ptrit<unsigned char, int, unsigned char *, unsigned char &, unsigned char *, unsigned char &> std::_Copy_opt<std::reverse_iterator<std::_Ptrit<unsigned char, int, unsigned char *, unsigned char &, unsigned char *, unsigned char &> >, std::_Ptrit<unsigned char, int, unsigned char *, unsigned char &, unsigned char *, unsigned char &> >(std::reverse_iterator<std::_Ptrit<unsigned char, int, unsigned char *, unsigned char &, unsigned char *, unsigned char &> >, std::reverse_iterator<std::_Ptrit<unsigned char, int, unsigned char *, unsigned char &, unsigned char *, unsigned char &> >, std::_Ptrit<unsigned char, int, unsigned char *, unsigned char &, unsigned char *, unsigned char &>, std::_Nonscalar_ptr_iterator_tag)
 .gnu.linkonce.t.copy__H2ZQ23stdt16reverse_iterator1ZQ23stdt6_Ptrit6ZUcZiZPUcZRUcZPUcZRUcZQ23stdt6_Ptrit6ZUcZiZPUcZRUcZPUcZRUc_3stdX01X01X11_X11
                0x0806eaf4       0x8e mock_generator.o
                0x0806eaf4                std::_Ptrit<unsigned char, int, unsigned char *, unsigned char &, unsigned char *, unsigned char &> std::copy<std::reverse_iterator<std::_Ptrit<unsigned char, int, unsigned char *, unsigned char &, unsigned char *, unsigned char &> >, std::_Ptrit<unsigned char, int, unsigned char *, unsigned char &, unsigned char *, unsigned char &> >(std::reverse_iterator<std::_Ptrit<unsigned char, int, unsigned char *, unsigned char &, unsigned char *, unsigned char &> >, std::reverse_iterator<std::_Ptrit<unsigned char, int, unsigned char *, unsigned char &, unsigned char *, unsigned char &> >, std::_Ptrit<unsigned char, int, unsigned char *, unsigned char &, unsigned char *, unsigned char &>)
 *fill*         0x0806eb82        0x2 37008
 .gnu.linkonce.t.__mi__CQ23stdt6_Ptrit6ZUcZiZPUcZRUcZPUcZRUci
                0x0806eb84       0x32 mock_generator.o
                0x0806eb84                std::_Ptrit<unsigned char, int, unsigned char *, unsigned char &, unsigned char *, unsigned char &>::operator-(int) const
 *fill*         0x0806ebb6        0x2 37008
 .gnu.linkonce.t._Ptr_cat__H2ZQ23stdt6_Ptrit6ZUcZiZPUcZRUcZPUcZRUcZQ23stdt6_Ptrit6ZUcZiZPUcZRUcZPUcZRUc_3stdRCX01RX11_Q23std27_Nonscalar_ptr_iterator_tag
                0x0806ebb8       0x20 mock_generator.o
                0x0806ebb8                std::_Nonscalar_ptr_iterator_tag std::_Ptr_cat<std::_Ptrit<unsigned char, int, unsigned char *, unsigned char &, unsigned char *, unsigned char &>, std::_Ptrit<unsigned char, int, unsigned char *, unsigned char &, unsigned char *, unsigned char &> >(std::_Ptrit<unsigned char, int, unsigned char *, unsigned char &, unsigned char *, unsigned char &> const &, std::_Ptrit<unsigned char, int, unsigned char *, unsigned char &, unsigned char *, unsigned char &> &)
 .gnu.linkonce.t._Copy_backward_opt__H2ZQ23stdt6_Ptrit6ZUcZiZPUcZRUcZPUcZRUcZQ23stdt6_Ptrit6ZUcZiZPUcZRUcZPUcZRUc_3stdX01X01X11GQ23std27_Nonscalar_ptr_iterator_tag_X11
                0x0806ebd8       0x98 mock_generator.o
                0x0806ebd8                std::_Ptrit<unsigned char, int, unsigned char *, unsigned char &, unsigned char *, unsigned char &> std::_Copy_backward_opt<std::_Ptrit<unsigned char, int, unsigned char *, unsigned char &, unsigned char *, unsigned char &>, std::_Ptrit<unsigned char, int, unsigned char *, unsigned char &, unsigned char *, unsigned char &> >(std::_Ptrit<unsigned char, int, unsigned char *, unsigned char &, unsigned char *, unsigned char &>, std::_Ptrit<unsigned char, int, unsigned char *, unsigned char &, unsigned char *, unsigned char &>, std::_Ptrit<unsigned char, int, unsigned char *, unsigned char &, unsigned char *, unsigned char &>, std::_Nonscalar_ptr_iterator_tag)
 .gnu.linkonce.t.copy_backward__H2ZQ23stdt6_Ptrit6ZUcZiZPUcZRUcZPUcZRUcZQ23stdt6_Ptrit6ZUcZiZPUcZRUcZPUcZRUc_3stdX01X01X11_X11
                0x0806ec70       0x8e mock_generator.o
                0x0806ec70                std::_Ptrit<unsigned char, int, unsigned char *, unsigned char &, unsigned char *, unsigned char &> std::copy_backward<std::_Ptrit<unsigned char, int, unsigned char *, unsigned char &, unsigned char *, unsigned char &>, std::_Ptrit<unsigned char, int, unsigned char *, unsigned char &, unsigned char *, unsigned char &> >(std::_Ptrit<unsigned char, int, unsigned char *, unsigned char &, unsigned char *, unsigned char &>, std::_Ptrit<unsigned char, int, unsigned char *, unsigned char &, unsigned char *, unsigned char &>, std::_Ptrit<unsigned char, int, unsigned char *, unsigned char &, unsigned char *, unsigned char &>)
 *fill*         0x0806ecfe        0x2 37008
 .gnu.linkonce.t._Insert__H1ZQ23stdt16reverse_iterator1ZQ23stdt6_Ptrit6ZUcZiZPUcZRUcZPUcZRUc_Q23stdt6vector2ZUcZQ23stdt9allocator1ZUcGQ23stdt6_Ptrit6ZUcZiZPUcZRUcZPUcZRUcX00X00GQ23std20forward_iterator_tag_v
                0x0806ed00      0x667 mock_generator.o
                0x0806ed00                void std::vector<unsigned char, std::allocator<unsigned char> >::_Insert<std::reverse_iterator<std::_Ptrit<unsigned char, int, unsigned char *, unsigned char &, unsigned char *, unsigned char &> > >(std::_Ptrit<unsigned char, int, unsigned char *, unsigned char &, unsigned char *, unsigned char &>, std::reverse_iterator<std::_Ptrit<unsigned char, int, unsigned char *, unsigned char &, unsigned char *, unsigned char &> >, std::reverse_iterator<std::_Ptrit<unsigned char, int, unsigned char *, unsigned char &, unsigned char *, unsigned char &> >, std::forward_iterator_tag)
 *fill*         0x0806f367        0x1 37008
 .gnu.linkonce.t.insert__H1ZQ23stdt16reverse_iterator1ZQ23stdt6_Ptrit6ZUcZiZPUcZRUcZPUcZRUc_Q23stdt6vector2ZUcZQ23stdt9allocator1ZUcGQ23stdt6_Ptrit6ZUcZiZPUcZRUcZPUcZRUcX00X00_v
                0x0806f368       0x86 mock_generator.o
                0x0806f368                void std::vector<unsigned char, std::allocator<unsigned char> >::insert<std::reverse_iterator<std::_Ptrit<unsigned char, int, unsigned char *, unsigned char &, unsigned char *, unsigned char &> > >(std::_Ptrit<unsigned char, int, unsigned char *, unsigned char &, unsigned char *, unsigned char &>, std::reverse_iterator<std::_Ptrit<unsigned char, int, unsigned char *, unsigned char &, unsigned char *, unsigned char &> >, std::reverse_iterator<std::_Ptrit<unsigned char, int, unsigned char *, unsigned char &, unsigned char *, unsigned char &> >)
 *fill*         0x0806f3ee        0x2 37008
 .gnu.linkonce.t._Construct__H1ZQ23stdt16reverse_iterator1ZQ23stdt6_Ptrit6ZUcZiZPUcZRUcZPUcZRUc_Q23stdt6vector2ZUcZQ23stdt9allocator1ZUcX00X00GQ23std18input_iterator_tag_v
                0x0806f3f0       0x71 mock_generator.o
                0x0806f3f0                void std::vector<unsigned char, std::allocator<unsigned char> >::_Construct<std::reverse_iterator<std::_Ptrit<unsigned char, int, unsigned char *, unsigned char &, unsigned char *, unsigned char &> > >(std::reverse_iterator<std::_Ptrit<unsigned char, int, unsigned char *, unsigned char &, unsigned char *, unsigned char &> >, std::reverse_iterator<std::_Ptrit<unsigned char, int, unsigned char *, unsigned char &, unsigned char *, unsigned char &> >, std::input_iterator_tag)
 *fill*         0x0806f461        0x3 37008
 .gnu.linkonce.t.__H1ZQ23stdt16reverse_iterator1ZQ23stdt6_Ptrit6ZUcZiZPUcZRUcZPUcZRUc_Q23stdt6vector2ZUcZQ23stdt9allocator1ZUcX00X00
                0x0806f464       0x8d mock_generator.o
                0x0806f464                std::vector<unsigned char, std::allocator<unsigned char> >::vector::<std::reverse_iterator<std::_Ptrit<unsigned char, int, unsigned char *, unsigned char &, unsigned char *, unsigned char &> > >(std::reverse_iterator<std::_Ptrit<unsigned char, int, unsigned char *, unsigned char &, unsigned char *, unsigned char &> >, std::reverse_iterator<std::_Ptrit<unsigned char, int, unsigned char *, unsigned char &, unsigned char *, unsigned char &> >)
 *fill*         0x0806f4f1        0x3 37008
 .gnu.linkonce.t.type_from_bytes__H1Zi_14mock_generatorGQ23stdt6vector2ZUcZQ23stdt9allocator1ZUc_X01
                0x0806f4f4       0xc1 mock_generator.o
                0x0806f4f4                int mock_generator::type_from_bytes<int>(std::vector<unsigned char, std::allocator<unsigned char> >)
 *fill*         0x0806f5b5        0x3 37008
 .gnu.linkonce.t.type_from_bytes__H1ZUs_14mock_generatorGQ23stdt6vector2ZUcZQ23stdt9allocator1ZUc_X01
                0x0806f5b8       0xbd mock_generator.o
                0x0806f5b8                unsigned short mock_generator::type_from_bytes<unsigned short>(std::vector<unsigned char, std::allocator<unsigned char> >)
 *fill*         0x0806f675        0x3 37008
 .gnu.linkonce.t.__Q23stdt4pair2ZCiZQ214mock_generator15call_parametersRCiRCQ214mock_generator15call_parameters
                0x0806f678       0x27 mock_generator.o
                0x0806f678                std::pair<int const, mock_generator::call_parameters>::pair(int const &, mock_generator::call_parameters const &)
 *fill*         0x0806f69f        0x1 37008
 .gnu.linkonce.t.size__CQ23stdt4list2ZQ23stdt4pair2ZCiZQ214mock_generator15call_parametersZQ23stdt9allocator1ZQ23stdt4pair2ZCiZQ214mock_generator15call_parameters
                0x0806f6a0        0xf mock_generator.o
                0x0806f6a0                std::list<std::pair<int const, mock_generator::call_parameters>, std::allocator<std::pair<int const, mock_generator::call_parameters> > >::size(void) const
 *fill*         0x0806f6af        0x1 37008
 .gnu.linkonce.t.size__CQ23stdt5_Hash1ZQ23stdt12_Hmap_traits5ZiZQ214mock_generator15call_parametersZQ23stdt12hash_compare2ZiZQ23stdt4less1ZiZQ23stdt9allocator1ZQ23stdt4pair2ZCiZQ214mock_generator15call_parametersb0
                0x0806f6b0       0x24 mock_generator.o
                0x0806f6b0                std::_Hash<std::_Hmap_traits<int, mock_generator::call_parameters, std::hash_compare<int, std::less<int> >, std::allocator<std::pair<int const, mock_generator::call_parameters> >, false> >::size(void) const
 .gnu.linkonce.t.end__Q23stdt6vector2ZQ33stdt4list2ZQ23stdt4pair2ZCiZQ214mock_generator15call_parametersZQ23stdt9allocator1ZQ23stdt4pair2ZCiZQ214mock_generator15call_parameters8iteratorZQ23stdt9allocator1ZQ33stdt4list2ZQ23stdt4pair2ZCiZQ214mock_generator15call_parametersZQ23stdt9allocator1ZQ23stdt4pair2ZCiZQ214mock_generator15call_parameters8iterator
                0x0806f6d4       0x2d mock_generator.o
                0x0806f6d4                std::vector<std::list<std::pair<int const, mock_generator::call_parameters>, std::allocator<std::pair<int const, mock_generator::call_parameters> > >::iterator, std::allocator<std::list<std::pair<int const, mock_generator::call_parameters>, std::allocator<std::pair<int const, mock_generator::call_parameters> > >::iterator> >::end(void)
 *fill*         0x0806f701        0x3 37008
 .gnu.linkonce.t.capacity__CQ23stdt6vector2ZQ33stdt4list2ZQ23stdt4pair2ZCiZQ214mock_generator15call_parametersZQ23stdt9allocator1ZQ23stdt4pair2ZCiZQ214mock_generator15call_parameters8iteratorZQ23stdt9allocator1ZQ33stdt4list2ZQ23stdt4pair2ZCiZQ214mock_generator15call_parametersZQ23stdt9allocator1ZQ23stdt4pair2ZCiZQ214mock_generator15call_parameters8iterator
                0x0806f704       0x2b mock_generator.o
                0x0806f704                std::vector<std::list<std::pair<int const, mock_generator::call_parameters>, std::allocator<std::pair<int const, mock_generator::call_parameters> > >::iterator, std::allocator<std::list<std::pair<int const, mock_generator::call_parameters>, std::allocator<std::pair<int const, mock_generator::call_parameters> > >::iterator> >::capacity(void) const
 *fill*         0x0806f72f        0x1 37008
 .gnu.linkonce.t._Ptr_cat__H2ZQ23stdt6_Ptrit6ZQ33stdt4list2ZQ23stdt4pair2ZCiZQ214mock_generator15call_parametersZQ23stdt9allocator1ZQ23stdt4pair2ZCiZQ214mock_generator15call_parameters8iteratorZiZPQ33stdt4list2ZQ23stdt4pair2ZCiZQ214mock_generator15call_parametersZQ23stdt9allocator1ZQ23stdt4pair2ZCiZQ214mock_generator15call_parameters8iteratorZRQ33stdt4list2ZQ23stdt4pair2ZCiZQ214mock_generator15call_parametersZQ23stdt9allocator1ZQ23stdt4pair2ZCiZQ214mock_generator15call_parameters8iteratorZPQ33stdt4list2ZQ23stdt4pair2ZCiZQ214mock_generator15call_parametersZQ23stdt9allocator1ZQ23stdt4pair2ZCiZQ214mock_generator15call_parameters8iteratorZRQ33stdt4list2ZQ23stdt4pair2ZCiZQ214mock_generator15call_parametersZQ23stdt9allocator1ZQ23stdt4pair2ZCiZQ214mock_generator15call_parameters8iteratorZPQ33stdt4list2ZQ23stdt4pair2ZCiZQ214mock_generator15call_parametersZQ23stdt9allocator1ZQ23stdt4pair2ZCiZQ214mock_generator15call_parameters8iterator_3stdRCX01RX11_Q23std27_Nonscalar_ptr_iterator_tag
                0x0806f730       0x20 mock_generator.o
                0x0806f730                std::_Nonscalar_ptr_iterator_tag std::_Ptr_cat<std::_Ptrit<std::list<std::pair<int const, mock_generator::call_parameters>, std::allocator<std::pair<int const, mock_generator::call_parameters> > >::iterator, int, std::list<std::pair<int const, mock_generator::call_parameters>, std::allocator<std::pair<int const, mock_generator::call_parameters> > >::iterator *, std::list<std::pair<int const, mock_generator::call_parameters>, std::allocator<std::pair<int const, mock_generator::call_parameters> > >::iterator &, std::list<std::pair<int const, mock_generator::call_parameters>, std::allocator<std::pair<int const, mock_generator::call_parameters> > >::iterator *, std::list<std::pair<int const, mock_generator::call_parameters>, std::allocator<std::pair<int const, mock_generator::call_parameters> > >::iterator &>, std::list<std::pair<int const, mock_generator::call_parameters>, std::allocator<std::pair<int const, mock_generator::call_parameters> > >::iterator *>(std::_Ptrit<std::list<std::pair<int const, mock_generator::call_parameters>, std::allocator<std::pair<int const, mock_generator::call_parameters> > >::iterator, int, std::list<std::pair<int const, mock_generator::call_parameters>, std::allocator<std::pair<int const, mock_generator::call_parameters> > >::iterator *, std::list<std::pair<int const, mock_generator::call_parameters>, std::allocator<std::pair<int const, mock_generator::call_parameters> > >::iterator &, std::list<std::pair<int const, mock_generator::call_parameters>, std::allocator<std::pair<int const, mock_generator::call_parameters> > >::iterator *, std::list<std::pair<int const, mock_generator::call_parameters>, std::allocator<std::pair<int const, mock_generator::call_parameters> > >::iterator &> const &, std::list<std::pair<int const, mock_generator::call_parameters>, std::allocator<std::pair<int const, mock_generator::call_parameters> > >::iterator * &)
 .gnu.linkonce.t.__eq__CQ23stdt6_Ptrit6ZQ33stdt4list2ZQ23stdt4pair2ZCiZQ214mock_generator15call_parametersZQ23stdt9allocator1ZQ23stdt4pair2ZCiZQ214mock_generator15call_parameters8iteratorZiZPQ33stdt4list2ZQ23stdt4pair2ZCiZQ214mock_generator15call_parametersZQ23stdt9allocator1ZQ23stdt4pair2ZCiZQ214mock_generator15call_parameters8iteratorZRQ33stdt4list2ZQ23stdt4pair2ZCiZQ214mock_generator15call_parametersZQ23stdt9allocator1ZQ23stdt4pair2ZCiZQ214mock_generator15call_parameters8iteratorZPQ33stdt4list2ZQ23stdt4pair2ZCiZQ214mock_generator15call_parametersZQ23stdt9allocator1ZQ23stdt4pair2ZCiZQ214mock_generator15call_parameters8iteratorZRQ33stdt4list2ZQ23stdt4pair2ZCiZQ214mock_generator15call_parametersZQ23stdt9allocator1ZQ23stdt4pair2ZCiZQ214mock_generator15call_parameters8iteratorRCQ23stdt6_Ptrit6ZQ33stdt4list2ZQ23stdt4pair2ZCiZQ214mock_generator15call_parametersZQ23stdt9allocator1ZQ23stdt4pair2ZCiZQ214mock_generator15call_parameters8iteratorZiZPQ33stdt4list2ZQ23stdt4pair2ZCiZQ214mock_generator15call_parametersZQ23stdt9allocator1ZQ23stdt4pair2ZCiZQ214mock_generator15call_parameters8iteratorZRQ33stdt4list2ZQ23stdt4pair2ZCiZQ214mock_generator15call_parametersZQ23stdt9allocator1ZQ23stdt4pair2ZCiZQ214mock_generator15call_parameters8iteratorZPQ33stdt4list2ZQ23stdt4pair2ZCiZQ214mock_generator15call_parametersZQ23stdt9allocator1ZQ23stdt4pair2ZCiZQ214mock_generator15call_parameters8iteratorZRQ33stdt4list2ZQ23stdt4pair2ZCiZQ214mock_generator15call_parametersZQ23stdt9allocator1ZQ23stdt4pair2ZCiZQ214mock_generator15call_parameters8iterator
                0x0806f750       0x1b mock_generator.o
                0x0806f750                std::_Ptrit<std::list<std::pair<int const, mock_generator::call_parameters>, std::allocator<std::pair<int const, mock_generator::call_parameters> > >::iterator, int, std::list<std::pair<int const, mock_generator::call_parameters>, std::allocator<std::pair<int const, mock_generator::call_parameters> > >::iterator *, std::list<std::pair<int const, mock_generator::call_parameters>, std::allocator<std::pair<int const, mock_generator::call_parameters> > >::iterator &, std::list<std::pair<int const, mock_generator::call_parameters>, std::allocator<std::pair<int const, mock_generator::call_parameters> > >::iterator *, std::list<std::pair<int const, mock_generator::call_parameters>, std::allocator<std::pair<int const, mock_generator::call_parameters> > >::iterator &>::operator==(std::_Ptrit<std::list<std::pair<int const, mock_generator::call_parameters>, std::allocator<std::pair<int const, mock_generator::call_parameters> > >::iterator, int, std::list<std::pair<int const, mock_generator::call_parameters>, std::allocator<std::pair<int const, mock_generator::call_parameters> > >::iterator *, std::list<std::pair<int const, mock_generator::call_parameters>, std::allocator<std::pair<int const, mock_generator::call_parameters> > >::iterator &, std::list<std::pair<int const, mock_generator::call_parameters>, std::allocator<std::pair<int const, mock_generator::call_parameters> > >::iterator *, std::list<std::pair<int const, mock_generator::call_parameters>, std::allocator<std::pair<int const, mock_generator::call_parameters> > >::iterator &> const &) const
 *fill*         0x0806f76b        0x1 37008
 .gnu.linkonce.t.__ne__CQ23stdt6_Ptrit6ZQ33stdt4list2ZQ23stdt4pair2ZCiZQ214mock_generator15call_parametersZQ23stdt9allocator1ZQ23stdt4pair2ZCiZQ214mock_generator15call_parameters8iteratorZiZPQ33stdt4list2ZQ23stdt4pair2ZCiZQ214mock_generator15call_parametersZQ23stdt9allocator1ZQ23stdt4pair2ZCiZQ214mock_generator15call_parameters8iteratorZRQ33stdt4list2ZQ23stdt4pair2ZCiZQ214mock_generator15call_parametersZQ23stdt9allocator1ZQ23stdt4pair2ZCiZQ214mock_generator15call_parameters8iteratorZPQ33stdt4list2ZQ23stdt4pair2ZCiZQ214mock_generator15call_parametersZQ23stdt9allocator1ZQ23stdt4pair2ZCiZQ214mock_generator15call_parameters8iteratorZRQ33stdt4list2ZQ23stdt4pair2ZCiZQ214mock_generator15call_parametersZQ23stdt9allocator1ZQ23stdt4pair2ZCiZQ214mock_generator15call_parameters8iteratorRCQ23stdt6_Ptrit6ZQ33stdt4list2ZQ23stdt4pair2ZCiZQ214mock_generator15call_parametersZQ23stdt9allocator1ZQ23stdt4pair2ZCiZQ214mock_generator15call_parameters8iteratorZiZPQ33stdt4list2ZQ23stdt4pair2ZCiZQ214mock_generator15call_parametersZQ23stdt9allocator1ZQ23stdt4pair2ZCiZQ214mock_generator15call_parameters8iteratorZRQ33stdt4list2ZQ23stdt4pair2ZCiZQ214mock_generator15call_parametersZQ23stdt9allocator1ZQ23stdt4pair2ZCiZQ214mock_generator15call_parameters8iteratorZPQ33stdt4list2ZQ23stdt4pair2ZCiZQ214mock_generator15call_parametersZQ23stdt9allocator1ZQ23stdt4pair2ZCiZQ214mock_generator15call_parameters8iteratorZRQ33stdt4list2ZQ23stdt4pair2ZCiZQ214mock_generator15call_parametersZQ23stdt9allocator1ZQ23stdt4pair2ZCiZQ214mock_generator15call_parameters8iterator
                0x0806f76c       0x28 mock_generator.o
                0x0806f76c                std::_Ptrit<std::list<std::pair<int const, mock_generator::call_parameters>, std::allocator<std::pair<int const, mock_generator::call_parameters> > >::iterator, int, std::list<std::pair<int const, mock_generator::call_parameters>, std::allocator<std::pair<int const, mock_generator::call_parameters> > >::iterator *, std::list<std::pair<int const, mock_generator::call_parameters>, std::allocator<std::pair<int const, mock_generator::call_parameters> > >::iterator &, std::list<std::pair<int const, mock_generator::call_parameters>, std::allocator<std::pair<int const, mock_generator::call_parameters> > >::iterator *, std::list<std::pair<int const, mock_generator::call_parameters>, std::allocator<std::pair<int const, mock_generator::call_parameters> > >::iterator &>::operator!=(std::_Ptrit<std::list<std::pair<int const, mock_generator::call_parameters>, std::allocator<std::pair<int const, mock_generator::call_parameters> > >::iterator, int, std::list<std::pair<int const, mock_generator::call_parameters>, std::allocator<std::pair<int const, mock_generator::call_parameters> > >::iterator *, std::list<std::pair<int const, mock_generator::call_parameters>, std::allocator<std::pair<int const, mock_generator::call_parameters> > >::iterator &, std::list<std::pair<int const, mock_generator::call_parameters>, std::allocator<std::pair<int const, mock_generator::call_parameters> > >::iterator *, std::list<std::pair<int const, mock_generator::call_parameters>, std::allocator<std::pair<int const, mock_generator::call_parameters> > >::iterator &> const &) const
 .gnu.linkonce.t.__pp__Q23stdt6_Ptrit6ZQ33stdt4list2ZQ23stdt4pair2ZCiZQ214mock_generator15call_parametersZQ23stdt9allocator1ZQ23stdt4pair2ZCiZQ214mock_generator15call_parameters8iteratorZiZPQ33stdt4list2ZQ23stdt4pair2ZCiZQ214mock_generator15call_parametersZQ23stdt9allocator1ZQ23stdt4pair2ZCiZQ214mock_generator15call_parameters8iteratorZRQ33stdt4list2ZQ23stdt4pair2ZCiZQ214mock_generator15call_parametersZQ23stdt9allocator1ZQ23stdt4pair2ZCiZQ214mock_generator15call_parameters8iteratorZPQ33stdt4list2ZQ23stdt4pair2ZCiZQ214mock_generator15call_parametersZQ23stdt9allocator1ZQ23stdt4pair2ZCiZQ214mock_generator15call_parameters8iteratorZRQ33stdt4list2ZQ23stdt4pair2ZCiZQ214mock_generator15call_parametersZQ23stdt9allocator1ZQ23stdt4pair2ZCiZQ214mock_generator15call_parameters8iterator
                0x0806f794       0x10 mock_generator.o
                0x0806f794                std::_Ptrit<std::list<std::pair<int const, mock_generator::call_parameters>, std::allocator<std::pair<int const, mock_generator::call_parameters> > >::iterator, int, std::list<std::pair<int const, mock_generator::call_parameters>, std::allocator<std::pair<int const, mock_generator::call_parameters> > >::iterator *, std::list<std::pair<int const, mock_generator::call_parameters>, std::allocator<std::pair<int const, mock_generator::call_parameters> > >::iterator &, std::list<std::pair<int const, mock_generator::call_parameters>, std::allocator<std::pair<int const, mock_generator::call_parameters> > >::iterator *, std::list<std::pair<int const, mock_generator::call_parameters>, std::allocator<std::pair<int const, mock_generator::call_parameters> > >::iterator &>::operator++(void)
 .gnu.linkonce.t._Uninit_copy__H3ZQ23stdt6_Ptrit6ZQ33stdt4list2ZQ23stdt4pair2ZCiZQ214mock_generator15call_parametersZQ23stdt9allocator1ZQ23stdt4pair2ZCiZQ214mock_generator15call_parameters8iteratorZiZPQ33stdt4list2ZQ23stdt4pair2ZCiZQ214mock_generator15call_parametersZQ23stdt9allocator1ZQ23stdt4pair2ZCiZQ214mock_generator15call_parameters8iteratorZRQ33stdt4list2ZQ23stdt4pair2ZCiZQ214mock_generator15call_parametersZQ23stdt9allocator1ZQ23stdt4pair2ZCiZQ214mock_generator15call_parameters8iteratorZPQ33stdt4list2ZQ23stdt4pair2ZCiZQ214mock_generator15call_parametersZQ23stdt9allocator1ZQ23stdt4pair2ZCiZQ214mock_generator15call_parameters8iteratorZRQ33stdt4list2ZQ23stdt4pair2ZCiZQ214mock_generator15call_parametersZQ23stdt9allocator1ZQ23stdt4pair2ZCiZQ214mock_generator15call_parameters8iteratorZPQ33stdt4list2ZQ23stdt4pair2ZCiZQ214mock_generator15call_parametersZQ23stdt9allocator1ZQ23stdt4pair2ZCiZQ214mock_generator15call_parameters8iteratorZQ23stdt9allocator1ZQ33stdt4list2ZQ23stdt4pair2ZCiZQ214mock_generator15call_parametersZQ23stdt9allocator1ZQ23stdt4pair2ZCiZQ214mock_generator15call_parameters8iterator_3stdX01X01X11RX21GQ23std27_Nonscalar_ptr_iterator_tag_X11
                0x0806f7a4       0xf8 mock_generator.o
                0x0806f7a4                std::list<std::pair<int const, mock_generator::call_parameters>, std::allocator<std::pair<int const, mock_generator::call_parameters> > >::iterator * std::_Uninit_copy<std::_Ptrit<std::list<std::pair<int const, mock_generator::call_parameters>, std::allocator<std::pair<int const, mock_generator::call_parameters> > >::iterator, int, std::list<std::pair<int const, mock_generator::call_parameters>, std::allocator<std::pair<int const, mock_generator::call_parameters> > >::iterator *, std::list<std::pair<int const, mock_generator::call_parameters>, std::allocator<std::pair<int const, mock_generator::call_parameters> > >::iterator &, std::list<std::pair<int const, mock_generator::call_parameters>, std::allocator<std::pair<int const, mock_generator::call_parameters> > >::iterator *, std::list<std::pair<int const, mock_generator::call_parameters>, std::allocator<std::pair<int const, mock_generator::call_parameters> > >::iterator &>, std::list<std::pair<int const, mock_generator::call_parameters>, std::allocator<std::pair<int const, mock_generator::call_parameters> > >::iterator *, std::allocator<std::list<std::pair<int const, mock_generator::call_parameters>, std::allocator<std::pair<int const, mock_generator::call_parameters> > >::iterator> >(std::_Ptrit<std::list<std::pair<int const, mock_generator::call_parameters>, std::allocator<std::pair<int const, mock_generator::call_parameters> > >::iterator, int, std::list<std::pair<int const, mock_generator::call_parameters>, std::allocator<std::pair<int const, mock_generator::call_parameters> > >::iterator *, std::list<std::pair<int const, mock_generator::call_parameters>, std::allocator<std::pair<int const, mock_generator::call_parameters> > >::iterator &, std::list<std::pair<int const, mock_generator::call_parameters>, std::allocator<std::pair<int const, mock_generator::call_parameters> > >::iterator *, std::list<std::pair<int const, mock_generator::call_parameters>, std::allocator<std::pair<int const, mock_generator::call_parameters> > >::iterator &>, std::_Ptrit<std::list<std::pair<int const, mock_generator::call_parameters>, std::allocator<std::pair<int const, mock_generator::call_parameters> > >::iterator, int, std::list<std::pair<int const, mock_generator::call_parameters>, std::allocator<std::pair<int const, mock_generator::call_parameters> > >::iterator *, std::list<std::pair<int const, mock_generator::call_parameters>, std::allocator<std::pair<int const, mock_generator::call_parameters> > >::iterator &, std::list<std::pair<int const, mock_generator::call_parameters>, std::allocator<std::pair<int const, mock_generator::call_parameters> > >::iterator *, std::list<std::pair<int const, mock_generator::call_parameters>, std::allocator<std::pair<int const, mock_generator::call_parameters> > >::iterator &>, std::list<std::pair<int const, mock_generator::call_parameters>, std::allocator<std::pair<int const, mock_generator::call_parameters> > >::iterator *, std::allocator<std::list<std::pair<int const, mock_generator::call_parameters>, std::allocator<std::pair<int const, mock_generator::call_parameters> > >::iterator> &, std::_Nonscalar_ptr_iterator_tag)
 .gnu.linkonce.t._Uninitialized_copy__H3ZQ23stdt6_Ptrit6ZQ33stdt4list2ZQ23stdt4pair2ZCiZQ214mock_generator15call_parametersZQ23stdt9allocator1ZQ23stdt4pair2ZCiZQ214mock_generator15call_parameters8iteratorZiZPQ33stdt4list2ZQ23stdt4pair2ZCiZQ214mock_generator15call_parametersZQ23stdt9allocator1ZQ23stdt4pair2ZCiZQ214mock_generator15call_parameters8iteratorZRQ33stdt4list2ZQ23stdt4pair2ZCiZQ214mock_generator15call_parametersZQ23stdt9allocator1ZQ23stdt4pair2ZCiZQ214mock_generator15call_parameters8iteratorZPQ33stdt4list2ZQ23stdt4pair2ZCiZQ214mock_generator15call_parametersZQ23stdt9allocator1ZQ23stdt4pair2ZCiZQ214mock_generator15call_parameters8iteratorZRQ33stdt4list2ZQ23stdt4pair2ZCiZQ214mock_generator15call_parametersZQ23stdt9allocator1ZQ23stdt4pair2ZCiZQ214mock_generator15call_parameters8iteratorZPQ33stdt4list2ZQ23stdt4pair2ZCiZQ214mock_generator15call_parametersZQ23stdt9allocator1ZQ23stdt4pair2ZCiZQ214mock_generator15call_parameters8iteratorZQ23stdt9allocator1ZQ33stdt4list2ZQ23stdt4pair2ZCiZQ214mock_generator15call_parametersZQ23stdt9allocator1ZQ23stdt4pair2ZCiZQ214mock_generator15call_parameters8iterator_3stdX01X01X11RX21_X11
                0x0806f89c       0x7c mock_generator.o
                0x0806f89c                std::list<std::pair<int const, mock_generator::call_parameters>, std::allocator<std::pair<int const, mock_generator::call_parameters> > >::iterator * std::_Uninitialized_copy<std::_Ptrit<std::list<std::pair<int const, mock_generator::call_parameters>, std::allocator<std::pair<int const, mock_generator::call_parameters> > >::iterator, int, std::list<std::pair<int const, mock_generator::call_parameters>, std::allocator<std::pair<int const, mock_generator::call_parameters> > >::iterator *, std::list<std::pair<int const, mock_generator::call_parameters>, std::allocator<std::pair<int const, mock_generator::call_parameters> > >::iterator &, std::list<std::pair<int const, mock_generator::call_parameters>, std::allocator<std::pair<int const, mock_generator::call_parameters> > >::iterator *, std::list<std::pair<int const, mock_generator::call_parameters>, std::allocator<std::pair<int const, mock_generator::call_parameters> > >::iterator &>, std::list<std::pair<int const, mock_generator::call_parameters>, std::allocator<std::pair<int const, mock_generator::call_parameters> > >::iterator *, std::allocator<std::list<std::pair<int const, mock_generator::call_parameters>, std::allocator<std::pair<int const, mock_generator::call_parameters> > >::iterator> >(std::_Ptrit<std::list<std::pair<int const, mock_generator::call_parameters>, std::allocator<std::pair<int const, mock_generator::call_parameters> > >::iterator, int, std::list<std::pair<int const, mock_generator::call_parameters>, std::allocator<std::pair<int const, mock_generator::call_parameters> > >::iterator *, std::list<std::pair<int const, mock_generator::call_parameters>, std::allocator<std::pair<int const, mock_generator::call_parameters> > >::iterator &, std::list<std::pair<int const, mock_generator::call_parameters>, std::allocator<std::pair<int const, mock_generator::call_parameters> > >::iterator *, std::list<std::pair<int const, mock_generator::call_parameters>, std::allocator<std::pair<int const, mock_generator::call_parameters> > >::iterator &>, std::_Ptrit<std::list<std::pair<int const, mock_generator::call_parameters>, std::allocator<std::pair<int const, mock_generator::call_parameters> > >::iterator, int, std::list<std::pair<int const, mock_generator::call_parameters>, std::allocator<std::pair<int const, mock_generator::call_parameters> > >::iterator *, std::list<std::pair<int const, mock_generator::call_parameters>, std::allocator<std::pair<int const, mock_generator::call_parameters> > >::iterator &, std::list<std::pair<int const, mock_generator::call_parameters>, std::allocator<std::pair<int const, mock_generator::call_parameters> > >::iterator *, std::list<std::pair<int const, mock_generator::call_parameters>, std::allocator<std::pair<int const, mock_generator::call_parameters> > >::iterator &>, std::list<std::pair<int const, mock_generator::call_parameters>, std::allocator<std::pair<int const, mock_generator::call_parameters> > >::iterator *, std::allocator<std::list<std::pair<int const, mock_generator::call_parameters>, std::allocator<std::pair<int const, mock_generator::call_parameters> > >::iterator> &)
 .gnu.linkonce.t._Ucopy__H1ZQ23stdt6_Ptrit6ZQ33stdt4list2ZQ23stdt4pair2ZCiZQ214mock_generator15call_parametersZQ23stdt9allocator1ZQ23stdt4pair2ZCiZQ214mock_generator15call_parameters8iteratorZiZPQ33stdt4list2ZQ23stdt4pair2ZCiZQ214mock_generator15call_parametersZQ23stdt9allocator1ZQ23stdt4pair2ZCiZQ214mock_generator15call_parameters8iteratorZRQ33stdt4list2ZQ23stdt4pair2ZCiZQ214mock_generator15call_parametersZQ23stdt9allocator1ZQ23stdt4pair2ZCiZQ214mock_generator15call_parameters8iteratorZPQ33stdt4list2ZQ23stdt4pair2ZCiZQ214mock_generator15call_parametersZQ23stdt9allocator1ZQ23stdt4pair2ZCiZQ214mock_generator15call_parameters8iteratorZRQ33stdt4list2ZQ23stdt4pair2ZCiZQ214mock_generator15call_parametersZQ23stdt9allocator1ZQ23stdt4pair2ZCiZQ214mock_generator15call_parameters8iterator_Q23stdt6vector2ZQ33stdt4list2ZQ23stdt4pair2ZCiZQ214mock_generator15call_parametersZQ23stdt9allocator1ZQ23stdt4pair2ZCiZQ214mock_generator15call_parameters8iteratorZQ23stdt9allocator1ZQ33stdt4list2ZQ23stdt4pair2ZCiZQ214mock_generator15call_parametersZQ23stdt9allocator1ZQ23stdt4pair2ZCiZQ214mock_generator15call_parameters8iteratorX00X00PQ33stdt4list2ZQ23stdt4pair2ZCiZQ214mock_generator15call_parametersZQ23stdt9allocator1ZQ23stdt4pair2ZCiZQ214mock_generator15call_parameters8iterator_PQ33stdt4list2ZQ23stdt4pair2ZCiZQ214mock_generator15call_parametersZQ23stdt9allocator1ZQ23stdt4pair2ZCiZQ214mock_generator15call_parameters8iterator
                0x0806f918       0x59 mock_generator.o
                0x0806f918                std::list<std::pair<int const, mock_generator::call_parameters>, std::allocator<std::pair<int const, mock_generator::call_parameters> > >::iterator * std::vector<std::list<std::pair<int const, mock_generator::call_parameters>, std::allocator<std::pair<int const, mock_generator::call_parameters> > >::iterator, std::allocator<std::list<std::pair<int const, mock_generator::call_parameters>, std::allocator<std::pair<int const, mock_generator::call_parameters> > >::iterator> >::_Ucopy<std::_Ptrit<std::list<std::pair<int const, mock_generator::call_parameters>, std::allocator<std::pair<int const, mock_generator::call_parameters> > >::iterator, int, std::list<std::pair<int const, mock_generator::call_parameters>, std::allocator<std::pair<int const, mock_generator::call_parameters> > >::iterator *, std::list<std::pair<int const, mock_generator::call_parameters>, std::allocator<std::pair<int const, mock_generator::call_parameters> > >::iterator &, std::list<std::pair<int const, mock_generator::call_parameters>, std::allocator<std::pair<int const, mock_generator::call_parameters> > >::iterator *, std::list<std::pair<int const, mock_generator::call_parameters>, std::allocator<std::pair<int const, mock_generator::call_parameters> > >::iterator &> >(std::_Ptrit<std::list<std::pair<int const, mock_generator::call_parameters>, std::allocator<std::pair<int const, mock_generator::call_parameters> > >::iterator, int, std::list<std::pair<int const, mock_generator::call_parameters>, std::allocator<std::pair<int const, mock_generator::call_parameters> > >::iterator *, std::list<std::pair<int const, mock_generator::call_parameters>, std::allocator<std::pair<int const, mock_generator::call_parameters> > >::iterator &, std::list<std::pair<int const, mock_generator::call_parameters>, std::allocator<std::pair<int const, mock_generator::call_parameters> > >::iterator *, std::list<std::pair<int const, mock_generator::call_parameters>, std::allocator<std::pair<int const, mock_generator::call_parameters> > >::iterator &>, std::_Ptrit<std::list<std::pair<int const, mock_generator::call_parameters>, std::allocator<std::pair<int const, mock_generator::call_parameters> > >::iterator, int, std::list<std::pair<int const, mock_generator::call_parameters>, std::allocator<std::pair<int const, mock_generator::call_parameters> > >::iterator *, std::list<std::pair<int const, mock_generator::call_parameters>, std::allocator<std::pair<int const, mock_generator::call_parameters> > >::iterator &, std::list<std::pair<int const, mock_generator::call_parameters>, std::allocator<std::pair<int const, mock_generator::call_parameters> > >::iterator *, std::list<std::pair<int const, mock_generator::call_parameters>, std::allocator<std::pair<int const, mock_generator::call_parameters> > >::iterator &>, std::list<std::pair<int const, mock_generator::call_parameters>, std::allocator<std::pair<int const, mock_generator::call_parameters> > >::iterator *)
 *fill*         0x0806f971        0x3 37008
 .gnu.linkonce.t.__mi__CQ23stdt6_Ptrit6ZQ33stdt4list2ZQ23stdt4pair2ZCiZQ214mock_generator15call_parametersZQ23stdt9allocator1ZQ23stdt4pair2ZCiZQ214mock_generator15call_parameters8iteratorZiZPQ33stdt4list2ZQ23stdt4pair2ZCiZQ214mock_generator15call_parametersZQ23stdt9allocator1ZQ23stdt4pair2ZCiZQ214mock_generator15call_parameters8iteratorZRQ33stdt4list2ZQ23stdt4pair2ZCiZQ214mock_generator15call_parametersZQ23stdt9allocator1ZQ23stdt4pair2ZCiZQ214mock_generator15call_parameters8iteratorZPQ33stdt4list2ZQ23stdt4pair2ZCiZQ214mock_generator15call_parametersZQ23stdt9allocator1ZQ23stdt4pair2ZCiZQ214mock_generator15call_parameters8iteratorZRQ33stdt4list2ZQ23stdt4pair2ZCiZQ214mock_generator15call_parametersZQ23stdt9allocator1ZQ23stdt4pair2ZCiZQ214mock_generator15call_parameters8iteratorRCQ23stdt6_Ptrit6ZQ33stdt4list2ZQ23stdt4pair2ZCiZQ214mock_generator15call_parametersZQ23stdt9allocator1ZQ23stdt4pair2ZCiZQ214mock_generator15call_parameters8iteratorZiZPQ33stdt4list2ZQ23stdt4pair2ZCiZQ214mock_generator15call_parametersZQ23stdt9allocator1ZQ23stdt4pair2ZCiZQ214mock_generator15call_parameters8iteratorZRQ33stdt4list2ZQ23stdt4pair2ZCiZQ214mock_generator15call_parametersZQ23stdt9allocator1ZQ23stdt4pair2ZCiZQ214mock_generator15call_parameters8iteratorZPQ33stdt4list2ZQ23stdt4pair2ZCiZQ214mock_generator15call_parametersZQ23stdt9allocator1ZQ23stdt4pair2ZCiZQ214mock_generator15call_parameters8iteratorZRQ33stdt4list2ZQ23stdt4pair2ZCiZQ214mock_generator15call_parametersZQ23stdt9allocator1ZQ23stdt4pair2ZCiZQ214mock_generator15call_parameters8iterator
                0x0806f974       0x24 mock_generator.o
                0x0806f974                std::_Ptrit<std::list<std::pair<int const, mock_generator::call_parameters>, std::allocator<std::pair<int const, mock_generator::call_parameters> > >::iterator, int, std::list<std::pair<int const, mock_generator::call_parameters>, std::allocator<std::pair<int const, mock_generator::call_parameters> > >::iterator *, std::list<std::pair<int const, mock_generator::call_parameters>, std::allocator<std::pair<int const, mock_generator::call_parameters> > >::iterator &, std::list<std::pair<int const, mock_generator::call_parameters>, std::allocator<std::pair<int const, mock_generator::call_parameters> > >::iterator *, std::list<std::pair<int const, mock_generator::call_parameters>, std::allocator<std::pair<int const, mock_generator::call_parameters> > >::iterator &>::operator-(std::_Ptrit<std::list<std::pair<int const, mock_generator::call_parameters>, std::allocator<std::pair<int const, mock_generator::call_parameters> > >::iterator, int, std::list<std::pair<int const, mock_generator::call_parameters>, std::allocator<std::pair<int const, mock_generator::call_parameters> > >::iterator *, std::list<std::pair<int const, mock_generator::call_parameters>, std::allocator<std::pair<int const, mock_generator::call_parameters> > >::iterator &, std::list<std::pair<int const, mock_generator::call_parameters>, std::allocator<std::pair<int const, mock_generator::call_parameters> > >::iterator *, std::list<std::pair<int const, mock_generator::call_parameters>, std::allocator<std::pair<int const, mock_generator::call_parameters> > >::iterator &> const &) const
 .gnu.linkonce.t.__mi__CQ23stdt6_Ptrit6ZQ33stdt4list2ZQ23stdt4pair2ZCiZQ214mock_generator15call_parametersZQ23stdt9allocator1ZQ23stdt4pair2ZCiZQ214mock_generator15call_parameters8iteratorZiZPQ33stdt4list2ZQ23stdt4pair2ZCiZQ214mock_generator15call_parametersZQ23stdt9allocator1ZQ23stdt4pair2ZCiZQ214mock_generator15call_parameters8iteratorZRQ33stdt4list2ZQ23stdt4pair2ZCiZQ214mock_generator15call_parametersZQ23stdt9allocator1ZQ23stdt4pair2ZCiZQ214mock_generator15call_parameters8iteratorZPQ33stdt4list2ZQ23stdt4pair2ZCiZQ214mock_generator15call_parametersZQ23stdt9allocator1ZQ23stdt4pair2ZCiZQ214mock_generator15call_parameters8iteratorZRQ33stdt4list2ZQ23stdt4pair2ZCiZQ214mock_generator15call_parametersZQ23stdt9allocator1ZQ23stdt4pair2ZCiZQ214mock_generator15call_parameters8iteratori
                0x0806f998       0x3b mock_generator.o
                0x0806f998                std::_Ptrit<std::list<std::pair<int const, mock_generator::call_parameters>, std::allocator<std::pair<int const, mock_generator::call_parameters> > >::iterator, int, std::list<std::pair<int const, mock_generator::call_parameters>, std::allocator<std::pair<int const, mock_generator::call_parameters> > >::iterator *, std::list<std::pair<int const, mock_generator::call_parameters>, std::allocator<std::pair<int const, mock_generator::call_parameters> > >::iterator &, std::list<std::pair<int const, mock_generator::call_parameters>, std::allocator<std::pair<int const, mock_generator::call_parameters> > >::iterator *, std::list<std::pair<int const, mock_generator::call_parameters>, std::allocator<std::pair<int const, mock_generator::call_parameters> > >::iterator &>::operator-(int) const
 *fill*         0x0806f9d3        0x1 37008
 .gnu.linkonce.t.fill__H2ZQ23stdt6_Ptrit6ZQ33stdt4list2ZQ23stdt4pair2ZCiZQ214mock_generator15call_parametersZQ23stdt9allocator1ZQ23stdt4pair2ZCiZQ214mock_generator15call_parameters8iteratorZiZPQ33stdt4list2ZQ23stdt4pair2ZCiZQ214mock_generator15call_parametersZQ23stdt9allocator1ZQ23stdt4pair2ZCiZQ214mock_generator15call_parameters8iteratorZRQ33stdt4list2ZQ23stdt4pair2ZCiZQ214mock_generator15call_parametersZQ23stdt9allocator1ZQ23stdt4pair2ZCiZQ214mock_generator15call_parameters8iteratorZPQ33stdt4list2ZQ23stdt4pair2ZCiZQ214mock_generator15call_parametersZQ23stdt9allocator1ZQ23stdt4pair2ZCiZQ214mock_generator15call_parameters8iteratorZRQ33stdt4list2ZQ23stdt4pair2ZCiZQ214mock_generator15call_parametersZQ23stdt9allocator1ZQ23stdt4pair2ZCiZQ214mock_generator15call_parameters8iteratorZQ33stdt4list2ZQ23stdt4pair2ZCiZQ214mock_generator15call_parametersZQ23stdt9allocator1ZQ23stdt4pair2ZCiZQ214mock_generator15call_parameters8iterator_3stdX01X01RCX11_v
                0x0806f9d4       0x60 mock_generator.o
                0x0806f9d4                void std::fill<std::_Ptrit<std::list<std::pair<int const, mock_generator::call_parameters>, std::allocator<std::pair<int const, mock_generator::call_parameters> > >::iterator, int, std::list<std::pair<int const, mock_generator::call_parameters>, std::allocator<std::pair<int const, mock_generator::call_parameters> > >::iterator *, std::list<std::pair<int const, mock_generator::call_parameters>, std::allocator<std::pair<int const, mock_generator::call_parameters> > >::iterator &, std::list<std::pair<int const, mock_generator::call_parameters>, std::allocator<std::pair<int const, mock_generator::call_parameters> > >::iterator *, std::list<std::pair<int const, mock_generator::call_parameters>, std::allocator<std::pair<int const, mock_generator::call_parameters> > >::iterator &>, std::list<std::pair<int const, mock_generator::call_parameters>, std::allocator<std::pair<int const, mock_generator::call_parameters> > >::iterator>(std::_Ptrit<std::list<std::pair<int const, mock_generator::call_parameters>, std::allocator<std::pair<int const, mock_generator::call_parameters> > >::iterator, int, std::list<std::pair<int const, mock_generator::call_parameters>, std::allocator<std::pair<int const, mock_generator::call_parameters> > >::iterator *, std::list<std::pair<int const, mock_generator::call_parameters>, std::allocator<std::pair<int const, mock_generator::call_parameters> > >::iterator &, std::list<std::pair<int const, mock_generator::call_parameters>, std::allocator<std::pair<int const, mock_generator::call_parameters> > >::iterator *, std::list<std::pair<int const, mock_generator::call_parameters>, std::allocator<std::pair<int const, mock_generator::call_parameters> > >::iterator &>, std::_Ptrit<std::list<std::pair<int const, mock_generator::call_parameters>, std::allocator<std::pair<int const, mock_generator::call_parameters> > >::iterator, int, std::list<std::pair<int const, mock_generator::call_parameters>, std::allocator<std::pair<int const, mock_generator::call_parameters> > >::iterator *, std::list<std::pair<int const, mock_generator::call_parameters>, std::allocator<std::pair<int const, mock_generator::call_parameters> > >::iterator &, std::list<std::pair<int const, mock_generator::call_parameters>, std::allocator<std::pair<int const, mock_generator::call_parameters> > >::iterator *, std::list<std::pair<int const, mock_generator::call_parameters>, std::allocator<std::pair<int const, mock_generator::call_parameters> > >::iterator &>, std::list<std::pair<int const, mock_generator::call_parameters>, std::allocator<std::pair<int const, mock_generator::call_parameters> > >::iterator const &)
 .gnu.linkonce.t._Ptr_cat__H2ZQ23stdt6_Ptrit6ZQ33stdt4list2ZQ23stdt4pair2ZCiZQ214mock_generator15call_parametersZQ23stdt9allocator1ZQ23stdt4pair2ZCiZQ214mock_generator15call_parameters8iteratorZiZPQ33stdt4list2ZQ23stdt4pair2ZCiZQ214mock_generator15call_parametersZQ23stdt9allocator1ZQ23stdt4pair2ZCiZQ214mock_generator15call_parameters8iteratorZRQ33stdt4list2ZQ23stdt4pair2ZCiZQ214mock_generator15call_parametersZQ23stdt9allocator1ZQ23stdt4pair2ZCiZQ214mock_generator15call_parameters8iteratorZPQ33stdt4list2ZQ23stdt4pair2ZCiZQ214mock_generator15call_parametersZQ23stdt9allocator1ZQ23stdt4pair2ZCiZQ214mock_generator15call_parameters8iteratorZRQ33stdt4list2ZQ23stdt4pair2ZCiZQ214mock_generator15call_parametersZQ23stdt9allocator1ZQ23stdt4pair2ZCiZQ214mock_generator15call_parameters8iteratorZQ23stdt6_Ptrit6ZQ33stdt4list2ZQ23stdt4pair2ZCiZQ214mock_generator15call_parametersZQ23stdt9allocator1ZQ23stdt4pair2ZCiZQ214mock_generator15call_parameters8iteratorZiZPQ33stdt4list2ZQ23stdt4pair2ZCiZQ214mock_generator15call_parametersZQ23stdt9allocator1ZQ23stdt4pair2ZCiZQ214mock_generator15call_parameters8iteratorZRQ33stdt4list2ZQ23stdt4pair2ZCiZQ214mock_generator15call_parametersZQ23stdt9allocator1ZQ23stdt4pair2ZCiZQ214mock_generator15call_parameters8iteratorZPQ33stdt4list2ZQ23stdt4pair2ZCiZQ214mock_generator15call_parametersZQ23stdt9allocator1ZQ23stdt4pair2ZCiZQ214mock_generator15call_parameters8iteratorZRQ33stdt4list2ZQ23stdt4pair2ZCiZQ214mock_generator15call_parametersZQ23stdt9allocator1ZQ23stdt4pair2ZCiZQ214mock_generator15call_parameters8iterator_3stdRCX01RX11_Q23std27_Nonscalar_ptr_iterator_tag
                0x0806fa34       0x20 mock_generator.o
                0x0806fa34                std::_Nonscalar_ptr_iterator_tag std::_Ptr_cat<std::_Ptrit<std::list<std::pair<int const, mock_generator::call_parameters>, std::allocator<std::pair<int const, mock_generator::call_parameters> > >::iterator, int, std::list<std::pair<int const, mock_generator::call_parameters>, std::allocator<std::pair<int const, mock_generator::call_parameters> > >::iterator *, std::list<std::pair<int const, mock_generator::call_parameters>, std::allocator<std::pair<int const, mock_generator::call_parameters> > >::iterator &, std::list<std::pair<int const, mock_generator::call_parameters>, std::allocator<std::pair<int const, mock_generator::call_parameters> > >::iterator *, std::list<std::pair<int const, mock_generator::call_parameters>, std::allocator<std::pair<int const, mock_generator::call_parameters> > >::iterator &>, std::_Ptrit<std::list<std::pair<int const, mock_generator::call_parameters>, std::allocator<std::pair<int const, mock_generator::call_parameters> > >::iterator, int, std::list<std::pair<int const, mock_generator::call_parameters>, std::allocator<std::pair<int const, mock_generator::call_parameters> > >::iterator *, std::list<std::pair<int const, mock_generator::call_parameters>, std::allocator<std::pair<int const, mock_generator::call_parameters> > >::iterator &, std::list<std::pair<int const, mock_generator::call_parameters>, std::allocator<std::pair<int const, mock_generator::call_parameters> > >::iterator *, std::list<std::pair<int const, mock_generator::call_parameters>, std::allocator<std::pair<int const, mock_generator::call_parameters> > >::iterator &> >(std::_Ptrit<std::list<std::pair<int const, mock_generator::call_parameters>, std::allocator<std::pair<int const, mock_generator::call_parameters> > >::iterator, int, std::list<std::pair<int const, mock_generator::call_parameters>, std::allocator<std::pair<int const, mock_generator::call_parameters> > >::iterator *, std::list<std::pair<int const, mock_generator::call_parameters>, std::allocator<std::pair<int const, mock_generator::call_parameters> > >::iterator &, std::list<std::pair<int const, mock_generator::call_parameters>, std::allocator<std::pair<int const, mock_generator::call_parameters> > >::iterator *, std::list<std::pair<int const, mock_generator::call_parameters>, std::allocator<std::pair<int const, mock_generator::call_parameters> > >::iterator &> const &, std::_Ptrit<std::list<std::pair<int const, mock_generator::call_parameters>, std::allocator<std::pair<int const, mock_generator::call_parameters> > >::iterator, int, std::list<std::pair<int const, mock_generator::call_parameters>, std::allocator<std::pair<int const, mock_generator::call_parameters> > >::iterator *, std::list<std::pair<int const, mock_generator::call_parameters>, std::allocator<std::pair<int const, mock_generator::call_parameters> > >::iterator &, std::list<std::pair<int const, mock_generator::call_parameters>, std::allocator<std::pair<int const, mock_generator::call_parameters> > >::iterator *, std::list<std::pair<int const, mock_generator::call_parameters>, std::allocator<std::pair<int const, mock_generator::call_parameters> > >::iterator &> &)
 .gnu.linkonce.t.__mm__Q23stdt6_Ptrit6ZQ33stdt4list2ZQ23stdt4pair2ZCiZQ214mock_generator15call_parametersZQ23stdt9allocator1ZQ23stdt4pair2ZCiZQ214mock_generator15call_parameters8iteratorZiZPQ33stdt4list2ZQ23stdt4pair2ZCiZQ214mock_generator15call_parametersZQ23stdt9allocator1ZQ23stdt4pair2ZCiZQ214mock_generator15call_parameters8iteratorZRQ33stdt4list2ZQ23stdt4pair2ZCiZQ214mock_generator15call_parametersZQ23stdt9allocator1ZQ23stdt4pair2ZCiZQ214mock_generator15call_parameters8iteratorZPQ33stdt4list2ZQ23stdt4pair2ZCiZQ214mock_generator15call_parametersZQ23stdt9allocator1ZQ23stdt4pair2ZCiZQ214mock_generator15call_parameters8iteratorZRQ33stdt4list2ZQ23stdt4pair2ZCiZQ214mock_generator15call_parametersZQ23stdt9allocator1ZQ23stdt4pair2ZCiZQ214mock_generator15call_parameters8iterator
                0x0806fa54       0x10 mock_generator.o
                0x0806fa54                std::_Ptrit<std::list<std::pair<int const, mock_generator::call_parameters>, std::allocator<std::pair<int const, mock_generator::call_parameters> > >::iterator, int, std::list<std::pair<int const, mock_generator::call_parameters>, std::allocator<std::pair<int const, mock_generator::call_parameters> > >::iterator *, std::list<std::pair<int const, mock_generator::call_parameters>, std::allocator<std::pair<int const, mock_generator::call_parameters> > >::iterator &, std::list<std::pair<int const, mock_generator::call_parameters>, std::allocator<std::pair<int const, mock_generator::call_parameters> > >::iterator *, std::list<std::pair<int const, mock_generator::call_parameters>, std::allocator<std::pair<int const, mock_generator::call_parameters> > >::iterator &>::operator--(void)
 .gnu.linkonce.t._Copy_backward_opt__H2ZQ23stdt6_Ptrit6ZQ33stdt4list2ZQ23stdt4pair2ZCiZQ214mock_generator15call_parametersZQ23stdt9allocator1ZQ23stdt4pair2ZCiZQ214mock_generator15call_parameters8iteratorZiZPQ33stdt4list2ZQ23stdt4pair2ZCiZQ214mock_generator15call_parametersZQ23stdt9allocator1ZQ23stdt4pair2ZCiZQ214mock_generator15call_parameters8iteratorZRQ33stdt4list2ZQ23stdt4pair2ZCiZQ214mock_generator15call_parametersZQ23stdt9allocator1ZQ23stdt4pair2ZCiZQ214mock_generator15call_parameters8iteratorZPQ33stdt4list2ZQ23stdt4pair2ZCiZQ214mock_generator15call_parametersZQ23stdt9allocator1ZQ23stdt4pair2ZCiZQ214mock_generator15call_parameters8iteratorZRQ33stdt4list2ZQ23stdt4pair2ZCiZQ214mock_generator15call_parametersZQ23stdt9allocator1ZQ23stdt4pair2ZCiZQ214mock_generator15call_parameters8iteratorZQ23stdt6_Ptrit6ZQ33stdt4list2ZQ23stdt4pair2ZCiZQ214mock_generator15call_parametersZQ23stdt9allocator1ZQ23stdt4pair2ZCiZQ214mock_generator15call_parameters8iteratorZiZPQ33stdt4list2ZQ23stdt4pair2ZCiZQ214mock_generator15call_parametersZQ23stdt9allocator1ZQ23stdt4pair2ZCiZQ214mock_generator15call_parameters8iteratorZRQ33stdt4list2ZQ23stdt4pair2ZCiZQ214mock_generator15call_parametersZQ23stdt9allocator1ZQ23stdt4pair2ZCiZQ214mock_generator15call_parameters8iteratorZPQ33stdt4list2ZQ23stdt4pair2ZCiZQ214mock_generator15call_parametersZQ23stdt9allocator1ZQ23stdt4pair2ZCiZQ214mock_generator15call_parameters8iteratorZRQ33stdt4list2ZQ23stdt4pair2ZCiZQ214mock_generator15call_parametersZQ23stdt9allocator1ZQ23stdt4pair2ZCiZQ214mock_generator15call_parameters8iterator_3stdX01X01X11GQ23std27_Nonscalar_ptr_iterator_tag_X11
                0x0806fa64       0xa0 mock_generator.o
                0x0806fa64                std::_Ptrit<std::list<std::pair<int const, mock_generator::call_parameters>, std::allocator<std::pair<int const, mock_generator::call_parameters> > >::iterator, int, std::list<std::pair<int const, mock_generator::call_parameters>, std::allocator<std::pair<int const, mock_generator::call_parameters> > >::iterator *, std::list<std::pair<int const, mock_generator::call_parameters>, std::allocator<std::pair<int const, mock_generator::call_parameters> > >::iterator &, std::list<std::pair<int const, mock_generator::call_parameters>, std::allocator<std::pair<int const, mock_generator::call_parameters> > >::iterator *, std::list<std::pair<int const, mock_generator::call_parameters>, std::allocator<std::pair<int const, mock_generator::call_parameters> > >::iterator &> std::_Copy_backward_opt<std::_Ptrit<std::list<std::pair<int const, mock_generator::call_parameters>, std::allocator<std::pair<int const, mock_generator::call_parameters> > >::iterator, int, std::list<std::pair<int const, mock_generator::call_parameters>, std::allocator<std::pair<int const, mock_generator::call_parameters> > >::iterator *, std::list<std::pair<int const, mock_generator::call_parameters>, std::allocator<std::pair<int const, mock_generator::call_parameters> > >::iterator &, std::list<std::pair<int const, mock_generator::call_parameters>, std::allocator<std::pair<int const, mock_generator::call_parameters> > >::iterator *, std::list<std::pair<int const, mock_generator::call_parameters>, std::allocator<std::pair<int const, mock_generator::call_parameters> > >::iterator &>, std::_Ptrit<std::list<std::pair<int const, mock_generator::call_parameters>, std::allocator<std::pair<int const, mock_generator::call_parameters> > >::iterator, int, std::list<std::pair<int const, mock_generator::call_parameters>, std::allocator<std::pair<int const, mock_generator::call_parameters> > >::iterator *, std::list<std::pair<int const, mock_generator::call_parameters>, std::allocator<std::pair<int const, mock_generator::call_parameters> > >::iterator &, std::list<std::pair<int const, mock_generator::call_parameters>, std::allocator<std::pair<int const, mock_generator::call_parameters> > >::iterator *, std::list<std::pair<int const, mock_generator::call_parameters>, std::allocator<std::pair<int const, mock_generator::call_parameters> > >::iterator &> >(std::_Ptrit<std::list<std::pair<int const, mock_generator::call_parameters>, std::allocator<std::pair<int const, mock_generator::call_parameters> > >::iterator, int, std::list<std::pair<int const, mock_generator::call_parameters>, std::allocator<std::pair<int const, mock_generator::call_parameters> > >::iterator *, std::list<std::pair<int const, mock_generator::call_parameters>, std::allocator<std::pair<int const, mock_generator::call_parameters> > >::iterator &, std::list<std::pair<int const, mock_generator::call_parameters>, std::allocator<std::pair<int const, mock_generator::call_parameters> > >::iterator *, std::list<std::pair<int const, mock_generator::call_parameters>, std::allocator<std::pair<int const, mock_generator::call_parameters> > >::iterator &>, std::_Ptrit<std::list<std::pair<int const, mock_generator::call_parameters>, std::allocator<std::pair<int const, mock_generator::call_parameters> > >::iterator, int, std::list<std::pair<int const, mock_generator::call_parameters>, std::allocator<std::pair<int const, mock_generator::call_parameters> > >::iterator *, std::list<std::pair<int const, mock_generator::call_parameters>, std::allocator<std::pair<int const, mock_generator::call_parameters> > >::iterator &, std::list<std::pair<int const, mock_generator::call_parameters>, std::allocator<std::pair<int const, mock_generator::call_parameters> > >::iterator *, std::list<std::pair<int const, mock_generator::call_parameters>, std::allocator<std::pair<int const, mock_generator::call_parameters> > >::iterator &>, std::_Ptrit<std::list<std::pair<int const, mock_generator::call_parameters>, std::allocator<std::pair<int const, mock_generator::call_parameters> > >::iterator, int, std::list<std::pair<int const, mock_generator::call_parameters>, std::allocator<std::pair<int const, mock_generator::call_parameters> > >::iterator *, std::list<std::pair<int const, mock_generator::call_parameters>, std::allocator<std::pair<int const, mock_generator::call_parameters> > >::iterator &, std::list<std::pair<int const, mock_generator::call_parameters>, std::allocator<std::pair<int const, mock_generator::call_parameters> > >::iterator *, std::list<std::pair<int const, mock_generator::call_parameters>, std::allocator<std::pair<int const, mock_generator::call_parameters> > >::iterator &>, std::_Nonscalar_ptr_iterator_tag)
 .gnu.linkonce.t.copy_backward__H2ZQ23stdt6_Ptrit6ZQ33stdt4list2ZQ23stdt4pair2ZCiZQ214mock_generator15call_parametersZQ23stdt9allocator1ZQ23stdt4pair2ZCiZQ214mock_generator15call_parameters8iteratorZiZPQ33stdt4list2ZQ23stdt4pair2ZCiZQ214mock_generator15call_parametersZQ23stdt9allocator1ZQ23stdt4pair2ZCiZQ214mock_generator15call_parameters8iteratorZRQ33stdt4list2ZQ23stdt4pair2ZCiZQ214mock_generator15call_parametersZQ23stdt9allocator1ZQ23stdt4pair2ZCiZQ214mock_generator15call_parameters8iteratorZPQ33stdt4list2ZQ23stdt4pair2ZCiZQ214mock_generator15call_parametersZQ23stdt9allocator1ZQ23stdt4pair2ZCiZQ214mock_generator15call_parameters8iteratorZRQ33stdt4list2ZQ23stdt4pair2ZCiZQ214mock_generator15call_parametersZQ23stdt9allocator1ZQ23stdt4pair2ZCiZQ214mock_generator15call_parameters8iteratorZQ23stdt6_Ptrit6ZQ33stdt4list2ZQ23stdt4pair2ZCiZQ214mock_generator15call_parametersZQ23stdt9allocator1ZQ23stdt4pair2ZCiZQ214mock_generator15call_parameters8iteratorZiZPQ33stdt4list2ZQ23stdt4pair2ZCiZQ214mock_generator15call_parametersZQ23stdt9allocator1ZQ23stdt4pair2ZCiZQ214mock_generator15call_parameters8iteratorZRQ33stdt4list2ZQ23stdt4pair2ZCiZQ214mock_generator15call_parametersZQ23stdt9allocator1ZQ23stdt4pair2ZCiZQ214mock_generator15call_parameters8iteratorZPQ33stdt4list2ZQ23stdt4pair2ZCiZQ214mock_generator15call_parametersZQ23stdt9allocator1ZQ23stdt4pair2ZCiZQ214mock_generator15call_parameters8iteratorZRQ33stdt4list2ZQ23stdt4pair2ZCiZQ214mock_generator15call_parametersZQ23stdt9allocator1ZQ23stdt4pair2ZCiZQ214mock_generator15call_parameters8iterator_3stdX01X01X11_X11
                0x0806fb04       0x8e mock_generator.o
                0x0806fb04                std::_Ptrit<std::list<std::pair<int const, mock_generator::call_parameters>, std::allocator<std::pair<int const, mock_generator::call_parameters> > >::iterator, int, std::list<std::pair<int const, mock_generator::call_parameters>, std::allocator<std::pair<int const, mock_generator::call_parameters> > >::iterator *, std::list<std::pair<int const, mock_generator::call_parameters>, std::allocator<std::pair<int const, mock_generator::call_parameters> > >::iterator &, std::list<std::pair<int const, mock_generator::call_parameters>, std::allocator<std::pair<int const, mock_generator::call_parameters> > >::iterator *, std::list<std::pair<int const, mock_generator::call_parameters>, std::allocator<std::pair<int const, mock_generator::call_parameters> > >::iterator &> std::copy_backward<std::_Ptrit<std::list<std::pair<int const, mock_generator::call_parameters>, std::allocator<std::pair<int const, mock_generator::call_parameters> > >::iterator, int, std::list<std::pair<int const, mock_generator::call_parameters>, std::allocator<std::pair<int const, mock_generator::call_parameters> > >::iterator *, std::list<std::pair<int const, mock_generator::call_parameters>, std::allocator<std::pair<int const, mock_generator::call_parameters> > >::iterator &, std::list<std::pair<int const, mock_generator::call_parameters>, std::allocator<std::pair<int const, mock_generator::call_parameters> > >::iterator *, std::list<std::pair<int const, mock_generator::call_parameters>, std::allocator<std::pair<int const, mock_generator::call_parameters> > >::iterator &>, std::_Ptrit<std::list<std::pair<int const, mock_generator::call_parameters>, std::allocator<std::pair<int const, mock_generator::call_parameters> > >::iterator, int, std::list<std::pair<int const, mock_generator::call_parameters>, std::allocator<std::pair<int const, mock_generator::call_parameters> > >::iterator *, std::list<std::pair<int const, mock_generator::call_parameters>, std::allocator<std::pair<int const, mock_generator::call_parameters> > >::iterator &, std::list<std::pair<int const, mock_generator::call_parameters>, std::allocator<std::pair<int const, mock_generator::call_parameters> > >::iterator *, std::list<std::pair<int const, mock_generator::call_parameters>, std::allocator<std::pair<int const, mock_generator::call_parameters> > >::iterator &> >(std::_Ptrit<std::list<std::pair<int const, mock_generator::call_parameters>, std::allocator<std::pair<int const, mock_generator::call_parameters> > >::iterator, int, std::list<std::pair<int const, mock_generator::call_parameters>, std::allocator<std::pair<int const, mock_generator::call_parameters> > >::iterator *, std::list<std::pair<int const, mock_generator::call_parameters>, std::allocator<std::pair<int const, mock_generator::call_parameters> > >::iterator &, std::list<std::pair<int const, mock_generator::call_parameters>, std::allocator<std::pair<int const, mock_generator::call_parameters> > >::iterator *, std::list<std::pair<int const, mock_generator::call_parameters>, std::allocator<std::pair<int const, mock_generator::call_parameters> > >::iterator &>, std::_Ptrit<std::list<std::pair<int const, mock_generator::call_parameters>, std::allocator<std::pair<int const, mock_generator::call_parameters> > >::iterator, int, std::list<std::pair<int const, mock_generator::call_parameters>, std::allocator<std::pair<int const, mock_generator::call_parameters> > >::iterator *, std::list<std::pair<int const, mock_generator::call_parameters>, std::allocator<std::pair<int const, mock_generator::call_parameters> > >::iterator &, std::list<std::pair<int const, mock_generator::call_parameters>, std::allocator<std::pair<int const, mock_generator::call_parameters> > >::iterator *, std::list<std::pair<int const, mock_generator::call_parameters>, std::allocator<std::pair<int const, mock_generator::call_parameters> > >::iterator &>, std::_Ptrit<std::list<std::pair<int const, mock_generator::call_parameters>, std::allocator<std::pair<int const, mock_generator::call_parameters> > >::iterator, int, std::list<std::pair<int const, mock_generator::call_parameters>, std::allocator<std::pair<int const, mock_generator::call_parameters> > >::iterator *, std::list<std::pair<int const, mock_generator::call_parameters>, std::allocator<std::pair<int const, mock_generator::call_parameters> > >::iterator &, std::list<std::pair<int const, mock_generator::call_parameters>, std::allocator<std::pair<int const, mock_generator::call_parameters> > >::iterator *, std::list<std::pair<int const, mock_generator::call_parameters>, std::allocator<std::pair<int const, mock_generator::call_parameters> > >::iterator &>)
 *fill*         0x0806fb92        0x2 37008
 .gnu.linkonce.t._Insert_n__Q23stdt6vector2ZQ33stdt4list2ZQ23stdt4pair2ZCiZQ214mock_generator15call_parametersZQ23stdt9allocator1ZQ23stdt4pair2ZCiZQ214mock_generator15call_parameters8iteratorZQ23stdt9allocator1ZQ33stdt4list2ZQ23stdt4pair2ZCiZQ214mock_generator15call_parametersZQ23stdt9allocator1ZQ23stdt4pair2ZCiZQ214mock_generator15call_parameters8iteratorGQ23stdt6_Ptrit6ZQ33stdt4list2ZQ23stdt4pair2ZCiZQ214mock_generator15call_parametersZQ23stdt9allocator1ZQ23stdt4pair2ZCiZQ214mock_generator15call_parameters8iteratorZiZPQ33stdt4list2ZQ23stdt4pair2ZCiZQ214mock_generator15call_parametersZQ23stdt9allocator1ZQ23stdt4pair2ZCiZQ214mock_generator15call_parameters8iteratorZRQ33stdt4list2ZQ23stdt4pair2ZCiZQ214mock_generator15call_parametersZQ23stdt9allocator1ZQ23stdt4pair2ZCiZQ214mock_generator15call_parameters8iteratorZPQ33stdt4list2ZQ23stdt4pair2ZCiZQ214mock_generator15call_parametersZQ23stdt9allocator1ZQ23stdt4pair2ZCiZQ214mock_generator15call_parameters8iteratorZRQ33stdt4list2ZQ23stdt4pair2ZCiZQ214mock_generator15call_parametersZQ23stdt9allocator1ZQ23stdt4pair2ZCiZQ214mock_generator15call_parameters8iteratorUiRCQ33stdt4list2ZQ23stdt4pair2ZCiZQ214mock_generator15call_parametersZQ23stdt9allocator1ZQ23stdt4pair2ZCiZQ214mock_generator15call_parameters8iterator
                0x0806fb94      0x54c mock_generator.o
                0x0806fb94                std::vector<std::list<std::pair<int const, mock_generator::call_parameters>, std::allocator<std::pair<int const, mock_generator::call_parameters> > >::iterator, std::allocator<std::list<std::pair<int const, mock_generator::call_parameters>, std::allocator<std::pair<int const, mock_generator::call_parameters> > >::iterator> >::_Insert_n(std::_Ptrit<std::list<std::pair<int const, mock_generator::call_parameters>, std::allocator<std::pair<int const, mock_generator::call_parameters> > >::iterator, int, std::list<std::pair<int const, mock_generator::call_parameters>, std::allocator<std::pair<int const, mock_generator::call_parameters> > >::iterator *, std::list<std::pair<int const, mock_generator::call_parameters>, std::allocator<std::pair<int const, mock_generator::call_parameters> > >::iterator &, std::list<std::pair<int const, mock_generator::call_parameters>, std::allocator<std::pair<int const, mock_generator::call_parameters> > >::iterator *, std::list<std::pair<int const, mock_generator::call_parameters>, std::allocator<std::pair<int const, mock_generator::call_parameters> > >::iterator &>, unsigned int, std::list<std::pair<int const, mock_generator::call_parameters>, std::allocator<std::pair<int const, mock_generator::call_parameters> > >::iterator const &)
 .gnu.linkonce.t._Copy_opt__H2ZQ23stdt6_Ptrit6ZQ33stdt4list2ZQ23stdt4pair2ZCiZQ214mock_generator15call_parametersZQ23stdt9allocator1ZQ23stdt4pair2ZCiZQ214mock_generator15call_parameters8iteratorZiZPQ33stdt4list2ZQ23stdt4pair2ZCiZQ214mock_generator15call_parametersZQ23stdt9allocator1ZQ23stdt4pair2ZCiZQ214mock_generator15call_parameters8iteratorZRQ33stdt4list2ZQ23stdt4pair2ZCiZQ214mock_generator15call_parametersZQ23stdt9allocator1ZQ23stdt4pair2ZCiZQ214mock_generator15call_parameters8iteratorZPQ33stdt4list2ZQ23stdt4pair2ZCiZQ214mock_generator15call_parametersZQ23stdt9allocator1ZQ23stdt4pair2ZCiZQ214mock_generator15call_parameters8iteratorZRQ33stdt4list2ZQ23stdt4pair2ZCiZQ214mock_generator15call_parametersZQ23stdt9allocator1ZQ23stdt4pair2ZCiZQ214mock_generator15call_parameters8iteratorZPQ33stdt4list2ZQ23stdt4pair2ZCiZQ214mock_generator15call_parametersZQ23stdt9allocator1ZQ23stdt4pair2ZCiZQ214mock_generator15call_parameters8iterator_3stdX01X01X11GQ23std27_Nonscalar_ptr_iterator_tag_X11
                0x080700e0       0x69 mock_generator.o
                0x080700e0                std::list<std::pair<int const, mock_generator::call_parameters>, std::allocator<std::pair<int const, mock_generator::call_parameters> > >::iterator * std::_Copy_opt<std::_Ptrit<std::list<std::pair<int const, mock_generator::call_parameters>, std::allocator<std::pair<int const, mock_generator::call_parameters> > >::iterator, int, std::list<std::pair<int const, mock_generator::call_parameters>, std::allocator<std::pair<int const, mock_generator::call_parameters> > >::iterator *, std::list<std::pair<int const, mock_generator::call_parameters>, std::allocator<std::pair<int const, mock_generator::call_parameters> > >::iterator &, std::list<std::pair<int const, mock_generator::call_parameters>, std::allocator<std::pair<int const, mock_generator::call_parameters> > >::iterator *, std::list<std::pair<int const, mock_generator::call_parameters>, std::allocator<std::pair<int const, mock_generator::call_parameters> > >::iterator &>, std::list<std::pair<int const, mock_generator::call_parameters>, std::allocator<std::pair<int const, mock_generator::call_parameters> > >::iterator *>(std::_Ptrit<std::list<std::pair<int const, mock_generator::call_parameters>, std::allocator<std::pair<int const, mock_generator::call_parameters> > >::iterator, int, std::list<std::pair<int const, mock_generator::call_parameters>, std::allocator<std::pair<int const, mock_generator::call_parameters> > >::iterator *, std::list<std::pair<int const, mock_generator::call_parameters>, std::allocator<std::pair<int const, mock_generator::call_parameters> > >::iterator &, std::list<std::pair<int const, mock_generator::call_parameters>, std::allocator<std::pair<int const, mock_generator::call_parameters> > >::iterator *, std::list<std::pair<int const, mock_generator::call_parameters>, std::allocator<std::pair<int const, mock_generator::call_parameters> > >::iterator &>, std::_Ptrit<std::list<std::pair<int const, mock_generator::call_parameters>, std::allocator<std::pair<int const, mock_generator::call_parameters> > >::iterator, int, std::list<std::pair<int const, mock_generator::call_parameters>, std::allocator<std::pair<int const, mock_generator::call_parameters> > >::iterator *, std::list<std::pair<int const, mock_generator::call_parameters>, std::allocator<std::pair<int const, mock_generator::call_parameters> > >::iterator &, std::list<std::pair<int const, mock_generator::call_parameters>, std::allocator<std::pair<int const, mock_generator::call_parameters> > >::iterator *, std::list<std::pair<int const, mock_generator::call_parameters>, std::allocator<std::pair<int const, mock_generator::call_parameters> > >::iterator &>, std::list<std::pair<int const, mock_generator::call_parameters>, std::allocator<std::pair<int const, mock_generator::call_parameters> > >::iterator *, std::_Nonscalar_ptr_iterator_tag)
 *fill*         0x08070149        0x3 37008
 .gnu.linkonce.t.copy__H2ZQ23stdt6_Ptrit6ZQ33stdt4list2ZQ23stdt4pair2ZCiZQ214mock_generator15call_parametersZQ23stdt9allocator1ZQ23stdt4pair2ZCiZQ214mock_generator15call_parameters8iteratorZiZPQ33stdt4list2ZQ23stdt4pair2ZCiZQ214mock_generator15call_parametersZQ23stdt9allocator1ZQ23stdt4pair2ZCiZQ214mock_generator15call_parameters8iteratorZRQ33stdt4list2ZQ23stdt4pair2ZCiZQ214mock_generator15call_parametersZQ23stdt9allocator1ZQ23stdt4pair2ZCiZQ214mock_generator15call_parameters8iteratorZPQ33stdt4list2ZQ23stdt4pair2ZCiZQ214mock_generator15call_parametersZQ23stdt9allocator1ZQ23stdt4pair2ZCiZQ214mock_generator15call_parameters8iteratorZRQ33stdt4list2ZQ23stdt4pair2ZCiZQ214mock_generator15call_parametersZQ23stdt9allocator1ZQ23stdt4pair2ZCiZQ214mock_generator15call_parameters8iteratorZPQ33stdt4list2ZQ23stdt4pair2ZCiZQ214mock_generator15call_parametersZQ23stdt9allocator1ZQ23stdt4pair2ZCiZQ214mock_generator15call_parameters8iterator_3stdX01X01X11_X11
                0x0807014c       0x73 mock_generator.o
                0x0807014c                std::list<std::pair<int const, mock_generator::call_parameters>, std::allocator<std::pair<int const, mock_generator::call_parameters> > >::iterator * std::copy<std::_Ptrit<std::list<std::pair<int const, mock_generator::call_parameters>, std::allocator<std::pair<int const, mock_generator::call_parameters> > >::iterator, int, std::list<std::pair<int const, mock_generator::call_parameters>, std::allocator<std::pair<int const, mock_generator::call_parameters> > >::iterator *, std::list<std::pair<int const, mock_generator::call_parameters>, std::allocator<std::pair<int const, mock_generator::call_parameters> > >::iterator &, std::list<std::pair<int const, mock_generator::call_parameters>, std::allocator<std::pair<int const, mock_generator::call_parameters> > >::iterator *, std::list<std::pair<int const, mock_generator::call_parameters>, std::allocator<std::pair<int const, mock_generator::call_parameters> > >::iterator &>, std::list<std::pair<int const, mock_generator::call_parameters>, std::allocator<std::pair<int const, mock_generator::call_parameters> > >::iterator *>(std::_Ptrit<std::list<std::pair<int const, mock_generator::call_parameters>, std::allocator<std::pair<int const, mock_generator::call_parameters> > >::iterator, int, std::list<std::pair<int const, mock_generator::call_parameters>, std::allocator<std::pair<int const, mock_generator::call_parameters> > >::iterator *, std::list<std::pair<int const, mock_generator::call_parameters>, std::allocator<std::pair<int const, mock_generator::call_parameters> > >::iterator &, std::list<std::pair<int const, mock_generator::call_parameters>, std::allocator<std::pair<int const, mock_generator::call_parameters> > >::iterator *, std::list<std::pair<int const, mock_generator::call_parameters>, std::allocator<std::pair<int const, mock_generator::call_parameters> > >::iterator &>, std::_Ptrit<std::list<std::pair<int const, mock_generator::call_parameters>, std::allocator<std::pair<int const, mock_generator::call_parameters> > >::iterator, int, std::list<std::pair<int const, mock_generator::call_parameters>, std::allocator<std::pair<int const, mock_generator::call_parameters> > >::iterator *, std::list<std::pair<int const, mock_generator::call_parameters>, std::allocator<std::pair<int const, mock_generator::call_parameters> > >::iterator &, std::list<std::pair<int const, mock_generator::call_parameters>, std::allocator<std::pair<int const, mock_generator::call_parameters> > >::iterator *, std::list<std::pair<int const, mock_generator::call_parameters>, std::allocator<std::pair<int const, mock_generator::call_parameters> > >::iterator &>, std::list<std::pair<int const, mock_generator::call_parameters>, std::allocator<std::pair<int const, mock_generator::call_parameters> > >::iterator *)
 *fill*         0x080701bf        0x1 37008
 .gnu.linkonce.t.erase__Q23stdt6vector2ZQ33stdt4list2ZQ23stdt4pair2ZCiZQ214mock_generator15call_parametersZQ23stdt9allocator1ZQ23stdt4pair2ZCiZQ214mock_generator15call_parameters8iteratorZQ23stdt9allocator1ZQ33stdt4list2ZQ23stdt4pair2ZCiZQ214mock_generator15call_parametersZQ23stdt9allocator1ZQ23stdt4pair2ZCiZQ214mock_generator15call_parameters8iteratorGQ23stdt6_Ptrit6ZQ33stdt4list2ZQ23stdt4pair2ZCiZQ214mock_generator15call_parametersZQ23stdt9allocator1ZQ23stdt4pair2ZCiZQ214mock_generator15call_parameters8iteratorZiZPQ33stdt4list2ZQ23stdt4pair2ZCiZQ214mock_generator15call_parametersZQ23stdt9allocator1ZQ23stdt4pair2ZCiZQ214mock_generator15call_parameters8iteratorZRQ33stdt4list2ZQ23stdt4pair2ZCiZQ214mock_generator15call_parametersZQ23stdt9allocator1ZQ23stdt4pair2ZCiZQ214mock_generator15call_parameters8iteratorZPQ33stdt4list2ZQ23stdt4pair2ZCiZQ214mock_generator15call_parametersZQ23stdt9allocator1ZQ23stdt4pair2ZCiZQ214mock_generator15call_parameters8iteratorZRQ33stdt4list2ZQ23stdt4pair2ZCiZQ214mock_generator15call_parametersZQ23stdt9allocator1ZQ23stdt4pair2ZCiZQ214mock_generator15call_parameters8iteratorT1
                0x080701c0       0xb1 mock_generator.o
                0x080701c0                std::vector<std::list<std::pair<int const, mock_generator::call_parameters>, std::allocator<std::pair<int const, mock_generator::call_parameters> > >::iterator, std::allocator<std::list<std::pair<int const, mock_generator::call_parameters>, std::allocator<std::pair<int const, mock_generator::call_parameters> > >::iterator> >::erase(std::_Ptrit<std::list<std::pair<int const, mock_generator::call_parameters>, std::allocator<std::pair<int const, mock_generator::call_parameters> > >::iterator, int, std::list<std::pair<int const, mock_generator::call_parameters>, std::allocator<std::pair<int const, mock_generator::call_parameters> > >::iterator *, std::list<std::pair<int const, mock_generator::call_parameters>, std::allocator<std::pair<int const, mock_generator::call_parameters> > >::iterator &, std::list<std::pair<int const, mock_generator::call_parameters>, std::allocator<std::pair<int const, mock_generator::call_parameters> > >::iterator *, std::list<std::pair<int const, mock_generator::call_parameters>, std::allocator<std::pair<int const, mock_generator::call_parameters> > >::iterator &>, std::_Ptrit<std::list<std::pair<int const, mock_generator::call_parameters>, std::allocator<std::pair<int const, mock_generator::call_parameters> > >::iterator, int, std::list<std::pair<int const, mock_generator::call_parameters>, std::allocator<std::pair<int const, mock_generator::call_parameters> > >::iterator *, std::list<std::pair<int const, mock_generator::call_parameters>, std::allocator<std::pair<int const, mock_generator::call_parameters> > >::iterator &, std::list<std::pair<int const, mock_generator::call_parameters>, std::allocator<std::pair<int const, mock_generator::call_parameters> > >::iterator *, std::list<std::pair<int const, mock_generator::call_parameters>, std::allocator<std::pair<int const, mock_generator::call_parameters> > >::iterator &>)
 *fill*         0x08070271        0x3 37008
 .gnu.linkonce.t.resize__Q23stdt6vector2ZQ33stdt4list2ZQ23stdt4pair2ZCiZQ214mock_generator15call_parametersZQ23stdt9allocator1ZQ23stdt4pair2ZCiZQ214mock_generator15call_parameters8iteratorZQ23stdt9allocator1ZQ33stdt4list2ZQ23stdt4pair2ZCiZQ214mock_generator15call_parametersZQ23stdt9allocator1ZQ23stdt4pair2ZCiZQ214mock_generator15call_parameters8iteratorUiGQ33stdt4list2ZQ23stdt4pair2ZCiZQ214mock_generator15call_parametersZQ23stdt9allocator1ZQ23stdt4pair2ZCiZQ214mock_generator15call_parameters8iterator
                0x08070274       0xbf mock_generator.o
                0x08070274                std::vector<std::list<std::pair<int const, mock_generator::call_parameters>, std::allocator<std::pair<int const, mock_generator::call_parameters> > >::iterator, std::allocator<std::list<std::pair<int const, mock_generator::call_parameters>, std::allocator<std::pair<int const, mock_generator::call_parameters> > >::iterator> >::resize(unsigned int, std::list<std::pair<int const, mock_generator::call_parameters>, std::allocator<std::pair<int const, mock_generator::call_parameters> > >::iterator)
 *fill*         0x08070333        0x1 37008
 .gnu.linkonce.t.__eq__H2ZQ23stdt4pair2ZCiZQ214mock_generator15call_parametersZQ23stdt4pair2ZCiZQ214mock_generator15call_parameters_3stdRCQ23stdt9allocator1ZX01RCQ23stdt9allocator1ZX11_b
                0x08070334       0x12 mock_generator.o
                0x08070334                bool std::operator==<std::pair<int const, mock_generator::call_parameters>, std::pair<int const, mock_generator::call_parameters> >(std::allocator<std::pair<int const, mock_generator::call_parameters> > const &, std::allocator<std::pair<int const, mock_generator::call_parameters> > const &)
 *fill*         0x08070346        0x2 37008
 .gnu.linkonce.t.max_size__CQ23stdt9allocator1ZQ23stdt4pair2ZCiZQ214mock_generator15call_parameters
                0x08070348       0x24 mock_generator.o
                0x08070348                std::allocator<std::pair<int const, mock_generator::call_parameters> >::max_size(void) const
 .gnu.linkonce.t.max_size__CQ23stdt4list2ZQ23stdt4pair2ZCiZQ214mock_generator15call_parametersZQ23stdt9allocator1ZQ23stdt4pair2ZCiZQ214mock_generator15call_parameters
                0x0807036c       0x24 mock_generator.o
                0x0807036c                std::list<std::pair<int const, mock_generator::call_parameters>, std::allocator<std::pair<int const, mock_generator::call_parameters> > >::max_size(void) const
 .gnu.linkonce.t._Incsize__Q23stdt4list2ZQ23stdt4pair2ZCiZQ214mock_generator15call_parametersZQ23stdt9allocator1ZQ23stdt4pair2ZCiZQ214mock_generator15call_parametersUi
                0x08070390      0x140 mock_generator.o
                0x08070390                std::list<std::pair<int const, mock_generator::call_parameters>, std::allocator<std::pair<int const, mock_generator::call_parameters> > >::_Incsize(unsigned int)
 .gnu.linkonce.t._Iter_cat__H1ZQ33stdt4list2ZQ23stdt4pair2ZCiZQ214mock_generator15call_parametersZQ23stdt9allocator1ZQ23stdt4pair2ZCiZQ214mock_generator15call_parameters8iterator_3stdRCX01_Q33stdt15iterator_traits1ZX0117iterator_category
                0x080704d0       0x19 mock_generator.o
                0x080704d0                std::iterator_traits<std::list<std::pair<int const, mock_generator::call_parameters>, std::allocator<std::pair<int const, mock_generator::call_parameters> > >::iterator>::iterator_category std::_Iter_cat<std::list<std::pair<int const, mock_generator::call_parameters>, std::allocator<std::pair<int const, mock_generator::call_parameters> > >::iterator>(std::list<std::pair<int const, mock_generator::call_parameters>, std::allocator<std::pair<int const, mock_generator::call_parameters> > >::iterator const &)
 *fill*         0x080704e9        0x3 37008
 .gnu.linkonce.t.__Q33stdt9_List_nod2ZQ23stdt4pair2ZCiZQ214mock_generator15call_parametersZQ23stdt9allocator1ZQ23stdt4pair2ZCiZQ214mock_generator15call_parameters5_NodePvT1RCQ23stdt4pair2ZCiZQ214mock_generator15call_parameters
                0x080704ec       0x31 mock_generator.o
                0x080704ec                std::_List_nod<std::pair<int const, mock_generator::call_parameters>, std::allocator<std::pair<int const, mock_generator::call_parameters> > >::_Node::_Node(void *, void *, std::pair<int const, mock_generator::call_parameters> const &)
 *fill*         0x0807051d        0x3 37008
 .gnu.linkonce.t._Buynode__Q23stdt4list2ZQ23stdt4pair2ZCiZQ214mock_generator15call_parametersZQ23stdt9allocator1ZQ23stdt4pair2ZCiZQ214mock_generator15call_parametersPQ33stdt9_List_nod2ZQ23stdt4pair2ZCiZQ214mock_generator15call_parametersZQ23stdt9allocator1ZQ23stdt4pair2ZCiZQ214mock_generator15call_parameters5_NodeT1RCQ23stdt4pair2ZCiZQ214mock_generator15call_parameters
                0x08070520      0x140 mock_generator.o
                0x08070520                std::list<std::pair<int const, mock_generator::call_parameters>, std::allocator<std::pair<int const, mock_generator::call_parameters> > >::_Buynode(std::_List_nod<std::pair<int const, mock_generator::call_parameters>, std::allocator<std::pair<int const, mock_generator::call_parameters> > >::_Node *, std::_List_nod<std::pair<int const, mock_generator::call_parameters>, std::allocator<std::pair<int const, mock_generator::call_parameters> > >::_Node *, std::pair<int const, mock_generator::call_parameters> const &)
 .gnu.linkonce.t._Insert__Q23stdt4list2ZQ23stdt4pair2ZCiZQ214mock_generator15call_parametersZQ23stdt9allocator1ZQ23stdt4pair2ZCiZQ214mock_generator15call_parametersGQ33stdt4list2ZQ23stdt4pair2ZCiZQ214mock_generator15call_parametersZQ23stdt9allocator1ZQ23stdt4pair2ZCiZQ214mock_generator15call_parameters8iteratorRCQ23stdt4pair2ZCiZQ214mock_generator15call_parameters
                0x08070660       0xa0 mock_generator.o
                0x08070660                std::list<std::pair<int const, mock_generator::call_parameters>, std::allocator<std::pair<int const, mock_generator::call_parameters> > >::_Insert(std::list<std::pair<int const, mock_generator::call_parameters>, std::allocator<std::pair<int const, mock_generator::call_parameters> > >::iterator, std::pair<int const, mock_generator::call_parameters> const &)
 .gnu.linkonce.t.__mm__Q33stdt4list2ZQ23stdt4pair2ZCiZQ214mock_generator15call_parametersZQ23stdt9allocator1ZQ23stdt4pair2ZCiZQ214mock_generator15call_parameters8iterator
                0x08070700       0x2e mock_generator.o
                0x08070700                std::list<std::pair<int const, mock_generator::call_parameters>, std::allocator<std::pair<int const, mock_generator::call_parameters> > >::iterator::operator--(void)
 *fill*         0x0807072e        0x2 37008
 .gnu.linkonce.t._Insert__H1ZQ33stdt4list2ZQ23stdt4pair2ZCiZQ214mock_generator15call_parametersZQ23stdt9allocator1ZQ23stdt4pair2ZCiZQ214mock_generator15call_parameters8iterator_Q23stdt4list2ZQ23stdt4pair2ZCiZQ214mock_generator15call_parametersZQ23stdt9allocator1ZQ23stdt4pair2ZCiZQ214mock_generator15call_parametersGQ33stdt4list2ZQ23stdt4pair2ZCiZQ214mock_generator15call_parametersZQ23stdt9allocator1ZQ23stdt4pair2ZCiZQ214mock_generator15call_parameters8iteratorX00X00GQ23std20forward_iterator_tag_v
                0x08070730      0x14f mock_generator.o
                0x08070730                void std::list<std::pair<int const, mock_generator::call_parameters>, std::allocator<std::pair<int const, mock_generator::call_parameters> > >::_Insert<std::list<std::pair<int const, mock_generator::call_parameters>, std::allocator<std::pair<int const, mock_generator::call_parameters> > >::iterator>(std::list<std::pair<int const, mock_generator::call_parameters>, std::allocator<std::pair<int const, mock_generator::call_parameters> > >::iterator, std::list<std::pair<int const, mock_generator::call_parameters>, std::allocator<std::pair<int const, mock_generator::call_parameters> > >::iterator, std::list<std::pair<int const, mock_generator::call_parameters>, std::allocator<std::pair<int const, mock_generator::call_parameters> > >::iterator, std::forward_iterator_tag)
 *fill*         0x0807087f        0x1 37008
 .gnu.linkonce.t.insert__H1ZQ33stdt4list2ZQ23stdt4pair2ZCiZQ214mock_generator15call_parametersZQ23stdt9allocator1ZQ23stdt4pair2ZCiZQ214mock_generator15call_parameters8iterator_Q23stdt4list2ZQ23stdt4pair2ZCiZQ214mock_generator15call_parametersZQ23stdt9allocator1ZQ23stdt4pair2ZCiZQ214mock_generator15call_parametersGQ33stdt4list2ZQ23stdt4pair2ZCiZQ214mock_generator15call_parametersZQ23stdt9allocator1ZQ23stdt4pair2ZCiZQ214mock_generator15call_parameters8iteratorX00X00_v
                0x08070880       0x4b mock_generator.o
                0x08070880                void std::list<std::pair<int const, mock_generator::call_parameters>, std::allocator<std::pair<int const, mock_generator::call_parameters> > >::insert<std::list<std::pair<int const, mock_generator::call_parameters>, std::allocator<std::pair<int const, mock_generator::call_parameters> > >::iterator>(std::list<std::pair<int const, mock_generator::call_parameters>, std::allocator<std::pair<int const, mock_generator::call_parameters> > >::iterator, std::list<std::pair<int const, mock_generator::call_parameters>, std::allocator<std::pair<int const, mock_generator::call_parameters> > >::iterator, std::list<std::pair<int const, mock_generator::call_parameters>, std::allocator<std::pair<int const, mock_generator::call_parameters> > >::iterator)
 *fill*         0x080708cb        0x1 37008
 .gnu.linkonce.t._Splice__Q23stdt4list2ZQ23stdt4pair2ZCiZQ214mock_generator15call_parametersZQ23stdt9allocator1ZQ23stdt4pair2ZCiZQ214mock_generator15call_parametersGQ33stdt4list2ZQ23stdt4pair2ZCiZQ214mock_generator15call_parametersZQ23stdt9allocator1ZQ23stdt4pair2ZCiZQ214mock_generator15call_parameters8iteratorRQ23stdt4list2ZQ23stdt4pair2ZCiZQ214mock_generator15call_parametersZQ23stdt9allocator1ZQ23stdt4pair2ZCiZQ214mock_generator15call_parametersT1T1Ui
                0x080708cc      0x27c mock_generator.o
                0x080708cc                std::list<std::pair<int const, mock_generator::call_parameters>, std::allocator<std::pair<int const, mock_generator::call_parameters> > >::_Splice(std::list<std::pair<int const, mock_generator::call_parameters>, std::allocator<std::pair<int const, mock_generator::call_parameters> > >::iterator, std::list<std::pair<int const, mock_generator::call_parameters>, std::allocator<std::pair<int const, mock_generator::call_parameters> > > &, std::list<std::pair<int const, mock_generator::call_parameters>, std::allocator<std::pair<int const, mock_generator::call_parameters> > >::iterator, std::list<std::pair<int const, mock_generator::call_parameters>, std::allocator<std::pair<int const, mock_generator::call_parameters> > >::iterator, unsigned int)
 .gnu.linkonce.t.splice__Q23stdt4list2ZQ23stdt4pair2ZCiZQ214mock_generator15call_parametersZQ23stdt9allocator1ZQ23stdt4pair2ZCiZQ214mock_generator15call_parametersGQ33stdt4list2ZQ23stdt4pair2ZCiZQ214mock_generator15call_parametersZQ23stdt9allocator1ZQ23stdt4pair2ZCiZQ214mock_generator15call_parameters8iteratorRQ23stdt4list2ZQ23stdt4pair2ZCiZQ214mock_generator15call_parametersZQ23stdt9allocator1ZQ23stdt4pair2ZCiZQ214mock_generator15call_parametersT1
                0x08070b48       0xc1 mock_generator.o
                0x08070b48                std::list<std::pair<int const, mock_generator::call_parameters>, std::allocator<std::pair<int const, mock_generator::call_parameters> > >::splice(std::list<std::pair<int const, mock_generator::call_parameters>, std::allocator<std::pair<int const, mock_generator::call_parameters> > >::iterator, std::list<std::pair<int const, mock_generator::call_parameters>, std::allocator<std::pair<int const, mock_generator::call_parameters> > > &, std::list<std::pair<int const, mock_generator::call_parameters>, std::allocator<std::pair<int const, mock_generator::call_parameters> > >::iterator)
 *fill*         0x08070c09        0x3 37008
 .gnu.linkonce.t.__Q23stdt4pair2ZQ33stdt4list2ZQ23stdt4pair2ZCiZQ214mock_generator15call_parametersZQ23stdt9allocator1ZQ23stdt4pair2ZCiZQ214mock_generator15call_parameters8iteratorZbRCQ33stdt4list2ZQ23stdt4pair2ZCiZQ214mock_generator15call_parametersZQ23stdt9allocator1ZQ23stdt4pair2ZCiZQ214mock_generator15call_parameters8iteratorRCb
                0x08070c0c       0x25 mock_generator.o
                0x08070c0c                std::pair<std::list<std::pair<int const, mock_generator::call_parameters>, std::allocator<std::pair<int const, mock_generator::call_parameters> > >::iterator, bool>::pair(std::list<std::pair<int const, mock_generator::call_parameters>, std::allocator<std::pair<int const, mock_generator::call_parameters> > >::iterator const &, bool const &)
 *fill*         0x08070c31        0x3 37008
 .gnu.linkonce.t.insert__Q23stdt4list2ZQ23stdt4pair2ZCiZQ214mock_generator15call_parametersZQ23stdt9allocator1ZQ23stdt4pair2ZCiZQ214mock_generator15call_parametersGQ33stdt4list2ZQ23stdt4pair2ZCiZQ214mock_generator15call_parametersZQ23stdt9allocator1ZQ23stdt4pair2ZCiZQ214mock_generator15call_parameters8iteratorRCQ23stdt4pair2ZCiZQ214mock_generator15call_parameters
                0x08070c34       0x4b mock_generator.o
                0x08070c34                std::list<std::pair<int const, mock_generator::call_parameters>, std::allocator<std::pair<int const, mock_generator::call_parameters> > >::insert(std::list<std::pair<int const, mock_generator::call_parameters>, std::allocator<std::pair<int const, mock_generator::call_parameters> > >::iterator, std::pair<int const, mock_generator::call_parameters> const &)
 *fill*         0x08070c7f        0x1 37008
 .gnu.linkonce.t.insert__Q23stdt5_Hash1ZQ23stdt12_Hmap_traits5ZiZQ214mock_generator15call_parametersZQ23stdt12hash_compare2ZiZQ23stdt4less1ZiZQ23stdt9allocator1ZQ23stdt4pair2ZCiZQ214mock_generator15call_parametersb0RCQ23stdt4pair2ZCiZQ214mock_generator15call_parameters
                0x08070c80      0x54a mock_generator.o
                0x08070c80                std::_Hash<std::_Hmap_traits<int, mock_generator::call_parameters, std::hash_compare<int, std::less<int> >, std::allocator<std::pair<int const, mock_generator::call_parameters> >, false> >::insert(std::pair<int const, mock_generator::call_parameters> const &)
 *fill*         0x080711ca        0x2 37008
 .gnu.linkonce.t.begin__Q23stdt5_Hash1ZQ23stdt12_Hmap_traits5ZiZQ214mock_generator15call_parametersZQ23stdt12hash_compare2ZiZQ23stdt4less1ZiZQ23stdt9allocator1ZQ23stdt4pair2ZCiZQ214mock_generator15call_parametersb0
                0x080711cc       0x2b mock_generator.o
                0x080711cc                std::_Hash<std::_Hmap_traits<int, mock_generator::call_parameters, std::hash_compare<int, std::less<int> >, std::allocator<std::pair<int const, mock_generator::call_parameters> >, false> >::begin(void)
 *fill*         0x080711f7        0x1 37008
 .gnu.linkonce.t.__rf__CQ33stdt4list2ZQ23stdt4pair2ZCiZQ214mock_generator15call_parametersZQ23stdt9allocator1ZQ23stdt4pair2ZCiZQ214mock_generator15call_parameters8iterator
                0x080711f8       0x21 mock_generator.o
                0x080711f8                std::list<std::pair<int const, mock_generator::call_parameters>, std::allocator<std::pair<int const, mock_generator::call_parameters> > >::iterator::operator->(void) const
 *fill*         0x08071219        0x3 37008
 .gnu.linkonce.t.__Q23stdt4pair2ZQ33stdt4list2ZQ23stdt4pair2ZCiZQ214mock_generator15call_parametersZQ23stdt9allocator1ZQ23stdt4pair2ZCiZQ214mock_generator15call_parameters8iteratorZQ33stdt4list2ZQ23stdt4pair2ZCiZQ214mock_generator15call_parametersZQ23stdt9allocator1ZQ23stdt4pair2ZCiZQ214mock_generator15call_parameters8iteratorRCQ33stdt4list2ZQ23stdt4pair2ZCiZQ214mock_generator15call_parametersZQ23stdt9allocator1ZQ23stdt4pair2ZCiZQ214mock_generator15call_parameters8iteratorT1
                0x0807121c       0x2b mock_generator.o
                0x0807121c                std::pair<std::list<std::pair<int const, mock_generator::call_parameters>, std::allocator<std::pair<int const, mock_generator::call_parameters> > >::iterator, std::list<std::pair<int const, mock_generator::call_parameters>, std::allocator<std::pair<int const, mock_generator::call_parameters> > >::iterator>::pair(std::list<std::pair<int const, mock_generator::call_parameters>, std::allocator<std::pair<int const, mock_generator::call_parameters> > >::iterator const &, std::list<std::pair<int const, mock_generator::call_parameters>, std::allocator<std::pair<int const, mock_generator::call_parameters> > >::iterator const &)
 *fill*         0x08071247        0x1 37008
 .gnu.linkonce.t.equal_range__Q23stdt5_Hash1ZQ23stdt12_Hmap_traits5ZiZQ214mock_generator15call_parametersZQ23stdt12hash_compare2ZiZQ23stdt4less1ZiZQ23stdt9allocator1ZQ23stdt4pair2ZCiZQ214mock_generator15call_parametersb0RCi
                0x08071248      0x1f2 mock_generator.o
                0x08071248                std::_Hash<std::_Hmap_traits<int, mock_generator::call_parameters, std::hash_compare<int, std::less<int> >, std::allocator<std::pair<int const, mock_generator::call_parameters> >, false> >::equal_range(int const &)
 *fill*         0x0807143a        0x2 37008
 .gnu.linkonce.t._Distance2__H2ZQ33stdt4list2ZQ23stdt4pair2ZCiZQ214mock_generator15call_parametersZQ23stdt9allocator1ZQ23stdt4pair2ZCiZQ214mock_generator15call_parameters8iteratorZUi_3stdX01X01RX11GQ23std26bidirectional_iterator_tag_v
                0x0807143c       0x53 mock_generator.o
                0x0807143c                void std::_Distance2<std::list<std::pair<int const, mock_generator::call_parameters>, std::allocator<std::pair<int const, mock_generator::call_parameters> > >::iterator, unsigned int>(std::list<std::pair<int const, mock_generator::call_parameters>, std::allocator<std::pair<int const, mock_generator::call_parameters> > >::iterator, std::list<std::pair<int const, mock_generator::call_parameters>, std::allocator<std::pair<int const, mock_generator::call_parameters> > >::iterator, unsigned int &, std::bidirectional_iterator_tag)
 *fill*         0x0807148f        0x1 37008
 .gnu.linkonce.t._Distance__H2ZQ33stdt4list2ZQ23stdt4pair2ZCiZQ214mock_generator15call_parametersZQ23stdt9allocator1ZQ23stdt4pair2ZCiZQ214mock_generator15call_parameters8iteratorZUi_3stdX01X01RX11_v
                0x08071490       0x52 mock_generator.o
                0x08071490                void std::_Distance<std::list<std::pair<int const, mock_generator::call_parameters>, std::allocator<std::pair<int const, mock_generator::call_parameters> > >::iterator, unsigned int>(std::list<std::pair<int const, mock_generator::call_parameters>, std::allocator<std::pair<int const, mock_generator::call_parameters> > >::iterator, std::list<std::pair<int const, mock_generator::call_parameters>, std::allocator<std::pair<int const, mock_generator::call_parameters> > >::iterator, unsigned int &)
 *fill*         0x080714e2        0x2 37008
 .gnu.linkonce.t.clear__Q23stdt4list2ZQ23stdt4pair2ZCiZQ214mock_generator15call_parametersZQ23stdt9allocator1ZQ23stdt4pair2ZCiZQ214mock_generator15call_parameters
                0x080714e4       0x70 mock_generator.o
                0x080714e4                std::list<std::pair<int const, mock_generator::call_parameters>, std::allocator<std::pair<int const, mock_generator::call_parameters> > >::clear(void)
 .gnu.linkonce.t.insert__Q23stdt6vector2ZQ33stdt4list2ZQ23stdt4pair2ZCiZQ214mock_generator15call_parametersZQ23stdt9allocator1ZQ23stdt4pair2ZCiZQ214mock_generator15call_parameters8iteratorZQ23stdt9allocator1ZQ33stdt4list2ZQ23stdt4pair2ZCiZQ214mock_generator15call_parametersZQ23stdt9allocator1ZQ23stdt4pair2ZCiZQ214mock_generator15call_parameters8iteratorGQ23stdt6_Ptrit6ZQ33stdt4list2ZQ23stdt4pair2ZCiZQ214mock_generator15call_parametersZQ23stdt9allocator1ZQ23stdt4pair2ZCiZQ214mock_generator15call_parameters8iteratorZiZPQ33stdt4list2ZQ23stdt4pair2ZCiZQ214mock_generator15call_parametersZQ23stdt9allocator1ZQ23stdt4pair2ZCiZQ214mock_generator15call_parameters8iteratorZRQ33stdt4list2ZQ23stdt4pair2ZCiZQ214mock_generator15call_parametersZQ23stdt9allocator1ZQ23stdt4pair2ZCiZQ214mock_generator15call_parameters8iteratorZPQ33stdt4list2ZQ23stdt4pair2ZCiZQ214mock_generator15call_parametersZQ23stdt9allocator1ZQ23stdt4pair2ZCiZQ214mock_generator15call_parameters8iteratorZRQ33stdt4list2ZQ23stdt4pair2ZCiZQ214mock_generator15call_parametersZQ23stdt9allocator1ZQ23stdt4pair2ZCiZQ214mock_generator15call_parameters8iteratorUiRCQ33stdt4list2ZQ23stdt4pair2ZCiZQ214mock_generator15call_parametersZQ23stdt9allocator1ZQ23stdt4pair2ZCiZQ214mock_generator15call_parameters8iterator
                0x08071554       0x3c mock_generator.o
                0x08071554                std::vector<std::list<std::pair<int const, mock_generator::call_parameters>, std::allocator<std::pair<int const, mock_generator::call_parameters> > >::iterator, std::allocator<std::list<std::pair<int const, mock_generator::call_parameters>, std::allocator<std::pair<int const, mock_generator::call_parameters> > >::iterator> >::insert(std::_Ptrit<std::list<std::pair<int const, mock_generator::call_parameters>, std::allocator<std::pair<int const, mock_generator::call_parameters> > >::iterator, int, std::list<std::pair<int const, mock_generator::call_parameters>, std::allocator<std::pair<int const, mock_generator::call_parameters> > >::iterator *, std::list<std::pair<int const, mock_generator::call_parameters>, std::allocator<std::pair<int const, mock_generator::call_parameters> > >::iterator &, std::list<std::pair<int const, mock_generator::call_parameters>, std::allocator<std::pair<int const, mock_generator::call_parameters> > >::iterator *, std::list<std::pair<int const, mock_generator::call_parameters>, std::allocator<std::pair<int const, mock_generator::call_parameters> > >::iterator &>, unsigned int, std::list<std::pair<int const, mock_generator::call_parameters>, std::allocator<std::pair<int const, mock_generator::call_parameters> > >::iterator const &)
 .gnu.linkonce.t._Assign_n__Q23stdt6vector2ZQ33stdt4list2ZQ23stdt4pair2ZCiZQ214mock_generator15call_parametersZQ23stdt9allocator1ZQ23stdt4pair2ZCiZQ214mock_generator15call_parameters8iteratorZQ23stdt9allocator1ZQ33stdt4list2ZQ23stdt4pair2ZCiZQ214mock_generator15call_parametersZQ23stdt9allocator1ZQ23stdt4pair2ZCiZQ214mock_generator15call_parameters8iteratorUiRCQ33stdt4list2ZQ23stdt4pair2ZCiZQ214mock_generator15call_parametersZQ23stdt9allocator1ZQ23stdt4pair2ZCiZQ214mock_generator15call_parameters8iterator
                0x08071590       0x7a mock_generator.o
                0x08071590                std::vector<std::list<std::pair<int const, mock_generator::call_parameters>, std::allocator<std::pair<int const, mock_generator::call_parameters> > >::iterator, std::allocator<std::list<std::pair<int const, mock_generator::call_parameters>, std::allocator<std::pair<int const, mock_generator::call_parameters> > >::iterator> >::_Assign_n(unsigned int, std::list<std::pair<int const, mock_generator::call_parameters>, std::allocator<std::pair<int const, mock_generator::call_parameters> > >::iterator const &)
 *fill*         0x0807160a        0x2 37008
 .gnu.linkonce.t.assign__Q23stdt6vector2ZQ33stdt4list2ZQ23stdt4pair2ZCiZQ214mock_generator15call_parametersZQ23stdt9allocator1ZQ23stdt4pair2ZCiZQ214mock_generator15call_parameters8iteratorZQ23stdt9allocator1ZQ33stdt4list2ZQ23stdt4pair2ZCiZQ214mock_generator15call_parametersZQ23stdt9allocator1ZQ23stdt4pair2ZCiZQ214mock_generator15call_parameters8iteratorUiRCQ33stdt4list2ZQ23stdt4pair2ZCiZQ214mock_generator15call_parametersZQ23stdt9allocator1ZQ23stdt4pair2ZCiZQ214mock_generator15call_parameters8iterator
                0x0807160c       0x23 mock_generator.o
                0x0807160c                std::vector<std::list<std::pair<int const, mock_generator::call_parameters>, std::allocator<std::pair<int const, mock_generator::call_parameters> > >::iterator, std::allocator<std::list<std::pair<int const, mock_generator::call_parameters>, std::allocator<std::pair<int const, mock_generator::call_parameters> > >::iterator> >::assign(unsigned int, std::list<std::pair<int const, mock_generator::call_parameters>, std::allocator<std::pair<int const, mock_generator::call_parameters> > >::iterator const &)
 *fill*         0x0807162f        0x1 37008
 .gnu.linkonce.t.clear__Q23stdt5_Hash1ZQ23stdt12_Hmap_traits5ZiZQ214mock_generator15call_parametersZQ23stdt12hash_compare2ZiZQ23stdt4less1ZiZQ23stdt9allocator1ZQ23stdt4pair2ZCiZQ214mock_generator15call_parametersb0
                0x08071630       0x51 mock_generator.o
                0x08071630                std::_Hash<std::_Hmap_traits<int, mock_generator::call_parameters, std::hash_compare<int, std::less<int> >, std::allocator<std::pair<int const, mock_generator::call_parameters> >, false> >::clear(void)
 *fill*         0x08071681        0x3 37008
 .gnu.linkonce.t.erase__Q23stdt5_Hash1ZQ23stdt12_Hmap_traits5ZiZQ214mock_generator15call_parametersZQ23stdt12hash_compare2ZiZQ23stdt4less1ZiZQ23stdt9allocator1ZQ23stdt4pair2ZCiZQ214mock_generator15call_parametersb0GQ33stdt4list2ZQ23stdt4pair2ZCiZQ214mock_generator15call_parametersZQ23stdt9allocator1ZQ23stdt4pair2ZCiZQ214mock_generator15call_parameters8iterator
                0x08071684       0xc7 mock_generator.o
                0x08071684                std::_Hash<std::_Hmap_traits<int, mock_generator::call_parameters, std::hash_compare<int, std::less<int> >, std::allocator<std::pair<int const, mock_generator::call_parameters> >, false> >::erase(std::list<std::pair<int const, mock_generator::call_parameters>, std::allocator<std::pair<int const, mock_generator::call_parameters> > >::iterator)
 *fill*         0x0807174b        0x1 37008
 .gnu.linkonce.t.erase__Q23stdt5_Hash1ZQ23stdt12_Hmap_traits5ZiZQ214mock_generator15call_parametersZQ23stdt12hash_compare2ZiZQ23stdt4less1ZiZQ23stdt9allocator1ZQ23stdt4pair2ZCiZQ214mock_generator15call_parametersb0GQ33stdt4list2ZQ23stdt4pair2ZCiZQ214mock_generator15call_parametersZQ23stdt9allocator1ZQ23stdt4pair2ZCiZQ214mock_generator15call_parameters8iteratorT1
                0x0807174c       0xf8 mock_generator.o
                0x0807174c                std::_Hash<std::_Hmap_traits<int, mock_generator::call_parameters, std::hash_compare<int, std::less<int> >, std::allocator<std::pair<int const, mock_generator::call_parameters> >, false> >::erase(std::list<std::pair<int const, mock_generator::call_parameters>, std::allocator<std::pair<int const, mock_generator::call_parameters> > >::iterator, std::list<std::pair<int const, mock_generator::call_parameters>, std::allocator<std::pair<int const, mock_generator::call_parameters> > >::iterator)
 .gnu.linkonce.t.erase__Q23stdt5_Hash1ZQ23stdt12_Hmap_traits5ZiZQ214mock_generator15call_parametersZQ23stdt12hash_compare2ZiZQ23stdt4less1ZiZQ23stdt9allocator1ZQ23stdt4pair2ZCiZQ214mock_generator15call_parametersb0RCi
                0x08071844       0x76 mock_generator.o
                0x08071844                std::_Hash<std::_Hmap_traits<int, mock_generator::call_parameters, std::hash_compare<int, std::less<int> >, std::allocator<std::pair<int const, mock_generator::call_parameters> >, false> >::erase(int const &)
 *fill*         0x080718ba        0x2 37008
 .gnu.linkonce.t.fill__H2ZQ23stdt6_Ptrit6ZUcZiZPUcZRUcZPUcZRUcZUc_3stdX01X01RCX11_v
                0x080718bc       0x5c mock_generator.o
                0x080718bc                void std::fill<std::_Ptrit<unsigned char, int, unsigned char *, unsigned char &, unsigned char *, unsigned char &>, unsigned char>(std::_Ptrit<unsigned char, int, unsigned char *, unsigned char &, unsigned char *, unsigned char &>, std::_Ptrit<unsigned char, int, unsigned char *, unsigned char &, unsigned char *, unsigned char &>, unsigned char const &)
 .gnu.linkonce.t._Insert_n__Q23stdt6vector2ZUcZQ23stdt9allocator1ZUcGQ23stdt6_Ptrit6ZUcZiZPUcZRUcZPUcZRUcUiRCUc
                0x08071918      0x508 mock_generator.o
                0x08071918                std::vector<unsigned char, std::allocator<unsigned char> >::_Insert_n(std::_Ptrit<unsigned char, int, unsigned char *, unsigned char &, unsigned char *, unsigned char &>, unsigned int, unsigned char const &)
 .gnu.linkonce.t.insert__Q23stdt6vector2ZUcZQ23stdt9allocator1ZUcGQ23stdt6_Ptrit6ZUcZiZPUcZRUcZPUcZRUcUiRCUc
                0x08071e20       0x3c mock_generator.o
                0x08071e20                std::vector<unsigned char, std::allocator<unsigned char> >::insert(std::_Ptrit<unsigned char, int, unsigned char *, unsigned char &, unsigned char *, unsigned char &>, unsigned int, unsigned char const &)
 .gnu.linkonce.t.__Q23stdt6vector2ZUcZQ23stdt9allocator1ZUc
                0x08071e5c       0x42 mock_generator.o
                0x08071e5c                std::vector<unsigned char, std::allocator<unsigned char> >::vector(void)
 *fill*         0x08071e9e        0x2 37008
 .gnu.linkonce.t.insert__Q23stdt6vector2ZUcZQ23stdt9allocator1ZUcGQ23stdt6_Ptrit6ZUcZiZPUcZRUcZPUcZRUcRCUc
                0x08071ea0       0xa4 mock_generator.o
                0x08071ea0                std::vector<unsigned char, std::allocator<unsigned char> >::insert(std::_Ptrit<unsigned char, int, unsigned char *, unsigned char &, unsigned char *, unsigned char &>, unsigned char const &)
 .gnu.linkonce.t.push_back__Q23stdt6vector2ZUcZQ23stdt9allocator1ZUcRCUc
                0x08071f44       0x74 mock_generator.o
                0x08071f44                std::vector<unsigned char, std::allocator<unsigned char> >::push_back(unsigned char const &)
 .gnu.linkonce.t.__Q23stdt6vector2ZUcZQ23stdt9allocator1ZUcRCQ23stdt6vector2ZUcZQ23stdt9allocator1ZUc
                0x08071fb8       0xac mock_generator.o
                0x08071fb8                std::vector<unsigned char, std::allocator<unsigned char> >::vector(std::vector<unsigned char, std::allocator<unsigned char> > const &)
 .gnu.linkonce.t.bytes_of_type__H1Zi_14mock_generatorX01_Q23stdt6vector2ZUcZQ23stdt9allocator1ZUc
                0x08072064       0xeb mock_generator.o
                0x08072064                std::vector<unsigned char, std::allocator<unsigned char> > mock_generator::bytes_of_type<int>(int)
 *fill*         0x0807214f        0x1 37008
 .gnu.linkonce.t.rbegin__Q23stdt6vector2ZUcZQ23stdt9allocator1ZUc
                0x08072150       0x3d mock_generator.o
                0x08072150                std::vector<unsigned char, std::allocator<unsigned char> >::rbegin(void)
 *fill*         0x0807218d        0x3 37008
 .gnu.linkonce.t.bytes_of_type__H1ZUs_14mock_generatorX01_Q23stdt6vector2ZUcZQ23stdt9allocator1ZUc
                0x08072190       0xfc mock_generator.o
                0x08072190                std::vector<unsigned char, std::allocator<unsigned char> > mock_generator::bytes_of_type<unsigned short>(unsigned short)
 .gnu.linkonce.t._._Q23stdt8numpunct1Zc
                0x0807228c       0x6d mock_generator.o
                0x0807228c                std::numpunct<char>::~numpunct(void)
 *fill*         0x080722f9        0x3 37008
 .gnu.linkonce.t.do_falsename__CQ23stdt8numpunct1Zc
                0x080722fc       0x2d mock_generator.o
                0x080722fc                std::numpunct<char>::do_falsename(void) const
 *fill*         0x08072329        0x3 37008
 .gnu.linkonce.t.do_truename__CQ23stdt8numpunct1Zc
                0x0807232c       0x2d mock_generator.o
                0x0807232c                std::numpunct<char>::do_truename(void) const
 *fill*         0x08072359        0x3 37008
 .gnu.linkonce.t._._Q23stdt7num_put2ZcZQ23stdt19ostreambuf_iterator2ZcZQ23stdt11char_traits1Zc
                0x0807235c       0x26 mock_generator.o
                0x0807235c                std::num_put<char, std::ostreambuf_iterator<char, std::char_traits<char> > >::~num_put(void)
 *fill*         0x08072382        0x2 37008
 .gnu.linkonce.t.do_put__CQ23stdt7num_put2ZcZQ23stdt19ostreambuf_iterator2ZcZQ23stdt11char_traits1ZcGQ23stdt19ostreambuf_iterator2ZcZQ23stdt11char_traits1ZcRQ23std8ios_basecl
                0x08072384       0x94 mock_generator.o
                0x08072384                std::num_put<char, std::ostreambuf_iterator<char, std::char_traits<char> > >::do_put(std::ostreambuf_iterator<char, std::char_traits<char> >, std::ios_base &, char, long) const
 .gnu.linkonce.t.falsename__CQ23stdt8numpunct1Zc
                0x08072418       0x3c mock_generator.o
                0x08072418                std::numpunct<char>::falsename(void) const
 .gnu.linkonce.t.truename__CQ23stdt8numpunct1Zc
                0x08072454       0x3c mock_generator.o
                0x08072454                std::numpunct<char>::truename(void) const
 .gnu.linkonce.t._Put__Q23stdt7num_put2ZcZQ23stdt19ostreambuf_iterator2ZcZQ23stdt11char_traits1ZcGQ23stdt19ostreambuf_iterator2ZcZQ23stdt11char_traits1ZcPCcUi
                0x08072490       0x70 mock_generator.o
                0x08072490                std::num_put<char, std::ostreambuf_iterator<char, std::char_traits<char> > >::_Put(std::ostreambuf_iterator<char, std::char_traits<char> >, char const *, unsigned int)
 .gnu.linkonce.t.do_put__CQ23stdt7num_put2ZcZQ23stdt19ostreambuf_iterator2ZcZQ23stdt11char_traits1ZcGQ23stdt19ostreambuf_iterator2ZcZQ23stdt11char_traits1ZcRQ23std8ios_basecb
                0x08072500      0x308 mock_generator.o
                0x08072500                std::num_put<char, std::ostreambuf_iterator<char, std::char_traits<char> > >::do_put(std::ostreambuf_iterator<char, std::char_traits<char> >, std::ios_base &, char, bool) const
 .gnu.linkonce.t.do_put__CQ23stdt7num_put2ZcZQ23stdt19ostreambuf_iterator2ZcZQ23stdt11char_traits1ZcGQ23stdt19ostreambuf_iterator2ZcZQ23stdt11char_traits1ZcRQ23std8ios_basecx
                0x08072808       0x95 mock_generator.o
                0x08072808                std::num_put<char, std::ostreambuf_iterator<char, std::char_traits<char> > >::do_put(std::ostreambuf_iterator<char, std::char_traits<char> >, std::ios_base &, char, long long) const
 *fill*         0x0807289d        0x3 37008
 .gnu.linkonce.t.do_put__CQ23stdt7num_put2ZcZQ23stdt19ostreambuf_iterator2ZcZQ23stdt11char_traits1ZcGQ23stdt19ostreambuf_iterator2ZcZQ23stdt11char_traits1ZcRQ23std8ios_basecUx
                0x080728a0       0x95 mock_generator.o
                0x080728a0                std::num_put<char, std::ostreambuf_iterator<char, std::char_traits<char> > >::do_put(std::ostreambuf_iterator<char, std::char_traits<char> >, std::ios_base &, char, unsigned long long) const
 *fill*         0x08072935        0x3 37008
 .gnu.linkonce.t.do_put__CQ23stdt7num_put2ZcZQ23stdt19ostreambuf_iterator2ZcZQ23stdt11char_traits1ZcGQ23stdt19ostreambuf_iterator2ZcZQ23stdt11char_traits1ZcRQ23std8ios_basecr
                0x08072938      0x259 mock_generator.o
                0x08072938                std::num_put<char, std::ostreambuf_iterator<char, std::char_traits<char> > >::do_put(std::ostreambuf_iterator<char, std::char_traits<char> >, std::ios_base &, char, long double) const
 *fill*         0x08072b91        0x3 37008
 .gnu.linkonce.t.do_put__CQ23stdt7num_put2ZcZQ23stdt19ostreambuf_iterator2ZcZQ23stdt11char_traits1ZcGQ23stdt19ostreambuf_iterator2ZcZQ23stdt11char_traits1ZcRQ23std8ios_basecPCv
                0x08072b94      0x198 mock_generator.o
                0x08072b94                std::num_put<char, std::ostreambuf_iterator<char, std::char_traits<char> > >::do_put(std::ostreambuf_iterator<char, std::char_traits<char> >, std::ios_base &, char, void const *) const
 .gnu.linkonce.t.setp__Q23stdt15basic_streambuf2ZcZQ23stdt11char_traits1ZcPcN21
                0x08072d2c       0x20 mock_generator.o
                0x08072d2c                std::basic_streambuf<char, std::char_traits<char> >::setp(char *, char *, char *)
 .gnu.linkonce.t.overflow__Q23stdt15basic_stringbuf3ZcZQ23stdt11char_traits1ZcZQ23stdt9allocator1Zci
                0x08072d4c      0x368 mock_generator.o
                0x08072d4c                std::basic_stringbuf<char, std::char_traits<char>, std::allocator<char> >::overflow(int)
 .gnu.linkonce.t.gbump__Q23stdt15basic_streambuf2ZcZQ23stdt11char_traits1Zci
                0x080730b4       0x1f mock_generator.o
                0x080730b4                std::basic_streambuf<char, std::char_traits<char> >::gbump(int)
 *fill*         0x080730d3        0x1 37008
 .gnu.linkonce.t.pbackfail__Q23stdt15basic_stringbuf3ZcZQ23stdt11char_traits1ZcZQ23stdt9allocator1Zci
                0x080730d4      0x138 mock_generator.o
                0x080730d4                std::basic_stringbuf<char, std::char_traits<char>, std::allocator<char> >::pbackfail(int)
 .gnu.linkonce.t.showmanyc__Q23stdt15basic_streambuf2ZcZQ23stdt11char_traits1Zc
                0x0807320c        0xc mock_generator.o
                0x0807320c                std::basic_streambuf<char, std::char_traits<char> >::showmanyc(void)
 .gnu.linkonce.t.underflow__Q23stdt15basic_stringbuf3ZcZQ23stdt11char_traits1ZcZQ23stdt9allocator1Zc
                0x08073218      0x153 mock_generator.o
                0x08073218                std::basic_stringbuf<char, std::char_traits<char>, std::allocator<char> >::underflow(void)
 *fill*         0x0807336b        0x1 37008
 .gnu.linkonce.t._Gninc__Q23stdt15basic_streambuf2ZcZQ23stdt11char_traits1Zc
                0x0807336c       0x13 mock_generator.o
                0x0807336c                std::basic_streambuf<char, std::char_traits<char> >::_Gninc(void)
 *fill*         0x0807337f        0x1 37008
 .gnu.linkonce.t.underflow__Q23stdt15basic_streambuf2ZcZQ23stdt11char_traits1Zc
                0x08073380       0x1a mock_generator.o
                0x08073380                std::basic_streambuf<char, std::char_traits<char> >::underflow(void)
 *fill*         0x0807339a        0x2 37008
 .gnu.linkonce.t.uflow__Q23stdt15basic_streambuf2ZcZQ23stdt11char_traits1Zc
                0x0807339c       0x7c mock_generator.o
                0x0807339c                std::basic_streambuf<char, std::char_traits<char> >::uflow(void)
 .gnu.linkonce.t.xsgetn__Q23stdt15basic_streambuf2ZcZQ23stdt11char_traits1ZcPci
                0x08073418      0x133 mock_generator.o
                0x08073418                std::basic_streambuf<char, std::char_traits<char> >::xsgetn(char *, int)
 *fill*         0x0807354b        0x1 37008
 .gnu.linkonce.t.__Q23stdt4fpos1Z9_Mbstatetl
                0x0807354c       0x3d mock_generator.o
                0x0807354c                std::fpos<_Mbstatet>::fpos(long)
 *fill*         0x08073589        0x3 37008
 .gnu.linkonce.t.seekoff__Q23stdt15basic_stringbuf3ZcZQ23stdt11char_traits1ZcZQ23stdt9allocator1ZclQ33stdt5_Iosb1Zi8_SeekdirQ33stdt5_Iosb1Zi9_Openmode
                0x0807358c      0x2c0 mock_generator.o
                0x0807358c                std::basic_stringbuf<char, std::char_traits<char>, std::allocator<char> >::seekoff(long, std::_Iosb<int>::_Seekdir, std::_Iosb<int>::_Openmode)
 .gnu.linkonce.t.__opl__CQ23stdt4fpos1Z9_Mbstatet
                0x0807384c       0x18 mock_generator.o
                0x0807384c                std::fpos<_Mbstatet>::operator long(void) const
 .gnu.linkonce.t.seekpos__Q23stdt15basic_stringbuf3ZcZQ23stdt11char_traits1ZcZQ23stdt9allocator1ZcGQ23stdt4fpos1Z9_MbstatetQ33stdt5_Iosb1Zi9_Openmode
                0x08073864      0x218 mock_generator.o
                0x08073864                std::basic_stringbuf<char, std::char_traits<char>, std::allocator<char> >::seekpos(std::fpos<_Mbstatet>, std::_Iosb<int>::_Openmode)
 .gnu.linkonce.t.setbuf__Q23stdt15basic_streambuf2ZcZQ23stdt11char_traits1ZcPci
                0x08073a7c        0xa mock_generator.o
                0x08073a7c                std::basic_streambuf<char, std::char_traits<char> >::setbuf(char *, int)
 *fill*         0x08073a86        0x2 37008
 .gnu.linkonce.t.imbue__Q23stdt15basic_streambuf2ZcZQ23stdt11char_traits1ZcRCQ23std6locale
                0x08073a88        0x8 mock_generator.o
                0x08073a88                std::basic_streambuf<char, std::char_traits<char> >::imbue(std::locale const &)
 .gnu.linkonce.t.pbackfail__Q23stdt15basic_streambuf2ZcZQ23stdt11char_traits1Zci
                0x08073a90       0x1a mock_generator.o
                0x08073a90                std::basic_streambuf<char, std::char_traits<char> >::pbackfail(int)
 *fill*         0x08073aaa        0x2 37008
 .gnu.linkonce.t.seekoff__Q23stdt15basic_streambuf2ZcZQ23stdt11char_traits1ZclQ33stdt5_Iosb1Zi8_SeekdirQ33stdt5_Iosb1Zi9_Openmode
                0x08073aac       0x2f mock_generator.o
                0x08073aac                std::basic_streambuf<char, std::char_traits<char> >::seekoff(long, std::_Iosb<int>::_Seekdir, std::_Iosb<int>::_Openmode)
 *fill*         0x08073adb        0x1 37008
 .gnu.linkonce.t.seekpos__Q23stdt15basic_streambuf2ZcZQ23stdt11char_traits1ZcGQ23stdt4fpos1Z9_MbstatetQ33stdt5_Iosb1Zi9_Openmode
                0x08073adc       0x2f mock_generator.o
                0x08073adc                std::basic_streambuf<char, std::char_traits<char> >::seekpos(std::fpos<_Mbstatet>, std::_Iosb<int>::_Openmode)
 *fill*         0x08073b0b        0x1 37008
 .gnu.linkonce.t.__tfQ23stdt9basic_ios2ZcZQ23stdt11char_traits1Zc
                0x08073b0c       0x3a mock_generator.o
                0x08073b0c                std::basic_ios<char, std::char_traits<char> > type_info function
 *fill*         0x08073b46        0x2 37008
 .gnu.linkonce.t.__tfQ23stdt13basic_ostream2ZcZQ23stdt11char_traits1Zc
                0x08073b48       0x3a mock_generator.o
                0x08073b48                std::basic_ostream<char, std::char_traits<char> > type_info function
 *fill*         0x08073b82        0x2 37008
 .gnu.linkonce.t.__tf19generator_exception
                0x08073b84       0x2e mock_generator.o
                0x08073b84                generator_exception type_info function
 *fill*         0x08073bb2        0x2 37008
 .gnu.linkonce.t.__tfQ23stdt15basic_streambuf2ZcZQ23stdt11char_traits1Zc
                0x08073bb4       0x3a mock_generator.o
                0x08073bb4                std::basic_streambuf<char, std::char_traits<char> > type_info function
 *fill*         0x08073bee        0x2 37008
 .gnu.linkonce.t.__tfQ23stdt15basic_stringbuf3ZcZQ23stdt11char_traits1ZcZQ23stdt9allocator1Zc
                0x08073bf0       0x3a mock_generator.o
                0x08073bf0                std::basic_stringbuf<char, std::char_traits<char>, std::allocator<char> > type_info function
 *fill*         0x08073c2a        0x2 37008
 .gnu.linkonce.t.__tfQ23stdt19basic_ostringstream3ZcZQ23stdt11char_traits1ZcZQ23stdt9allocator1Zc
                0x08073c2c       0x3a mock_generator.o
                0x08073c2c                std::basic_ostringstream<char, std::char_traits<char>, std::allocator<char> > type_info function
 *fill*         0x08073c66        0x2 37008
 .gnu.linkonce.t.__tfQ23stdt7num_put2ZcZQ23stdt19ostreambuf_iterator2ZcZQ23stdt11char_traits1Zc
                0x08073c68       0x3a mock_generator.o
                0x08073c68                std::num_put<char, std::ostreambuf_iterator<char, std::char_traits<char> > > type_info function
 *fill*         0x08073ca2        0x2 37008
 .gnu.linkonce.t.__tfQ23stdt8numpunct1Zc
                0x08073ca4       0x3a mock_generator.o
                0x08073ca4                std::numpunct<char> type_info function
 *fill*         0x08073cde        0x2 37008
 .gnu.linkonce.t.__tfQ23std6_Mutex
                0x08073ce0       0x2e mock_generator.o
                0x08073ce0                std::_Mutex type_info function
 *fill*         0x08073d0e        0x2 37008
 .gnu.linkonce.t.__nw__FUiPv
                0x08073d10       0x79 mock_generator.o
                0x08073d10                operator new(unsigned int, void *)
 *fill*         0x08073d89        0x3 37008
 .gnu.linkonce.t.eq__Q23stdt11char_traits1ZcRCcT1
                0x08073d8c       0x1a mock_generator.o
                0x08073d8c                std::char_traits<char>::eq(char const &, char const &)
 *fill*         0x08073da6        0x2 37008
 .gnu.linkonce.t.to_char_type__Q23stdt11char_traits1ZcRCi
                0x08073da8       0x12 mock_generator.o
                0x08073da8                std::char_traits<char>::to_char_type(int const &)
 *fill*         0x08073dba        0x2 37008
 .gnu.linkonce.t.to_int_type__Q23stdt11char_traits1ZcRCc
                0x08073dbc       0x12 mock_generator.o
                0x08073dbc                std::char_traits<char>::to_int_type(char const &)
 *fill*         0x08073dce        0x2 37008
 .gnu.linkonce.t.eq_int_type__Q23stdt11char_traits1ZcRCiT1
                0x08073dd0       0x1a mock_generator.o
                0x08073dd0                std::char_traits<char>::eq_int_type(int const &, int const &)
 *fill*         0x08073dea        0x2 37008
 .gnu.linkonce.t.eof__Q23stdt11char_traits1Zc
                0x08073dec        0xe mock_generator.o
                0x08073dec                std::char_traits<char>::eof(void)
 *fill*         0x08073dfa        0x2 37008
 .gnu.linkonce.t.not_eof__Q23stdt11char_traits1ZcRCi
                0x08073dfc       0x35 mock_generator.o
                0x08073dfc                std::char_traits<char>::not_eof(int const &)
 *fill*         0x08073e31        0x3 37008
 .gnu.linkonce.t._Destroy__H1Zc_3stdPX01_v
                0x08073e34        0x8 mock_generator.o
                0x08073e34                void std::_Destroy<char>(char *)
 .gnu.linkonce.t.__Q23std12length_errorRCQ23std12length_error
                0x08073e3c       0x5f mock_generator.o
                0x08073e3c                std::length_error::length_error(std::length_error const &)
 *fill*         0x08073e9b        0x1 37008
 .gnu.linkonce.t.__Q23std12length_errorRCQ23stdt12basic_string3ZcZQ23stdt11char_traits1ZcZQ23stdt9allocator1Zc
                0x08073e9c       0x5d mock_generator.o
                0x08073e9c                std::length_error::length_error(std::basic_string<char, std::char_traits<char>, std::allocator<char> > const &)
 *fill*         0x08073ef9        0x3 37008
 .gnu.linkonce.t._._Q23std12length_error
                0x08073efc       0x25 mock_generator.o
                0x08073efc                std::length_error::~length_error(void)
 *fill*         0x08073f21        0x3 37008
 .gnu.linkonce.t.__Q23std8bad_castRCQ23std8bad_cast
                0x08073f24       0x5f mock_generator.o
                0x08073f24                std::bad_cast::bad_cast(std::bad_cast const &)
 *fill*         0x08073f83        0x1 37008
 .gnu.linkonce.t.__Q23std8bad_cast
                0x08073f84       0xa5 mock_generator.o
                0x08073f84                std::bad_cast::bad_cast(void)
 *fill*         0x08074029        0x3 37008
 .gnu.linkonce.t._._Q23std8bad_cast
                0x0807402c       0x89 mock_generator.o
                0x0807402c                std::bad_cast::~bad_cast(void)
 *fill*         0x080740b5        0x3 37008
 .gnu.linkonce.t.localeconv
                0x080740b8        0xe mock_generator.o
 *fill*         0x080740c6        0x2 37008
 .gnu.linkonce.t._Getlconv__CQ23std8_Locinfo
                0x080740c8       0x1a mock_generator.o
                0x080740c8                std::_Locinfo::_Getlconv(void) const
 *fill*         0x080740e2        0x2 37008
 .gnu.linkonce.t._Getfalse__CQ23std8_Locinfo
                0x080740e4        0xf mock_generator.o
                0x080740e4                std::_Locinfo::_Getfalse(void) const
 *fill*         0x080740f3        0x1 37008
 .gnu.linkonce.t._Gettrue__CQ23std8_Locinfo
                0x080740f4        0xf mock_generator.o
                0x080740f4                std::_Locinfo::_Gettrue(void) const
 *fill*         0x08074103        0x1 37008
 .gnu.linkonce.t.__Q33std6locale2idUi
                0x08074104       0x11 mock_generator.o
                0x08074104                std::locale::id::id(unsigned int)
 *fill*         0x08074115        0x3 37008
 .gnu.linkonce.t.__opUi__Q33std6locale2id
                0x08074118       0x83 mock_generator.o
                0x08074118                std::locale::id::operator unsigned int(void)
 *fill*         0x0807419b        0x1 37008
 .gnu.linkonce.t._._Q33std6locale5facet
                0x0807419c       0x31 mock_generator.o
                0x0807419c                std::locale::facet::~facet(void)
 *fill*         0x080741cd        0x3 37008
 .gnu.linkonce.t.__Q33std6locale5facetUi
                0x080741d0       0x18 mock_generator.o
                0x080741d0                std::locale::facet::facet(unsigned int)
 .gnu.linkonce.t.__Q23std6locale
                0x080741e8       0x91 mock_generator.o
                0x080741e8                std::locale::locale(void)
 *fill*         0x08074279        0x3 37008
 .gnu.linkonce.t._._Q23std6locale
                0x0807427c       0xd0 mock_generator.o
                0x0807427c                std::locale::~locale(void)
 .gnu.linkonce.t.widen__CQ23stdt5ctype1Zcc
                0x0807434c       0x40 mock_generator.o
                0x0807434c                std::ctype<char>::widen(char) const
 .gnu.linkonce.t.use_facet__H1ZQ23stdt5ctype1Zc_3stdRCQ23std6locale_RCX01
                0x0807438c      0x18c mock_generator.o
                0x0807438c                std::ctype<char> const & std::use_facet<std::ctype<char> >(std::locale const &)
 .gnu.linkonce.t.__ad__3stdQ33stdt5_Iosb1Zi9_FmtflagsT1
                0x08074518       0x17 mock_generator.o
                0x08074518                std::operator&(std::_Iosb<int>::_Fmtflags, std::_Iosb<int>::_Fmtflags)
 *fill*         0x0807452f        0x1 37008
 .gnu.linkonce.t.__or__3stdQ33stdt5_Iosb1Zi9_FmtflagsT1
                0x08074530       0x17 mock_generator.o
                0x08074530                std::operator|(std::_Iosb<int>::_Fmtflags, std::_Iosb<int>::_Fmtflags)
 *fill*         0x08074547        0x1 37008
 .gnu.linkonce.t.__aor__3stdRQ33stdt5_Iosb1Zi8_IostateQ33stdt5_Iosb1Zi8_Iostate
                0x08074548       0x11 mock_generator.o
                0x08074548                std::operator|=(std::_Iosb<int>::_Iostate &, std::_Iosb<int>::_Iostate)
 *fill*         0x08074559        0x3 37008
 .gnu.linkonce.t.__ad__3stdQ33stdt5_Iosb1Zi9_OpenmodeT1
                0x0807455c       0x17 mock_generator.o
                0x0807455c                std::operator&(std::_Iosb<int>::_Openmode, std::_Iosb<int>::_Openmode)
 *fill*         0x08074573        0x1 37008
 .gnu.linkonce.t.__or__3stdQ33stdt5_Iosb1Zi9_OpenmodeT1
                0x08074574       0x17 mock_generator.o
                0x08074574                std::operator|(std::_Iosb<int>::_Openmode, std::_Iosb<int>::_Openmode)
 *fill*         0x0807458b        0x1 37008
 .gnu.linkonce.t.pow__3stddi
                0x0807458c       0x62 mock_generator.o
                0x0807458c                std::pow(double, int)
 *fill*         0x080745ee        0x2 37008
 .gnu.linkonce.t._._19generator_exception
                0x080745f0       0x3b mock_generator.o
                0x080745f0                generator_exception::~generator_exception(void)
 *fill*         0x0807462b        0x1 37008
 .gnu.linkonce.t.__19generator_exceptionRC19generator_exception
                0x0807462c       0x5b mock_generator.o
                0x0807462c                generator_exception::generator_exception(generator_exception const &)
 *fill*         0x08074687        0x1 37008
 .gnu.linkonce.t.__19generator_exceptionGQ23stdt12basic_string3ZcZQ23stdt11char_traits1ZcZQ23stdt9allocator1Zc
                0x08074688       0x8a mock_generator.o
                0x08074688                generator_exception::generator_exception(std::basic_string<char, std::char_traits<char>, std::allocator<char> >)
 *fill*         0x08074712        0x2 37008
 .gnu.linkonce.t.get_description__19generator_exception
                0x08074714       0x2a mock_generator.o
                0x08074714                generator_exception::get_description(void)
 *fill*         0x0807473e        0x2 37008
 .gnu.linkonce.t._._Q23stdt8hash_map4ZiZQ214mock_generator15call_parametersZQ23stdt12hash_compare2ZiZQ23stdt4less1ZiZQ23stdt9allocator1ZQ23stdt4pair2ZCiZQ214mock_generator15call_parameters
                0x08074740       0x22 mock_generator.o
                0x08074740                std::hash_map<int, mock_generator::call_parameters, std::hash_compare<int, std::less<int> >, std::allocator<std::pair<int const, mock_generator::call_parameters> > >::~hash_map(void)
 *fill*         0x08074762        0x2 37008
 .gnu.linkonce.t.accumulate__H2ZQ23stdt6_Ptrit6ZUxZiZPUxZRUxZPUxZRUxZf_3stdX01X01X11_X11
                0x08074764       0x90 mock_generator.o
                0x08074764                float std::accumulate<std::_Ptrit<unsigned long long, int, unsigned long long *, unsigned long long &, unsigned long long *, unsigned long long &>, float>(std::_Ptrit<unsigned long long, int, unsigned long long *, unsigned long long &, unsigned long long *, unsigned long long &>, std::_Ptrit<unsigned long long, int, unsigned long long *, unsigned long long &, unsigned long long *, unsigned long long &>, float)
 .gnu.linkonce.t.accumulate__H2ZQ23stdt6_Ptrit6ZUxZiZPUxZRUxZPUxZRUxZd_3stdX01X01X11_X11
                0x080747f4       0x90 mock_generator.o
                0x080747f4                double std::accumulate<std::_Ptrit<unsigned long long, int, unsigned long long *, unsigned long long &, unsigned long long *, unsigned long long &>, double>(std::_Ptrit<unsigned long long, int, unsigned long long *, unsigned long long &, unsigned long long *, unsigned long long &>, std::_Ptrit<unsigned long long, int, unsigned long long *, unsigned long long &, unsigned long long *, unsigned long long &>, double)
 .gnu.linkonce.t.max_element__H1ZQ23stdt6_Ptrit6ZUxZiZPUxZRUxZPUxZRUx_3stdX01X01_X01
                0x08074884       0xdc mock_generator.o
                0x08074884                std::_Ptrit<unsigned long long, int, unsigned long long *, unsigned long long &, unsigned long long *, unsigned long long &> std::max_element<std::_Ptrit<unsigned long long, int, unsigned long long *, unsigned long long &, unsigned long long *, unsigned long long &> >(std::_Ptrit<unsigned long long, int, unsigned long long *, unsigned long long &, unsigned long long *, unsigned long long &>, std::_Ptrit<unsigned long long, int, unsigned long long *, unsigned long long &, unsigned long long *, unsigned long long &>)
 .gnu.linkonce.t.min_element__H1ZQ23stdt6_Ptrit6ZUxZiZPUxZRUxZPUxZRUx_3stdX01X01_X01
                0x08074960       0xdc mock_generator.o
                0x08074960                std::_Ptrit<unsigned long long, int, unsigned long long *, unsigned long long &, unsigned long long *, unsigned long long &> std::min_element<std::_Ptrit<unsigned long long, int, unsigned long long *, unsigned long long &, unsigned long long *, unsigned long long &> >(std::_Ptrit<unsigned long long, int, unsigned long long *, unsigned long long &, unsigned long long *, unsigned long long &>, std::_Ptrit<unsigned long long, int, unsigned long long *, unsigned long long &, unsigned long long *, unsigned long long &>)
 .gnu.linkonce.t.__ls__H1ZQ23stdt11char_traits1Zc_3stdRQ23stdt13basic_ostream2ZcZX01PCc_RQ23stdt13basic_ostream2ZcZX01
                0x08074a3c      0x2ef mock_generator.o
                0x08074a3c                std::basic_ostream<char, std::char_traits<char> > & std::operator<<<std::char_traits<char> >(std::basic_ostream<char, std::char_traits<char> > &, char const *)
 *fill*         0x08074d2b        0x1 37008
 .gnu.linkonce.t.endl__H2ZcZQ23stdt11char_traits1Zc_3stdRQ23stdt13basic_ostream2ZX01ZX11_RQ23stdt13basic_ostream2ZX01ZX11
                0x08074d2c       0x41 mock_generator.o
                0x08074d2c                std::basic_ostream<char, std::char_traits<char> > & std::endl<char, std::char_traits<char> >(std::basic_ostream<char, std::char_traits<char> > &)
 *fill*         0x08074d6d        0x3 37008
 .gnu.linkonce.t.__ls__H3ZcZQ23stdt11char_traits1ZcZQ23stdt9allocator1Zc_3stdRQ23stdt13basic_ostream2ZX01ZX11RCQ23stdt12basic_string3ZX01ZX11ZX21_RQ23stdt13basic_ostream2ZX01ZX11
                0x08074d70      0x347 mock_generator.o
                0x08074d70                std::basic_ostream<char, std::char_traits<char> > & std::operator<<<char, std::char_traits<char>, std::allocator<char> >(std::basic_ostream<char, std::char_traits<char> > &, std::basic_string<char, std::char_traits<char>, std::allocator<char> > const &)
 *fill*         0x080750b7        0x1 37008
 .gnu.linkonce.t.advance__H2ZQ23stdt6_Ptrit6ZUcZiZPUcZRUcZPUcZRUcZQ214mock_generator4._55__3stdRX01X11_v
                0x080750b8       0x3a mock_generator.o
                0x080750b8                void std advance<std::_Ptrit<unsigned char, int, unsigned char *, unsigned char &, unsigned char *, unsigned char &>, mock_generator::._55>(std::_Ptrit<unsigned char, int, unsigned char *, unsigned char &, unsigned char *, unsigned char &> &, mock_generator::._55)
 *fill*         0x080750f2        0x2 37008
 .gnu.linkonce.t.__Q23stdt16reverse_iterator1ZQ23stdt6_Ptrit6ZUcZiZPUcZRUcZPUcZRUcRCQ23stdt16reverse_iterator1ZQ23stdt6_Ptrit6ZUcZiZPUcZRUcZPUcZRUc
                0x080750f4       0x3a mock_generator.o
                0x080750f4                std::reverse_iterator<std::_Ptrit<unsigned char, int, unsigned char *, unsigned char &, unsigned char *, unsigned char &> >::reverse_iterator(std::reverse_iterator<std::_Ptrit<unsigned char, int, unsigned char *, unsigned char &, unsigned char *, unsigned char &> > const &)
 *fill*         0x0807512e        0x2 37008
 .gnu.linkonce.t._Iter_cat__H1ZQ23stdt16reverse_iterator1ZQ23stdt6_Ptrit6ZUcZiZPUcZRUcZPUcZRUc_3stdRCX01_Q33stdt15iterator_traits1ZX0117iterator_category
                0x08075130       0x19 mock_generator.o
                0x08075130                std::iterator_traits<std::reverse_iterator<std::_Ptrit<unsigned char, int, unsigned char *, unsigned char &, unsigned char *, unsigned char &> > >::iterator_category std::_Iter_cat<std::reverse_iterator<std::_Ptrit<unsigned char, int, unsigned char *, unsigned char &, unsigned char *, unsigned char &> > >(std::reverse_iterator<std::_Ptrit<unsigned char, int, unsigned char *, unsigned char &, unsigned char *, unsigned char &> > const &)
 *fill*         0x08075149        0x3 37008
 .gnu.linkonce.t.advance__H2ZQ23stdt16reverse_iterator1ZQ23stdt6_Ptrit6ZUcZiZPUcZRUcZPUcZRUcZi_3stdRX01X11_v
                0x0807514c       0x3a mock_generator.o
                0x0807514c                void std::advance<std::reverse_iterator<std::_Ptrit<unsigned char, int, unsigned char *, unsigned char &, unsigned char *, unsigned char &> >, int>(std::reverse_iterator<std::_Ptrit<unsigned char, int, unsigned char *, unsigned char &, unsigned char *, unsigned char &> > &, int)
 *fill*         0x08075186        0x2 37008
 .gnu.linkonce.t.advance__H2ZQ23stdt16reverse_iterator1ZQ23stdt6_Ptrit6ZUcZiZPUcZRUcZPUcZRUcZUi_3stdRX01X11_v
                0x08075188       0x3a mock_generator.o
                0x08075188                void std::advance<std::reverse_iterator<std::_Ptrit<unsigned char, int, unsigned char *, unsigned char &, unsigned char *, unsigned char &> >, unsigned int>(std::reverse_iterator<std::_Ptrit<unsigned char, int, unsigned char *, unsigned char &, unsigned char *, unsigned char &> > &, unsigned int)
 *fill*         0x080751c2        0x2 37008
 .gnu.linkonce.t.__pl__H3ZcZQ23stdt11char_traits1ZcZQ23stdt9allocator1Zc_3stdRCQ23stdt12basic_string3ZX01ZX11ZX21PCX01_Q23stdt12basic_string3ZX01ZX11ZX21
                0x080751c4       0xa0 mock_generator.o
                0x080751c4                std::basic_string<char, std::char_traits<char>, std::allocator<char> > std::operator+<char, std::char_traits<char>, std::allocator<char> >(std::basic_string<char, std::char_traits<char>, std::allocator<char> > const &, char const *)
 .gnu.linkonce.t.__tfQ23std12length_error
                0x08075264       0x3a mock_generator.o
                0x08075264                std::length_error type_info function
 *fill*         0x0807529e        0x2 37008
 .gnu.linkonce.t.__tfQ23std8bad_cast
                0x080752a0       0x3a mock_generator.o
                0x080752a0                std::bad_cast type_info function
 *fill*         0x080752da        0x2 37008
 .gnu.linkonce.t.__tfQ33std6locale5facet
                0x080752dc       0x2e mock_generator.o
                0x080752dc                std::locale::facet type_info function
 *fill*         0x0807530a        0x2 37008
 .gnu.linkonce.t.__Q23std9exceptionRCQ23std9exception
                0x0807530c       0x15 mock_generator.o
                0x0807530c                std::exception::exception(std::exception const &)
 *fill*         0x08075321        0x3 37008
 .gnu.linkonce.t.__Q23std11logic_errorRCQ23std11logic_error
                0x08075324       0x93 mock_generator.o
                0x08075324                std::logic_error::logic_error(std::logic_error const &)
 *fill*         0x080753b7        0x1 37008
 .gnu.linkonce.t.__Q23std11logic_errorRCQ23stdt12basic_string3ZcZQ23stdt11char_traits1ZcZQ23stdt9allocator1Zc
                0x080753b8       0x8d mock_generator.o
                0x080753b8                std::logic_error::logic_error(std::basic_string<char, std::char_traits<char>, std::allocator<char> > const &)
 *fill*         0x08075445        0x3 37008
 .gnu.linkonce.t._._Q23std11logic_error
                0x08075448       0x36 mock_generator.o
                0x08075448                std::logic_error::~logic_error(void)
 *fill*         0x0807547e        0x2 37008
 .gnu.linkonce.t.what__CQ23std11logic_error
                0x08075480       0x89 mock_generator.o
                0x08075480                std::logic_error::what(void) const
 *fill*         0x08075509        0x3 37008
 .gnu.linkonce.t._Doraise__CQ23std12length_error
                0x0807550c       0x78 mock_generator.o
                0x0807550c                std::length_error::_Doraise(void) const
 .gnu.linkonce.t._Doraise__CQ23std8bad_cast
                0x08075584       0x78 mock_generator.o
                0x08075584                std::bad_cast::_Doraise(void) const
 .gnu.linkonce.t._Getcat__Q23stdt5ctype1ZcPPCQ33std6locale5facet
                0x080755fc       0xa0 mock_generator.o
                0x080755fc                std::ctype<char>::_Getcat(std::locale::facet const **)
 .gnu.linkonce.t._Iter_cat__H1ZQ23stdt6_Ptrit6ZUcZiZPUcZRUcZPUcZRUc_3stdRCX01_Q33stdt15iterator_traits1ZX0117iterator_category
                0x0807569c       0x19 mock_generator.o
                0x0807569c                std::iterator_traits<std::_Ptrit<unsigned char, int, unsigned char *, unsigned char &, unsigned char *, unsigned char &> >::iterator_category std::_Iter_cat<std::_Ptrit<unsigned char, int, unsigned char *, unsigned char &, unsigned char *, unsigned char &> >(std::_Ptrit<unsigned char, int, unsigned char *, unsigned char &, unsigned char *, unsigned char &> const &)
 *fill*         0x080756b5        0x3 37008
 .gnu.linkonce.t._Advance__H2ZQ23stdt6_Ptrit6ZUcZiZPUcZRUcZPUcZRUcZQ214mock_generator4._55__3stdRX01X11GQ23std26random_access_iterator_tag_v
                0x080756b8       0x27 mock_generator.o
                0x080756b8                void std _Advance<std::_Ptrit<unsigned char, int, unsigned char *, unsigned char &, unsigned char *, unsigned char &>, mock_generator::._55>(std::_Ptrit<unsigned char, int, unsigned char *, unsigned char &, unsigned char *, unsigned char &> &, mock_generator::._55, std::random_access_iterator_tag)
 *fill*         0x080756df        0x1 37008
 .gnu.linkonce.t._Advance__H2ZQ23stdt16reverse_iterator1ZQ23stdt6_Ptrit6ZUcZiZPUcZRUcZPUcZRUcZi_3stdRX01X11GQ23std26random_access_iterator_tag_v
                0x080756e0       0x27 mock_generator.o
                0x080756e0                void std::_Advance<std::reverse_iterator<std::_Ptrit<unsigned char, int, unsigned char *, unsigned char &, unsigned char *, unsigned char &> >, int>(std::reverse_iterator<std::_Ptrit<unsigned char, int, unsigned char *, unsigned char &, unsigned char *, unsigned char &> > &, int, std::random_access_iterator_tag)
 *fill*         0x08075707        0x1 37008
 .gnu.linkonce.t._Advance__H2ZQ23stdt16reverse_iterator1ZQ23stdt6_Ptrit6ZUcZiZPUcZRUcZPUcZRUcZUi_3stdRX01X11GQ23std26random_access_iterator_tag_v
                0x08075708       0x27 mock_generator.o
                0x08075708                void std::_Advance<std::reverse_iterator<std::_Ptrit<unsigned char, int, unsigned char *, unsigned char &, unsigned char *, unsigned char &> >, unsigned int>(std::reverse_iterator<std::_Ptrit<unsigned char, int, unsigned char *, unsigned char &, unsigned char *, unsigned char &> > &, unsigned int, std::random_access_iterator_tag)
 *fill*         0x0807572f        0x1 37008
 .gnu.linkonce.t.__tfQ23std11logic_error
                0x08075730       0x3a mock_generator.o
                0x08075730                std::logic_error type_info function
 *fill*         0x0807576a        0x2 37008
 .gnu.linkonce.t._Doraise__CQ23std11logic_error
                0x0807576c       0x78 mock_generator.o
                0x0807576c                std::logic_error::_Doraise(void) const
 .gnu.linkonce.t.__Q23stdt5ctype1ZcPCsbUi
                0x080757e4       0xf4 mock_generator.o
                0x080757e4                std::ctype<char>::ctype(short const *, bool, unsigned int)
 .gnu.linkonce.t.__tfQ23stdt5ctype1Zc
                0x080758d8       0x3a mock_generator.o
                0x080758d8                std::ctype<char> type_info function
 *fill*         0x08075912        0x2 37008
 .gnu.linkonce.t.__Q23std10ctype_baseUi
                0x08075914       0x5d mock_generator.o
                0x08075914                std::ctype_base::ctype_base(unsigned int)
 *fill*         0x08075971        0x3 37008
 .gnu.linkonce.t._._Q23std10ctype_base
                0x08075974       0x26 mock_generator.o
                0x08075974                std::ctype_base::~ctype_base(void)
 *fill*         0x0807599a        0x2 37008
 .gnu.linkonce.t._._Q23stdt5ctype1Zc
                0x0807599c       0x32 mock_generator.o
                0x0807599c                std::ctype<char>::~ctype(void)
 *fill*         0x080759ce        0x2 37008
 .gnu.linkonce.t._Init__Q23stdt5ctype1ZcRCQ23std8_Locinfo
                0x080759d0       0x3a mock_generator.o
                0x080759d0                std::ctype<char>::_Init(std::_Locinfo const &)
 *fill*         0x08075a0a        0x2 37008
 .gnu.linkonce.t._Tidy__Q23stdt5ctype1Zc
                0x08075a0c       0x49 mock_generator.o
                0x08075a0c                std::ctype<char>::_Tidy(void)
 *fill*         0x08075a55        0x3 37008
 .gnu.linkonce.t.do_tolower__CQ23stdt5ctype1Zcc
                0x08075a58       0x32 mock_generator.o
                0x08075a58                std::ctype<char>::do_tolower(char) const
 *fill*         0x08075a8a        0x2 37008
 .gnu.linkonce.t.do_tolower__CQ23stdt5ctype1ZcPcPCc
                0x08075a8c       0x48 mock_generator.o
                0x08075a8c                std::ctype<char>::do_tolower(char *, char const *) const
 .gnu.linkonce.t.do_toupper__CQ23stdt5ctype1Zcc
                0x08075ad4       0x32 mock_generator.o
                0x08075ad4                std::ctype<char>::do_toupper(char) const
 *fill*         0x08075b06        0x2 37008
 .gnu.linkonce.t.do_toupper__CQ23stdt5ctype1ZcPcPCc
                0x08075b08       0x48 mock_generator.o
                0x08075b08                std::ctype<char>::do_toupper(char *, char const *) const
 .gnu.linkonce.t.do_widen__CQ23stdt5ctype1Zcc
                0x08075b50       0x19 mock_generator.o
                0x08075b50                std::ctype<char>::do_widen(char) const
 *fill*         0x08075b69        0x3 37008
 .gnu.linkonce.t.do_widen__CQ23stdt5ctype1ZcPCcT1Pc
                0x08075b6c       0x32 mock_generator.o
                0x08075b6c                std::ctype<char>::do_widen(char const *, char const *, char *) const
 *fill*         0x08075b9e        0x2 37008
 .gnu.linkonce.t.do_narrow__CQ23stdt5ctype1Zccc
                0x08075ba0       0x1f mock_generator.o
                0x08075ba0                std::ctype<char>::do_narrow(char, char) const
 *fill*         0x08075bbf        0x1 37008
 .gnu.linkonce.t.do_narrow__CQ23stdt5ctype1ZcPCcT1cPc
                0x08075bc0       0x38 mock_generator.o
                0x08075bc0                std::ctype<char>::do_narrow(char const *, char const *, char, char *) const
 .gnu.linkonce.t.__tfQ23std10ctype_base
                0x08075bf8       0x3a mock_generator.o
                0x08075bf8                std::ctype_base type_info function
 *fill*         0x08075c32        0x2 37008
 .gnu.linkonce.t._Getctype__CQ23std8_Locinfo
                0x08075c34       0x62 mock_generator.o
                0x08075c34                std::_Locinfo::_Getctype(void) const
 *fill*         0x08075c96        0x2 37008
 .gnu.linkonce.t._Tolower__3stdiPCQ23std9_Ctypevec
                0x08075c98       0x24 mock_generator.o
                0x08075c98                std::_Tolower(int, std::_Ctypevec const *)
 .gnu.linkonce.t._Toupper__3stdiPCQ23std9_Ctypevec
                0x08075cbc       0x24 mock_generator.o
                0x08075cbc                std::_Toupper(int, std::_Ctypevec const *)
 .gnu.linkonce.t.empty__CQ23stdt12basic_string3ZcZQ23stdt11char_traits1ZcZQ23stdt9allocator1Zc
                0x08075ce0       0x16 main.o
                0x08075ce0                std::basic_string<char, std::char_traits<char>, std::allocator<char> >::empty(void) const
 *fill*         0x08075cf6        0x2 37008
 .gnu.linkonce.t.assign__Q23stdt12basic_string3ZcZQ23stdt11char_traits1ZcZQ23stdt9allocator1ZcRCQ23stdt12basic_string3ZcZQ23stdt11char_traits1ZcZQ23stdt9allocator1Zc
                0x08075cf8       0x26 main.o
                0x08075cf8                std::basic_string<char, std::char_traits<char>, std::allocator<char> >::assign(std::basic_string<char, std::char_traits<char>, std::allocator<char> > const &)
 *fill*         0x08075d1e        0x2 37008
 .gnu.linkonce.t.__as__Q23stdt12basic_string3ZcZQ23stdt11char_traits1ZcZQ23stdt9allocator1ZcRCQ23stdt12basic_string3ZcZQ23stdt11char_traits1ZcZQ23stdt9allocator1Zc
                0x08075d20       0x25 main.o
                0x08075d20                std::basic_string<char, std::char_traits<char>, std::allocator<char> >::operator=(std::basic_string<char, std::char_traits<char>, std::allocator<char> > const &)
 *fill*         0x08075d45        0x3 37008
 .gnu.linkonce.t.find_last_of__CQ23stdt12basic_string3ZcZQ23stdt11char_traits1ZcZQ23stdt9allocator1ZcPCcUiUi
                0x08075d48       0xae main.o
                0x08075d48                std::basic_string<char, std::char_traits<char>, std::allocator<char> >::find_last_of(char const *, unsigned int, unsigned int) const
 *fill*         0x08075df6        0x2 37008
 .gnu.linkonce.t.find_last_of__CQ23stdt12basic_string3ZcZQ23stdt11char_traits1ZcZQ23stdt9allocator1ZcPCcUi
                0x08075df8       0x38 main.o
                0x08075df8                std::basic_string<char, std::char_traits<char>, std::allocator<char> >::find_last_of(char const *, unsigned int) const
 .gnu.linkonce.t.find__Q23stdt11char_traits1ZcPCcUiRCc
                0x08075e30       0x2a main.o
                0x08075e30                std::char_traits<char>::find(char const *, unsigned int, char const &)
 *fill*         0x08075e5a        0x2 37008
 .gnu.linkonce.t.__tfQ23std9exception
                0x08075e5c       0x2a /x86/lib/libcpp.a(gccex.o)
                0x08075e5c                std::exception type_info function
 *fill*         0x08075e86        0x2 37008
 .gnu.linkonce.t.__tfQ23std13runtime_error
                0x08075e88       0x34 /x86/lib/libcpp.a(ios.o)
                0x08075e88                std::runtime_error type_info function
 .gnu.linkonce.t._._Q23std13runtime_error
                0x08075ebc       0x33 /x86/lib/libcpp.a(ios.o)
                0x08075ebc                std::runtime_error::~runtime_error(void)
 *fill*         0x08075eef        0x1 37008
 .gnu.linkonce.t.what__CQ23std13runtime_error
                0x08075ef0       0x5d /x86/lib/libcpp.a(ios.o)
                0x08075ef0                std::runtime_error::what(void) const
 *fill*         0x08075f4d        0x3 37008
 .gnu.linkonce.t._Doraise__CQ23std13runtime_error
                0x08075f50       0x85 /x86/lib/libcpp.a(ios.o)
                0x08075f50                std::runtime_error::_Doraise(void) const
 *fill*         0x08075fd5        0x3 37008
 .gnu.linkonce.t.__Q23std6localeRCQ23std6locale
                0x08075fd8       0x65 /x86/lib/libcpp.a(ios.o)
                0x08075fd8                std::locale::locale(std::locale const &)
 *fill*         0x0807603d        0x3 37008
 .gnu.linkonce.t.__as__Q23std6localeRCQ23std6locale
                0x08076040       0x9b /x86/lib/libcpp.a(ios.o)
                0x08076040                std::locale::operator=(std::locale const &)
 *fill*         0x080760db        0x1 37008
 .gnu.linkonce.t.__tfQ33std8ios_base7failure
                0x080760dc       0x55 /x86/lib/libcpp.a(ios.o)
                0x080760dc                std::ios_base::failure type_info function
 *fill*         0x08076131        0x3 37008
 .gnu.linkonce.t.__tfQ23std8ios_base
                0x08076134       0x34 /x86/lib/libcpp.a(ios.o)
                0x08076134                std::ios_base type_info function
 .gnu.linkonce.t.__Q33std8ios_base7failureRCQ23stdt12basic_string3ZcZQ23stdt11char_traits1ZcZQ23stdt9allocator1Zc
                0x08076168       0x23 /x86/lib/libcpp.a(ios.o)
                0x08076168                std::ios_base::failure::failure(std::basic_string<char, std::char_traits<char>, std::allocator<char> > const &)
 *fill*         0x0807618b        0x1 37008
 .gnu.linkonce.t._._Q33std8ios_base7failure
                0x0807618c       0x1e /x86/lib/libcpp.a(ios.o)
                0x0807618c                std::ios_base::failure::~failure(void)
 *fill*         0x080761aa        0x2 37008
 .gnu.linkonce.t._Doraise__CQ33std8ios_base7failure
                0x080761ac       0x89 /x86/lib/libcpp.a(ios.o)
                0x080761ac                std::ios_base::failure::_Doraise(void) const
 *fill*         0x08076235        0x3 37008
 .gnu.linkonce.t.__as__Q23std8ios_baseRCQ23std8ios_base
                0x08076238       0x28 /x86/lib/libcpp.a(ios.o)
                0x08076238                std::ios_base::operator=(std::ios_base const &)
 .gnu.linkonce.t.__opPv__CQ23std8ios_base
                0x08076260       0x22 /x86/lib/libcpp.a(ios.o)
                0x08076260                std::ios_base::operator void *(void) const
 *fill*         0x08076282        0x2 37008
 .gnu.linkonce.t.__nt__CQ23std8ios_base
                0x08076284       0x13 /x86/lib/libcpp.a(ios.o)
                0x08076284                std::ios_base::operator!(void) const
 *fill*         0x08076297        0x1 37008
 .gnu.linkonce.t.clear__Q23std8ios_baseQ33stdt5_Iosb1Zi8_Iostate
                0x08076298       0x18 /x86/lib/libcpp.a(ios.o)
                0x08076298                std::ios_base::clear(std::_Iosb<int>::_Iostate)
 .gnu.linkonce.t.clear__Q23std8ios_baseUi
                0x080762b0       0x16 /x86/lib/libcpp.a(ios.o)
                0x080762b0                std::ios_base::clear(unsigned int)
 *fill*         0x080762c6        0x2 37008
 .gnu.linkonce.t.rdstate__CQ23std8ios_base
                0x080762c8        0xb /x86/lib/libcpp.a(ios.o)
                0x080762c8                std::ios_base::rdstate(void) const
 *fill*         0x080762d3        0x1 37008
 .gnu.linkonce.t.setstate__Q23std8ios_baseQ33stdt5_Iosb1Zi8_Iostateb
                0x080762d4       0x34 /x86/lib/libcpp.a(ios.o)
                0x080762d4                std::ios_base::setstate(std::_Iosb<int>::_Iostate, bool)
 .gnu.linkonce.t.setstate__Q23std8ios_baseQ33stdt5_Iosb1Zi8_Iostate
                0x08076308       0x33 /x86/lib/libcpp.a(ios.o)
                0x08076308                std::ios_base::setstate(std::_Iosb<int>::_Iostate)
 *fill*         0x0807633b        0x1 37008
 .gnu.linkonce.t.setstate__Q23std8ios_baseUi
                0x0807633c       0x16 /x86/lib/libcpp.a(ios.o)
                0x0807633c                std::ios_base::setstate(unsigned int)
 *fill*         0x08076352        0x2 37008
 .gnu.linkonce.t.good__CQ23std8ios_base
                0x08076354       0x1d /x86/lib/libcpp.a(ios.o)
                0x08076354                std::ios_base::good(void) const
 *fill*         0x08076371        0x3 37008
 .gnu.linkonce.t.eof__CQ23std8ios_base
                0x08076374       0x16 /x86/lib/libcpp.a(ios.o)
                0x08076374                std::ios_base::eof(void) const
 *fill*         0x0807638a        0x2 37008
 .gnu.linkonce.t.fail__CQ23std8ios_base
                0x0807638c       0x1d /x86/lib/libcpp.a(ios.o)
                0x0807638c                std::ios_base::fail(void) const
 *fill*         0x080763a9        0x3 37008
 .gnu.linkonce.t.bad__CQ23std8ios_base
                0x080763ac       0x19 /x86/lib/libcpp.a(ios.o)
                0x080763ac                std::ios_base::bad(void) const
 *fill*         0x080763c5        0x3 37008
 .gnu.linkonce.t.exceptions__CQ23std8ios_base
                0x080763c8        0xb /x86/lib/libcpp.a(ios.o)
                0x080763c8                std::ios_base::exceptions(void) const
 *fill*         0x080763d3        0x1 37008
 .gnu.linkonce.t.exceptions__Q23std8ios_baseQ33stdt5_Iosb1Zi8_Iostate
                0x080763d4       0x20 /x86/lib/libcpp.a(ios.o)
                0x080763d4                std::ios_base::exceptions(std::_Iosb<int>::_Iostate)
 .gnu.linkonce.t.exceptions__Q23std8ios_baseUi
                0x080763f4       0x16 /x86/lib/libcpp.a(ios.o)
                0x080763f4                std::ios_base::exceptions(unsigned int)
 *fill*         0x0807640a        0x2 37008
 .gnu.linkonce.t.flags__CQ23std8ios_base
                0x0807640c        0xb /x86/lib/libcpp.a(ios.o)
                0x0807640c                std::ios_base::flags(void) const
 *fill*         0x08076417        0x1 37008
 .gnu.linkonce.t.flags__Q23std8ios_baseQ33stdt5_Iosb1Zi9_Fmtflags
                0x08076418       0x19 /x86/lib/libcpp.a(ios.o)
                0x08076418                std::ios_base::flags(std::_Iosb<int>::_Fmtflags)
 *fill*         0x08076431        0x3 37008
 .gnu.linkonce.t.setf__Q23std8ios_baseQ33stdt5_Iosb1Zi9_Fmtflags
                0x08076434       0x1a /x86/lib/libcpp.a(ios.o)
                0x08076434                std::ios_base::setf(std::_Iosb<int>::_Fmtflags)
 *fill*         0x0807644e        0x2 37008
 .gnu.linkonce.t.setf__Q23std8ios_baseQ33stdt5_Iosb1Zi9_FmtflagsT1
                0x08076450       0x26 /x86/lib/libcpp.a(ios.o)
                0x08076450                std::ios_base::setf(std::_Iosb<int>::_Fmtflags, std::_Iosb<int>::_Fmtflags)
 *fill*         0x08076476        0x2 37008
 .gnu.linkonce.t.unsetf__Q23std8ios_baseQ33stdt5_Iosb1Zi9_Fmtflags
                0x08076478       0x10 /x86/lib/libcpp.a(ios.o)
                0x08076478                std::ios_base::unsetf(std::_Iosb<int>::_Fmtflags)
 .gnu.linkonce.t.precision__CQ23std8ios_base
                0x08076488        0xb /x86/lib/libcpp.a(ios.o)
                0x08076488                std::ios_base::precision(void) const
 *fill*         0x08076493        0x1 37008
 .gnu.linkonce.t.precision__Q23std8ios_basei
                0x08076494       0x13 /x86/lib/libcpp.a(ios.o)
                0x08076494                std::ios_base::precision(int)
 *fill*         0x080764a7        0x1 37008
 .gnu.linkonce.t.width__CQ23std8ios_base
                0x080764a8        0xb /x86/lib/libcpp.a(ios.o)
                0x080764a8                std::ios_base::width(void) const
 *fill*         0x080764b3        0x1 37008
 .gnu.linkonce.t.width__Q23std8ios_basei
                0x080764b4       0x13 /x86/lib/libcpp.a(ios.o)
                0x080764b4                std::ios_base::width(int)
 *fill*         0x080764c7        0x1 37008
 .gnu.linkonce.t.getloc__CQ23std8ios_base
                0x080764c8       0x22 /x86/lib/libcpp.a(ios.o)
                0x080764c8                std::ios_base::getloc(void) const
 *fill*         0x080764ea        0x2 37008
 .gnu.linkonce.t.xalloc__Q23std8ios_base
                0x080764ec       0x5f /x86/lib/libcpp.a(ios.o)
                0x080764ec                std::ios_base::xalloc(void)
 *fill*         0x0807654b        0x1 37008
 .gnu.linkonce.t.iword__Q23std8ios_basei
                0x0807654c       0x19 /x86/lib/libcpp.a(ios.o)
                0x0807654c                std::ios_base::iword(int)
 *fill*         0x08076565        0x3 37008
 .gnu.linkonce.t.pword__Q23std8ios_basei
                0x08076568       0x19 /x86/lib/libcpp.a(ios.o)
                0x08076568                std::ios_base::pword(int)
 *fill*         0x08076581        0x3 37008
 .gnu.linkonce.t.sync_with_stdio__Q23std8ios_baseb
                0x08076584       0x64 /x86/lib/libcpp.a(ios.o)
                0x08076584                std::ios_base::sync_with_stdio(bool)
 .gnu.linkonce.t.__Q23std8ios_base
                0x080765e8       0x16 /x86/lib/libcpp.a(ios.o)
                0x080765e8                std::ios_base::ios_base(void)
 *fill*         0x080765fe        0x2 37008
 .gnu.linkonce.t.__Q33std8ios_base9_IosarrayiPQ33std8ios_base9_Iosarray
                0x08076600       0x23 /x86/lib/libcpp.a(ios.o)
                0x08076600                std::ios_base::_Iosarray::_Iosarray(int, std::ios_base::_Iosarray *)
 *fill*         0x08076623        0x1 37008
 .gnu.linkonce.t.__Q33std8ios_base8_FnarrayiPFQ33std8ios_base5eventRQ23std8ios_basei_vPQ33std8ios_base8_Fnarray
                0x08076624       0x1d /x86/lib/libcpp.a(ios.o)
                0x08076624                std::ios_base::_Fnarray::_Fnarray(int, void (*)(std::ios_base::event, std::ios_base &, int), std::ios_base::_Fnarray *)
 *fill*         0x08076641        0x3 37008
 .gnu.linkonce.t.__Q23std13runtime_errorRCQ23stdt12basic_string3ZcZQ23stdt11char_traits1ZcZQ23stdt9allocator1Zc
                0x08076644       0x57 /x86/lib/libcpp.a(ios.o)
                0x08076644                std::runtime_error::runtime_error(std::basic_string<char, std::char_traits<char>, std::allocator<char> > const &)
 *fill*         0x0807669b        0x1 37008
 .gnu.linkonce.t.__tfQ23stdt5_Iosb1Zi
                0x0807669c       0x2a /x86/lib/libcpp.a(ios.o)
                0x0807669c                std::_Iosb<int> type_info function
 *fill*         0x080766c6        0x2 37008
 .gnu.linkonce.t._Init__Q23stdt15basic_streambuf2ZcZQ23stdt11char_traits1ZcPPcN51
                0x080766c8       0x32 /x86/lib/libcpp.a(iostream.o)
                0x080766c8                std::basic_streambuf<char, std::char_traits<char> >::_Init(char **, char **, char **, char **, char **, char **)
 *fill*         0x080766fa        0x2 37008
 .gnu.linkonce.t._Init__Q23stdt13basic_filebuf2ZcZQ23stdt11char_traits1ZcP6_FiletQ33stdt13basic_filebuf2ZcZQ23stdt11char_traits1Zc7_Initfl
                0x080766fc       0x80 /x86/lib/libcpp.a(iostream.o)
                0x080766fc                std::basic_filebuf<char, std::char_traits<char> >::_Init(_Filet *, std::basic_filebuf<char, std::char_traits<char> >::_Initfl)
 .gnu.linkonce.t.__Q23stdt13basic_filebuf2ZcZQ23stdt11char_traits1ZcP6_Filet
                0x0807677c       0x85 /x86/lib/libcpp.a(iostream.o)
                0x0807677c                std::basic_filebuf<char, std::char_traits<char> >::basic_filebuf(_Filet *)
 *fill*         0x08076801        0x3 37008
 .gnu.linkonce.t.__Q23stdt13basic_istream2ZcZQ23stdt11char_traits1ZciPQ23stdt15basic_streambuf2ZcZQ23stdt11char_traits1ZcbT3
                0x08076804       0xb4 /x86/lib/libcpp.a(iostream.o)
                0x08076804                std::basic_istream<char, std::char_traits<char> >::basic_istream(int, std::basic_streambuf<char, std::char_traits<char> > *, bool, bool)
 .gnu.linkonce.t.tie__Q23stdt9basic_ios2ZcZQ23stdt11char_traits1ZcPQ23stdt13basic_ostream2ZcZQ23stdt11char_traits1Zc
                0x080768b8       0x13 /x86/lib/libcpp.a(iostream.o)
                0x080768b8                std::basic_ios<char, std::char_traits<char> >::tie(std::basic_ostream<char, std::char_traits<char> > *)
 *fill*         0x080768cb        0x1 37008
 .gnu.linkonce.t._._Q23stdt13basic_istream2ZcZQ23stdt11char_traits1Zc
                0x080768cc       0x78 /x86/lib/libcpp.a(iostream.o)
                0x080768cc                std::basic_istream<char, std::char_traits<char> >::~basic_istream(void)
 .gnu.linkonce.t.assign__Q23stdt12basic_string3ZcZQ23stdt11char_traits1ZcZQ23stdt9allocator1ZcUic
                0x08076944       0x66 /x86/lib/libcpp.a(iostream.o)
                0x08076944                std::basic_string<char, std::char_traits<char>, std::allocator<char> >::assign(unsigned int, char)
 *fill*         0x080769aa        0x2 37008
 .gnu.linkonce.t.__Q23stdt12basic_string3ZcZQ23stdt11char_traits1ZcZQ23stdt9allocator1ZcUic
                0x080769ac       0x52 /x86/lib/libcpp.a(iostream.o)
                0x080769ac                std::basic_string<char, std::char_traits<char>, std::allocator<char> >::basic_string(unsigned int, char)
 *fill*         0x080769fe        0x2 37008
 .gnu.linkonce.t.do_out__CQ23stdt7codecvt3ZcZcZ9_MbstatetR9_MbstatetPCcT2RPCcPcT5RPc
                0x08076a00       0x1c /x86/lib/libcpp.a(iostream.o)
                0x08076a00                std::codecvt<char, char, _Mbstatet>::do_out(_Mbstatet &, char const *, char const *, char const *&, char *, char *, char *&) const
 .gnu.linkonce.t.out__CQ23stdt7codecvt3ZcZcZ9_MbstatetR9_MbstatetPCcT2RPCcPcT5RPc
                0x08076a1c       0x2f /x86/lib/libcpp.a(iostream.o)
                0x08076a1c                std::codecvt<char, char, _Mbstatet>::out(_Mbstatet &, char const *, char const *, char const *&, char *, char *, char *&) const
 *fill*         0x08076a4b        0x1 37008
 .gnu.linkonce.t.append__Q23stdt12basic_string3ZcZQ23stdt11char_traits1ZcZQ23stdt9allocator1ZcUic
                0x08076a4c       0x78 /x86/lib/libcpp.a(iostream.o)
                0x08076a4c                std::basic_string<char, std::char_traits<char>, std::allocator<char> >::append(unsigned int, char)
 .gnu.linkonce.t.overflow__Q23stdt13basic_filebuf2ZcZQ23stdt11char_traits1Zci
                0x08076ac4      0x2d8 /x86/lib/libcpp.a(iostream.o)
                0x08076ac4                std::basic_filebuf<char, std::char_traits<char> >::overflow(int)
 .gnu.linkonce.t.do_unshift__CQ23stdt7codecvt3ZcZcZ9_MbstatetR9_MbstatetPcT2RPc
                0x08076d9c        0xa /x86/lib/libcpp.a(iostream.o)
                0x08076d9c                std::codecvt<char, char, _Mbstatet>::do_unshift(_Mbstatet &, char *, char *, char *&) const
 *fill*         0x08076da6        0x2 37008
 .gnu.linkonce.t.unshift__CQ23stdt7codecvt3ZcZcZ9_MbstatetR9_MbstatetPcT2RPc
                0x08076da8       0x29 /x86/lib/libcpp.a(iostream.o)
                0x08076da8                std::codecvt<char, char, _Mbstatet>::unshift(_Mbstatet &, char *, char *, char *&) const
 *fill*         0x08076dd1        0x3 37008
 .gnu.linkonce.t._Endwrite__Q23stdt13basic_filebuf2ZcZQ23stdt11char_traits1Zc
                0x08076dd4      0x1c1 /x86/lib/libcpp.a(iostream.o)
                0x08076dd4                std::basic_filebuf<char, std::char_traits<char> >::_Endwrite(void)
 *fill*         0x08076f95        0x3 37008
 .gnu.linkonce.t.close__Q23stdt13basic_filebuf2ZcZQ23stdt11char_traits1Zc
                0x08076f98       0x4b /x86/lib/libcpp.a(iostream.o)
                0x08076f98                std::basic_filebuf<char, std::char_traits<char> >::close(void)
 *fill*         0x08076fe3        0x1 37008
 .gnu.linkonce.t._._Q23stdt13basic_filebuf2ZcZQ23stdt11char_traits1Zc
                0x08076fe4       0x57 /x86/lib/libcpp.a(iostream.o)
                0x08076fe4                std::basic_filebuf<char, std::char_traits<char> >::~basic_filebuf(void)
 *fill*         0x0807703b        0x1 37008
 .gnu.linkonce.t._Gndec__Q23stdt15basic_streambuf2ZcZQ23stdt11char_traits1Zc
                0x0807703c        0xf /x86/lib/libcpp.a(iostream.o)
                0x0807703c                std::basic_streambuf<char, std::char_traits<char> >::_Gndec(void)
 *fill*         0x0807704b        0x1 37008
 .gnu.linkonce.t.pbackfail__Q23stdt13basic_filebuf2ZcZQ23stdt11char_traits1Zci
                0x0807704c      0x129 /x86/lib/libcpp.a(iostream.o)
                0x0807704c                std::basic_filebuf<char, std::char_traits<char> >::pbackfail(int)
 *fill*         0x08077175        0x3 37008
 .gnu.linkonce.t.do_in__CQ23stdt7codecvt3ZcZcZ9_MbstatetR9_MbstatetPCcT2RPCcPcT5RPc
                0x08077178       0x1c /x86/lib/libcpp.a(iostream.o)
                0x08077178                std::codecvt<char, char, _Mbstatet>::do_in(_Mbstatet &, char const *, char const *, char const *&, char *, char *, char *&) const
 .gnu.linkonce.t.in__CQ23stdt7codecvt3ZcZcZ9_MbstatetR9_MbstatetPCcT2RPCcPcT5RPc
                0x08077194       0x2f /x86/lib/libcpp.a(iostream.o)
                0x08077194                std::codecvt<char, char, _Mbstatet>::in(_Mbstatet &, char const *, char const *, char const *&, char *, char *, char *&) const
 *fill*         0x080771c3        0x1 37008
 .gnu.linkonce.t.uflow__Q23stdt13basic_filebuf2ZcZQ23stdt11char_traits1Zc
                0x080771c4      0x1b5 /x86/lib/libcpp.a(iostream.o)
                0x080771c4                std::basic_filebuf<char, std::char_traits<char> >::uflow(void)
 *fill*         0x08077379        0x3 37008
 .gnu.linkonce.t.underflow__Q23stdt13basic_filebuf2ZcZQ23stdt11char_traits1Zc
                0x0807737c       0x9f /x86/lib/libcpp.a(iostream.o)
                0x0807737c                std::basic_filebuf<char, std::char_traits<char> >::underflow(void)
 *fill*         0x0807741b        0x1 37008
 .gnu.linkonce.t.__Q23stdt4fpos1Z9_MbstatetG9_MbstatetG6_Fpost
                0x0807741c       0x34 /x86/lib/libcpp.a(iostream.o)
                0x0807741c                std::fpos<_Mbstatet>::fpos(_Mbstatet, _Fpost)
 .gnu.linkonce.t.seekoff__Q23stdt13basic_filebuf2ZcZQ23stdt11char_traits1ZclQ33stdt5_Iosb1Zi8_SeekdirQ33stdt5_Iosb1Zi9_Openmode
                0x08077450       0xf9 /x86/lib/libcpp.a(iostream.o)
                0x08077450                std::basic_filebuf<char, std::char_traits<char> >::seekoff(long, std::_Iosb<int>::_Seekdir, std::_Iosb<int>::_Openmode)
 *fill*         0x08077549        0x3 37008
 .gnu.linkonce.t.seekpos__CQ23stdt4fpos1Z9_Mbstatet
                0x0807754c       0x26 /x86/lib/libcpp.a(iostream.o)
                0x0807754c                std::fpos<_Mbstatet>::seekpos(void) const
 *fill*         0x08077572        0x2 37008
 .gnu.linkonce.t.state__CQ23stdt4fpos1Z9_Mbstatet
                0x08077574       0x1a /x86/lib/libcpp.a(iostream.o)
                0x08077574                std::fpos<_Mbstatet>::state(void) const
 *fill*         0x0807758e        0x2 37008
 .gnu.linkonce.t.seekpos__Q23stdt13basic_filebuf2ZcZQ23stdt11char_traits1ZcGQ23stdt4fpos1Z9_MbstatetQ33stdt5_Iosb1Zi9_Openmode
                0x08077590      0x115 /x86/lib/libcpp.a(iostream.o)
                0x08077590                std::basic_filebuf<char, std::char_traits<char> >::seekpos(std::fpos<_Mbstatet>, std::_Iosb<int>::_Openmode)
 *fill*         0x080776a5        0x3 37008
 .gnu.linkonce.t.setbuf__Q23stdt13basic_filebuf2ZcZQ23stdt11char_traits1ZcPci
                0x080776a8       0x44 /x86/lib/libcpp.a(iostream.o)
                0x080776a8                std::basic_filebuf<char, std::char_traits<char> >::setbuf(char *, int)
 .gnu.linkonce.t.sync__Q23stdt13basic_filebuf2ZcZQ23stdt11char_traits1Zc
                0x080776ec       0x72 /x86/lib/libcpp.a(iostream.o)
                0x080776ec                std::basic_filebuf<char, std::char_traits<char> >::sync(void)
 *fill*         0x0807775e        0x2 37008
 .gnu.linkonce.t.__Q23stdt15basic_streambuf2ZcZQ23stdt11char_traits1ZcQ23std14_Uninitialized
                0x08077760       0x21 /x86/lib/libcpp.a(iostream.o)
                0x08077760                std::basic_streambuf<char, std::char_traits<char> >::basic_streambuf(std::_Uninitialized)
 *fill*         0x08077781        0x3 37008
 .gnu.linkonce.t.__Q23stdt13basic_filebuf2ZcZQ23stdt11char_traits1ZcQ23std14_Uninitialized
                0x08077784       0x55 /x86/lib/libcpp.a(iostream.o)
                0x08077784                std::basic_filebuf<char, std::char_traits<char> >::basic_filebuf(std::_Uninitialized)
 *fill*         0x080777d9        0x3 37008
 .gnu.linkonce.t.__Q23stdt13basic_istream2ZcZQ23stdt11char_traits1ZciQ23std14_Uninitialized
                0x080777dc       0xa0 /x86/lib/libcpp.a(iostream.o)
                0x080777dc                std::basic_istream<char, std::char_traits<char> >::basic_istream(int, std::_Uninitialized)
 .gnu.linkonce.t.__Q23stdt13basic_ostream2ZcZQ23stdt11char_traits1ZciQ23std14_Uninitialized
                0x0807787c       0xa0 /x86/lib/libcpp.a(iostream.o)
                0x0807787c                std::basic_ostream<char, std::char_traits<char> >::basic_ostream(int, std::_Uninitialized)
 .gnu.linkonce.t.assign__Q23stdt11char_traits1ZcPcUic
                0x0807791c       0x1b /x86/lib/libcpp.a(iostream.o)
                0x0807791c                std::char_traits<char>::assign(char *, unsigned int, char)
 *fill*         0x08077937        0x1 37008
 .gnu.linkonce.t.__Q23std6localeQ23std14_Uninitialized
                0x08077938        0x8 /x86/lib/libcpp.a(iostream.o)
                0x08077938                std::locale::locale(std::_Uninitialized)
 .gnu.linkonce.t.__tfQ23stdt13basic_filebuf2ZcZQ23stdt11char_traits1Zc
                0x08077940       0x55 /x86/lib/libcpp.a(iostream.o)
                0x08077940                std::basic_filebuf<char, std::char_traits<char> > type_info function
 *fill*         0x08077995        0x3 37008
 .gnu.linkonce.t.__tfQ23stdt13basic_istream2ZcZQ23stdt11char_traits1Zc
                0x08077998       0x54 /x86/lib/libcpp.a(iostream.o)
                0x08077998                std::basic_istream<char, std::char_traits<char> > type_info function
 .gnu.linkonce.t.compare__CQ23stdt12basic_string3ZcZQ23stdt11char_traits1ZcZQ23stdt9allocator1ZcUiUiPCcUi
                0x080779ec       0x7d /x86/lib/libcpp.a(locale.o)
                0x080779ec                std::basic_string<char, std::char_traits<char>, std::allocator<char> >::compare(unsigned int, unsigned int, char const *, unsigned int) const
 *fill*         0x08077a69        0x3 37008
 .gnu.linkonce.t.compare__CQ23stdt12basic_string3ZcZQ23stdt11char_traits1ZcZQ23stdt9allocator1ZcPCc
                0x08077a6c       0x2e /x86/lib/libcpp.a(locale.o)
                0x08077a6c                std::basic_string<char, std::char_traits<char>, std::allocator<char> >::compare(char const *) const
 *fill*         0x08077a9a        0x2 37008
 .gnu.linkonce.t._Init__Q23stdt7num_get2ZcZQ23stdt19istreambuf_iterator2ZcZQ23stdt11char_traits1ZcRCQ23std8_Locinfo
                0x08077a9c        0x5 /x86/lib/libcpp.a(locale.o)
                0x08077a9c                std::num_get<char, std::istreambuf_iterator<char, std::char_traits<char> > >::_Init(std::_Locinfo const &)
 *fill*         0x08077aa1        0x3 37008
 .gnu.linkonce.t.__Q23stdt7num_get2ZcZQ23stdt19istreambuf_iterator2ZcZQ23stdt11char_traits1ZcUi
                0x08077aa4       0xaa /x86/lib/libcpp.a(locale.o)
                0x08077aa4                std::num_get<char, std::istreambuf_iterator<char, std::char_traits<char> > >::num_get(unsigned int)
 *fill*         0x08077b4e        0x2 37008
 .gnu.linkonce.t._Getcat__Q23stdt7num_get2ZcZQ23stdt19istreambuf_iterator2ZcZQ23stdt11char_traits1ZcPPCQ33std6locale5facet
                0x08077b50       0x7c /x86/lib/libcpp.a(locale.o)
                0x08077b50                std::num_get<char, std::istreambuf_iterator<char, std::char_traits<char> > >::_Getcat(std::locale::facet const **)
 .gnu.linkonce.t.__Q23stdt7num_get2ZcZQ23stdt19istreambuf_iterator2ZcZQ23stdt11char_traits1ZcRCQ23std8_LocinfoUi
                0x08077bcc       0x5b /x86/lib/libcpp.a(locale.o)
                0x08077bcc                std::num_get<char, std::istreambuf_iterator<char, std::char_traits<char> > >::num_get(std::_Locinfo const &, unsigned int)
 *fill*         0x08077c27        0x1 37008
 .gnu.linkonce.t._Tidy__Q23stdt8_Tidyfac1ZQ23stdt7num_get2ZcZQ23stdt19istreambuf_iterator2ZcZQ23stdt11char_traits1Zc
                0x08077c28       0x91 /x86/lib/libcpp.a(locale.o)
                0x08077c28                std::_Tidyfac<std::num_get<char, std::istreambuf_iterator<char, std::char_traits<char> > > >::_Tidy(void)
 *fill*         0x08077cb9        0x3 37008
 .gnu.linkonce.t._Save__Q23stdt8_Tidyfac1ZQ23stdt7num_get2ZcZQ23stdt19istreambuf_iterator2ZcZQ23stdt11char_traits1ZcPQ23stdt7num_get2ZcZQ23stdt19istreambuf_iterator2ZcZQ23stdt11char_traits1Zc
                0x08077cbc       0x2d /x86/lib/libcpp.a(locale.o)
                0x08077cbc                std::_Tidyfac<std::num_get<char, std::istreambuf_iterator<char, std::char_traits<char> > > >::_Save(std::num_get<char, std::istreambuf_iterator<char, std::char_traits<char> > > *)
 *fill*         0x08077ce9        0x3 37008
 .gnu.linkonce.t.__Q23stdt7num_put2ZcZQ23stdt19ostreambuf_iterator2ZcZQ23stdt11char_traits1ZcRCQ23std8_LocinfoUi
                0x08077cec       0x5b /x86/lib/libcpp.a(locale.o)
                0x08077cec                std::num_put<char, std::ostreambuf_iterator<char, std::char_traits<char> > >::num_put(std::_Locinfo const &, unsigned int)
 *fill*         0x08077d47        0x1 37008
 .gnu.linkonce.t.__Q23stdt8numpunct1ZcRCQ23std8_LocinfoUi
                0x08077d48       0x5b /x86/lib/libcpp.a(locale.o)
                0x08077d48                std::numpunct<char>::numpunct(std::_Locinfo const &, unsigned int)
 *fill*         0x08077da3        0x1 37008
 .gnu.linkonce.t._Init__Q23stdt7codecvt3ZcZcZ9_MbstatetRCQ23std8_Locinfo
                0x08077da4       0x24 /x86/lib/libcpp.a(locale.o)
                0x08077da4                std::codecvt<char, char, _Mbstatet>::_Init(std::_Locinfo const &)
 .gnu.linkonce.t.__Q23stdt7codecvt3ZcZcZ9_MbstatetUi
                0x08077dc8       0xaa /x86/lib/libcpp.a(locale.o)
                0x08077dc8                std::codecvt<char, char, _Mbstatet>::codecvt(unsigned int)
 *fill*         0x08077e72        0x2 37008
 .gnu.linkonce.t._Getcat__Q23stdt7codecvt3ZcZcZ9_MbstatetPPCQ33std6locale5facet
                0x08077e74       0x7c /x86/lib/libcpp.a(locale.o)
                0x08077e74                std::codecvt<char, char, _Mbstatet>::_Getcat(std::locale::facet const **)
 .gnu.linkonce.t.__Q23stdt7codecvt3ZcZcZ9_MbstatetRCQ23std8_LocinfoUi
                0x08077ef0       0x5b /x86/lib/libcpp.a(locale.o)
                0x08077ef0                std::codecvt<char, char, _Mbstatet>::codecvt(std::_Locinfo const &, unsigned int)
 *fill*         0x08077f4b        0x1 37008
 .gnu.linkonce.t._Tidy__Q23stdt8_Tidyfac1ZQ23stdt7codecvt3ZcZcZ9_Mbstatet
                0x08077f4c       0x91 /x86/lib/libcpp.a(locale.o)
                0x08077f4c                std::_Tidyfac<std::codecvt<char, char, _Mbstatet> >::_Tidy(void)
 *fill*         0x08077fdd        0x3 37008
 .gnu.linkonce.t._Save__Q23stdt8_Tidyfac1ZQ23stdt7codecvt3ZcZcZ9_MbstatetPQ23stdt7codecvt3ZcZcZ9_Mbstatet
                0x08077fe0       0x2d /x86/lib/libcpp.a(locale.o)
                0x08077fe0                std::_Tidyfac<std::codecvt<char, char, _Mbstatet> >::_Save(std::codecvt<char, char, _Mbstatet> *)
 *fill*         0x0807800d        0x3 37008
 .gnu.linkonce.t._._Q23stdt7codecvt3ZcZcZ9_Mbstatet
                0x08078010       0x1f /x86/lib/libcpp.a(locale.o)
                0x08078010                std::codecvt<char, char, _Mbstatet>::~codecvt(void)
 *fill*         0x0807802f        0x1 37008
 .gnu.linkonce.t.do_length__CQ23stdt7codecvt3ZcZcZ9_MbstatetRC9_MbstatetPCcT2Ui
                0x08078030       0x14 /x86/lib/libcpp.a(locale.o)
                0x08078030                std::codecvt<char, char, _Mbstatet>::do_length(_Mbstatet const &, char const *, char const *, unsigned int) const
 .gnu.linkonce.t._._Q23stdt7num_get2ZcZQ23stdt19istreambuf_iterator2ZcZQ23stdt11char_traits1Zc
                0x08078044       0x1f /x86/lib/libcpp.a(locale.o)
                0x08078044                std::num_get<char, std::istreambuf_iterator<char, std::char_traits<char> > >::~num_get(void)
 *fill*         0x08078063        0x1 37008
 .gnu.linkonce.t.__apl__Q23stdt12basic_string3ZcZQ23stdt11char_traits1ZcZQ23stdt9allocator1Zcc
                0x08078064       0x1a /x86/lib/libcpp.a(locale.o)
                0x08078064                std::basic_string<char, std::char_traits<char>, std::allocator<char> >::operator+=(char)
 *fill*         0x0807807e        0x2 37008
 .gnu.linkonce.t.sbumpc__Q23stdt15basic_streambuf2ZcZQ23stdt11char_traits1Zc
                0x08078080       0x65 /x86/lib/libcpp.a(locale.o)
                0x08078080                std::basic_streambuf<char, std::char_traits<char> >::sbumpc(void)
 *fill*         0x080780e5        0x3 37008
 .gnu.linkonce.t._Inc__Q23stdt19istreambuf_iterator2ZcZQ23stdt11char_traits1Zc
                0x080780e8       0x58 /x86/lib/libcpp.a(locale.o)
                0x080780e8                std::istreambuf_iterator<char, std::char_traits<char> >::_Inc(void)
 .gnu.linkonce.t.__pp__Q23stdt19istreambuf_iterator2ZcZQ23stdt11char_traits1Zc
                0x08078140       0x1a /x86/lib/libcpp.a(locale.o)
                0x08078140                std::istreambuf_iterator<char, std::char_traits<char> >::operator++(void)
 *fill*         0x0807815a        0x2 37008
 .gnu.linkonce.t.__vc__Q23stdt12basic_string3ZcZQ23stdt11char_traits1ZcZQ23stdt9allocator1ZcUi
                0x0807815c       0x1c /x86/lib/libcpp.a(locale.o)
                0x0807815c                std::basic_string<char, std::char_traits<char>, std::allocator<char> >::operator[](unsigned int)
 .gnu.linkonce.t.sgetc__Q23stdt15basic_streambuf2ZcZQ23stdt11char_traits1Zc
                0x08078178       0x65 /x86/lib/libcpp.a(locale.o)
                0x08078178                std::basic_streambuf<char, std::char_traits<char> >::sgetc(void)
 *fill*         0x080781dd        0x3 37008
 .gnu.linkonce.t._Peek__Q23stdt19istreambuf_iterator2ZcZQ23stdt11char_traits1Zc
                0x080781e0       0x66 /x86/lib/libcpp.a(locale.o)
                0x080781e0                std::istreambuf_iterator<char, std::char_traits<char> >::_Peek(void)
 *fill*         0x08078246        0x2 37008
 .gnu.linkonce.t.__ml__CQ23stdt19istreambuf_iterator2ZcZQ23stdt11char_traits1Zc
                0x08078248       0x21 /x86/lib/libcpp.a(locale.o)
                0x08078248                std::istreambuf_iterator<char, std::char_traits<char> >::operator*(void) const
 *fill*         0x08078269        0x3 37008
 .gnu.linkonce.t.equal__CQ23stdt19istreambuf_iterator2ZcZQ23stdt11char_traits1ZcRCQ23stdt19istreambuf_iterator2ZcZQ23stdt11char_traits1Zc
                0x0807826c       0x52 /x86/lib/libcpp.a(locale.o)
                0x0807826c                std::istreambuf_iterator<char, std::char_traits<char> >::equal(std::istreambuf_iterator<char, std::char_traits<char> > const &) const
 *fill*         0x080782be        0x2 37008
 .gnu.linkonce.t._Getifld__Q23stdt7num_get2ZcZQ23stdt19istreambuf_iterator2ZcZQ23stdt11char_traits1ZcPcRQ23stdt19istreambuf_iterator2ZcZQ23stdt11char_traits1ZcT2Q33stdt5_Iosb1Zi9_FmtflagsRCQ23std6locale
                0x080782c0      0x3d4 /x86/lib/libcpp.a(locale.o)
                0x080782c0                std::num_get<char, std::istreambuf_iterator<char, std::char_traits<char> > >::_Getifld(char *, std::istreambuf_iterator<char, std::char_traits<char> > &, std::istreambuf_iterator<char, std::char_traits<char> > &, std::_Iosb<int>::_Fmtflags, std::locale const &)
 .gnu.linkonce.t.do_get__CQ23stdt7num_get2ZcZQ23stdt19istreambuf_iterator2ZcZQ23stdt11char_traits1ZcGQ23stdt19istreambuf_iterator2ZcZQ23stdt11char_traits1ZcT1RQ23std8ios_baseRQ33stdt5_Iosb1Zi8_IostateRb
                0x08078694      0x451 /x86/lib/libcpp.a(locale.o)
                0x08078694                std::num_get<char, std::istreambuf_iterator<char, std::char_traits<char> > >::do_get(std::istreambuf_iterator<char, std::char_traits<char> >, std::istreambuf_iterator<char, std::char_traits<char> >, std::ios_base &, std::_Iosb<int>::_Iostate &, bool &) const
 *fill*         0x08078ae5        0x3 37008
 .gnu.linkonce.t.do_get__CQ23stdt7num_get2ZcZQ23stdt19istreambuf_iterator2ZcZQ23stdt11char_traits1ZcGQ23stdt19istreambuf_iterator2ZcZQ23stdt11char_traits1ZcT1RQ23std8ios_baseRQ33stdt5_Iosb1Zi8_IostateRUs
                0x08078ae8      0x11c /x86/lib/libcpp.a(locale.o)
                0x08078ae8                std::num_get<char, std::istreambuf_iterator<char, std::char_traits<char> > >::do_get(std::istreambuf_iterator<char, std::char_traits<char> >, std::istreambuf_iterator<char, std::char_traits<char> >, std::ios_base &, std::_Iosb<int>::_Iostate &, unsigned short &) const
 .gnu.linkonce.t.do_get__CQ23stdt7num_get2ZcZQ23stdt19istreambuf_iterator2ZcZQ23stdt11char_traits1ZcGQ23stdt19istreambuf_iterator2ZcZQ23stdt11char_traits1ZcT1RQ23std8ios_baseRQ33stdt5_Iosb1Zi8_IostateRUi
                0x08078c04      0x110 /x86/lib/libcpp.a(locale.o)
                0x08078c04                std::num_get<char, std::istreambuf_iterator<char, std::char_traits<char> > >::do_get(std::istreambuf_iterator<char, std::char_traits<char> >, std::istreambuf_iterator<char, std::char_traits<char> >, std::ios_base &, std::_Iosb<int>::_Iostate &, unsigned int &) const
 .gnu.linkonce.t.do_get__CQ23stdt7num_get2ZcZQ23stdt19istreambuf_iterator2ZcZQ23stdt11char_traits1ZcGQ23stdt19istreambuf_iterator2ZcZQ23stdt11char_traits1ZcT1RQ23std8ios_baseRQ33stdt5_Iosb1Zi8_IostateRl
                0x08078d14       0xfc /x86/lib/libcpp.a(locale.o)
                0x08078d14                std::num_get<char, std::istreambuf_iterator<char, std::char_traits<char> > >::do_get(std::istreambuf_iterator<char, std::char_traits<char> >, std::istreambuf_iterator<char, std::char_traits<char> >, std::ios_base &, std::_Iosb<int>::_Iostate &, long &) const
 .gnu.linkonce.t.do_get__CQ23stdt7num_get2ZcZQ23stdt19istreambuf_iterator2ZcZQ23stdt11char_traits1ZcGQ23stdt19istreambuf_iterator2ZcZQ23stdt11char_traits1ZcT1RQ23std8ios_baseRQ33stdt5_Iosb1Zi8_IostateRUl
                0x08078e10       0xfc /x86/lib/libcpp.a(locale.o)
                0x08078e10                std::num_get<char, std::istreambuf_iterator<char, std::char_traits<char> > >::do_get(std::istreambuf_iterator<char, std::char_traits<char> >, std::istreambuf_iterator<char, std::char_traits<char> >, std::ios_base &, std::_Iosb<int>::_Iostate &, unsigned long &) const
 .gnu.linkonce.t.do_get__CQ23stdt7num_get2ZcZQ23stdt19istreambuf_iterator2ZcZQ23stdt11char_traits1ZcGQ23stdt19istreambuf_iterator2ZcZQ23stdt11char_traits1ZcT1RQ23std8ios_baseRQ33stdt5_Iosb1Zi8_IostateRx
                0x08078f0c       0xfc /x86/lib/libcpp.a(locale.o)
                0x08078f0c                std::num_get<char, std::istreambuf_iterator<char, std::char_traits<char> > >::do_get(std::istreambuf_iterator<char, std::char_traits<char> >, std::istreambuf_iterator<char, std::char_traits<char> >, std::ios_base &, std::_Iosb<int>::_Iostate &, long long &) const
 .gnu.linkonce.t.do_get__CQ23stdt7num_get2ZcZQ23stdt19istreambuf_iterator2ZcZQ23stdt11char_traits1ZcGQ23stdt19istreambuf_iterator2ZcZQ23stdt11char_traits1ZcT1RQ23std8ios_baseRQ33stdt5_Iosb1Zi8_IostateRUx
                0x08079008       0xfc /x86/lib/libcpp.a(locale.o)
                0x08079008                std::num_get<char, std::istreambuf_iterator<char, std::char_traits<char> > >::do_get(std::istreambuf_iterator<char, std::char_traits<char> >, std::istreambuf_iterator<char, std::char_traits<char> >, std::ios_base &, std::_Iosb<int>::_Iostate &, unsigned long long &) const
 .gnu.linkonce.t._Getffld__Q23stdt7num_get2ZcZQ23stdt19istreambuf_iterator2ZcZQ23stdt11char_traits1ZcPcRQ23stdt19istreambuf_iterator2ZcZQ23stdt11char_traits1ZcT2RCQ23std6locale
                0x08079104      0x375 /x86/lib/libcpp.a(locale.o)
                0x08079104                std::num_get<char, std::istreambuf_iterator<char, std::char_traits<char> > >::_Getffld(char *, std::istreambuf_iterator<char, std::char_traits<char> > &, std::istreambuf_iterator<char, std::char_traits<char> > &, std::locale const &)
 *fill*         0x08079479        0x3 37008
 .gnu.linkonce.t.do_get__CQ23stdt7num_get2ZcZQ23stdt19istreambuf_iterator2ZcZQ23stdt11char_traits1ZcGQ23stdt19istreambuf_iterator2ZcZQ23stdt11char_traits1ZcT1RQ23std8ios_baseRQ33stdt5_Iosb1Zi8_IostateRf
                0x0807947c       0xf0 /x86/lib/libcpp.a(locale.o)
                0x0807947c                std::num_get<char, std::istreambuf_iterator<char, std::char_traits<char> > >::do_get(std::istreambuf_iterator<char, std::char_traits<char> >, std::istreambuf_iterator<char, std::char_traits<char> >, std::ios_base &, std::_Iosb<int>::_Iostate &, float &) const
 .gnu.linkonce.t.do_get__CQ23stdt7num_get2ZcZQ23stdt19istreambuf_iterator2ZcZQ23stdt11char_traits1ZcGQ23stdt19istreambuf_iterator2ZcZQ23stdt11char_traits1ZcT1RQ23std8ios_baseRQ33stdt5_Iosb1Zi8_IostateRd
                0x0807956c       0xf0 /x86/lib/libcpp.a(locale.o)
                0x0807956c                std::num_get<char, std::istreambuf_iterator<char, std::char_traits<char> > >::do_get(std::istreambuf_iterator<char, std::char_traits<char> >, std::istreambuf_iterator<char, std::char_traits<char> >, std::ios_base &, std::_Iosb<int>::_Iostate &, double &) const
 .gnu.linkonce.t.do_get__CQ23stdt7num_get2ZcZQ23stdt19istreambuf_iterator2ZcZQ23stdt11char_traits1ZcGQ23stdt19istreambuf_iterator2ZcZQ23stdt11char_traits1ZcT1RQ23std8ios_baseRQ33stdt5_Iosb1Zi8_IostateRr
                0x0807965c       0xf0 /x86/lib/libcpp.a(locale.o)
                0x0807965c                std::num_get<char, std::istreambuf_iterator<char, std::char_traits<char> > >::do_get(std::istreambuf_iterator<char, std::char_traits<char> >, std::istreambuf_iterator<char, std::char_traits<char> >, std::ios_base &, std::_Iosb<int>::_Iostate &, long double &) const
 .gnu.linkonce.t.do_get__CQ23stdt7num_get2ZcZQ23stdt19istreambuf_iterator2ZcZQ23stdt11char_traits1ZcGQ23stdt19istreambuf_iterator2ZcZQ23stdt11char_traits1ZcT1RQ23std8ios_baseRQ33stdt5_Iosb1Zi8_IostateRPv
                0x0807974c       0xf8 /x86/lib/libcpp.a(locale.o)
                0x0807974c                std::num_get<char, std::istreambuf_iterator<char, std::char_traits<char> > >::do_get(std::istreambuf_iterator<char, std::char_traits<char> >, std::istreambuf_iterator<char, std::char_traits<char> >, std::ios_base &, std::_Iosb<int>::_Iostate &, void *&) const
 .gnu.linkonce.t.compare__Q23stdt11char_traits1ZcPCcT1Ui
                0x08079844       0x19 /x86/lib/libcpp.a(locale.o)
                0x08079844                std::char_traits<char>::compare(char const *, char const *, unsigned int)
 *fill*         0x0807985d        0x3 37008
 .gnu.linkonce.t.__Q23std8_Timevec
                0x08079860       0x1b /x86/lib/libcpp.a(locale.o)
                0x08079860                std::_Timevec::_Timevec(void)
 *fill*         0x0807987b        0x1 37008
 .gnu.linkonce.t._Getname__CQ23std8_Locinfo
                0x0807987c       0x25 /x86/lib/libcpp.a(locale.o)
                0x0807987c                std::_Locinfo::_Getname(void) const
 *fill*         0x080798a1        0x3 37008
 .gnu.linkonce.t._Getcvt__CQ23std8_Locinfo
                0x080798a4        0xd /x86/lib/libcpp.a(locale.o)
                0x080798a4                std::_Locinfo::_Getcvt(void) const
 *fill*         0x080798b1        0x3 37008
 .gnu.linkonce.t.__Q23std12codecvt_baseUi
                0x080798b4       0x24 /x86/lib/libcpp.a(locale.o)
                0x080798b4                std::codecvt_base::codecvt_base(unsigned int)
 .gnu.linkonce.t._._Q23std12codecvt_base
                0x080798d8       0x1f /x86/lib/libcpp.a(locale.o)
                0x080798d8                std::codecvt_base::~codecvt_base(void)
 *fill*         0x080798f7        0x1 37008
 .gnu.linkonce.t.do_always_noconv__CQ23std12codecvt_base
                0x080798f8        0xa /x86/lib/libcpp.a(locale.o)
                0x080798f8                std::codecvt_base::do_always_noconv(void) const
 *fill*         0x08079902        0x2 37008
 .gnu.linkonce.t.do_max_length__CQ23std12codecvt_base
                0x08079904        0xa /x86/lib/libcpp.a(locale.o)
                0x08079904                std::codecvt_base::do_max_length(void) const
 *fill*         0x0807990e        0x2 37008
 .gnu.linkonce.t.do_encoding__CQ23std12codecvt_base
                0x08079910        0xa /x86/lib/libcpp.a(locale.o)
                0x08079910                std::codecvt_base::do_encoding(void) const
 *fill*         0x0807991a        0x2 37008
 .gnu.linkonce.t.__Q23stdt5ctype1ZcRCQ23std8_LocinfoUi
                0x0807991c       0x5b /x86/lib/libcpp.a(locale.o)
                0x0807991c                std::ctype<char>::ctype(std::_Locinfo const &, unsigned int)
 *fill*         0x08079977        0x1 37008
 .gnu.linkonce.t.__tfQ23stdt7num_get2ZcZQ23stdt19istreambuf_iterator2ZcZQ23stdt11char_traits1Zc
                0x08079978       0x34 /x86/lib/libcpp.a(locale.o)
                0x08079978                std::num_get<char, std::istreambuf_iterator<char, std::char_traits<char> > > type_info function
 .gnu.linkonce.t.use_facet__H1ZQ23stdt7num_get2ZcZQ23stdt19istreambuf_iterator2ZcZQ23stdt11char_traits1Zc_3stdRCQ23std6locale_RCX01
                0x080799ac      0x12b /x86/lib/libcpp.a(locale.o)
                0x080799ac                std::num_get<char, std::istreambuf_iterator<char, std::char_traits<char> > > const & std::use_facet<std::num_get<char, std::istreambuf_iterator<char, std::char_traits<char> > > >(std::locale const &)
 *fill*         0x08079ad7        0x1 37008
 .gnu.linkonce.t.__tfQ23stdt7codecvt3ZcZcZ9_Mbstatet
                0x08079ad8       0x34 /x86/lib/libcpp.a(locale.o)
                0x08079ad8                std::codecvt<char, char, _Mbstatet> type_info function
 .gnu.linkonce.t.use_facet__H1ZQ23stdt7codecvt3ZcZcZ9_Mbstatet_3stdRCQ23std6locale_RCX01
                0x08079b0c      0x12b /x86/lib/libcpp.a(locale.o)
                0x08079b0c                std::codecvt<char, char, _Mbstatet> const & std::use_facet<std::codecvt<char, char, _Mbstatet> >(std::locale const &)
 *fill*         0x08079c37        0x1 37008
 .gnu.linkonce.t.__tfQ23std12codecvt_base
                0x08079c38       0x4b /x86/lib/libcpp.a(locale.o)
                0x08079c38                std::codecvt_base type_info function
 *fill*         0x08079c83        0x1 37008
 .gnu.linkonce.t.compare__CQ23stdt12basic_string3ZcZQ23stdt11char_traits1ZcZQ23stdt9allocator1ZcRCQ23stdt12basic_string3ZcZQ23stdt11char_traits1ZcZQ23stdt9allocator1Zc
                0x08079c84       0x3a /x86/lib/libcpp.a(locale0.o)
                0x08079c84                std::basic_string<char, std::char_traits<char>, std::allocator<char> >::compare(std::basic_string<char, std::char_traits<char>, std::allocator<char> > const &) const
 *fill*         0x08079cbe        0x2 37008
 .gnu.linkonce.t.__tfQ33std6locale7_Locimp
                0x08079cc0       0x34 /x86/lib/libcpp.a(locale0.o)
                0x08079cc0                std::locale::_Locimp type_info function
 .gnu.linkonce.t.name__CQ23std6locale
                0x08079cf4       0x26 /x86/lib/libcpp.a(locale0.o)
                0x08079cf4                std::locale::name(void) const
 *fill*         0x08079d1a        0x2 37008
 .gnu.linkonce.t.__Q23std6localePQ33std6locale7_Locimp
                0x08079d1c       0x10 /x86/lib/libcpp.a(locale0.o)
                0x08079d1c                std::locale::locale(std::locale::_Locimp *)
 .gnu.linkonce.t.__tfQ23std9bad_alloc
                0x08079d2c       0x34 /x86/lib/libcpp.a(newaop.o)
                0x08079d2c                std::bad_alloc type_info function
 .gnu.linkonce.t.what__CQ23std9bad_alloc
                0x08079d60        0xa /x86/lib/libcpp.a(nomemory.o)
                0x08079d60                std::bad_alloc::what(void) const
 *fill*         0x08079d6a        0x2 37008
 .gnu.linkonce.t._._Q23std9bad_alloc
                0x08079d6c       0x65 /x86/lib/libcpp.a(nomemory.o)
                0x08079d6c                std::bad_alloc::~bad_alloc(void)
 *fill*         0x08079dd1        0x3 37008
 .gnu.linkonce.t._Doraise__CQ23std9bad_alloc
                0x08079dd4       0x3a /x86/lib/libcpp.a(nomemory.o)
                0x08079dd4                std::bad_alloc::_Doraise(void) const
 *fill*         0x08079e0e        0x2 37008
 .gnu.linkonce.t.__tfQ23std12out_of_range
                0x08079e10       0x55 /x86/lib/libcpp.a(string.o)
                0x08079e10                std::out_of_range type_info function
 *fill*         0x08079e65        0x3 37008
 .gnu.linkonce.t.__Q23std12out_of_rangeRCQ23stdt12basic_string3ZcZQ23stdt11char_traits1ZcZQ23stdt9allocator1Zc
                0x08079e68       0x23 /x86/lib/libcpp.a(string.o)
                0x08079e68                std::out_of_range::out_of_range(std::basic_string<char, std::char_traits<char>, std::allocator<char> > const &)
 *fill*         0x08079e8b        0x1 37008
 .gnu.linkonce.t._._Q23std12out_of_range
                0x08079e8c       0x1e /x86/lib/libcpp.a(string.o)
                0x08079e8c                std::out_of_range::~out_of_range(void)
 *fill*         0x08079eaa        0x2 37008
 .gnu.linkonce.t._Doraise__CQ23std12out_of_range
                0x08079eac       0x89 /x86/lib/libcpp.a(string.o)
                0x08079eac                std::out_of_range::_Doraise(void) const
 *fill*         0x08079f35        0x3 37008
 .gnu.linkonce.t._Init__Q23stdt5ctype1ZwRCQ23std8_Locinfo
                0x08079f38       0x3a /x86/lib/libcpp.a(wlocale.o)
                0x08079f38                std::ctype<wchar_t>::_Init(std::_Locinfo const &)
 *fill*         0x08079f72        0x2 37008
 .gnu.linkonce.t.__Q23stdt5ctype1ZwUi
                0x08079f74       0xc8 /x86/lib/libcpp.a(wlocale.o)
                0x08079f74                std::ctype<wchar_t>::ctype(unsigned int)
 .gnu.linkonce.t._Getcat__Q23stdt5ctype1ZwPPCQ33std6locale5facet
                0x0807a03c       0xa0 /x86/lib/libcpp.a(wlocale.o)
                0x0807a03c                std::ctype<wchar_t>::_Getcat(std::locale::facet const **)
 .gnu.linkonce.t.__Q23stdt5ctype1ZwRCQ23std8_LocinfoUi
                0x0807a0dc       0x6d /x86/lib/libcpp.a(wlocale.o)
                0x0807a0dc                std::ctype<wchar_t>::ctype(std::_Locinfo const &, unsigned int)
 *fill*         0x0807a149        0x3 37008
 .gnu.linkonce.t._Tidy__Q23stdt8_Tidyfac1ZQ23stdt5ctype1Zw
                0x0807a14c       0xb0 /x86/lib/libcpp.a(wlocale.o)
                0x0807a14c                std::_Tidyfac<std::ctype<wchar_t> >::_Tidy(void)
 .gnu.linkonce.t._Save__Q23stdt8_Tidyfac1ZQ23stdt5ctype1ZwPQ23stdt5ctype1Zw
                0x0807a1fc       0x3a /x86/lib/libcpp.a(wlocale.o)
                0x0807a1fc                std::_Tidyfac<std::ctype<wchar_t> >::_Save(std::ctype<wchar_t> *)
 *fill*         0x0807a236        0x2 37008
 .gnu.linkonce.t._Init__Q23stdt7num_get2ZwZQ23stdt19istreambuf_iterator2ZwZQ23stdt11char_traits1ZwRCQ23std8_Locinfo
                0x0807a238        0x8 /x86/lib/libcpp.a(wlocale.o)
                0x0807a238                std::num_get<wchar_t, std::istreambuf_iterator<wchar_t, std::char_traits<wchar_t> > >::_Init(std::_Locinfo const &)
 .gnu.linkonce.t.__Q23stdt7num_get2ZwZQ23stdt19istreambuf_iterator2ZwZQ23stdt11char_traits1ZwUi
                0x0807a240       0xc8 /x86/lib/libcpp.a(wlocale.o)
                0x0807a240                std::num_get<wchar_t, std::istreambuf_iterator<wchar_t, std::char_traits<wchar_t> > >::num_get(unsigned int)
 .gnu.linkonce.t._Getcat__Q23stdt7num_get2ZwZQ23stdt19istreambuf_iterator2ZwZQ23stdt11char_traits1ZwPPCQ33std6locale5facet
                0x0807a308       0xa0 /x86/lib/libcpp.a(wlocale.o)
                0x0807a308                std::num_get<wchar_t, std::istreambuf_iterator<wchar_t, std::char_traits<wchar_t> > >::_Getcat(std::locale::facet const **)
 .gnu.linkonce.t.__Q23stdt7num_get2ZwZQ23stdt19istreambuf_iterator2ZwZQ23stdt11char_traits1ZwRCQ23std8_LocinfoUi
                0x0807a3a8       0x6d /x86/lib/libcpp.a(wlocale.o)
                0x0807a3a8                std::num_get<wchar_t, std::istreambuf_iterator<wchar_t, std::char_traits<wchar_t> > >::num_get(std::_Locinfo const &, unsigned int)
 *fill*         0x0807a415        0x3 37008
 .gnu.linkonce.t._Tidy__Q23stdt8_Tidyfac1ZQ23stdt7num_get2ZwZQ23stdt19istreambuf_iterator2ZwZQ23stdt11char_traits1Zw
                0x0807a418       0xb0 /x86/lib/libcpp.a(wlocale.o)
                0x0807a418                std::_Tidyfac<std::num_get<wchar_t, std::istreambuf_iterator<wchar_t, std::char_traits<wchar_t> > > >::_Tidy(void)
 .gnu.linkonce.t._Save__Q23stdt8_Tidyfac1ZQ23stdt7num_get2ZwZQ23stdt19istreambuf_iterator2ZwZQ23stdt11char_traits1ZwPQ23stdt7num_get2ZwZQ23stdt19istreambuf_iterator2ZwZQ23stdt11char_traits1Zw
                0x0807a4c8       0x3a /x86/lib/libcpp.a(wlocale.o)
                0x0807a4c8                std::_Tidyfac<std::num_get<wchar_t, std::istreambuf_iterator<wchar_t, std::char_traits<wchar_t> > > >::_Save(std::num_get<wchar_t, std::istreambuf_iterator<wchar_t, std::char_traits<wchar_t> > > *)
 *fill*         0x0807a502        0x2 37008
 .gnu.linkonce.t._Init__Q23stdt7num_put2ZwZQ23stdt19ostreambuf_iterator2ZwZQ23stdt11char_traits1ZwRCQ23std8_Locinfo
                0x0807a504        0x8 /x86/lib/libcpp.a(wlocale.o)
                0x0807a504                std::num_put<wchar_t, std::ostreambuf_iterator<wchar_t, std::char_traits<wchar_t> > >::_Init(std::_Locinfo const &)
 .gnu.linkonce.t.__Q23stdt7num_put2ZwZQ23stdt19ostreambuf_iterator2ZwZQ23stdt11char_traits1ZwUi
                0x0807a50c       0xc8 /x86/lib/libcpp.a(wlocale.o)
                0x0807a50c                std::num_put<wchar_t, std::ostreambuf_iterator<wchar_t, std::char_traits<wchar_t> > >::num_put(unsigned int)
 .gnu.linkonce.t._Getcat__Q23stdt7num_put2ZwZQ23stdt19ostreambuf_iterator2ZwZQ23stdt11char_traits1ZwPPCQ33std6locale5facet
                0x0807a5d4       0xa0 /x86/lib/libcpp.a(wlocale.o)
                0x0807a5d4                std::num_put<wchar_t, std::ostreambuf_iterator<wchar_t, std::char_traits<wchar_t> > >::_Getcat(std::locale::facet const **)
 .gnu.linkonce.t.__Q23stdt7num_put2ZwZQ23stdt19ostreambuf_iterator2ZwZQ23stdt11char_traits1ZwRCQ23std8_LocinfoUi
                0x0807a674       0x6d /x86/lib/libcpp.a(wlocale.o)
                0x0807a674                std::num_put<wchar_t, std::ostreambuf_iterator<wchar_t, std::char_traits<wchar_t> > >::num_put(std::_Locinfo const &, unsigned int)
 *fill*         0x0807a6e1        0x3 37008
 .gnu.linkonce.t._Tidy__Q23stdt8_Tidyfac1ZQ23stdt7num_put2ZwZQ23stdt19ostreambuf_iterator2ZwZQ23stdt11char_traits1Zw
                0x0807a6e4       0xb0 /x86/lib/libcpp.a(wlocale.o)
                0x0807a6e4                std::_Tidyfac<std::num_put<wchar_t, std::ostreambuf_iterator<wchar_t, std::char_traits<wchar_t> > > >::_Tidy(void)
 .gnu.linkonce.t._Save__Q23stdt8_Tidyfac1ZQ23stdt7num_put2ZwZQ23stdt19ostreambuf_iterator2ZwZQ23stdt11char_traits1ZwPQ23stdt7num_put2ZwZQ23stdt19ostreambuf_iterator2ZwZQ23stdt11char_traits1Zw
                0x0807a794       0x3a /x86/lib/libcpp.a(wlocale.o)
                0x0807a794                std::_Tidyfac<std::num_put<wchar_t, std::ostreambuf_iterator<wchar_t, std::char_traits<wchar_t> > > >::_Save(std::num_put<wchar_t, std::ostreambuf_iterator<wchar_t, std::char_traits<wchar_t> > > *)
 *fill*         0x0807a7ce        0x2 37008
 .gnu.linkonce.t._Maklocstr__H1Zw_3stdPCcPX01_PX01
                0x0807a7d0       0x7f /x86/lib/libcpp.a(wlocale.o)
                0x0807a7d0                wchar_t * std::_Maklocstr<wchar_t>(char const *, wchar_t *)
 *fill*         0x0807a84f        0x1 37008
 .gnu.linkonce.t._Init__Q23stdt8numpunct1ZwRCQ23std8_Locinfo
                0x0807a850       0xbc /x86/lib/libcpp.a(wlocale.o)
                0x0807a850                std::numpunct<wchar_t>::_Init(std::_Locinfo const &)
 .gnu.linkonce.t.__Q23stdt8numpunct1ZwUi
                0x0807a90c       0xc8 /x86/lib/libcpp.a(wlocale.o)
                0x0807a90c                std::numpunct<wchar_t>::numpunct(unsigned int)
 .gnu.linkonce.t._Getcat__Q23stdt8numpunct1ZwPPCQ33std6locale5facet
                0x0807a9d4       0xa0 /x86/lib/libcpp.a(wlocale.o)
                0x0807a9d4                std::numpunct<wchar_t>::_Getcat(std::locale::facet const **)
 .gnu.linkonce.t.__Q23stdt8numpunct1ZwRCQ23std8_LocinfoUi
                0x0807aa74       0x6d /x86/lib/libcpp.a(wlocale.o)
                0x0807aa74                std::numpunct<wchar_t>::numpunct(std::_Locinfo const &, unsigned int)
 *fill*         0x0807aae1        0x3 37008
 .gnu.linkonce.t._Tidy__Q23stdt8_Tidyfac1ZQ23stdt8numpunct1Zw
                0x0807aae4       0xb0 /x86/lib/libcpp.a(wlocale.o)
                0x0807aae4                std::_Tidyfac<std::numpunct<wchar_t> >::_Tidy(void)
 .gnu.linkonce.t._Save__Q23stdt8_Tidyfac1ZQ23stdt8numpunct1ZwPQ23stdt8numpunct1Zw
                0x0807ab94       0x3a /x86/lib/libcpp.a(wlocale.o)
                0x0807ab94                std::_Tidyfac<std::numpunct<wchar_t> >::_Save(std::numpunct<wchar_t> *)
 *fill*         0x0807abce        0x2 37008
 .gnu.linkonce.t._Init__Q23stdt7collate1ZwRCQ23std8_Locinfo
                0x0807abd0       0x28 /x86/lib/libcpp.a(wlocale.o)
                0x0807abd0                std::collate<wchar_t>::_Init(std::_Locinfo const &)
 .gnu.linkonce.t.__Q23stdt7collate1ZwUi
                0x0807abf8       0xc8 /x86/lib/libcpp.a(wlocale.o)
                0x0807abf8                std::collate<wchar_t>::collate(unsigned int)
 .gnu.linkonce.t._Getcat__Q23stdt7collate1ZwPPCQ33std6locale5facet
                0x0807acc0       0xa0 /x86/lib/libcpp.a(wlocale.o)
                0x0807acc0                std::collate<wchar_t>::_Getcat(std::locale::facet const **)
 .gnu.linkonce.t.__Q23stdt7collate1ZwRCQ23std8_LocinfoUi
                0x0807ad60       0x6d /x86/lib/libcpp.a(wlocale.o)
                0x0807ad60                std::collate<wchar_t>::collate(std::_Locinfo const &, unsigned int)
 *fill*         0x0807adcd        0x3 37008
 .gnu.linkonce.t._Tidy__Q23stdt8_Tidyfac1ZQ23stdt7collate1Zw
                0x0807add0       0xb0 /x86/lib/libcpp.a(wlocale.o)
                0x0807add0                std::_Tidyfac<std::collate<wchar_t> >::_Tidy(void)
 .gnu.linkonce.t._Save__Q23stdt8_Tidyfac1ZQ23stdt7collate1ZwPQ23stdt7collate1Zw
                0x0807ae80       0x3a /x86/lib/libcpp.a(wlocale.o)
                0x0807ae80                std::_Tidyfac<std::collate<wchar_t> >::_Save(std::collate<wchar_t> *)
 *fill*         0x0807aeba        0x2 37008
 .gnu.linkonce.t._._Q23std13messages_base
                0x0807aebc       0x22 /x86/lib/libcpp.a(wlocale.o)
                0x0807aebc                std::messages_base::~messages_base(void)
 *fill*         0x0807aede        0x2 37008
 .gnu.linkonce.t._Init__Q23stdt8messages1ZwRCQ23std8_Locinfo
                0x0807aee0        0x8 /x86/lib/libcpp.a(wlocale.o)
                0x0807aee0                std::messages<wchar_t>::_Init(std::_Locinfo const &)
 .gnu.linkonce.t.__Q23stdt8messages1ZwUi
                0x0807aee8       0xc8 /x86/lib/libcpp.a(wlocale.o)
                0x0807aee8                std::messages<wchar_t>::messages(unsigned int)
 .gnu.linkonce.t._Getcat__Q23stdt8messages1ZwPPCQ33std6locale5facet
                0x0807afb0       0xa0 /x86/lib/libcpp.a(wlocale.o)
                0x0807afb0                std::messages<wchar_t>::_Getcat(std::locale::facet const **)
 .gnu.linkonce.t.__Q23stdt8messages1ZwRCQ23std8_LocinfoUi
                0x0807b050       0x6d /x86/lib/libcpp.a(wlocale.o)
                0x0807b050                std::messages<wchar_t>::messages(std::_Locinfo const &, unsigned int)
 *fill*         0x0807b0bd        0x3 37008
 .gnu.linkonce.t._Tidy__Q23stdt8_Tidyfac1ZQ23stdt8messages1Zw
                0x0807b0c0       0xb0 /x86/lib/libcpp.a(wlocale.o)
                0x0807b0c0                std::_Tidyfac<std::messages<wchar_t> >::_Tidy(void)
 .gnu.linkonce.t._Save__Q23stdt8_Tidyfac1ZQ23stdt8messages1ZwPQ23stdt8messages1Zw
                0x0807b170       0x3a /x86/lib/libcpp.a(wlocale.o)
                0x0807b170                std::_Tidyfac<std::messages<wchar_t> >::_Save(std::messages<wchar_t> *)
 *fill*         0x0807b1aa        0x2 37008
 .gnu.linkonce.t._Init__Q23stdt9money_get2ZwZQ23stdt19istreambuf_iterator2ZwZQ23stdt11char_traits1ZwRCQ23std8_Locinfo
                0x0807b1ac        0x8 /x86/lib/libcpp.a(wlocale.o)
                0x0807b1ac                std::money_get<wchar_t, std::istreambuf_iterator<wchar_t, std::char_traits<wchar_t> > >::_Init(std::_Locinfo const &)
 .gnu.linkonce.t.__Q23stdt9money_get2ZwZQ23stdt19istreambuf_iterator2ZwZQ23stdt11char_traits1ZwUi
                0x0807b1b4       0xc8 /x86/lib/libcpp.a(wlocale.o)
                0x0807b1b4                std::money_get<wchar_t, std::istreambuf_iterator<wchar_t, std::char_traits<wchar_t> > >::money_get(unsigned int)
 .gnu.linkonce.t._Getcat__Q23stdt9money_get2ZwZQ23stdt19istreambuf_iterator2ZwZQ23stdt11char_traits1ZwPPCQ33std6locale5facet
                0x0807b27c       0xa0 /x86/lib/libcpp.a(wlocale.o)
                0x0807b27c                std::money_get<wchar_t, std::istreambuf_iterator<wchar_t, std::char_traits<wchar_t> > >::_Getcat(std::locale::facet const **)
 .gnu.linkonce.t.__Q23stdt9money_get2ZwZQ23stdt19istreambuf_iterator2ZwZQ23stdt11char_traits1ZwRCQ23std8_LocinfoUi
                0x0807b31c       0x6d /x86/lib/libcpp.a(wlocale.o)
                0x0807b31c                std::money_get<wchar_t, std::istreambuf_iterator<wchar_t, std::char_traits<wchar_t> > >::money_get(std::_Locinfo const &, unsigned int)
 *fill*         0x0807b389        0x3 37008
 .gnu.linkonce.t._Tidy__Q23stdt8_Tidyfac1ZQ23stdt9money_get2ZwZQ23stdt19istreambuf_iterator2ZwZQ23stdt11char_traits1Zw
                0x0807b38c       0xb0 /x86/lib/libcpp.a(wlocale.o)
                0x0807b38c                std::_Tidyfac<std::money_get<wchar_t, std::istreambuf_iterator<wchar_t, std::char_traits<wchar_t> > > >::_Tidy(void)
 .gnu.linkonce.t._Save__Q23stdt8_Tidyfac1ZQ23stdt9money_get2ZwZQ23stdt19istreambuf_iterator2ZwZQ23stdt11char_traits1ZwPQ23stdt9money_get2ZwZQ23stdt19istreambuf_iterator2ZwZQ23stdt11char_traits1Zw
                0x0807b43c       0x3a /x86/lib/libcpp.a(wlocale.o)
                0x0807b43c                std::_Tidyfac<std::money_get<wchar_t, std::istreambuf_iterator<wchar_t, std::char_traits<wchar_t> > > >::_Save(std::money_get<wchar_t, std::istreambuf_iterator<wchar_t, std::char_traits<wchar_t> > > *)
 *fill*         0x0807b476        0x2 37008
 .gnu.linkonce.t._Init__Q23stdt9money_put2ZwZQ23stdt19ostreambuf_iterator2ZwZQ23stdt11char_traits1ZwRCQ23std8_Locinfo
                0x0807b478        0x8 /x86/lib/libcpp.a(wlocale.o)
                0x0807b478                std::money_put<wchar_t, std::ostreambuf_iterator<wchar_t, std::char_traits<wchar_t> > >::_Init(std::_Locinfo const &)
 .gnu.linkonce.t.__Q23stdt9money_put2ZwZQ23stdt19ostreambuf_iterator2ZwZQ23stdt11char_traits1ZwUi
                0x0807b480       0xc8 /x86/lib/libcpp.a(wlocale.o)
                0x0807b480                std::money_put<wchar_t, std::ostreambuf_iterator<wchar_t, std::char_traits<wchar_t> > >::money_put(unsigned int)
 .gnu.linkonce.t._Getcat__Q23stdt9money_put2ZwZQ23stdt19ostreambuf_iterator2ZwZQ23stdt11char_traits1ZwPPCQ33std6locale5facet
                0x0807b548       0xa0 /x86/lib/libcpp.a(wlocale.o)
                0x0807b548                std::money_put<wchar_t, std::ostreambuf_iterator<wchar_t, std::char_traits<wchar_t> > >::_Getcat(std::locale::facet const **)
 .gnu.linkonce.t.__Q23stdt9money_put2ZwZQ23stdt19ostreambuf_iterator2ZwZQ23stdt11char_traits1ZwRCQ23std8_LocinfoUi
                0x0807b5e8       0x6d /x86/lib/libcpp.a(wlocale.o)
                0x0807b5e8                std::money_put<wchar_t, std::ostreambuf_iterator<wchar_t, std::char_traits<wchar_t> > >::money_put(std::_Locinfo const &, unsigned int)
 *fill*         0x0807b655        0x3 37008
 .gnu.linkonce.t._Tidy__Q23stdt8_Tidyfac1ZQ23stdt9money_put2ZwZQ23stdt19ostreambuf_iterator2ZwZQ23stdt11char_traits1Zw
                0x0807b658       0xb0 /x86/lib/libcpp.a(wlocale.o)
                0x0807b658                std::_Tidyfac<std::money_put<wchar_t, std::ostreambuf_iterator<wchar_t, std::char_traits<wchar_t> > > >::_Tidy(void)
 .gnu.linkonce.t._Save__Q23stdt8_Tidyfac1ZQ23stdt9money_put2ZwZQ23stdt19ostreambuf_iterator2ZwZQ23stdt11char_traits1ZwPQ23stdt9money_put2ZwZQ23stdt19ostreambuf_iterator2ZwZQ23stdt11char_traits1Zw
                0x0807b708       0x3a /x86/lib/libcpp.a(wlocale.o)
                0x0807b708                std::_Tidyfac<std::money_put<wchar_t, std::ostreambuf_iterator<wchar_t, std::char_traits<wchar_t> > > >::_Save(std::money_put<wchar_t, std::ostreambuf_iterator<wchar_t, std::char_traits<wchar_t> > > *)
 *fill*         0x0807b742        0x2 37008
 .gnu.linkonce.t._._Q23std10money_base
                0x0807b744       0x22 /x86/lib/libcpp.a(wlocale.o)
                0x0807b744                std::money_base::~money_base(void)
 *fill*         0x0807b766        0x2 37008
 .gnu.linkonce.t._Makpat__Q23stdt7_Mpunct1ZwRQ33std10money_base7patternUiUiUi
                0x0807b768       0x81 /x86/lib/libcpp.a(wlocale.o)
                0x0807b768                std::_Mpunct<wchar_t>::_Makpat(std::money_base::pattern &, unsigned int, unsigned int, unsigned int)
 *fill*         0x0807b7e9        0x3 37008
 .gnu.linkonce.t._Init__Q23stdt7_Mpunct1ZwRCQ23std8_Locinfo
                0x0807b7ec      0x174 /x86/lib/libcpp.a(wlocale.o)
                0x0807b7ec                std::_Mpunct<wchar_t>::_Init(std::_Locinfo const &)
 .gnu.linkonce.t.__Q23stdt7_Mpunct1ZwUib
                0x0807b960       0xcc /x86/lib/libcpp.a(wlocale.o)
                0x0807b960                std::_Mpunct<wchar_t>::_Mpunct(unsigned int, bool)
 .gnu.linkonce.t._._Q23stdt7_Mpunct1Zw
                0x0807ba2c       0x85 /x86/lib/libcpp.a(wlocale.o)
                0x0807ba2c                std::_Mpunct<wchar_t>::~_Mpunct(void)
 *fill*         0x0807bab1        0x3 37008
 .gnu.linkonce.t.__Q23stdt10moneypunct2Zwb0Ui
                0x0807bab4       0x61 /x86/lib/libcpp.a(wlocale.o)
                0x0807bab4                std::moneypunct<wchar_t, false>::moneypunct(unsigned int)
 *fill*         0x0807bb15        0x3 37008
 .gnu.linkonce.t._Getcat__Q23stdt10moneypunct2Zwb0PPCQ33std6locale5facet
                0x0807bb18       0xa0 /x86/lib/libcpp.a(wlocale.o)
                0x0807bb18                std::moneypunct<wchar_t, false>::_Getcat(std::locale::facet const **)
 .gnu.linkonce.t.__Q23stdt7_Mpunct1ZwRCQ23std8_LocinfoUib
                0x0807bbb8       0x75 /x86/lib/libcpp.a(wlocale.o)
                0x0807bbb8                std::_Mpunct<wchar_t>::_Mpunct(std::_Locinfo const &, unsigned int, bool)
 *fill*         0x0807bc2d        0x3 37008
 .gnu.linkonce.t.__Q23stdt10moneypunct2Zwb0RCQ23std8_LocinfoUi
                0x0807bc30       0x61 /x86/lib/libcpp.a(wlocale.o)
                0x0807bc30                std::moneypunct<wchar_t, false>::moneypunct(std::_Locinfo const &, unsigned int)
 *fill*         0x0807bc91        0x3 37008
 .gnu.linkonce.t._Tidy__Q23stdt8_Tidyfac1ZQ23stdt10moneypunct2Zwb0
                0x0807bc94       0xb0 /x86/lib/libcpp.a(wlocale.o)
                0x0807bc94                std::_Tidyfac<std::moneypunct<wchar_t, false> >::_Tidy(void)
 .gnu.linkonce.t._Save__Q23stdt8_Tidyfac1ZQ23stdt10moneypunct2Zwb0PQ23stdt10moneypunct2Zwb0
                0x0807bd44       0x3a /x86/lib/libcpp.a(wlocale.o)
                0x0807bd44                std::_Tidyfac<std::moneypunct<wchar_t, false> >::_Save(std::moneypunct<wchar_t, false> *)
 *fill*         0x0807bd7e        0x2 37008
 .gnu.linkonce.t.__Q23stdt10moneypunct2Zwb1Ui
                0x0807bd80       0x61 /x86/lib/libcpp.a(wlocale.o)
                0x0807bd80                std::moneypunct<wchar_t, true>::moneypunct(unsigned int)
 *fill*         0x0807bde1        0x3 37008
 .gnu.linkonce.t._Getcat__Q23stdt10moneypunct2Zwb1PPCQ33std6locale5facet
                0x0807bde4       0xa0 /x86/lib/libcpp.a(wlocale.o)
                0x0807bde4                std::moneypunct<wchar_t, true>::_Getcat(std::locale::facet const **)
 .gnu.linkonce.t.__Q23stdt10moneypunct2Zwb1RCQ23std8_LocinfoUi
                0x0807be84       0x61 /x86/lib/libcpp.a(wlocale.o)
                0x0807be84                std::moneypunct<wchar_t, true>::moneypunct(std::_Locinfo const &, unsigned int)
 *fill*         0x0807bee5        0x3 37008
 .gnu.linkonce.t._Tidy__Q23stdt8_Tidyfac1ZQ23stdt10moneypunct2Zwb1
                0x0807bee8       0xb0 /x86/lib/libcpp.a(wlocale.o)
                0x0807bee8                std::_Tidyfac<std::moneypunct<wchar_t, true> >::_Tidy(void)
 .gnu.linkonce.t._Save__Q23stdt8_Tidyfac1ZQ23stdt10moneypunct2Zwb1PQ23stdt10moneypunct2Zwb1
                0x0807bf98       0x3a /x86/lib/libcpp.a(wlocale.o)
                0x0807bf98                std::_Tidyfac<std::moneypunct<wchar_t, true> >::_Save(std::moneypunct<wchar_t, true> *)
 *fill*         0x0807bfd2        0x2 37008
 .gnu.linkonce.t._._Q23std9time_base
                0x0807bfd4       0x22 /x86/lib/libcpp.a(wlocale.o)
                0x0807bfd4                std::time_base::~time_base(void)
 *fill*         0x0807bff6        0x2 37008
 .gnu.linkonce.t._Init__Q23stdt8time_get2ZwZQ23stdt19istreambuf_iterator2ZwZQ23stdt11char_traits1ZwRCQ23std8_Locinfo
                0x0807bff8       0x57 /x86/lib/libcpp.a(wlocale.o)
                0x0807bff8                std::time_get<wchar_t, std::istreambuf_iterator<wchar_t, std::char_traits<wchar_t> > >::_Init(std::_Locinfo const &)
 *fill*         0x0807c04f        0x1 37008
 .gnu.linkonce.t.__Q23stdt8time_get2ZwZQ23stdt19istreambuf_iterator2ZwZQ23stdt11char_traits1ZwUi
                0x0807c050       0xc8 /x86/lib/libcpp.a(wlocale.o)
                0x0807c050                std::time_get<wchar_t, std::istreambuf_iterator<wchar_t, std::char_traits<wchar_t> > >::time_get(unsigned int)
 .gnu.linkonce.t._Getcat__Q23stdt8time_get2ZwZQ23stdt19istreambuf_iterator2ZwZQ23stdt11char_traits1ZwPPCQ33std6locale5facet
                0x0807c118       0xa0 /x86/lib/libcpp.a(wlocale.o)
                0x0807c118                std::time_get<wchar_t, std::istreambuf_iterator<wchar_t, std::char_traits<wchar_t> > >::_Getcat(std::locale::facet const **)
 .gnu.linkonce.t.__Q23stdt8time_get2ZwZQ23stdt19istreambuf_iterator2ZwZQ23stdt11char_traits1ZwRCQ23std8_LocinfoUi
                0x0807c1b8       0x6d /x86/lib/libcpp.a(wlocale.o)
                0x0807c1b8                std::time_get<wchar_t, std::istreambuf_iterator<wchar_t, std::char_traits<wchar_t> > >::time_get(std::_Locinfo const &, unsigned int)
 *fill*         0x0807c225        0x3 37008
 .gnu.linkonce.t._Tidy__Q23stdt8_Tidyfac1ZQ23stdt8time_get2ZwZQ23stdt19istreambuf_iterator2ZwZQ23stdt11char_traits1Zw
                0x0807c228       0xb0 /x86/lib/libcpp.a(wlocale.o)
                0x0807c228                std::_Tidyfac<std::time_get<wchar_t, std::istreambuf_iterator<wchar_t, std::char_traits<wchar_t> > > >::_Tidy(void)
 .gnu.linkonce.t._Save__Q23stdt8_Tidyfac1ZQ23stdt8time_get2ZwZQ23stdt19istreambuf_iterator2ZwZQ23stdt11char_traits1ZwPQ23stdt8time_get2ZwZQ23stdt19istreambuf_iterator2ZwZQ23stdt11char_traits1Zw
                0x0807c2d8       0x3a /x86/lib/libcpp.a(wlocale.o)
                0x0807c2d8                std::_Tidyfac<std::time_get<wchar_t, std::istreambuf_iterator<wchar_t, std::char_traits<wchar_t> > > >::_Save(std::time_get<wchar_t, std::istreambuf_iterator<wchar_t, std::char_traits<wchar_t> > > *)
 *fill*         0x0807c312        0x2 37008
 .gnu.linkonce.t._Init__Q23stdt8time_put2ZwZQ23stdt19ostreambuf_iterator2ZwZQ23stdt11char_traits1ZwRCQ23std8_Locinfo
                0x0807c314       0x38 /x86/lib/libcpp.a(wlocale.o)
                0x0807c314                std::time_put<wchar_t, std::ostreambuf_iterator<wchar_t, std::char_traits<wchar_t> > >::_Init(std::_Locinfo const &)
 .gnu.linkonce.t.__Q23stdt8time_put2ZwZQ23stdt19ostreambuf_iterator2ZwZQ23stdt11char_traits1ZwUi
                0x0807c34c       0xd8 /x86/lib/libcpp.a(wlocale.o)
                0x0807c34c                std::time_put<wchar_t, std::ostreambuf_iterator<wchar_t, std::char_traits<wchar_t> > >::time_put(unsigned int)
 .gnu.linkonce.t._Getcat__Q23stdt8time_put2ZwZQ23stdt19ostreambuf_iterator2ZwZQ23stdt11char_traits1ZwPPCQ33std6locale5facet
                0x0807c424       0xa0 /x86/lib/libcpp.a(wlocale.o)
                0x0807c424                std::time_put<wchar_t, std::ostreambuf_iterator<wchar_t, std::char_traits<wchar_t> > >::_Getcat(std::locale::facet const **)
 .gnu.linkonce.t.__Q23stdt8time_put2ZwZQ23stdt19ostreambuf_iterator2ZwZQ23stdt11char_traits1ZwRCQ23std8_LocinfoUi
                0x0807c4c4       0x7d /x86/lib/libcpp.a(wlocale.o)
                0x0807c4c4                std::time_put<wchar_t, std::ostreambuf_iterator<wchar_t, std::char_traits<wchar_t> > >::time_put(std::_Locinfo const &, unsigned int)
 *fill*         0x0807c541        0x3 37008
 .gnu.linkonce.t._Tidy__Q23stdt8_Tidyfac1ZQ23stdt8time_put2ZwZQ23stdt19ostreambuf_iterator2ZwZQ23stdt11char_traits1Zw
                0x0807c544       0xb0 /x86/lib/libcpp.a(wlocale.o)
                0x0807c544                std::_Tidyfac<std::time_put<wchar_t, std::ostreambuf_iterator<wchar_t, std::char_traits<wchar_t> > > >::_Tidy(void)
 .gnu.linkonce.t._Save__Q23stdt8_Tidyfac1ZQ23stdt8time_put2ZwZQ23stdt19ostreambuf_iterator2ZwZQ23stdt11char_traits1ZwPQ23stdt8time_put2ZwZQ23stdt19ostreambuf_iterator2ZwZQ23stdt11char_traits1Zw
                0x0807c5f4       0x3a /x86/lib/libcpp.a(wlocale.o)
                0x0807c5f4                std::_Tidyfac<std::time_put<wchar_t, std::ostreambuf_iterator<wchar_t, std::char_traits<wchar_t> > > >::_Save(std::time_put<wchar_t, std::ostreambuf_iterator<wchar_t, std::char_traits<wchar_t> > > *)
 *fill*         0x0807c62e        0x2 37008
 .gnu.linkonce.t._Tidy__Q23stdt8_Tidyfac1ZQ23stdt7codecvt3ZwZcZ9_Mbstatet
                0x0807c630       0xb0 /x86/lib/libcpp.a(wlocale.o)
                0x0807c630                std::_Tidyfac<std::codecvt<wchar_t, char, _Mbstatet> >::_Tidy(void)
 .gnu.linkonce.t._Save__Q23stdt8_Tidyfac1ZQ23stdt7codecvt3ZwZcZ9_MbstatetPQ23stdt7codecvt3ZwZcZ9_Mbstatet
                0x0807c6e0       0x3a /x86/lib/libcpp.a(wlocale.o)
                0x0807c6e0                std::_Tidyfac<std::codecvt<wchar_t, char, _Mbstatet> >::_Save(std::codecvt<wchar_t, char, _Mbstatet> *)
 *fill*         0x0807c71a        0x2 37008
 .gnu.linkonce.t._._Q23stdt8time_put2ZwZQ23stdt19ostreambuf_iterator2ZwZQ23stdt11char_traits1Zw
                0x0807c71c       0x26 /x86/lib/libcpp.a(wlocale.o)
                0x0807c71c                std::time_put<wchar_t, std::ostreambuf_iterator<wchar_t, std::char_traits<wchar_t> > >::~time_put(void)
 *fill*         0x0807c742        0x2 37008
 .gnu.linkonce.t.__pp__Q23stdt19ostreambuf_iterator2ZwZQ23stdt11char_traits1Zw
                0x0807c744        0xa /x86/lib/libcpp.a(wlocale.o)
                0x0807c744                std::ostreambuf_iterator<wchar_t, std::char_traits<wchar_t> >::operator++(void)
 *fill*         0x0807c74e        0x2 37008
 .gnu.linkonce.t.__pp__Q23stdt6_Ptrit6ZcZiZPCcZRCcZPcZRc
                0x0807c750        0xf /x86/lib/libcpp.a(wlocale.o)
                0x0807c750                std::_Ptrit<char, int, char const *, char const &, char *, char &>::operator++(void)
 *fill*         0x0807c75f        0x1 37008
 .gnu.linkonce.t.__ml__CQ23stdt6_Ptrit6ZcZiZPCcZRCcZPcZRc
                0x0807c760        0xf /x86/lib/libcpp.a(wlocale.o)
                0x0807c760                std::_Ptrit<char, int, char const *, char const &, char *, char &>::operator*(void) const
 *fill*         0x0807c76f        0x1 37008
 .gnu.linkonce.t.__ml__Q23stdt19ostreambuf_iterator2ZwZQ23stdt11char_traits1Zw
                0x0807c770        0xa /x86/lib/libcpp.a(wlocale.o)
                0x0807c770                std::ostreambuf_iterator<wchar_t, std::char_traits<wchar_t> >::operator*(void)
 *fill*         0x0807c77a        0x2 37008
 .gnu.linkonce.t.overflow__Q23stdt15basic_streambuf2ZwZQ23stdt11char_traits1Zww
                0x0807c77c       0x1a /x86/lib/libcpp.a(wlocale.o)
                0x0807c77c                std::basic_streambuf<wchar_t, std::char_traits<wchar_t> >::overflow(wchar_t)
 *fill*         0x0807c796        0x2 37008
 .gnu.linkonce.t._Pninc__Q23stdt15basic_streambuf2ZwZQ23stdt11char_traits1Zw
                0x0807c798       0x14 /x86/lib/libcpp.a(wlocale.o)
                0x0807c798                std::basic_streambuf<wchar_t, std::char_traits<wchar_t> >::_Pninc(void)
 .gnu.linkonce.t.epptr__CQ23stdt15basic_streambuf2ZwZQ23stdt11char_traits1Zw
                0x0807c7ac       0x11 /x86/lib/libcpp.a(wlocale.o)
                0x0807c7ac                std::basic_streambuf<wchar_t, std::char_traits<wchar_t> >::epptr(void) const
 *fill*         0x0807c7bd        0x3 37008
 .gnu.linkonce.t.pptr__CQ23stdt15basic_streambuf2ZwZQ23stdt11char_traits1Zw
                0x0807c7c0       0x11 /x86/lib/libcpp.a(wlocale.o)
                0x0807c7c0                std::basic_streambuf<wchar_t, std::char_traits<wchar_t> >::pptr(void) const
 *fill*         0x0807c7d1        0x3 37008
 .gnu.linkonce.t.sputc__Q23stdt15basic_streambuf2ZwZQ23stdt11char_traits1Zww
                0x0807c7d4       0xa8 /x86/lib/libcpp.a(wlocale.o)
                0x0807c7d4                std::basic_streambuf<wchar_t, std::char_traits<wchar_t> >::sputc(wchar_t)
 .gnu.linkonce.t.__as__Q23stdt19ostreambuf_iterator2ZwZQ23stdt11char_traits1Zww
                0x0807c87c       0x5c /x86/lib/libcpp.a(wlocale.o)
                0x0807c87c                std::ostreambuf_iterator<wchar_t, std::char_traits<wchar_t> >::operator=(wchar_t)
 .gnu.linkonce.t.do_put__CQ23stdt8time_put2ZwZQ23stdt19ostreambuf_iterator2ZwZQ23stdt11char_traits1ZwGQ23stdt19ostreambuf_iterator2ZwZQ23stdt11char_traits1ZwRQ23std8ios_basewPCQ23std2tmcc
                0x0807c8d8      0x1eb /x86/lib/libcpp.a(wlocale.o)
                0x0807c8d8                std::time_put<wchar_t, std::ostreambuf_iterator<wchar_t, std::char_traits<wchar_t> > >::do_put(std::ostreambuf_iterator<wchar_t, std::char_traits<wchar_t> >, std::ios_base &, wchar_t, std::tm const *, char, char) const
 *fill*         0x0807cac3        0x1 37008
 .gnu.linkonce.t._._Q23stdt8time_get2ZwZQ23stdt19istreambuf_iterator2ZwZQ23stdt11char_traits1Zw
                0x0807cac4       0x55 /x86/lib/libcpp.a(wlocale.o)
                0x0807cac4                std::time_get<wchar_t, std::istreambuf_iterator<wchar_t, std::char_traits<wchar_t> > >::~time_get(void)
 *fill*         0x0807cb19        0x3 37008
 .gnu.linkonce.t.do_date_order__CQ23stdt8time_get2ZwZQ23stdt19istreambuf_iterator2ZwZQ23stdt11char_traits1Zw
                0x0807cb1c        0xf /x86/lib/libcpp.a(wlocale.o)
                0x0807cb1c                std::time_get<wchar_t, std::istreambuf_iterator<wchar_t, std::char_traits<wchar_t> > >::do_date_order(void) const
 *fill*         0x0807cb2b        0x1 37008
 .gnu.linkonce.t.underflow__Q23stdt15basic_streambuf2ZwZQ23stdt11char_traits1Zw
                0x0807cb2c       0x1a /x86/lib/libcpp.a(wlocale.o)
                0x0807cb2c                std::basic_streambuf<wchar_t, std::char_traits<wchar_t> >::underflow(void)
 *fill*         0x0807cb46        0x2 37008
 .gnu.linkonce.t.gptr__CQ23stdt15basic_streambuf2ZwZQ23stdt11char_traits1Zw
                0x0807cb48       0x11 /x86/lib/libcpp.a(wlocale.o)
                0x0807cb48                std::basic_streambuf<wchar_t, std::char_traits<wchar_t> >::gptr(void) const
 *fill*         0x0807cb59        0x3 37008
 .gnu.linkonce.t.egptr__CQ23stdt15basic_streambuf2ZwZQ23stdt11char_traits1Zw
                0x0807cb5c       0x11 /x86/lib/libcpp.a(wlocale.o)
                0x0807cb5c                std::basic_streambuf<wchar_t, std::char_traits<wchar_t> >::egptr(void) const
 *fill*         0x0807cb6d        0x3 37008
 .gnu.linkonce.t.sgetc__Q23stdt15basic_streambuf2ZwZQ23stdt11char_traits1Zw
                0x0807cb70       0x88 /x86/lib/libcpp.a(wlocale.o)
                0x0807cb70                std::basic_streambuf<wchar_t, std::char_traits<wchar_t> >::sgetc(void)
 .gnu.linkonce.t._Peek__Q23stdt19istreambuf_iterator2ZwZQ23stdt11char_traits1Zw
                0x0807cbf8       0x7b /x86/lib/libcpp.a(wlocale.o)
                0x0807cbf8                std::istreambuf_iterator<wchar_t, std::char_traits<wchar_t> >::_Peek(void)
 *fill*         0x0807cc73        0x1 37008
 .gnu.linkonce.t.equal__CQ23stdt19istreambuf_iterator2ZwZQ23stdt11char_traits1ZwRCQ23stdt19istreambuf_iterator2ZwZQ23stdt11char_traits1Zw
                0x0807cc74       0x6a /x86/lib/libcpp.a(wlocale.o)
                0x0807cc74                std::istreambuf_iterator<wchar_t, std::char_traits<wchar_t> >::equal(std::istreambuf_iterator<wchar_t, std::char_traits<wchar_t> > const &) const
 *fill*         0x0807ccde        0x2 37008
 .gnu.linkonce.t.__eq__H2ZwZQ23stdt11char_traits1Zw_3stdRCQ23stdt19istreambuf_iterator2ZX01ZX11T1_b
                0x0807cce0       0x28 /x86/lib/libcpp.a(wlocale.o)
                0x0807cce0                bool std::operator==<wchar_t, std::char_traits<wchar_t> >(std::istreambuf_iterator<wchar_t, std::char_traits<wchar_t> > const &, std::istreambuf_iterator<wchar_t, std::char_traits<wchar_t> > const &)
 .gnu.linkonce.t.__ml__CQ23stdt19istreambuf_iterator2ZwZQ23stdt11char_traits1Zw
                0x0807cd08       0x28 /x86/lib/libcpp.a(wlocale.o)
                0x0807cd08                std::istreambuf_iterator<wchar_t, std::char_traits<wchar_t> >::operator*(void) const
 .gnu.linkonce.t._Gninc__Q23stdt15basic_streambuf2ZwZQ23stdt11char_traits1Zw
                0x0807cd30       0x14 /x86/lib/libcpp.a(wlocale.o)
                0x0807cd30                std::basic_streambuf<wchar_t, std::char_traits<wchar_t> >::_Gninc(void)
 .gnu.linkonce.t.uflow__Q23stdt15basic_streambuf2ZwZQ23stdt11char_traits1Zw
                0x0807cd44       0x7c /x86/lib/libcpp.a(wlocale.o)
                0x0807cd44                std::basic_streambuf<wchar_t, std::char_traits<wchar_t> >::uflow(void)
 .gnu.linkonce.t.sbumpc__Q23stdt15basic_streambuf2ZwZQ23stdt11char_traits1Zw
                0x0807cdc0       0x88 /x86/lib/libcpp.a(wlocale.o)
                0x0807cdc0                std::basic_streambuf<wchar_t, std::char_traits<wchar_t> >::sbumpc(void)
 .gnu.linkonce.t._Inc__Q23stdt19istreambuf_iterator2ZwZQ23stdt11char_traits1Zw
                0x0807ce48       0x64 /x86/lib/libcpp.a(wlocale.o)
                0x0807ce48                std::istreambuf_iterator<wchar_t, std::char_traits<wchar_t> >::_Inc(void)
 .gnu.linkonce.t.__pp__Q23stdt19istreambuf_iterator2ZwZQ23stdt11char_traits1Zw
                0x0807ceac       0x1f /x86/lib/libcpp.a(wlocale.o)
                0x0807ceac                std::istreambuf_iterator<wchar_t, std::char_traits<wchar_t> >::operator++(void)
 *fill*         0x0807cecb        0x1 37008
 .gnu.linkonce.t.__ne__H2ZwZQ23stdt11char_traits1Zw_3stdRCQ23stdt19istreambuf_iterator2ZX01ZX11T1_b
                0x0807cecc       0x2b /x86/lib/libcpp.a(wlocale.o)
                0x0807cecc                bool std::operator!=<wchar_t, std::char_traits<wchar_t> >(std::istreambuf_iterator<wchar_t, std::char_traits<wchar_t> > const &, std::istreambuf_iterator<wchar_t, std::char_traits<wchar_t> > const &)
 *fill*         0x0807cef7        0x1 37008
 .gnu.linkonce.t._Getint__Q23stdt8time_get2ZwZQ23stdt19istreambuf_iterator2ZwZQ23stdt11char_traits1ZwRQ23stdt19istreambuf_iterator2ZwZQ23stdt11char_traits1ZwT1iiRi
                0x0807cef8      0x28b /x86/lib/libcpp.a(wlocale.o)
                0x0807cef8                std::time_get<wchar_t, std::istreambuf_iterator<wchar_t, std::char_traits<wchar_t> > >::_Getint(std::istreambuf_iterator<wchar_t, std::char_traits<wchar_t> > &, std::istreambuf_iterator<wchar_t, std::char_traits<wchar_t> > &, int, int, int &)
 *fill*         0x0807d183        0x1 37008
 .gnu.linkonce.t.do_get_time__CQ23stdt8time_get2ZwZQ23stdt19istreambuf_iterator2ZwZQ23stdt11char_traits1ZwGQ23stdt19istreambuf_iterator2ZwZQ23stdt11char_traits1ZwT1RQ23std8ios_baseRQ33stdt5_Iosb1Zi8_IostatePQ23std2tm
                0x0807d184      0x160 /x86/lib/libcpp.a(wlocale.o)
                0x0807d184                std::time_get<wchar_t, std::istreambuf_iterator<wchar_t, std::char_traits<wchar_t> > >::do_get_time(std::istreambuf_iterator<wchar_t, std::char_traits<wchar_t> >, std::istreambuf_iterator<wchar_t, std::char_traits<wchar_t> >, std::ios_base &, std::_Iosb<int>::_Iostate &, std::tm *) const
 .gnu.linkonce.t._Getloctxt__H2ZwZQ23stdt19istreambuf_iterator2ZwZQ23stdt11char_traits1Zw_3stdRX11T1UiPCX01_i
                0x0807d2e4      0x260 /x86/lib/libcpp.a(wlocale.o)
                0x0807d2e4                int std::_Getloctxt<wchar_t, std::istreambuf_iterator<wchar_t, std::char_traits<wchar_t> > >(std::istreambuf_iterator<wchar_t, std::char_traits<wchar_t> > &, std::istreambuf_iterator<wchar_t, std::char_traits<wchar_t> > &, unsigned int, wchar_t const *)
 .gnu.linkonce.t.do_get_monthname__CQ23stdt8time_get2ZwZQ23stdt19istreambuf_iterator2ZwZQ23stdt11char_traits1ZwGQ23stdt19istreambuf_iterator2ZwZQ23stdt11char_traits1ZwT1RQ23std8ios_baseRQ33stdt5_Iosb1Zi8_IostatePQ23std2tm
                0x0807d544       0x74 /x86/lib/libcpp.a(wlocale.o)
                0x0807d544                std::time_get<wchar_t, std::istreambuf_iterator<wchar_t, std::char_traits<wchar_t> > >::do_get_monthname(std::istreambuf_iterator<wchar_t, std::char_traits<wchar_t> >, std::istreambuf_iterator<wchar_t, std::char_traits<wchar_t> >, std::ios_base &, std::_Iosb<int>::_Iostate &, std::tm *) const
 .gnu.linkonce.t.get_monthname__CQ23stdt8time_get2ZwZQ23stdt19istreambuf_iterator2ZwZQ23stdt11char_traits1ZwGQ23stdt19istreambuf_iterator2ZwZQ23stdt11char_traits1ZwT1RQ23std8ios_baseRQ33stdt5_Iosb1Zi8_IostatePQ23std2tm
                0x0807d5b8       0x83 /x86/lib/libcpp.a(wlocale.o)
                0x0807d5b8                std::time_get<wchar_t, std::istreambuf_iterator<wchar_t, std::char_traits<wchar_t> > >::get_monthname(std::istreambuf_iterator<wchar_t, std::char_traits<wchar_t> >, std::istreambuf_iterator<wchar_t, std::char_traits<wchar_t> >, std::ios_base &, std::_Iosb<int>::_Iostate &, std::tm *) const
 *fill*         0x0807d63b        0x1 37008
 .gnu.linkonce.t.do_get_year__CQ23stdt8time_get2ZwZQ23stdt19istreambuf_iterator2ZwZQ23stdt11char_traits1ZwGQ23stdt19istreambuf_iterator2ZwZQ23stdt11char_traits1ZwT1RQ23std8ios_baseRQ33stdt5_Iosb1Zi8_IostatePQ23std2tm
                0x0807d63c       0xc4 /x86/lib/libcpp.a(wlocale.o)
                0x0807d63c                std::time_get<wchar_t, std::istreambuf_iterator<wchar_t, std::char_traits<wchar_t> > >::do_get_year(std::istreambuf_iterator<wchar_t, std::char_traits<wchar_t> >, std::istreambuf_iterator<wchar_t, std::char_traits<wchar_t> >, std::ios_base &, std::_Iosb<int>::_Iostate &, std::tm *) const
 .gnu.linkonce.t.get_year__CQ23stdt8time_get2ZwZQ23stdt19istreambuf_iterator2ZwZQ23stdt11char_traits1ZwGQ23stdt19istreambuf_iterator2ZwZQ23stdt11char_traits1ZwT1RQ23std8ios_baseRQ33stdt5_Iosb1Zi8_IostatePQ23std2tm
                0x0807d700       0x83 /x86/lib/libcpp.a(wlocale.o)
                0x0807d700                std::time_get<wchar_t, std::istreambuf_iterator<wchar_t, std::char_traits<wchar_t> > >::get_year(std::istreambuf_iterator<wchar_t, std::char_traits<wchar_t> >, std::istreambuf_iterator<wchar_t, std::char_traits<wchar_t> >, std::ios_base &, std::_Iosb<int>::_Iostate &, std::tm *) const
 *fill*         0x0807d783        0x1 37008
 .gnu.linkonce.t.do_get_date__CQ23stdt8time_get2ZwZQ23stdt19istreambuf_iterator2ZwZQ23stdt11char_traits1ZwGQ23stdt19istreambuf_iterator2ZwZQ23stdt11char_traits1ZwT1RQ23std8ios_baseRQ33stdt5_Iosb1Zi8_IostatePQ23std2tm
                0x0807d784      0x29a /x86/lib/libcpp.a(wlocale.o)
                0x0807d784                std::time_get<wchar_t, std::istreambuf_iterator<wchar_t, std::char_traits<wchar_t> > >::do_get_date(std::istreambuf_iterator<wchar_t, std::char_traits<wchar_t> >, std::istreambuf_iterator<wchar_t, std::char_traits<wchar_t> >, std::ios_base &, std::_Iosb<int>::_Iostate &, std::tm *) const
 *fill*         0x0807da1e        0x2 37008
 .gnu.linkonce.t.do_get_weekday__CQ23stdt8time_get2ZwZQ23stdt19istreambuf_iterator2ZwZQ23stdt11char_traits1ZwGQ23stdt19istreambuf_iterator2ZwZQ23stdt11char_traits1ZwT1RQ23std8ios_baseRQ33stdt5_Iosb1Zi8_IostatePQ23std2tm
                0x0807da20       0x74 /x86/lib/libcpp.a(wlocale.o)
                0x0807da20                std::time_get<wchar_t, std::istreambuf_iterator<wchar_t, std::char_traits<wchar_t> > >::do_get_weekday(std::istreambuf_iterator<wchar_t, std::char_traits<wchar_t> >, std::istreambuf_iterator<wchar_t, std::char_traits<wchar_t> >, std::ios_base &, std::_Iosb<int>::_Iostate &, std::tm *) const
 .gnu.linkonce.t.do_decimal_point__CQ23stdt7_Mpunct1Zw
                0x0807da94        0xf /x86/lib/libcpp.a(wlocale.o)
                0x0807da94                std::_Mpunct<wchar_t>::do_decimal_point(void) const
 *fill*         0x0807daa3        0x1 37008
 .gnu.linkonce.t.do_thousands_sep__CQ23stdt7_Mpunct1Zw
                0x0807daa4        0xf /x86/lib/libcpp.a(wlocale.o)
                0x0807daa4                std::_Mpunct<wchar_t>::do_thousands_sep(void) const
 *fill*         0x0807dab3        0x1 37008
 .gnu.linkonce.t.do_grouping__CQ23stdt7_Mpunct1Zw
                0x0807dab4       0x2d /x86/lib/libcpp.a(wlocale.o)
                0x0807dab4                std::_Mpunct<wchar_t>::do_grouping(void) const
 *fill*         0x0807dae1        0x3 37008
 .gnu.linkonce.t.assign__Q23stdt12basic_string3ZwZQ23stdt11char_traits1ZwZQ23stdt9allocator1ZwRCQ23stdt12basic_string3ZwZQ23stdt11char_traits1ZwZQ23stdt9allocator1ZwUiUi
                0x0807dae4       0xf7 /x86/lib/libcpp.a(wlocale.o)
                0x0807dae4                std::basic_string<wchar_t, std::char_traits<wchar_t>, std::allocator<wchar_t> >::assign(std::basic_string<wchar_t, std::char_traits<wchar_t>, std::allocator<wchar_t> > const &, unsigned int, unsigned int)
 *fill*         0x0807dbdb        0x1 37008
 .gnu.linkonce.t.assign__Q23stdt12basic_string3ZwZQ23stdt11char_traits1ZwZQ23stdt9allocator1ZwPCwUi
                0x0807dbdc       0xa3 /x86/lib/libcpp.a(wlocale.o)
                0x0807dbdc                std::basic_string<wchar_t, std::char_traits<wchar_t>, std::allocator<wchar_t> >::assign(wchar_t const *, unsigned int)
 *fill*         0x0807dc7f        0x1 37008
 .gnu.linkonce.t.assign__Q23stdt12basic_string3ZwZQ23stdt11char_traits1ZwZQ23stdt9allocator1ZwPCw
                0x0807dc80       0x37 /x86/lib/libcpp.a(wlocale.o)
                0x0807dc80                std::basic_string<wchar_t, std::char_traits<wchar_t>, std::allocator<wchar_t> >::assign(wchar_t const *)
 *fill*         0x0807dcb7        0x1 37008
 .gnu.linkonce.t.__Q23stdt12basic_string3ZwZQ23stdt11char_traits1ZwZQ23stdt9allocator1ZwPCw
                0x0807dcb8       0x54 /x86/lib/libcpp.a(wlocale.o)
                0x0807dcb8                std::basic_string<wchar_t, std::char_traits<wchar_t>, std::allocator<wchar_t> >::basic_string(wchar_t const *)
 .gnu.linkonce.t.__Q23stdt12basic_string3ZwZQ23stdt11char_traits1ZwZQ23stdt9allocator1ZwRCQ23stdt12basic_string3ZwZQ23stdt11char_traits1ZwZQ23stdt9allocator1Zw
                0x0807dd0c       0x5a /x86/lib/libcpp.a(wlocale.o)
                0x0807dd0c                std::basic_string<wchar_t, std::char_traits<wchar_t>, std::allocator<wchar_t> >::basic_string(std::basic_string<wchar_t, std::char_traits<wchar_t>, std::allocator<wchar_t> > const &)
 *fill*         0x0807dd66        0x2 37008
 .gnu.linkonce.t.do_curr_symbol__CQ23stdt7_Mpunct1Zw
                0x0807dd68       0x2d /x86/lib/libcpp.a(wlocale.o)
                0x0807dd68                std::_Mpunct<wchar_t>::do_curr_symbol(void) const
 *fill*         0x0807dd95        0x3 37008
 .gnu.linkonce.t.do_positive_sign__CQ23stdt7_Mpunct1Zw
                0x0807dd98       0x2d /x86/lib/libcpp.a(wlocale.o)
                0x0807dd98                std::_Mpunct<wchar_t>::do_positive_sign(void) const
 *fill*         0x0807ddc5        0x3 37008
 .gnu.linkonce.t.do_negative_sign__CQ23stdt7_Mpunct1Zw
                0x0807ddc8       0x2d /x86/lib/libcpp.a(wlocale.o)
                0x0807ddc8                std::_Mpunct<wchar_t>::do_negative_sign(void) const
 *fill*         0x0807ddf5        0x3 37008
 .gnu.linkonce.t.do_frac_digits__CQ23stdt7_Mpunct1Zw
                0x0807ddf8        0xf /x86/lib/libcpp.a(wlocale.o)
                0x0807ddf8                std::_Mpunct<wchar_t>::do_frac_digits(void) const
 *fill*         0x0807de07        0x1 37008
 .gnu.linkonce.t.do_pos_format__CQ23stdt7_Mpunct1Zw
                0x0807de08       0x16 /x86/lib/libcpp.a(wlocale.o)
                0x0807de08                std::_Mpunct<wchar_t>::do_pos_format(void) const
 *fill*         0x0807de1e        0x2 37008
 .gnu.linkonce.t.do_neg_format__CQ23stdt7_Mpunct1Zw
                0x0807de20       0x16 /x86/lib/libcpp.a(wlocale.o)
                0x0807de20                std::_Mpunct<wchar_t>::do_neg_format(void) const
 *fill*         0x0807de36        0x2 37008
 .gnu.linkonce.t._._Q23stdt9money_put2ZwZQ23stdt19ostreambuf_iterator2ZwZQ23stdt11char_traits1Zw
                0x0807de38       0x26 /x86/lib/libcpp.a(wlocale.o)
                0x0807de38                std::money_put<wchar_t, std::ostreambuf_iterator<wchar_t, std::char_traits<wchar_t> > >::~money_put(void)
 *fill*         0x0807de5e        0x2 37008
 .gnu.linkonce.t.append__Q23stdt12basic_string3ZwZQ23stdt11char_traits1ZwZQ23stdt9allocator1ZwUiw
                0x0807de60       0x96 /x86/lib/libcpp.a(wlocale.o)
                0x0807de60                std::basic_string<wchar_t, std::char_traits<wchar_t>, std::allocator<wchar_t> >::append(unsigned int, wchar_t)
 *fill*         0x0807def6        0x2 37008
 .gnu.linkonce.t.frac_digits__CQ23stdt7_Mpunct1Zw
                0x0807def8       0x32 /x86/lib/libcpp.a(wlocale.o)
                0x0807def8                std::_Mpunct<wchar_t>::frac_digits(void) const
 *fill*         0x0807df2a        0x2 37008
 .gnu.linkonce.t.grouping__CQ23stdt7_Mpunct1Zw
                0x0807df2c       0x3c /x86/lib/libcpp.a(wlocale.o)
                0x0807df2c                std::_Mpunct<wchar_t>::grouping(void) const
 .gnu.linkonce.t.thousands_sep__CQ23stdt7_Mpunct1Zw
                0x0807df68       0x32 /x86/lib/libcpp.a(wlocale.o)
                0x0807df68                std::_Mpunct<wchar_t>::thousands_sep(void) const
 *fill*         0x0807df9a        0x2 37008
 .gnu.linkonce.t.insert__Q23stdt12basic_string3ZwZQ23stdt11char_traits1ZwZQ23stdt9allocator1ZwUiUiw
                0x0807df9c      0x10e /x86/lib/libcpp.a(wlocale.o)
                0x0807df9c                std::basic_string<wchar_t, std::char_traits<wchar_t>, std::allocator<wchar_t> >::insert(unsigned int, unsigned int, wchar_t)
 *fill*         0x0807e0aa        0x2 37008
 .gnu.linkonce.t.neg_format__CQ23stdt7_Mpunct1Zw
                0x0807e0ac       0x3c /x86/lib/libcpp.a(wlocale.o)
                0x0807e0ac                std::_Mpunct<wchar_t>::neg_format(void) const
 .gnu.linkonce.t.negative_sign__CQ23stdt7_Mpunct1Zw
                0x0807e0e8       0x3c /x86/lib/libcpp.a(wlocale.o)
                0x0807e0e8                std::_Mpunct<wchar_t>::negative_sign(void) const
 .gnu.linkonce.t.assign__Q23stdt12basic_string3ZwZQ23stdt11char_traits1ZwZQ23stdt9allocator1ZwRCQ23stdt12basic_string3ZwZQ23stdt11char_traits1ZwZQ23stdt9allocator1Zw
                0x0807e124       0x26 /x86/lib/libcpp.a(wlocale.o)
                0x0807e124                std::basic_string<wchar_t, std::char_traits<wchar_t>, std::allocator<wchar_t> >::assign(std::basic_string<wchar_t, std::char_traits<wchar_t>, std::allocator<wchar_t> > const &)
 *fill*         0x0807e14a        0x2 37008
 .gnu.linkonce.t.__as__Q23stdt12basic_string3ZwZQ23stdt11char_traits1ZwZQ23stdt9allocator1ZwRCQ23stdt12basic_string3ZwZQ23stdt11char_traits1ZwZQ23stdt9allocator1Zw
                0x0807e14c       0x25 /x86/lib/libcpp.a(wlocale.o)
                0x0807e14c                std::basic_string<wchar_t, std::char_traits<wchar_t>, std::allocator<wchar_t> >::operator=(std::basic_string<wchar_t, std::char_traits<wchar_t>, std::allocator<wchar_t> > const &)
 *fill*         0x0807e171        0x3 37008
 .gnu.linkonce.t.pos_format__CQ23stdt7_Mpunct1Zw
                0x0807e174       0x3c /x86/lib/libcpp.a(wlocale.o)
                0x0807e174                std::_Mpunct<wchar_t>::pos_format(void) const
 .gnu.linkonce.t.positive_sign__CQ23stdt7_Mpunct1Zw
                0x0807e1b0       0x3c /x86/lib/libcpp.a(wlocale.o)
                0x0807e1b0                std::_Mpunct<wchar_t>::positive_sign(void) const
 .gnu.linkonce.t.curr_symbol__CQ23stdt7_Mpunct1Zw
                0x0807e1ec       0x3c /x86/lib/libcpp.a(wlocale.o)
                0x0807e1ec                std::_Mpunct<wchar_t>::curr_symbol(void) const
 .gnu.linkonce.t._Rep__Q23stdt9money_put2ZwZQ23stdt19ostreambuf_iterator2ZwZQ23stdt11char_traits1ZwGQ23stdt19ostreambuf_iterator2ZwZQ23stdt11char_traits1ZwwUi
                0x0807e228       0x6d /x86/lib/libcpp.a(wlocale.o)
                0x0807e228                std::money_put<wchar_t, std::ostreambuf_iterator<wchar_t, std::char_traits<wchar_t> > >::_Rep(std::ostreambuf_iterator<wchar_t, std::char_traits<wchar_t> >, wchar_t, unsigned int)
 *fill*         0x0807e295        0x3 37008
 .gnu.linkonce.t.__pp__Q23stdt6_Ptrit6ZwZiZPCwZRCwZPwZRw
                0x0807e298       0x16 /x86/lib/libcpp.a(wlocale.o)
                0x0807e298                std::_Ptrit<wchar_t, int, wchar_t const *, wchar_t const &, wchar_t *, wchar_t &>::operator++(void)
 *fill*         0x0807e2ae        0x2 37008
 .gnu.linkonce.t.__ml__CQ23stdt6_Ptrit6ZwZiZPCwZRCwZPwZRw
                0x0807e2b0       0x16 /x86/lib/libcpp.a(wlocale.o)
                0x0807e2b0                std::_Ptrit<wchar_t, int, wchar_t const *, wchar_t const &, wchar_t *, wchar_t &>::operator*(void) const
 *fill*         0x0807e2c6        0x2 37008
 .gnu.linkonce.t._Put__Q23stdt9money_put2ZwZQ23stdt19ostreambuf_iterator2ZwZQ23stdt11char_traits1ZwGQ23stdt19ostreambuf_iterator2ZwZQ23stdt11char_traits1ZwGQ23stdt6_Ptrit6ZwZiZPCwZRCwZPwZRwUi
                0x0807e2c8       0x8d /x86/lib/libcpp.a(wlocale.o)
                0x0807e2c8                std::money_put<wchar_t, std::ostreambuf_iterator<wchar_t, std::char_traits<wchar_t> > >::_Put(std::ostreambuf_iterator<wchar_t, std::char_traits<wchar_t> >, std::_Ptrit<wchar_t, int, wchar_t const *, wchar_t const &, wchar_t *, wchar_t &>, unsigned int)
 *fill*         0x0807e355        0x3 37008
 .gnu.linkonce.t.__pp__Q23stdt19ostreambuf_iterator2ZwZQ23stdt11char_traits1Zwi
                0x0807e358        0xe /x86/lib/libcpp.a(wlocale.o)
                0x0807e358                std::ostreambuf_iterator<wchar_t, std::char_traits<wchar_t> >::operator++(int)
 *fill*         0x0807e366        0x2 37008
 .gnu.linkonce.t.decimal_point__CQ23stdt7_Mpunct1Zw
                0x0807e368       0x38 /x86/lib/libcpp.a(wlocale.o)
                0x0807e368                std::_Mpunct<wchar_t>::decimal_point(void) const
 .gnu.linkonce.t.__mi__CQ23stdt6_Ptrit6ZwZiZPwZRwZPwZRwi
                0x0807e3a0       0x3f /x86/lib/libcpp.a(wlocale.o)
                0x0807e3a0                std::_Ptrit<wchar_t, int, wchar_t *, wchar_t &, wchar_t *, wchar_t &>::operator-(int) const
 *fill*         0x0807e3df        0x1 37008
 .gnu.linkonce.t.__pl__CQ23stdt6_Ptrit6ZwZiZPwZRwZPwZRwi
                0x0807e3e0       0x3f /x86/lib/libcpp.a(wlocale.o)
                0x0807e3e0                std::_Ptrit<wchar_t, int, wchar_t *, wchar_t &, wchar_t *, wchar_t &>::operator+(int) const
 *fill*         0x0807e41f        0x1 37008
 .gnu.linkonce.t._Putmfld__CQ23stdt9money_put2ZwZQ23stdt19ostreambuf_iterator2ZwZQ23stdt11char_traits1ZwGQ23stdt19ostreambuf_iterator2ZwZQ23stdt11char_traits1ZwbRQ23std8ios_basewT2GQ23stdt12basic_string3ZwZQ23stdt11char_traits1ZwZQ23stdt9allocator1Zw
                0x0807e420      0xe6f /x86/lib/libcpp.a(wlocale.o)
                0x0807e420                std::money_put<wchar_t, std::ostreambuf_iterator<wchar_t, std::char_traits<wchar_t> > >::_Putmfld(std::ostreambuf_iterator<wchar_t, std::char_traits<wchar_t> >, bool, std::ios_base &, wchar_t, bool, std::basic_string<wchar_t, std::char_traits<wchar_t>, std::allocator<wchar_t> >) const
 *fill*         0x0807f28f        0x1 37008
 .gnu.linkonce.t.do_put__CQ23stdt9money_put2ZwZQ23stdt19ostreambuf_iterator2ZwZQ23stdt11char_traits1ZwGQ23stdt19ostreambuf_iterator2ZwZQ23stdt11char_traits1ZwbRQ23std8ios_basewr
                0x0807f290      0x1c6 /x86/lib/libcpp.a(wlocale.o)
                0x0807f290                std::money_put<wchar_t, std::ostreambuf_iterator<wchar_t, std::char_traits<wchar_t> > >::do_put(std::ostreambuf_iterator<wchar_t, std::char_traits<wchar_t> >, bool, std::ios_base &, wchar_t, long double) const
 *fill*         0x0807f456        0x2 37008
 .gnu.linkonce.t.do_narrow__CQ23stdt5ctype1Zwwc
                0x0807f458       0x1e /x86/lib/libcpp.a(wlocale.o)
                0x0807f458                std::ctype<wchar_t>::do_narrow(wchar_t, char) const
 *fill*         0x0807f476        0x2 37008
 .gnu.linkonce.t.narrow__CQ23stdt5ctype1Zwwc
                0x0807f478       0x48 /x86/lib/libcpp.a(wlocale.o)
                0x0807f478                std::ctype<wchar_t>::narrow(wchar_t, char) const
 .gnu.linkonce.t.do_is__CQ23stdt5ctype1Zwsw
                0x0807f4c0       0x4d /x86/lib/libcpp.a(wlocale.o)
                0x0807f4c0                std::ctype<wchar_t>::do_is(short, wchar_t) const
 *fill*         0x0807f50d        0x3 37008
 .gnu.linkonce.t.is__CQ23stdt5ctype1Zwsw
                0x0807f510       0x48 /x86/lib/libcpp.a(wlocale.o)
                0x0807f510                std::ctype<wchar_t>::is(short, wchar_t) const
 .gnu.linkonce.t.__Q23stdt12basic_string3ZwZQ23stdt11char_traits1ZwZQ23stdt9allocator1ZwPCwUi
                0x0807f558       0x58 /x86/lib/libcpp.a(wlocale.o)
                0x0807f558                std::basic_string<wchar_t, std::char_traits<wchar_t>, std::allocator<wchar_t> >::basic_string(wchar_t const *, unsigned int)
 .gnu.linkonce.t.do_put__CQ23stdt9money_put2ZwZQ23stdt19ostreambuf_iterator2ZwZQ23stdt11char_traits1ZwGQ23stdt19ostreambuf_iterator2ZwZQ23stdt11char_traits1ZwbRQ23std8ios_basewRCQ23stdt12basic_string3ZwZQ23stdt11char_traits1ZwZQ23stdt9allocator1Zw
                0x0807f5b0      0x1d4 /x86/lib/libcpp.a(wlocale.o)
                0x0807f5b0                std::money_put<wchar_t, std::ostreambuf_iterator<wchar_t, std::char_traits<wchar_t> > >::do_put(std::ostreambuf_iterator<wchar_t, std::char_traits<wchar_t> >, bool, std::ios_base &, wchar_t, std::basic_string<wchar_t, std::char_traits<wchar_t>, std::allocator<wchar_t> > const &) const
 .gnu.linkonce.t._._Q23stdt9money_get2ZwZQ23stdt19istreambuf_iterator2ZwZQ23stdt11char_traits1Zw
                0x0807f784       0x26 /x86/lib/libcpp.a(wlocale.o)
                0x0807f784                std::money_get<wchar_t, std::istreambuf_iterator<wchar_t, std::char_traits<wchar_t> > >::~money_get(void)
 *fill*         0x0807f7aa        0x2 37008
 .gnu.linkonce.t.__Q23stdt6_Ptrit6ZwZiZPCwZRCwZPwZRw
                0x0807f7ac        0xa /x86/lib/libcpp.a(wlocale.o)
                0x0807f7ac                std::_Ptrit<wchar_t, int, wchar_t const *, wchar_t const &, wchar_t *, wchar_t &>::_Ptrit(void)
 *fill*         0x0807f7b6        0x2 37008
 .gnu.linkonce.t.__eq__CQ23stdt6_Ptrit6ZwZiZPCwZRCwZPwZRwRCQ23stdt6_Ptrit6ZwZiZPCwZRCwZPwZRw
                0x0807f7b8       0x1b /x86/lib/libcpp.a(wlocale.o)
                0x0807f7b8                std::_Ptrit<wchar_t, int, wchar_t const *, wchar_t const &, wchar_t *, wchar_t &>::operator==(std::_Ptrit<wchar_t, int, wchar_t const *, wchar_t const &, wchar_t *, wchar_t &> const &) const
 *fill*         0x0807f7d3        0x1 37008
 .gnu.linkonce.t.__ne__CQ23stdt6_Ptrit6ZwZiZPCwZRCwZPwZRwRCQ23stdt6_Ptrit6ZwZiZPCwZRCwZPwZRw
                0x0807f7d4       0x28 /x86/lib/libcpp.a(wlocale.o)
                0x0807f7d4                std::_Ptrit<wchar_t, int, wchar_t const *, wchar_t const &, wchar_t *, wchar_t &>::operator!=(std::_Ptrit<wchar_t, int, wchar_t const *, wchar_t const &, wchar_t *, wchar_t &> const &) const
 .gnu.linkonce.t.__vc__Q23stdt12basic_string3ZwZQ23stdt11char_traits1ZwZQ23stdt9allocator1ZwUi
                0x0807f7fc       0x37 /x86/lib/libcpp.a(wlocale.o)
                0x0807f7fc                std::basic_string<wchar_t, std::char_traits<wchar_t>, std::allocator<wchar_t> >::operator[](unsigned int)
 *fill*         0x0807f833        0x1 37008
 .gnu.linkonce.t.__pp__Q23stdt19istreambuf_iterator2ZwZQ23stdt11char_traits1Zwi
                0x0807f834       0x6b /x86/lib/libcpp.a(wlocale.o)
                0x0807f834                std::istreambuf_iterator<wchar_t, std::char_traits<wchar_t> >::operator++(int)
 *fill*         0x0807f89f        0x1 37008
 .gnu.linkonce.t.__apl__Q23stdt12basic_string3ZwZQ23stdt11char_traits1ZwZQ23stdt9allocator1Zww
                0x0807f8a0       0x2d /x86/lib/libcpp.a(wlocale.o)
                0x0807f8a0                std::basic_string<wchar_t, std::char_traits<wchar_t>, std::allocator<wchar_t> >::operator+=(wchar_t)
 *fill*         0x0807f8cd        0x3 37008
 .gnu.linkonce.t._Getmfld__CQ23stdt9money_get2ZwZQ23stdt19istreambuf_iterator2ZwZQ23stdt11char_traits1ZwRQ23stdt19istreambuf_iterator2ZwZQ23stdt11char_traits1ZwT1bRQ23std8ios_base
                0x0807f8d0     0x1073 /x86/lib/libcpp.a(wlocale.o)
                0x0807f8d0                std::money_get<wchar_t, std::istreambuf_iterator<wchar_t, std::char_traits<wchar_t> > >::_Getmfld(std::istreambuf_iterator<wchar_t, std::char_traits<wchar_t> > &, std::istreambuf_iterator<wchar_t, std::char_traits<wchar_t> > &, bool, std::ios_base &) const
 *fill*         0x08080943        0x1 37008
 .gnu.linkonce.t.do_get__CQ23stdt9money_get2ZwZQ23stdt19istreambuf_iterator2ZwZQ23stdt11char_traits1ZwGQ23stdt19istreambuf_iterator2ZwZQ23stdt11char_traits1ZwT1bRQ23std8ios_baseRQ33stdt5_Iosb1Zi8_IostateRr
                0x08080944      0x220 /x86/lib/libcpp.a(wlocale.o)
                0x08080944                std::money_get<wchar_t, std::istreambuf_iterator<wchar_t, std::char_traits<wchar_t> > >::do_get(std::istreambuf_iterator<wchar_t, std::char_traits<wchar_t> >, std::istreambuf_iterator<wchar_t, std::char_traits<wchar_t> >, bool, std::ios_base &, std::_Iosb<int>::_Iostate &, long double &) const
 .gnu.linkonce.t.do_get__CQ23stdt9money_get2ZwZQ23stdt19istreambuf_iterator2ZwZQ23stdt11char_traits1ZwGQ23stdt19istreambuf_iterator2ZwZQ23stdt11char_traits1ZwT1bRQ23std8ios_baseRQ33stdt5_Iosb1Zi8_IostateRQ23stdt12basic_string3ZwZQ23stdt11char_traits1ZwZQ23stdt9allocator1Zw
                0x08080b64      0x103 /x86/lib/libcpp.a(wlocale.o)
                0x08080b64                std::money_get<wchar_t, std::istreambuf_iterator<wchar_t, std::char_traits<wchar_t> > >::do_get(std::istreambuf_iterator<wchar_t, std::char_traits<wchar_t> >, std::istreambuf_iterator<wchar_t, std::char_traits<wchar_t> >, bool, std::ios_base &, std::_Iosb<int>::_Iostate &, std::basic_string<wchar_t, std::char_traits<wchar_t>, std::allocator<wchar_t> > &) const
 *fill*         0x08080c67        0x1 37008
 .gnu.linkonce.t.do_open__CQ23stdt8messages1ZwRCQ23stdt12basic_string3ZcZQ23stdt11char_traits1ZcZQ23stdt9allocator1ZcRCQ23std6locale
                0x08080c68       0x12 /x86/lib/libcpp.a(wlocale.o)
                0x08080c68                std::messages<wchar_t>::do_open(std::basic_string<char, std::char_traits<char>, std::allocator<char> > const &, std::locale const &) const
 *fill*         0x08080c7a        0x2 37008
 .gnu.linkonce.t.do_get__CQ23stdt8messages1ZwiiiRCQ23stdt12basic_string3ZwZQ23stdt11char_traits1ZwZQ23stdt9allocator1Zw
                0x08080c7c       0x33 /x86/lib/libcpp.a(wlocale.o)
                0x08080c7c                std::messages<wchar_t>::do_get(int, int, int, std::basic_string<wchar_t, std::char_traits<wchar_t>, std::allocator<wchar_t> > const &) const
 *fill*         0x08080caf        0x1 37008
 .gnu.linkonce.t.do_close__CQ23stdt8messages1Zwi
                0x08080cb0        0xe /x86/lib/libcpp.a(wlocale.o)
                0x08080cb0                std::messages<wchar_t>::do_close(int) const
 *fill*         0x08080cbe        0x2 37008
 .gnu.linkonce.t._._Q23stdt7collate1Zw
                0x08080cc0       0x26 /x86/lib/libcpp.a(wlocale.o)
                0x08080cc0                std::collate<wchar_t>::~collate(void)
 *fill*         0x08080ce6        0x2 37008
 .gnu.linkonce.t.do_compare__CQ23stdt7collate1ZwPCwN31
                0x08080ce8       0x39 /x86/lib/libcpp.a(wlocale.o)
                0x08080ce8                std::collate<wchar_t>::do_compare(wchar_t const *, wchar_t const *, wchar_t const *, wchar_t const *) const
 *fill*         0x08080d21        0x3 37008
 .gnu.linkonce.t.resize__Q23stdt12basic_string3ZwZQ23stdt11char_traits1ZwZQ23stdt9allocator1ZwUiw
                0x08080d24       0x4d /x86/lib/libcpp.a(wlocale.o)
                0x08080d24                std::basic_string<wchar_t, std::char_traits<wchar_t>, std::allocator<wchar_t> >::resize(unsigned int, wchar_t)
 *fill*         0x08080d71        0x3 37008
 .gnu.linkonce.t.resize__Q23stdt12basic_string3ZwZQ23stdt11char_traits1ZwZQ23stdt9allocator1ZwUi
                0x08080d74       0x25 /x86/lib/libcpp.a(wlocale.o)
                0x08080d74                std::basic_string<wchar_t, std::char_traits<wchar_t>, std::allocator<wchar_t> >::resize(unsigned int)
 *fill*         0x08080d99        0x3 37008
 .gnu.linkonce.t.__ml__CQ23stdt6_Ptrit6ZwZiZPwZRwZPwZRw
                0x08080d9c       0x16 /x86/lib/libcpp.a(wlocale.o)
                0x08080d9c                std::_Ptrit<wchar_t, int, wchar_t *, wchar_t &, wchar_t *, wchar_t &>::operator*(void) const
 *fill*         0x08080db2        0x2 37008
 .gnu.linkonce.t.do_transform__CQ23stdt7collate1ZwPCwT1
                0x08080db4      0x154 /x86/lib/libcpp.a(wlocale.o)
                0x08080db4                std::collate<wchar_t>::do_transform(wchar_t const *, wchar_t const *) const
 .gnu.linkonce.t.do_hash__CQ23stdt7collate1ZwPCwT1
                0x08080f08       0x49 /x86/lib/libcpp.a(wlocale.o)
                0x08080f08                std::collate<wchar_t>::do_hash(wchar_t const *, wchar_t const *) const
 *fill*         0x08080f51        0x3 37008
 .gnu.linkonce.t._._Q23stdt8numpunct1Zw
                0x08080f54       0x6d /x86/lib/libcpp.a(wlocale.o)
                0x08080f54                std::numpunct<wchar_t>::~numpunct(void)
 *fill*         0x08080fc1        0x3 37008
 .gnu.linkonce.t.do_decimal_point__CQ23stdt8numpunct1Zw
                0x08080fc4       0x16 /x86/lib/libcpp.a(wlocale.o)
                0x08080fc4                std::numpunct<wchar_t>::do_decimal_point(void) const
 *fill*         0x08080fda        0x2 37008
 .gnu.linkonce.t.do_thousands_sep__CQ23stdt8numpunct1Zw
                0x08080fdc       0x16 /x86/lib/libcpp.a(wlocale.o)
                0x08080fdc                std::numpunct<wchar_t>::do_thousands_sep(void) const
 *fill*         0x08080ff2        0x2 37008
 .gnu.linkonce.t.do_grouping__CQ23stdt8numpunct1Zw
                0x08080ff4       0x33 /x86/lib/libcpp.a(wlocale.o)
                0x08080ff4                std::numpunct<wchar_t>::do_grouping(void) const
 *fill*         0x08081027        0x1 37008
 .gnu.linkonce.t.do_falsename__CQ23stdt8numpunct1Zw
                0x08081028       0x33 /x86/lib/libcpp.a(wlocale.o)
                0x08081028                std::numpunct<wchar_t>::do_falsename(void) const
 *fill*         0x0808105b        0x1 37008
 .gnu.linkonce.t.do_truename__CQ23stdt8numpunct1Zw
                0x0808105c       0x33 /x86/lib/libcpp.a(wlocale.o)
                0x0808105c                std::numpunct<wchar_t>::do_truename(void) const
 *fill*         0x0808108f        0x1 37008
 .gnu.linkonce.t._._Q23stdt7num_put2ZwZQ23stdt19ostreambuf_iterator2ZwZQ23stdt11char_traits1Zw
                0x08081090       0x26 /x86/lib/libcpp.a(wlocale.o)
                0x08081090                std::num_put<wchar_t, std::ostreambuf_iterator<wchar_t, std::char_traits<wchar_t> > >::~num_put(void)
 *fill*         0x080810b6        0x2 37008
 .gnu.linkonce.t._Ifmt__Q23stdt7num_put2ZwZQ23stdt19ostreambuf_iterator2ZwZQ23stdt11char_traits1ZwPcPCcQ33stdt5_Iosb1Zi9_Fmtflags
                0x080810b8      0x121 /x86/lib/libcpp.a(wlocale.o)
                0x080810b8                std::num_put<wchar_t, std::ostreambuf_iterator<wchar_t, std::char_traits<wchar_t> > >::_Ifmt(char *, char const *, std::_Iosb<int>::_Fmtflags)
 *fill*         0x080811d9        0x3 37008
 .gnu.linkonce.t.grouping__CQ23stdt8numpunct1Zw
                0x080811dc       0x3c /x86/lib/libcpp.a(wlocale.o)
                0x080811dc                std::numpunct<wchar_t>::grouping(void) const
 .gnu.linkonce.t.thousands_sep__CQ23stdt8numpunct1Zw
                0x08081218       0x32 /x86/lib/libcpp.a(wlocale.o)
                0x08081218                std::numpunct<wchar_t>::thousands_sep(void) const
 *fill*         0x0808124a        0x2 37008
 .gnu.linkonce.t._Rep__Q23stdt7num_put2ZwZQ23stdt19ostreambuf_iterator2ZwZQ23stdt11char_traits1ZwGQ23stdt19ostreambuf_iterator2ZwZQ23stdt11char_traits1ZwwUi
                0x0808124c       0x68 /x86/lib/libcpp.a(wlocale.o)
                0x0808124c                std::num_put<wchar_t, std::ostreambuf_iterator<wchar_t, std::char_traits<wchar_t> > >::_Rep(std::ostreambuf_iterator<wchar_t, std::char_traits<wchar_t> >, wchar_t, unsigned int)
 .gnu.linkonce.t._Putc__Q23stdt7num_put2ZwZQ23stdt19ostreambuf_iterator2ZwZQ23stdt11char_traits1ZwGQ23stdt19ostreambuf_iterator2ZwZQ23stdt11char_traits1ZwPCcUi
                0x080812b4       0x80 /x86/lib/libcpp.a(wlocale.o)
                0x080812b4                std::num_put<wchar_t, std::ostreambuf_iterator<wchar_t, std::char_traits<wchar_t> > >::_Putc(std::ostreambuf_iterator<wchar_t, std::char_traits<wchar_t> >, char const *, unsigned int)
 .gnu.linkonce.t._Iput__Q23stdt7num_put2ZwZQ23stdt19ostreambuf_iterator2ZwZQ23stdt11char_traits1ZwGQ23stdt19ostreambuf_iterator2ZwZQ23stdt11char_traits1ZwRQ23std8ios_basewPcUi
                0x08081334      0x4d0 /x86/lib/libcpp.a(wlocale.o)
                0x08081334                std::num_put<wchar_t, std::ostreambuf_iterator<wchar_t, std::char_traits<wchar_t> > >::_Iput(std::ostreambuf_iterator<wchar_t, std::char_traits<wchar_t> >, std::ios_base &, wchar_t, char *, unsigned int)
 .gnu.linkonce.t.do_put__CQ23stdt7num_put2ZwZQ23stdt19ostreambuf_iterator2ZwZQ23stdt11char_traits1ZwGQ23stdt19ostreambuf_iterator2ZwZQ23stdt11char_traits1ZwRQ23std8ios_basewl
                0x08081804       0x8d /x86/lib/libcpp.a(wlocale.o)
                0x08081804                std::num_put<wchar_t, std::ostreambuf_iterator<wchar_t, std::char_traits<wchar_t> > >::do_put(std::ostreambuf_iterator<wchar_t, std::char_traits<wchar_t> >, std::ios_base &, wchar_t, long) const
 *fill*         0x08081891        0x3 37008
 .gnu.linkonce.t.falsename__CQ23stdt8numpunct1Zw
                0x08081894       0x3c /x86/lib/libcpp.a(wlocale.o)
                0x08081894                std::numpunct<wchar_t>::falsename(void) const
 .gnu.linkonce.t.truename__CQ23stdt8numpunct1Zw
                0x080818d0       0x3c /x86/lib/libcpp.a(wlocale.o)
                0x080818d0                std::numpunct<wchar_t>::truename(void) const
 .gnu.linkonce.t._Put__Q23stdt7num_put2ZwZQ23stdt19ostreambuf_iterator2ZwZQ23stdt11char_traits1ZwGQ23stdt19ostreambuf_iterator2ZwZQ23stdt11char_traits1ZwPCwUi
                0x0808190c       0x70 /x86/lib/libcpp.a(wlocale.o)
                0x0808190c                std::num_put<wchar_t, std::ostreambuf_iterator<wchar_t, std::char_traits<wchar_t> > >::_Put(std::ostreambuf_iterator<wchar_t, std::char_traits<wchar_t> >, wchar_t const *, unsigned int)
 .gnu.linkonce.t.do_put__CQ23stdt7num_put2ZwZQ23stdt19ostreambuf_iterator2ZwZQ23stdt11char_traits1ZwGQ23stdt19ostreambuf_iterator2ZwZQ23stdt11char_traits1ZwRQ23std8ios_basewb
                0x0808197c      0x300 /x86/lib/libcpp.a(wlocale.o)
                0x0808197c                std::num_put<wchar_t, std::ostreambuf_iterator<wchar_t, std::char_traits<wchar_t> > >::do_put(std::ostreambuf_iterator<wchar_t, std::char_traits<wchar_t> >, std::ios_base &, wchar_t, bool) const
 .gnu.linkonce.t.do_put__CQ23stdt7num_put2ZwZQ23stdt19ostreambuf_iterator2ZwZQ23stdt11char_traits1ZwGQ23stdt19ostreambuf_iterator2ZwZQ23stdt11char_traits1ZwRQ23std8ios_basewUl
                0x08081c7c       0x8d /x86/lib/libcpp.a(wlocale.o)
                0x08081c7c                std::num_put<wchar_t, std::ostreambuf_iterator<wchar_t, std::char_traits<wchar_t> > >::do_put(std::ostreambuf_iterator<wchar_t, std::char_traits<wchar_t> >, std::ios_base &, wchar_t, unsigned long) const
 *fill*         0x08081d09        0x3 37008
 .gnu.linkonce.t.do_put__CQ23stdt7num_put2ZwZQ23stdt19ostreambuf_iterator2ZwZQ23stdt11char_traits1ZwGQ23stdt19ostreambuf_iterator2ZwZQ23stdt11char_traits1ZwRQ23std8ios_basewx
                0x08081d0c       0x8e /x86/lib/libcpp.a(wlocale.o)
                0x08081d0c                std::num_put<wchar_t, std::ostreambuf_iterator<wchar_t, std::char_traits<wchar_t> > >::do_put(std::ostreambuf_iterator<wchar_t, std::char_traits<wchar_t> >, std::ios_base &, wchar_t, long long) const
 *fill*         0x08081d9a        0x2 37008
 .gnu.linkonce.t.do_put__CQ23stdt7num_put2ZwZQ23stdt19ostreambuf_iterator2ZwZQ23stdt11char_traits1ZwGQ23stdt19ostreambuf_iterator2ZwZQ23stdt11char_traits1ZwRQ23std8ios_basewUx
                0x08081d9c       0x8e /x86/lib/libcpp.a(wlocale.o)
                0x08081d9c                std::num_put<wchar_t, std::ostreambuf_iterator<wchar_t, std::char_traits<wchar_t> > >::do_put(std::ostreambuf_iterator<wchar_t, std::char_traits<wchar_t> >, std::ios_base &, wchar_t, unsigned long long) const
 *fill*         0x08081e2a        0x2 37008
 .gnu.linkonce.t._Ffmt__Q23stdt7num_put2ZwZQ23stdt19ostreambuf_iterator2ZwZQ23stdt11char_traits1ZwPccQ33stdt5_Iosb1Zi9_Fmtflags
                0x08081e2c       0xec /x86/lib/libcpp.a(wlocale.o)
                0x08081e2c                std::num_put<wchar_t, std::ostreambuf_iterator<wchar_t, std::char_traits<wchar_t> > >::_Ffmt(char *, char, std::_Iosb<int>::_Fmtflags)
 .gnu.linkonce.t.decimal_point__CQ23stdt8numpunct1Zw
                0x08081f18       0x32 /x86/lib/libcpp.a(wlocale.o)
                0x08081f18                std::numpunct<wchar_t>::decimal_point(void) const
 *fill*         0x08081f4a        0x2 37008
 .gnu.linkonce.t._Fput__Q23stdt7num_put2ZwZQ23stdt19ostreambuf_iterator2ZwZQ23stdt11char_traits1ZwGQ23stdt19ostreambuf_iterator2ZwZQ23stdt11char_traits1ZwRQ23std8ios_basewPCcUiUiUiUi
                0x08081f4c      0x5cc /x86/lib/libcpp.a(wlocale.o)
                0x08081f4c                std::num_put<wchar_t, std::ostreambuf_iterator<wchar_t, std::char_traits<wchar_t> > >::_Fput(std::ostreambuf_iterator<wchar_t, std::char_traits<wchar_t> >, std::ios_base &, wchar_t, char const *, unsigned int, unsigned int, unsigned int, unsigned int)
 .gnu.linkonce.t.do_put__CQ23stdt7num_put2ZwZQ23stdt19ostreambuf_iterator2ZwZQ23stdt11char_traits1ZwGQ23stdt19ostreambuf_iterator2ZwZQ23stdt11char_traits1ZwRQ23std8ios_basewd
                0x08082518      0x241 /x86/lib/libcpp.a(wlocale.o)
                0x08082518                std::num_put<wchar_t, std::ostreambuf_iterator<wchar_t, std::char_traits<wchar_t> > >::do_put(std::ostreambuf_iterator<wchar_t, std::char_traits<wchar_t> >, std::ios_base &, wchar_t, double) const
 *fill*         0x08082759        0x3 37008
 .gnu.linkonce.t.do_put__CQ23stdt7num_put2ZwZQ23stdt19ostreambuf_iterator2ZwZQ23stdt11char_traits1ZwGQ23stdt19ostreambuf_iterator2ZwZQ23stdt11char_traits1ZwRQ23std8ios_basewr
                0x0808275c      0x241 /x86/lib/libcpp.a(wlocale.o)
                0x0808275c                std::num_put<wchar_t, std::ostreambuf_iterator<wchar_t, std::char_traits<wchar_t> > >::do_put(std::ostreambuf_iterator<wchar_t, std::char_traits<wchar_t> >, std::ios_base &, wchar_t, long double) const
 *fill*         0x0808299d        0x3 37008
 .gnu.linkonce.t.do_put__CQ23stdt7num_put2ZwZQ23stdt19ostreambuf_iterator2ZwZQ23stdt11char_traits1ZwGQ23stdt19ostreambuf_iterator2ZwZQ23stdt11char_traits1ZwRQ23std8ios_basewPCv
                0x080829a0      0x18b /x86/lib/libcpp.a(wlocale.o)
                0x080829a0                std::num_put<wchar_t, std::ostreambuf_iterator<wchar_t, std::char_traits<wchar_t> > >::do_put(std::ostreambuf_iterator<wchar_t, std::char_traits<wchar_t> >, std::ios_base &, wchar_t, void const *) const
 *fill*         0x08082b2b        0x1 37008
 .gnu.linkonce.t._._Q23stdt7num_get2ZwZQ23stdt19istreambuf_iterator2ZwZQ23stdt11char_traits1Zw
                0x08082b2c       0x26 /x86/lib/libcpp.a(wlocale.o)
                0x08082b2c                std::num_get<wchar_t, std::istreambuf_iterator<wchar_t, std::char_traits<wchar_t> > >::~num_get(void)
 *fill*         0x08082b52        0x2 37008
 .gnu.linkonce.t.assign__Q23stdt12basic_string3ZwZQ23stdt11char_traits1ZwZQ23stdt9allocator1ZwUiw
                0x08082b54       0x6f /x86/lib/libcpp.a(wlocale.o)
                0x08082b54                std::basic_string<wchar_t, std::char_traits<wchar_t>, std::allocator<wchar_t> >::assign(unsigned int, wchar_t)
 *fill*         0x08082bc3        0x1 37008
 .gnu.linkonce.t.__Q23stdt12basic_string3ZwZQ23stdt11char_traits1ZwZQ23stdt9allocator1ZwUiw
                0x08082bc4       0x58 /x86/lib/libcpp.a(wlocale.o)
                0x08082bc4                std::basic_string<wchar_t, std::char_traits<wchar_t>, std::allocator<wchar_t> >::basic_string(unsigned int, wchar_t)
 .gnu.linkonce.t.append__Q23stdt12basic_string3ZwZQ23stdt11char_traits1ZwZQ23stdt9allocator1ZwRCQ23stdt12basic_string3ZwZQ23stdt11char_traits1ZwZQ23stdt9allocator1ZwUiUi
                0x08082c1c       0xfb /x86/lib/libcpp.a(wlocale.o)
                0x08082c1c                std::basic_string<wchar_t, std::char_traits<wchar_t>, std::allocator<wchar_t> >::append(std::basic_string<wchar_t, std::char_traits<wchar_t>, std::allocator<wchar_t> > const &, unsigned int, unsigned int)
 *fill*         0x08082d17        0x1 37008
 .gnu.linkonce.t.append__Q23stdt12basic_string3ZwZQ23stdt11char_traits1ZwZQ23stdt9allocator1ZwRCQ23stdt12basic_string3ZwZQ23stdt11char_traits1ZwZQ23stdt9allocator1Zw
                0x08082d18       0x26 /x86/lib/libcpp.a(wlocale.o)
                0x08082d18                std::basic_string<wchar_t, std::char_traits<wchar_t>, std::allocator<wchar_t> >::append(std::basic_string<wchar_t, std::char_traits<wchar_t>, std::allocator<wchar_t> > const &)
 *fill*         0x08082d3e        0x2 37008
 .gnu.linkonce.t.__apl__Q23stdt12basic_string3ZwZQ23stdt11char_traits1ZwZQ23stdt9allocator1ZwRCQ23stdt12basic_string3ZwZQ23stdt11char_traits1ZwZQ23stdt9allocator1Zw
                0x08082d40       0x25 /x86/lib/libcpp.a(wlocale.o)
                0x08082d40                std::basic_string<wchar_t, std::char_traits<wchar_t>, std::allocator<wchar_t> >::operator+=(std::basic_string<wchar_t, std::char_traits<wchar_t>, std::allocator<wchar_t> > const &)
 *fill*         0x08082d65        0x3 37008
 .gnu.linkonce.t._Getifld__Q23stdt7num_get2ZwZQ23stdt19istreambuf_iterator2ZwZQ23stdt11char_traits1ZwPcRQ23stdt19istreambuf_iterator2ZwZQ23stdt11char_traits1ZwT2Q33stdt5_Iosb1Zi9_FmtflagsRCQ23std6locale
                0x08082d68      0x5cf /x86/lib/libcpp.a(wlocale.o)
                0x08082d68                std::num_get<wchar_t, std::istreambuf_iterator<wchar_t, std::char_traits<wchar_t> > >::_Getifld(char *, std::istreambuf_iterator<wchar_t, std::char_traits<wchar_t> > &, std::istreambuf_iterator<wchar_t, std::char_traits<wchar_t> > &, std::_Iosb<int>::_Fmtflags, std::locale const &)
 *fill*         0x08083337        0x1 37008
 .gnu.linkonce.t.do_get__CQ23stdt7num_get2ZwZQ23stdt19istreambuf_iterator2ZwZQ23stdt11char_traits1ZwGQ23stdt19istreambuf_iterator2ZwZQ23stdt11char_traits1ZwT1RQ23std8ios_baseRQ33stdt5_Iosb1Zi8_IostateRb
                0x08083338      0x334 /x86/lib/libcpp.a(wlocale.o)
                0x08083338                std::num_get<wchar_t, std::istreambuf_iterator<wchar_t, std::char_traits<wchar_t> > >::do_get(std::istreambuf_iterator<wchar_t, std::char_traits<wchar_t> >, std::istreambuf_iterator<wchar_t, std::char_traits<wchar_t> >, std::ios_base &, std::_Iosb<int>::_Iostate &, bool &) const
 .gnu.linkonce.t.do_get__CQ23stdt7num_get2ZwZQ23stdt19istreambuf_iterator2ZwZQ23stdt11char_traits1ZwGQ23stdt19istreambuf_iterator2ZwZQ23stdt11char_traits1ZwT1RQ23std8ios_baseRQ33stdt5_Iosb1Zi8_IostateRUs
                0x0808366c      0x178 /x86/lib/libcpp.a(wlocale.o)
                0x0808366c                std::num_get<wchar_t, std::istreambuf_iterator<wchar_t, std::char_traits<wchar_t> > >::do_get(std::istreambuf_iterator<wchar_t, std::char_traits<wchar_t> >, std::istreambuf_iterator<wchar_t, std::char_traits<wchar_t> >, std::ios_base &, std::_Iosb<int>::_Iostate &, unsigned short &) const
 .gnu.linkonce.t.do_get__CQ23stdt7num_get2ZwZQ23stdt19istreambuf_iterator2ZwZQ23stdt11char_traits1ZwGQ23stdt19istreambuf_iterator2ZwZQ23stdt11char_traits1ZwT1RQ23std8ios_baseRQ33stdt5_Iosb1Zi8_IostateRUi
                0x080837e4      0x178 /x86/lib/libcpp.a(wlocale.o)
                0x080837e4                std::num_get<wchar_t, std::istreambuf_iterator<wchar_t, std::char_traits<wchar_t> > >::do_get(std::istreambuf_iterator<wchar_t, std::char_traits<wchar_t> >, std::istreambuf_iterator<wchar_t, std::char_traits<wchar_t> >, std::ios_base &, std::_Iosb<int>::_Iostate &, unsigned int &) const
 .gnu.linkonce.t.do_get__CQ23stdt7num_get2ZwZQ23stdt19istreambuf_iterator2ZwZQ23stdt11char_traits1ZwGQ23stdt19istreambuf_iterator2ZwZQ23stdt11char_traits1ZwT1RQ23std8ios_baseRQ33stdt5_Iosb1Zi8_IostateRl
                0x0808395c      0x14c /x86/lib/libcpp.a(wlocale.o)
                0x0808395c                std::num_get<wchar_t, std::istreambuf_iterator<wchar_t, std::char_traits<wchar_t> > >::do_get(std::istreambuf_iterator<wchar_t, std::char_traits<wchar_t> >, std::istreambuf_iterator<wchar_t, std::char_traits<wchar_t> >, std::ios_base &, std::_Iosb<int>::_Iostate &, long &) const
 .gnu.linkonce.t.do_get__CQ23stdt7num_get2ZwZQ23stdt19istreambuf_iterator2ZwZQ23stdt11char_traits1ZwGQ23stdt19istreambuf_iterator2ZwZQ23stdt11char_traits1ZwT1RQ23std8ios_baseRQ33stdt5_Iosb1Zi8_IostateRUl
                0x08083aa8      0x14c /x86/lib/libcpp.a(wlocale.o)
                0x08083aa8                std::num_get<wchar_t, std::istreambuf_iterator<wchar_t, std::char_traits<wchar_t> > >::do_get(std::istreambuf_iterator<wchar_t, std::char_traits<wchar_t> >, std::istreambuf_iterator<wchar_t, std::char_traits<wchar_t> >, std::ios_base &, std::_Iosb<int>::_Iostate &, unsigned long &) const
 .gnu.linkonce.t.do_get__CQ23stdt7num_get2ZwZQ23stdt19istreambuf_iterator2ZwZQ23stdt11char_traits1ZwGQ23stdt19istreambuf_iterator2ZwZQ23stdt11char_traits1ZwT1RQ23std8ios_baseRQ33stdt5_Iosb1Zi8_IostateRx
                0x08083bf4      0x150 /x86/lib/libcpp.a(wlocale.o)
                0x08083bf4                std::num_get<wchar_t, std::istreambuf_iterator<wchar_t, std::char_traits<wchar_t> > >::do_get(std::istreambuf_iterator<wchar_t, std::char_traits<wchar_t> >, std::istreambuf_iterator<wchar_t, std::char_traits<wchar_t> >, std::ios_base &, std::_Iosb<int>::_Iostate &, long long &) const
 .gnu.linkonce.t.do_get__CQ23stdt7num_get2ZwZQ23stdt19istreambuf_iterator2ZwZQ23stdt11char_traits1ZwGQ23stdt19istreambuf_iterator2ZwZQ23stdt11char_traits1ZwT1RQ23std8ios_baseRQ33stdt5_Iosb1Zi8_IostateRUx
                0x08083d44      0x150 /x86/lib/libcpp.a(wlocale.o)
                0x08083d44                std::num_get<wchar_t, std::istreambuf_iterator<wchar_t, std::char_traits<wchar_t> > >::do_get(std::istreambuf_iterator<wchar_t, std::char_traits<wchar_t> >, std::istreambuf_iterator<wchar_t, std::char_traits<wchar_t> >, std::ios_base &, std::_Iosb<int>::_Iostate &, unsigned long long &) const
 .gnu.linkonce.t._Getffld__Q23stdt7num_get2ZwZQ23stdt19istreambuf_iterator2ZwZQ23stdt11char_traits1ZwPcRQ23stdt19istreambuf_iterator2ZwZQ23stdt11char_traits1ZwT2RCQ23std6locale
                0x08083e94      0x5c5 /x86/lib/libcpp.a(wlocale.o)
                0x08083e94                std::num_get<wchar_t, std::istreambuf_iterator<wchar_t, std::char_traits<wchar_t> > >::_Getffld(char *, std::istreambuf_iterator<wchar_t, std::char_traits<wchar_t> > &, std::istreambuf_iterator<wchar_t, std::char_traits<wchar_t> > &, std::locale const &)
 *fill*         0x08084459        0x3 37008
 .gnu.linkonce.t.do_get__CQ23stdt7num_get2ZwZQ23stdt19istreambuf_iterator2ZwZQ23stdt11char_traits1ZwGQ23stdt19istreambuf_iterator2ZwZQ23stdt11char_traits1ZwT1RQ23std8ios_baseRQ33stdt5_Iosb1Zi8_IostateRf
                0x0808445c      0x134 /x86/lib/libcpp.a(wlocale.o)
                0x0808445c                std::num_get<wchar_t, std::istreambuf_iterator<wchar_t, std::char_traits<wchar_t> > >::do_get(std::istreambuf_iterator<wchar_t, std::char_traits<wchar_t> >, std::istreambuf_iterator<wchar_t, std::char_traits<wchar_t> >, std::ios_base &, std::_Iosb<int>::_Iostate &, float &) const
 .gnu.linkonce.t.do_get__CQ23stdt7num_get2ZwZQ23stdt19istreambuf_iterator2ZwZQ23stdt11char_traits1ZwGQ23stdt19istreambuf_iterator2ZwZQ23stdt11char_traits1ZwT1RQ23std8ios_baseRQ33stdt5_Iosb1Zi8_IostateRd
                0x08084590      0x134 /x86/lib/libcpp.a(wlocale.o)
                0x08084590                std::num_get<wchar_t, std::istreambuf_iterator<wchar_t, std::char_traits<wchar_t> > >::do_get(std::istreambuf_iterator<wchar_t, std::char_traits<wchar_t> >, std::istreambuf_iterator<wchar_t, std::char_traits<wchar_t> >, std::ios_base &, std::_Iosb<int>::_Iostate &, double &) const
 .gnu.linkonce.t.do_get__CQ23stdt7num_get2ZwZQ23stdt19istreambuf_iterator2ZwZQ23stdt11char_traits1ZwGQ23stdt19istreambuf_iterator2ZwZQ23stdt11char_traits1ZwT1RQ23std8ios_baseRQ33stdt5_Iosb1Zi8_IostateRr
                0x080846c4      0x137 /x86/lib/libcpp.a(wlocale.o)
                0x080846c4                std::num_get<wchar_t, std::istreambuf_iterator<wchar_t, std::char_traits<wchar_t> > >::do_get(std::istreambuf_iterator<wchar_t, std::char_traits<wchar_t> >, std::istreambuf_iterator<wchar_t, std::char_traits<wchar_t> >, std::ios_base &, std::_Iosb<int>::_Iostate &, long double &) const
 *fill*         0x080847fb        0x1 37008
 .gnu.linkonce.t.do_get__CQ23stdt7num_get2ZwZQ23stdt19istreambuf_iterator2ZwZQ23stdt11char_traits1ZwGQ23stdt19istreambuf_iterator2ZwZQ23stdt11char_traits1ZwT1RQ23std8ios_baseRQ33stdt5_Iosb1Zi8_IostateRPv
                0x080847fc      0x13c /x86/lib/libcpp.a(wlocale.o)
                0x080847fc                std::num_get<wchar_t, std::istreambuf_iterator<wchar_t, std::char_traits<wchar_t> > >::do_get(std::istreambuf_iterator<wchar_t, std::char_traits<wchar_t> >, std::istreambuf_iterator<wchar_t, std::char_traits<wchar_t> >, std::ios_base &, std::_Iosb<int>::_Iostate &, void *&) const
 .gnu.linkonce.t._._Q23stdt5ctype1Zw
                0x08084938       0x3b /x86/lib/libcpp.a(wlocale.o)
                0x08084938                std::ctype<wchar_t>::~ctype(void)
 *fill*         0x08084973        0x1 37008
 .gnu.linkonce.t.do_is__CQ23stdt5ctype1ZwPCwT1Ps
                0x08084974       0x5c /x86/lib/libcpp.a(wlocale.o)
                0x08084974                std::ctype<wchar_t>::do_is(wchar_t const *, wchar_t const *, short *) const
 .gnu.linkonce.t.do_scan_is__CQ23stdt5ctype1ZwsPCwT2
                0x080849d0       0x54 /x86/lib/libcpp.a(wlocale.o)
                0x080849d0                std::ctype<wchar_t>::do_scan_is(short, wchar_t const *, wchar_t const *) const
 .gnu.linkonce.t.do_scan_not__CQ23stdt5ctype1ZwsPCwT2
                0x08084a24       0x54 /x86/lib/libcpp.a(wlocale.o)
                0x08084a24                std::ctype<wchar_t>::do_scan_not(short, wchar_t const *, wchar_t const *) const
 .gnu.linkonce.t.do_widen__CQ23stdt5ctype1Zwc
                0x08084a78       0x2d /x86/lib/libcpp.a(wlocale.o)
                0x08084a78                std::ctype<wchar_t>::do_widen(char) const
 *fill*         0x08084aa5        0x3 37008
 .gnu.linkonce.t.widen__CQ23stdt5ctype1Zwc
                0x08084aa8       0x3d /x86/lib/libcpp.a(wlocale.o)
                0x08084aa8                std::ctype<wchar_t>::widen(char) const
 *fill*         0x08084ae5        0x3 37008
 .gnu.linkonce.t.do_tolower__CQ23stdt5ctype1Zww
                0x08084ae8       0x4e /x86/lib/libcpp.a(wlocale.o)
                0x08084ae8                std::ctype<wchar_t>::do_tolower(wchar_t) const
 *fill*         0x08084b36        0x2 37008
 .gnu.linkonce.t.do_tolower__CQ23stdt5ctype1ZwPwPCw
                0x08084b38       0x6c /x86/lib/libcpp.a(wlocale.o)
                0x08084b38                std::ctype<wchar_t>::do_tolower(wchar_t *, wchar_t const *) const
 .gnu.linkonce.t.do_toupper__CQ23stdt5ctype1Zww
                0x08084ba4       0x4e /x86/lib/libcpp.a(wlocale.o)
                0x08084ba4                std::ctype<wchar_t>::do_toupper(wchar_t) const
 *fill*         0x08084bf2        0x2 37008
 .gnu.linkonce.t.do_toupper__CQ23stdt5ctype1ZwPwPCw
                0x08084bf4       0x6c /x86/lib/libcpp.a(wlocale.o)
                0x08084bf4                std::ctype<wchar_t>::do_toupper(wchar_t *, wchar_t const *) const
 .gnu.linkonce.t.do_widen__CQ23stdt5ctype1ZwPCcT1Pw
                0x08084c60       0x48 /x86/lib/libcpp.a(wlocale.o)
                0x08084c60                std::ctype<wchar_t>::do_widen(char const *, char const *, wchar_t *) const
 .gnu.linkonce.t.do_narrow__CQ23stdt5ctype1ZwPCwT1cPc
                0x08084ca8       0x3c /x86/lib/libcpp.a(wlocale.o)
                0x08084ca8                std::ctype<wchar_t>::do_narrow(wchar_t const *, wchar_t const *, char, char *) const
 .gnu.linkonce.t.__tfQ23stdt5ctype1Zw
                0x08084ce4       0x3a /x86/lib/libcpp.a(wlocale.o)
                0x08084ce4                std::ctype<wchar_t> type_info function
 *fill*         0x08084d1e        0x2 37008
 .gnu.linkonce.t.__tfQ23stdt7num_get2ZwZQ23stdt19istreambuf_iterator2ZwZQ23stdt11char_traits1Zw
                0x08084d20       0x3a /x86/lib/libcpp.a(wlocale.o)
                0x08084d20                std::num_get<wchar_t, std::istreambuf_iterator<wchar_t, std::char_traits<wchar_t> > > type_info function
 *fill*         0x08084d5a        0x2 37008
 .gnu.linkonce.t.__tfQ23stdt7num_put2ZwZQ23stdt19ostreambuf_iterator2ZwZQ23stdt11char_traits1Zw
                0x08084d5c       0x3a /x86/lib/libcpp.a(wlocale.o)
                0x08084d5c                std::num_put<wchar_t, std::ostreambuf_iterator<wchar_t, std::char_traits<wchar_t> > > type_info function
 *fill*         0x08084d96        0x2 37008
 .gnu.linkonce.t.__tfQ23stdt8numpunct1Zw
                0x08084d98       0x3a /x86/lib/libcpp.a(wlocale.o)
                0x08084d98                std::numpunct<wchar_t> type_info function
 *fill*         0x08084dd2        0x2 37008
 .gnu.linkonce.t.__tfQ23stdt7collate1Zw
                0x08084dd4       0x3a /x86/lib/libcpp.a(wlocale.o)
                0x08084dd4                std::collate<wchar_t> type_info function
 *fill*         0x08084e0e        0x2 37008
 .gnu.linkonce.t._._Q23stdt8messages1Zw
                0x08084e10       0x22 /x86/lib/libcpp.a(wlocale.o)
                0x08084e10                std::messages<wchar_t>::~messages(void)
 *fill*         0x08084e32        0x2 37008
 .gnu.linkonce.t.__tfQ23stdt8messages1Zw
                0x08084e34       0x3a /x86/lib/libcpp.a(wlocale.o)
                0x08084e34                std::messages<wchar_t> type_info function
 *fill*         0x08084e6e        0x2 37008
 .gnu.linkonce.t.__tfQ23stdt9money_get2ZwZQ23stdt19istreambuf_iterator2ZwZQ23stdt11char_traits1Zw
                0x08084e70       0x3a /x86/lib/libcpp.a(wlocale.o)
                0x08084e70                std::money_get<wchar_t, std::istreambuf_iterator<wchar_t, std::char_traits<wchar_t> > > type_info function
 *fill*         0x08084eaa        0x2 37008
 .gnu.linkonce.t.__tfQ23stdt9money_put2ZwZQ23stdt19ostreambuf_iterator2ZwZQ23stdt11char_traits1Zw
                0x08084eac       0x3a /x86/lib/libcpp.a(wlocale.o)
                0x08084eac                std::money_put<wchar_t, std::ostreambuf_iterator<wchar_t, std::char_traits<wchar_t> > > type_info function
 *fill*         0x08084ee6        0x2 37008
 .gnu.linkonce.t.__tfQ23stdt7_Mpunct1Zw
                0x08084ee8       0x3a /x86/lib/libcpp.a(wlocale.o)
                0x08084ee8                std::_Mpunct<wchar_t> type_info function
 *fill*         0x08084f22        0x2 37008
 .gnu.linkonce.t._._Q23stdt10moneypunct2Zwb0
                0x08084f24       0x22 /x86/lib/libcpp.a(wlocale.o)
                0x08084f24                std::moneypunct<wchar_t, false>::~moneypunct(void)
 *fill*         0x08084f46        0x2 37008
 .gnu.linkonce.t.__tfQ23stdt10moneypunct2Zwb0
                0x08084f48       0x3a /x86/lib/libcpp.a(wlocale.o)
                0x08084f48                std::moneypunct<wchar_t, false> type_info function
 *fill*         0x08084f82        0x2 37008
 .gnu.linkonce.t._._Q23stdt10moneypunct2Zwb1
                0x08084f84       0x22 /x86/lib/libcpp.a(wlocale.o)
                0x08084f84                std::moneypunct<wchar_t, true>::~moneypunct(void)
 *fill*         0x08084fa6        0x2 37008
 .gnu.linkonce.t.__tfQ23stdt10moneypunct2Zwb1
                0x08084fa8       0x3a /x86/lib/libcpp.a(wlocale.o)
                0x08084fa8                std::moneypunct<wchar_t, true> type_info function
 *fill*         0x08084fe2        0x2 37008
 .gnu.linkonce.t.__tfQ23stdt8time_get2ZwZQ23stdt19istreambuf_iterator2ZwZQ23stdt11char_traits1Zw
                0x08084fe4       0x3a /x86/lib/libcpp.a(wlocale.o)
                0x08084fe4                std::time_get<wchar_t, std::istreambuf_iterator<wchar_t, std::char_traits<wchar_t> > > type_info function
 *fill*         0x0808501e        0x2 37008
 .gnu.linkonce.t.__tfQ23stdt8time_put2ZwZQ23stdt19ostreambuf_iterator2ZwZQ23stdt11char_traits1Zw
                0x08085020       0x3a /x86/lib/libcpp.a(wlocale.o)
                0x08085020                std::time_put<wchar_t, std::ostreambuf_iterator<wchar_t, std::char_traits<wchar_t> > > type_info function
 *fill*         0x0808505a        0x2 37008
 .gnu.linkonce.t.length__Q23stdt11char_traits1ZwPCw
                0x0808505c       0x1e /x86/lib/libcpp.a(wlocale.o)
                0x0808505c                std::char_traits<wchar_t>::length(wchar_t const *)
 *fill*         0x0808507a        0x2 37008
 .gnu.linkonce.t.assign__Q23stdt11char_traits1ZwPwUiw
                0x0808507c       0x26 /x86/lib/libcpp.a(wlocale.o)
                0x0808507c                std::char_traits<wchar_t>::assign(wchar_t *, unsigned int, wchar_t)
 *fill*         0x080850a2        0x2 37008
 .gnu.linkonce.t.to_char_type__Q23stdt11char_traits1ZwRCw
                0x080850a4        0xe /x86/lib/libcpp.a(wlocale.o)
                0x080850a4                std::char_traits<wchar_t>::to_char_type(wchar_t const &)
 *fill*         0x080850b2        0x2 37008
 .gnu.linkonce.t.to_int_type__Q23stdt11char_traits1ZwRCw
                0x080850b4        0xe /x86/lib/libcpp.a(wlocale.o)
                0x080850b4                std::char_traits<wchar_t>::to_int_type(wchar_t const &)
 *fill*         0x080850c2        0x2 37008
 .gnu.linkonce.t.eq_int_type__Q23stdt11char_traits1ZwRCwT1
                0x080850c4       0x1a /x86/lib/libcpp.a(wlocale.o)
                0x080850c4                std::char_traits<wchar_t>::eq_int_type(wchar_t const &, wchar_t const &)
 *fill*         0x080850de        0x2 37008
 .gnu.linkonce.t.eof__Q23stdt11char_traits1Zw
                0x080850e0        0xe /x86/lib/libcpp.a(wlocale.o)
                0x080850e0                std::char_traits<wchar_t>::eof(void)
 *fill*         0x080850ee        0x2 37008
 .gnu.linkonce.t.isdigit__3stdi
                0x080850f0       0x1f /x86/lib/libcpp.a(wlocale.o)
                0x080850f0                std::isdigit(int)
 *fill*         0x0808510f        0x1 37008
 .gnu.linkonce.t._Getptr__CQ23std8_Timevec
                0x08085110        0xa /x86/lib/libcpp.a(wlocale.o)
                0x08085110                std::_Timevec::_Getptr(void) const
 *fill*         0x0808511a        0x2 37008
 .gnu.linkonce.t._Getcoll__CQ23std8_Locinfo
                0x0808511c       0x1d /x86/lib/libcpp.a(wlocale.o)
                0x0808511c                std::_Locinfo::_Getcoll(void) const
 *fill*         0x08085139        0x3 37008
 .gnu.linkonce.t._Gettnames__CQ23std8_Locinfo
                0x0808513c       0x25 /x86/lib/libcpp.a(wlocale.o)
                0x0808513c                std::_Locinfo::_Gettnames(void) const
 *fill*         0x08085161        0x3 37008
 .gnu.linkonce.t._Getdays__CQ23std8_Locinfo
                0x08085164       0x12 /x86/lib/libcpp.a(wlocale.o)
                0x08085164                std::_Locinfo::_Getdays(void) const
 *fill*         0x08085176        0x2 37008
 .gnu.linkonce.t._Getmonths__CQ23std8_Locinfo
                0x08085178       0x12 /x86/lib/libcpp.a(wlocale.o)
                0x08085178                std::_Locinfo::_Getmonths(void) const
 *fill*         0x0808518a        0x2 37008
 .gnu.linkonce.t._LStrcoll__H1Zw_3stdPCX01N31PCQ23std8_Collvec_i
                0x0808518c      0x12c /x86/lib/libcpp.a(wlocale.o)
                0x0808518c                int std::_LStrcoll<wchar_t>(wchar_t const *, wchar_t const *, wchar_t const *, wchar_t const *, std::_Collvec const *)
 .gnu.linkonce.t._LStrxfrm__H1Zw_3stdPX01T1PCX01T3PCQ23std8_Collvec_Ui
                0x080852b8       0xdc /x86/lib/libcpp.a(wlocale.o)
                0x080852b8                unsigned int std::_LStrxfrm<wchar_t>(wchar_t *, wchar_t *, wchar_t const *, wchar_t const *, std::_Collvec const *)
 .gnu.linkonce.t._Strftime__3stdPcUiPCcPCQ23std2tmPv
                0x08085394       0x36 /x86/lib/libcpp.a(wlocale.o)
                0x08085394                std::_Strftime(char *, unsigned int, char const *, std::tm const *, void *)
 *fill*         0x080853ca        0x2 37008
 .gnu.linkonce.t._Widen__H1Zw_3stdcPX01_X01
                0x080853cc       0x30 /x86/lib/libcpp.a(wlocale.o)
                0x080853cc                wchar_t std::_Widen<wchar_t>(char, wchar_t *)
 .gnu.linkonce.t.__Q23stdt7codecvt3ZwZcZ9_MbstatetRCQ23std8_LocinfoUi
                0x080853fc       0x6d /x86/lib/libcpp.a(wlocale.o)
                0x080853fc                std::codecvt<wchar_t, char, _Mbstatet>::codecvt(std::_Locinfo const &, unsigned int)
 *fill*         0x08085469        0x3 37008
 .gnu.linkonce.t._Getcat__Q23stdt7codecvt3ZwZcZ9_MbstatetPPCQ33std6locale5facet
                0x0808546c       0xa0 /x86/lib/libcpp.a(wlocale.o)
                0x0808546c                std::codecvt<wchar_t, char, _Mbstatet>::_Getcat(std::locale::facet const **)
 .gnu.linkonce.t.__aad__3stdRQ33stdt5_Iosb1Zi9_FmtflagsQ33stdt5_Iosb1Zi9_Fmtflags
                0x0808550c       0x11 /x86/lib/libcpp.a(wlocale.o)
                0x0808550c                std::operator&=(std::_Iosb<int>::_Fmtflags &, std::_Iosb<int>::_Fmtflags)
 *fill*         0x0808551d        0x3 37008
 .gnu.linkonce.t.__ad__3stdQ33stdt5_Iosb1Zi8_IostateT1
                0x08085520       0x17 /x86/lib/libcpp.a(wlocale.o)
                0x08085520                std::operator&(std::_Iosb<int>::_Iostate, std::_Iosb<int>::_Iostate)
 *fill*         0x08085537        0x1 37008
 .gnu.linkonce.t.__Q23std13messages_baseUi
                0x08085538       0x5d /x86/lib/libcpp.a(wlocale.o)
                0x08085538                std::messages_base::messages_base(unsigned int)
 *fill*         0x08085595        0x3 37008
 .gnu.linkonce.t.__Q23std10money_baseUi
                0x08085598       0x5d /x86/lib/libcpp.a(wlocale.o)
                0x08085598                std::money_base::money_base(unsigned int)
 *fill*         0x080855f5        0x3 37008
 .gnu.linkonce.t.__Q23std9time_baseUi
                0x080855f8       0x5d /x86/lib/libcpp.a(wlocale.o)
                0x080855f8                std::time_base::time_base(unsigned int)
 *fill*         0x08085655        0x3 37008
 .gnu.linkonce.t.use_facet__H1ZQ23stdt5ctype1Zw_3stdRCQ23std6locale_RCX01
                0x08085658      0x18c /x86/lib/libcpp.a(wlocale.o)
                0x08085658                std::ctype<wchar_t> const & std::use_facet<std::ctype<wchar_t> >(std::locale const &)
 .gnu.linkonce.t.use_facet__H1ZQ23stdt7num_get2ZwZQ23stdt19istreambuf_iterator2ZwZQ23stdt11char_traits1Zw_3stdRCQ23std6locale_RCX01
                0x080857e4      0x18c /x86/lib/libcpp.a(wlocale.o)
                0x080857e4                std::num_get<wchar_t, std::istreambuf_iterator<wchar_t, std::char_traits<wchar_t> > > const & std::use_facet<std::num_get<wchar_t, std::istreambuf_iterator<wchar_t, std::char_traits<wchar_t> > > >(std::locale const &)
 .gnu.linkonce.t.use_facet__H1ZQ23stdt7num_put2ZwZQ23stdt19ostreambuf_iterator2ZwZQ23stdt11char_traits1Zw_3stdRCQ23std6locale_RCX01
                0x08085970      0x18c /x86/lib/libcpp.a(wlocale.o)
                0x08085970                std::num_put<wchar_t, std::ostreambuf_iterator<wchar_t, std::char_traits<wchar_t> > > const & std::use_facet<std::num_put<wchar_t, std::ostreambuf_iterator<wchar_t, std::char_traits<wchar_t> > > >(std::locale const &)
 .gnu.linkonce.t.use_facet__H1ZQ23stdt8numpunct1Zw_3stdRCQ23std6locale_RCX01
                0x08085afc      0x18c /x86/lib/libcpp.a(wlocale.o)
                0x08085afc                std::numpunct<wchar_t> const & std::use_facet<std::numpunct<wchar_t> >(std::locale const &)
 .gnu.linkonce.t.use_facet__H1ZQ23stdt7collate1Zw_3stdRCQ23std6locale_RCX01
                0x08085c88      0x18c /x86/lib/libcpp.a(wlocale.o)
                0x08085c88                std::collate<wchar_t> const & std::use_facet<std::collate<wchar_t> >(std::locale const &)
 .gnu.linkonce.t.use_facet__H1ZQ23stdt8messages1Zw_3stdRCQ23std6locale_RCX01
                0x08085e14      0x18c /x86/lib/libcpp.a(wlocale.o)
                0x08085e14                std::messages<wchar_t> const & std::use_facet<std::messages<wchar_t> >(std::locale const &)
 .gnu.linkonce.t.use_facet__H1ZQ23stdt9money_get2ZwZQ23stdt19istreambuf_iterator2ZwZQ23stdt11char_traits1Zw_3stdRCQ23std6locale_RCX01
                0x08085fa0      0x18c /x86/lib/libcpp.a(wlocale.o)
                0x08085fa0                std::money_get<wchar_t, std::istreambuf_iterator<wchar_t, std::char_traits<wchar_t> > > const & std::use_facet<std::money_get<wchar_t, std::istreambuf_iterator<wchar_t, std::char_traits<wchar_t> > > >(std::locale const &)
 .gnu.linkonce.t.use_facet__H1ZQ23stdt9money_put2ZwZQ23stdt19ostreambuf_iterator2ZwZQ23stdt11char_traits1Zw_3stdRCQ23std6locale_RCX01
                0x0808612c      0x18c /x86/lib/libcpp.a(wlocale.o)
                0x0808612c                std::money_put<wchar_t, std::ostreambuf_iterator<wchar_t, std::char_traits<wchar_t> > > const & std::use_facet<std::money_put<wchar_t, std::ostreambuf_iterator<wchar_t, std::char_traits<wchar_t> > > >(std::locale const &)
 .gnu.linkonce.t.use_facet__H1ZQ23stdt10moneypunct2Zwb0__3stdRCQ23std6locale_RCX01
                0x080862b8      0x18c /x86/lib/libcpp.a(wlocale.o)
                0x080862b8                std::moneypunct<wchar_t, false> const & std use_facet<std::moneypunct<wchar_t, false> >(std::locale const &)
 .gnu.linkonce.t.use_facet__H1ZQ23stdt10moneypunct2Zwb1__3stdRCQ23std6locale_RCX01
                0x08086444      0x18c /x86/lib/libcpp.a(wlocale.o)
                0x08086444                std::moneypunct<wchar_t, true> const & std use_facet<std::moneypunct<wchar_t, true> >(std::locale const &)
 .gnu.linkonce.t.use_facet__H1ZQ23stdt8time_get2ZwZQ23stdt19istreambuf_iterator2ZwZQ23stdt11char_traits1Zw_3stdRCQ23std6locale_RCX01
                0x080865d0      0x18c /x86/lib/libcpp.a(wlocale.o)
                0x080865d0                std::time_get<wchar_t, std::istreambuf_iterator<wchar_t, std::char_traits<wchar_t> > > const & std::use_facet<std::time_get<wchar_t, std::istreambuf_iterator<wchar_t, std::char_traits<wchar_t> > > >(std::locale const &)
 .gnu.linkonce.t.use_facet__H1ZQ23stdt8time_put2ZwZQ23stdt19ostreambuf_iterator2ZwZQ23stdt11char_traits1Zw_3stdRCQ23std6locale_RCX01
                0x0808675c      0x18c /x86/lib/libcpp.a(wlocale.o)
                0x0808675c                std::time_put<wchar_t, std::ostreambuf_iterator<wchar_t, std::char_traits<wchar_t> > > const & std::use_facet<std::time_put<wchar_t, std::ostreambuf_iterator<wchar_t, std::char_traits<wchar_t> > > >(std::locale const &)
 .gnu.linkonce.t.use_facet__H1ZQ23stdt7codecvt3ZwZcZ9_Mbstatet_3stdRCQ23std6locale_RCX01
                0x080868e8      0x18c /x86/lib/libcpp.a(wlocale.o)
                0x080868e8                std::codecvt<wchar_t, char, _Mbstatet> const & std::use_facet<std::codecvt<wchar_t, char, _Mbstatet> >(std::locale const &)
 .gnu.linkonce.t.__tfQ23stdt7codecvt3ZwZcZ9_Mbstatet
                0x08086a74       0x3a /x86/lib/libcpp.a(wlocale.o)
                0x08086a74                std::codecvt<wchar_t, char, _Mbstatet> type_info function
 *fill*         0x08086aae        0x2 37008
 .gnu.linkonce.t.__tfQ23std13messages_base
                0x08086ab0       0x3a /x86/lib/libcpp.a(wlocale.o)
                0x08086ab0                std::messages_base type_info function
 *fill*         0x08086aea        0x2 37008
 .gnu.linkonce.t.__tfQ23std10money_base
                0x08086aec       0x3a /x86/lib/libcpp.a(wlocale.o)
                0x08086aec                std::money_base type_info function
 *fill*         0x08086b26        0x2 37008
 .gnu.linkonce.t.__tfQ23std9time_base
                0x08086b28       0x3a /x86/lib/libcpp.a(wlocale.o)
                0x08086b28                std::time_base type_info function
 *fill*         0x08086b62        0x2 37008
 .gnu.linkonce.t.btowc__3stdi
                0x08086b64       0x21 /x86/lib/libcpp.a(wlocale.o)
                0x08086b64                std::btowc(int)
 *fill*         0x08086b85        0x3 37008
 .gnu.linkonce.t.__Q23stdt7codecvt3ZwZcZ9_MbstatetUi
                0x08086b88       0xc8 /x86/lib/libcpp.a(wlocale.o)
                0x08086b88                std::codecvt<wchar_t, char, _Mbstatet>::codecvt(unsigned int)
 .gnu.linkonce.t._._Q23stdt7codecvt3ZwZcZ9_Mbstatet
                0x08086c50       0x26 /x86/lib/libcpp.a(wlocale.o)
                0x08086c50                std::codecvt<wchar_t, char, _Mbstatet>::~codecvt(void)
 *fill*         0x08086c76        0x2 37008
 .gnu.linkonce.t._Init__Q23stdt7codecvt3ZwZcZ9_MbstatetRCQ23std8_Locinfo
                0x08086c78       0x28 /x86/lib/libcpp.a(wlocale.o)
                0x08086c78                std::codecvt<wchar_t, char, _Mbstatet>::_Init(std::_Locinfo const &)
 .gnu.linkonce.t.do_in__CQ23stdt7codecvt3ZwZcZ9_MbstatetR9_MbstatetPCcT2RPCcPwT5RPw
                0x08086ca0       0xfe /x86/lib/libcpp.a(wlocale.o)
                0x08086ca0                std::codecvt<wchar_t, char, _Mbstatet>::do_in(_Mbstatet &, char const *, char const *, char const *&, wchar_t *, wchar_t *, wchar_t *&) const
 *fill*         0x08086d9e        0x2 37008
 .gnu.linkonce.t.do_out__CQ23stdt7codecvt3ZwZcZ9_MbstatetR9_MbstatetPCwT2RPCwPcT5RPc
                0x08086da0      0x16e /x86/lib/libcpp.a(wlocale.o)
                0x08086da0                std::codecvt<wchar_t, char, _Mbstatet>::do_out(_Mbstatet &, wchar_t const *, wchar_t const *, wchar_t const *&, char *, char *, char *&) const
 *fill*         0x08086f0e        0x2 37008
 .gnu.linkonce.t.do_unshift__CQ23stdt7codecvt3ZwZcZ9_MbstatetR9_MbstatetPcT2RPc
                0x08086f10       0xbd /x86/lib/libcpp.a(wlocale.o)
                0x08086f10                std::codecvt<wchar_t, char, _Mbstatet>::do_unshift(_Mbstatet &, char *, char *, char *&) const
 *fill*         0x08086fcd        0x3 37008
 .gnu.linkonce.t.do_length__CQ23stdt7codecvt3ZwZcZ9_MbstatetRC9_MbstatetPCcT2Ui
                0x08086fd0      0x13d /x86/lib/libcpp.a(wlocale.o)
                0x08086fd0                std::codecvt<wchar_t, char, _Mbstatet>::do_length(_Mbstatet const &, char const *, char const *, unsigned int) const
 *fill*         0x0808710d        0x3 37008
 .gnu.linkonce.t.do_always_noconv__CQ23stdt7codecvt3ZwZcZ9_Mbstatet
                0x08087110       0x75 /x86/lib/libcpp.a(wlocale.o)
                0x08087110                std::codecvt<wchar_t, char, _Mbstatet>::do_always_noconv(void) const
 *fill*         0x08087185        0x3 37008
 .gnu.linkonce.t.do_max_length__CQ23stdt7codecvt3ZwZcZ9_Mbstatet
                0x08087188       0x79 /x86/lib/libcpp.a(wlocale.o)
                0x08087188                std::codecvt<wchar_t, char, _Mbstatet>::do_max_length(void) const
 *fill*         0x08087201        0x3 37008
 .gnu.linkonce.t.do_encoding__CQ23stdt7codecvt3ZwZcZ9_Mbstatet
                0x08087204       0x75 /x86/lib/libcpp.a(wlocale.o)
                0x08087204                std::codecvt<wchar_t, char, _Mbstatet>::do_encoding(void) const
 *fill*         0x08087279        0x3 37008
 .gnu.linkonce.t._Mbrtowc__3stdPwPCcUiP9_MbstatetPCQ23std7_Cvtvec
                0x0808727c       0x32 /x86/lib/libcpp.a(wlocale.o)
                0x0808727c                std::_Mbrtowc(wchar_t *, char const *, unsigned int, _Mbstatet *, std::_Cvtvec const *)
 *fill*         0x080872ae        0x2 37008
 .gnu.linkonce.t._Wcrtomb__3stdPcwP9_MbstatetPCQ23std7_Cvtvec
                0x080872b0       0x31 /x86/lib/libcpp.a(wlocale.o)
                0x080872b0                std::_Wcrtomb(char *, wchar_t, _Mbstatet *, std::_Cvtvec const *)
 *fill*         0x080872e1        0x3 37008
 .gnu.linkonce.t._Init__Q23stdt7collate1ZcRCQ23std8_Locinfo
                0x080872e4       0x28 /x86/lib/libcpp.a(xlocale.o)
                0x080872e4                std::collate<char>::_Init(std::_Locinfo const &)
 .gnu.linkonce.t.__Q23stdt7collate1ZcUi
                0x0808730c       0xc8 /x86/lib/libcpp.a(xlocale.o)
                0x0808730c                std::collate<char>::collate(unsigned int)
 .gnu.linkonce.t._Getcat__Q23stdt7collate1ZcPPCQ33std6locale5facet
                0x080873d4       0xa0 /x86/lib/libcpp.a(xlocale.o)
                0x080873d4                std::collate<char>::_Getcat(std::locale::facet const **)
 .gnu.linkonce.t.__Q23stdt7collate1ZcRCQ23std8_LocinfoUi
                0x08087474       0x6d /x86/lib/libcpp.a(xlocale.o)
                0x08087474                std::collate<char>::collate(std::_Locinfo const &, unsigned int)
 *fill*         0x080874e1        0x3 37008
 .gnu.linkonce.t._Tidy__Q23stdt8_Tidyfac1ZQ23stdt7collate1Zc
                0x080874e4       0xb0 /x86/lib/libcpp.a(xlocale.o)
                0x080874e4                std::_Tidyfac<std::collate<char> >::_Tidy(void)
 .gnu.linkonce.t._Save__Q23stdt8_Tidyfac1ZQ23stdt7collate1ZcPQ23stdt7collate1Zc
                0x08087594       0x3a /x86/lib/libcpp.a(xlocale.o)
                0x08087594                std::_Tidyfac<std::collate<char> >::_Save(std::collate<char> *)
 *fill*         0x080875ce        0x2 37008
 .gnu.linkonce.t._Init__Q23stdt8messages1ZcRCQ23std8_Locinfo
                0x080875d0        0x8 /x86/lib/libcpp.a(xlocale.o)
                0x080875d0                std::messages<char>::_Init(std::_Locinfo const &)
 .gnu.linkonce.t.__Q23stdt8messages1ZcUi
                0x080875d8       0xc8 /x86/lib/libcpp.a(xlocale.o)
                0x080875d8                std::messages<char>::messages(unsigned int)
 .gnu.linkonce.t._Getcat__Q23stdt8messages1ZcPPCQ33std6locale5facet
                0x080876a0       0xa0 /x86/lib/libcpp.a(xlocale.o)
                0x080876a0                std::messages<char>::_Getcat(std::locale::facet const **)
 .gnu.linkonce.t.__Q23stdt8messages1ZcRCQ23std8_LocinfoUi
                0x08087740       0x6d /x86/lib/libcpp.a(xlocale.o)
                0x08087740                std::messages<char>::messages(std::_Locinfo const &, unsigned int)
 *fill*         0x080877ad        0x3 37008
 .gnu.linkonce.t._Tidy__Q23stdt8_Tidyfac1ZQ23stdt8messages1Zc
                0x080877b0       0xb0 /x86/lib/libcpp.a(xlocale.o)
                0x080877b0                std::_Tidyfac<std::messages<char> >::_Tidy(void)
 .gnu.linkonce.t._Save__Q23stdt8_Tidyfac1ZQ23stdt8messages1ZcPQ23stdt8messages1Zc
                0x08087860       0x3a /x86/lib/libcpp.a(xlocale.o)
                0x08087860                std::_Tidyfac<std::messages<char> >::_Save(std::messages<char> *)
 *fill*         0x0808789a        0x2 37008
 .gnu.linkonce.t._Init__Q23stdt9money_get2ZcZQ23stdt19istreambuf_iterator2ZcZQ23stdt11char_traits1ZcRCQ23std8_Locinfo
                0x0808789c        0x8 /x86/lib/libcpp.a(xlocale.o)
                0x0808789c                std::money_get<char, std::istreambuf_iterator<char, std::char_traits<char> > >::_Init(std::_Locinfo const &)
 .gnu.linkonce.t.__Q23stdt9money_get2ZcZQ23stdt19istreambuf_iterator2ZcZQ23stdt11char_traits1ZcUi
                0x080878a4       0xc8 /x86/lib/libcpp.a(xlocale.o)
                0x080878a4                std::money_get<char, std::istreambuf_iterator<char, std::char_traits<char> > >::money_get(unsigned int)
 .gnu.linkonce.t._Getcat__Q23stdt9money_get2ZcZQ23stdt19istreambuf_iterator2ZcZQ23stdt11char_traits1ZcPPCQ33std6locale5facet
                0x0808796c       0xa0 /x86/lib/libcpp.a(xlocale.o)
                0x0808796c                std::money_get<char, std::istreambuf_iterator<char, std::char_traits<char> > >::_Getcat(std::locale::facet const **)
 .gnu.linkonce.t.__Q23stdt9money_get2ZcZQ23stdt19istreambuf_iterator2ZcZQ23stdt11char_traits1ZcRCQ23std8_LocinfoUi
                0x08087a0c       0x6d /x86/lib/libcpp.a(xlocale.o)
                0x08087a0c                std::money_get<char, std::istreambuf_iterator<char, std::char_traits<char> > >::money_get(std::_Locinfo const &, unsigned int)
 *fill*         0x08087a79        0x3 37008
 .gnu.linkonce.t._Tidy__Q23stdt8_Tidyfac1ZQ23stdt9money_get2ZcZQ23stdt19istreambuf_iterator2ZcZQ23stdt11char_traits1Zc
                0x08087a7c       0xb0 /x86/lib/libcpp.a(xlocale.o)
                0x08087a7c                std::_Tidyfac<std::money_get<char, std::istreambuf_iterator<char, std::char_traits<char> > > >::_Tidy(void)
 .gnu.linkonce.t._Save__Q23stdt8_Tidyfac1ZQ23stdt9money_get2ZcZQ23stdt19istreambuf_iterator2ZcZQ23stdt11char_traits1ZcPQ23stdt9money_get2ZcZQ23stdt19istreambuf_iterator2ZcZQ23stdt11char_traits1Zc
                0x08087b2c       0x3a /x86/lib/libcpp.a(xlocale.o)
                0x08087b2c                std::_Tidyfac<std::money_get<char, std::istreambuf_iterator<char, std::char_traits<char> > > >::_Save(std::money_get<char, std::istreambuf_iterator<char, std::char_traits<char> > > *)
 *fill*         0x08087b66        0x2 37008
 .gnu.linkonce.t._Init__Q23stdt9money_put2ZcZQ23stdt19ostreambuf_iterator2ZcZQ23stdt11char_traits1ZcRCQ23std8_Locinfo
                0x08087b68        0x8 /x86/lib/libcpp.a(xlocale.o)
                0x08087b68                std::money_put<char, std::ostreambuf_iterator<char, std::char_traits<char> > >::_Init(std::_Locinfo const &)
 .gnu.linkonce.t.__Q23stdt9money_put2ZcZQ23stdt19ostreambuf_iterator2ZcZQ23stdt11char_traits1ZcUi
                0x08087b70       0xc8 /x86/lib/libcpp.a(xlocale.o)
                0x08087b70                std::money_put<char, std::ostreambuf_iterator<char, std::char_traits<char> > >::money_put(unsigned int)
 .gnu.linkonce.t._Getcat__Q23stdt9money_put2ZcZQ23stdt19ostreambuf_iterator2ZcZQ23stdt11char_traits1ZcPPCQ33std6locale5facet
                0x08087c38       0xa0 /x86/lib/libcpp.a(xlocale.o)
                0x08087c38                std::money_put<char, std::ostreambuf_iterator<char, std::char_traits<char> > >::_Getcat(std::locale::facet const **)
 .gnu.linkonce.t.__Q23stdt9money_put2ZcZQ23stdt19ostreambuf_iterator2ZcZQ23stdt11char_traits1ZcRCQ23std8_LocinfoUi
                0x08087cd8       0x6d /x86/lib/libcpp.a(xlocale.o)
                0x08087cd8                std::money_put<char, std::ostreambuf_iterator<char, std::char_traits<char> > >::money_put(std::_Locinfo const &, unsigned int)
 *fill*         0x08087d45        0x3 37008
 .gnu.linkonce.t._Tidy__Q23stdt8_Tidyfac1ZQ23stdt9money_put2ZcZQ23stdt19ostreambuf_iterator2ZcZQ23stdt11char_traits1Zc
                0x08087d48       0xb0 /x86/lib/libcpp.a(xlocale.o)
                0x08087d48                std::_Tidyfac<std::money_put<char, std::ostreambuf_iterator<char, std::char_traits<char> > > >::_Tidy(void)
 .gnu.linkonce.t._Save__Q23stdt8_Tidyfac1ZQ23stdt9money_put2ZcZQ23stdt19ostreambuf_iterator2ZcZQ23stdt11char_traits1ZcPQ23stdt9money_put2ZcZQ23stdt19ostreambuf_iterator2ZcZQ23stdt11char_traits1Zc
                0x08087df8       0x3a /x86/lib/libcpp.a(xlocale.o)
                0x08087df8                std::_Tidyfac<std::money_put<char, std::ostreambuf_iterator<char, std::char_traits<char> > > >::_Save(std::money_put<char, std::ostreambuf_iterator<char, std::char_traits<char> > > *)
 *fill*         0x08087e32        0x2 37008
 .gnu.linkonce.t._Makpat__Q23stdt7_Mpunct1ZcRQ33std10money_base7patternUiUiUi
                0x08087e34       0x81 /x86/lib/libcpp.a(xlocale.o)
                0x08087e34                std::_Mpunct<char>::_Makpat(std::money_base::pattern &, unsigned int, unsigned int, unsigned int)
 *fill*         0x08087eb5        0x3 37008
 .gnu.linkonce.t._Init__Q23stdt7_Mpunct1ZcRCQ23std8_Locinfo
                0x08087eb8      0x174 /x86/lib/libcpp.a(xlocale.o)
                0x08087eb8                std::_Mpunct<char>::_Init(std::_Locinfo const &)
 .gnu.linkonce.t.__Q23stdt7_Mpunct1ZcUib
                0x0808802c       0xcc /x86/lib/libcpp.a(xlocale.o)
                0x0808802c                std::_Mpunct<char>::_Mpunct(unsigned int, bool)
 .gnu.linkonce.t._._Q23stdt7_Mpunct1Zc
                0x080880f8       0x85 /x86/lib/libcpp.a(xlocale.o)
                0x080880f8                std::_Mpunct<char>::~_Mpunct(void)
 *fill*         0x0808817d        0x3 37008
 .gnu.linkonce.t.__Q23stdt10moneypunct2Zcb0Ui
                0x08088180       0x61 /x86/lib/libcpp.a(xlocale.o)
                0x08088180                std::moneypunct<char, false>::moneypunct(unsigned int)
 *fill*         0x080881e1        0x3 37008
 .gnu.linkonce.t._Getcat__Q23stdt10moneypunct2Zcb0PPCQ33std6locale5facet
                0x080881e4       0xa0 /x86/lib/libcpp.a(xlocale.o)
                0x080881e4                std::moneypunct<char, false>::_Getcat(std::locale::facet const **)
 .gnu.linkonce.t.__Q23stdt7_Mpunct1ZcRCQ23std8_LocinfoUib
                0x08088284       0x75 /x86/lib/libcpp.a(xlocale.o)
                0x08088284                std::_Mpunct<char>::_Mpunct(std::_Locinfo const &, unsigned int, bool)
 *fill*         0x080882f9        0x3 37008
 .gnu.linkonce.t.__Q23stdt10moneypunct2Zcb0RCQ23std8_LocinfoUi
                0x080882fc       0x61 /x86/lib/libcpp.a(xlocale.o)
                0x080882fc                std::moneypunct<char, false>::moneypunct(std::_Locinfo const &, unsigned int)
 *fill*         0x0808835d        0x3 37008
 .gnu.linkonce.t._Tidy__Q23stdt8_Tidyfac1ZQ23stdt10moneypunct2Zcb0
                0x08088360       0xb0 /x86/lib/libcpp.a(xlocale.o)
                0x08088360                std::_Tidyfac<std::moneypunct<char, false> >::_Tidy(void)
 .gnu.linkonce.t._Save__Q23stdt8_Tidyfac1ZQ23stdt10moneypunct2Zcb0PQ23stdt10moneypunct2Zcb0
                0x08088410       0x3a /x86/lib/libcpp.a(xlocale.o)
                0x08088410                std::_Tidyfac<std::moneypunct<char, false> >::_Save(std::moneypunct<char, false> *)
 *fill*         0x0808844a        0x2 37008
 .gnu.linkonce.t.__Q23stdt10moneypunct2Zcb1Ui
                0x0808844c       0x61 /x86/lib/libcpp.a(xlocale.o)
                0x0808844c                std::moneypunct<char, true>::moneypunct(unsigned int)
 *fill*         0x080884ad        0x3 37008
 .gnu.linkonce.t._Getcat__Q23stdt10moneypunct2Zcb1PPCQ33std6locale5facet
                0x080884b0       0xa0 /x86/lib/libcpp.a(xlocale.o)
                0x080884b0                std::moneypunct<char, true>::_Getcat(std::locale::facet const **)
 .gnu.linkonce.t.__Q23stdt10moneypunct2Zcb1RCQ23std8_LocinfoUi
                0x08088550       0x61 /x86/lib/libcpp.a(xlocale.o)
                0x08088550                std::moneypunct<char, true>::moneypunct(std::_Locinfo const &, unsigned int)
 *fill*         0x080885b1        0x3 37008
 .gnu.linkonce.t._Tidy__Q23stdt8_Tidyfac1ZQ23stdt10moneypunct2Zcb1
                0x080885b4       0xb0 /x86/lib/libcpp.a(xlocale.o)
                0x080885b4                std::_Tidyfac<std::moneypunct<char, true> >::_Tidy(void)
 .gnu.linkonce.t._Save__Q23stdt8_Tidyfac1ZQ23stdt10moneypunct2Zcb1PQ23stdt10moneypunct2Zcb1
                0x08088664       0x3a /x86/lib/libcpp.a(xlocale.o)
                0x08088664                std::_Tidyfac<std::moneypunct<char, true> >::_Save(std::moneypunct<char, true> *)
 *fill*         0x0808869e        0x2 37008
 .gnu.linkonce.t._Init__Q23stdt8time_get2ZcZQ23stdt19istreambuf_iterator2ZcZQ23stdt11char_traits1ZcRCQ23std8_Locinfo
                0x080886a0       0x57 /x86/lib/libcpp.a(xlocale.o)
                0x080886a0                std::time_get<char, std::istreambuf_iterator<char, std::char_traits<char> > >::_Init(std::_Locinfo const &)
 *fill*         0x080886f7        0x1 37008
 .gnu.linkonce.t.__Q23stdt8time_get2ZcZQ23stdt19istreambuf_iterator2ZcZQ23stdt11char_traits1ZcUi
                0x080886f8       0xc8 /x86/lib/libcpp.a(xlocale.o)
                0x080886f8                std::time_get<char, std::istreambuf_iterator<char, std::char_traits<char> > >::time_get(unsigned int)
 .gnu.linkonce.t._Getcat__Q23stdt8time_get2ZcZQ23stdt19istreambuf_iterator2ZcZQ23stdt11char_traits1ZcPPCQ33std6locale5facet
                0x080887c0       0xa0 /x86/lib/libcpp.a(xlocale.o)
                0x080887c0                std::time_get<char, std::istreambuf_iterator<char, std::char_traits<char> > >::_Getcat(std::locale::facet const **)
 .gnu.linkonce.t.__Q23stdt8time_get2ZcZQ23stdt19istreambuf_iterator2ZcZQ23stdt11char_traits1ZcRCQ23std8_LocinfoUi
                0x08088860       0x6d /x86/lib/libcpp.a(xlocale.o)
                0x08088860                std::time_get<char, std::istreambuf_iterator<char, std::char_traits<char> > >::time_get(std::_Locinfo const &, unsigned int)
 *fill*         0x080888cd        0x3 37008
 .gnu.linkonce.t._Tidy__Q23stdt8_Tidyfac1ZQ23stdt8time_get2ZcZQ23stdt19istreambuf_iterator2ZcZQ23stdt11char_traits1Zc
                0x080888d0       0xb0 /x86/lib/libcpp.a(xlocale.o)
                0x080888d0                std::_Tidyfac<std::time_get<char, std::istreambuf_iterator<char, std::char_traits<char> > > >::_Tidy(void)
 .gnu.linkonce.t._Save__Q23stdt8_Tidyfac1ZQ23stdt8time_get2ZcZQ23stdt19istreambuf_iterator2ZcZQ23stdt11char_traits1ZcPQ23stdt8time_get2ZcZQ23stdt19istreambuf_iterator2ZcZQ23stdt11char_traits1Zc
                0x08088980       0x3a /x86/lib/libcpp.a(xlocale.o)
                0x08088980                std::_Tidyfac<std::time_get<char, std::istreambuf_iterator<char, std::char_traits<char> > > >::_Save(std::time_get<char, std::istreambuf_iterator<char, std::char_traits<char> > > *)
 *fill*         0x080889ba        0x2 37008
 .gnu.linkonce.t._Init__Q23stdt8time_put2ZcZQ23stdt19ostreambuf_iterator2ZcZQ23stdt11char_traits1ZcRCQ23std8_Locinfo
                0x080889bc       0x38 /x86/lib/libcpp.a(xlocale.o)
                0x080889bc                std::time_put<char, std::ostreambuf_iterator<char, std::char_traits<char> > >::_Init(std::_Locinfo const &)
 .gnu.linkonce.t.__Q23stdt8time_put2ZcZQ23stdt19ostreambuf_iterator2ZcZQ23stdt11char_traits1ZcUi
                0x080889f4       0xd8 /x86/lib/libcpp.a(xlocale.o)
                0x080889f4                std::time_put<char, std::ostreambuf_iterator<char, std::char_traits<char> > >::time_put(unsigned int)
 .gnu.linkonce.t._Getcat__Q23stdt8time_put2ZcZQ23stdt19ostreambuf_iterator2ZcZQ23stdt11char_traits1ZcPPCQ33std6locale5facet
                0x08088acc       0xa0 /x86/lib/libcpp.a(xlocale.o)
                0x08088acc                std::time_put<char, std::ostreambuf_iterator<char, std::char_traits<char> > >::_Getcat(std::locale::facet const **)
 .gnu.linkonce.t.__Q23stdt8time_put2ZcZQ23stdt19ostreambuf_iterator2ZcZQ23stdt11char_traits1ZcRCQ23std8_LocinfoUi
                0x08088b6c       0x7d /x86/lib/libcpp.a(xlocale.o)
                0x08088b6c                std::time_put<char, std::ostreambuf_iterator<char, std::char_traits<char> > >::time_put(std::_Locinfo const &, unsigned int)
 *fill*         0x08088be9        0x3 37008
 .gnu.linkonce.t._Tidy__Q23stdt8_Tidyfac1ZQ23stdt8time_put2ZcZQ23stdt19ostreambuf_iterator2ZcZQ23stdt11char_traits1Zc
                0x08088bec       0xb0 /x86/lib/libcpp.a(xlocale.o)
                0x08088bec                std::_Tidyfac<std::time_put<char, std::ostreambuf_iterator<char, std::char_traits<char> > > >::_Tidy(void)
 .gnu.linkonce.t._Save__Q23stdt8_Tidyfac1ZQ23stdt8time_put2ZcZQ23stdt19ostreambuf_iterator2ZcZQ23stdt11char_traits1ZcPQ23stdt8time_put2ZcZQ23stdt19ostreambuf_iterator2ZcZQ23stdt11char_traits1Zc
                0x08088c9c       0x3a /x86/lib/libcpp.a(xlocale.o)
                0x08088c9c                std::_Tidyfac<std::time_put<char, std::ostreambuf_iterator<char, std::char_traits<char> > > >::_Save(std::time_put<char, std::ostreambuf_iterator<char, std::char_traits<char> > > *)
 *fill*         0x08088cd6        0x2 37008
 .gnu.linkonce.t._._Q23stdt8time_put2ZcZQ23stdt19ostreambuf_iterator2ZcZQ23stdt11char_traits1Zc
                0x08088cd8       0x26 /x86/lib/libcpp.a(xlocale.o)
                0x08088cd8                std::time_put<char, std::ostreambuf_iterator<char, std::char_traits<char> > >::~time_put(void)
 *fill*         0x08088cfe        0x2 37008
 .gnu.linkonce.t.do_put__CQ23stdt8time_put2ZcZQ23stdt19ostreambuf_iterator2ZcZQ23stdt11char_traits1ZcGQ23stdt19ostreambuf_iterator2ZcZQ23stdt11char_traits1ZcRQ23std8ios_basecPCQ23std2tmcc
                0x08088d00      0x1f3 /x86/lib/libcpp.a(xlocale.o)
                0x08088d00                std::time_put<char, std::ostreambuf_iterator<char, std::char_traits<char> > >::do_put(std::ostreambuf_iterator<char, std::char_traits<char> >, std::ios_base &, char, std::tm const *, char, char) const
 *fill*         0x08088ef3        0x1 37008
 .gnu.linkonce.t._._Q23stdt8time_get2ZcZQ23stdt19istreambuf_iterator2ZcZQ23stdt11char_traits1Zc
                0x08088ef4       0x55 /x86/lib/libcpp.a(xlocale.o)
                0x08088ef4                std::time_get<char, std::istreambuf_iterator<char, std::char_traits<char> > >::~time_get(void)
 *fill*         0x08088f49        0x3 37008
 .gnu.linkonce.t.do_date_order__CQ23stdt8time_get2ZcZQ23stdt19istreambuf_iterator2ZcZQ23stdt11char_traits1Zc
                0x08088f4c        0xf /x86/lib/libcpp.a(xlocale.o)
                0x08088f4c                std::time_get<char, std::istreambuf_iterator<char, std::char_traits<char> > >::do_date_order(void) const
 *fill*         0x08088f5b        0x1 37008
 .gnu.linkonce.t.__eq__H2ZcZQ23stdt11char_traits1Zc_3stdRCQ23stdt19istreambuf_iterator2ZX01ZX11T1_b
                0x08088f5c       0x28 /x86/lib/libcpp.a(xlocale.o)
                0x08088f5c                bool std::operator==<char, std::char_traits<char> >(std::istreambuf_iterator<char, std::char_traits<char> > const &, std::istreambuf_iterator<char, std::char_traits<char> > const &)
 .gnu.linkonce.t.__ne__H2ZcZQ23stdt11char_traits1Zc_3stdRCQ23stdt19istreambuf_iterator2ZX01ZX11T1_b
                0x08088f84       0x2b /x86/lib/libcpp.a(xlocale.o)
                0x08088f84                bool std::operator!=<char, std::char_traits<char> >(std::istreambuf_iterator<char, std::char_traits<char> > const &, std::istreambuf_iterator<char, std::char_traits<char> > const &)
 *fill*         0x08088faf        0x1 37008
 .gnu.linkonce.t._Getint__Q23stdt8time_get2ZcZQ23stdt19istreambuf_iterator2ZcZQ23stdt11char_traits1ZcRQ23stdt19istreambuf_iterator2ZcZQ23stdt11char_traits1ZcT1iiRi
                0x08088fb0      0x28b /x86/lib/libcpp.a(xlocale.o)
                0x08088fb0                std::time_get<char, std::istreambuf_iterator<char, std::char_traits<char> > >::_Getint(std::istreambuf_iterator<char, std::char_traits<char> > &, std::istreambuf_iterator<char, std::char_traits<char> > &, int, int, int &)
 *fill*         0x0808923b        0x1 37008
 .gnu.linkonce.t.do_get_time__CQ23stdt8time_get2ZcZQ23stdt19istreambuf_iterator2ZcZQ23stdt11char_traits1ZcGQ23stdt19istreambuf_iterator2ZcZQ23stdt11char_traits1ZcT1RQ23std8ios_baseRQ33stdt5_Iosb1Zi8_IostatePQ23std2tm
                0x0808923c      0x15f /x86/lib/libcpp.a(xlocale.o)
                0x0808923c                std::time_get<char, std::istreambuf_iterator<char, std::char_traits<char> > >::do_get_time(std::istreambuf_iterator<char, std::char_traits<char> >, std::istreambuf_iterator<char, std::char_traits<char> >, std::ios_base &, std::_Iosb<int>::_Iostate &, std::tm *) const
 *fill*         0x0808939b        0x1 37008
 .gnu.linkonce.t._Getloctxt__H2ZcZQ23stdt19istreambuf_iterator2ZcZQ23stdt11char_traits1Zc_3stdRX11T1UiPCX01_i
                0x0808939c      0x260 /x86/lib/libcpp.a(xlocale.o)
                0x0808939c                int std::_Getloctxt<char, std::istreambuf_iterator<char, std::char_traits<char> > >(std::istreambuf_iterator<char, std::char_traits<char> > &, std::istreambuf_iterator<char, std::char_traits<char> > &, unsigned int, char const *)
 .gnu.linkonce.t.do_get_monthname__CQ23stdt8time_get2ZcZQ23stdt19istreambuf_iterator2ZcZQ23stdt11char_traits1ZcGQ23stdt19istreambuf_iterator2ZcZQ23stdt11char_traits1ZcT1RQ23std8ios_baseRQ33stdt5_Iosb1Zi8_IostatePQ23std2tm
                0x080895fc       0x74 /x86/lib/libcpp.a(xlocale.o)
                0x080895fc                std::time_get<char, std::istreambuf_iterator<char, std::char_traits<char> > >::do_get_monthname(std::istreambuf_iterator<char, std::char_traits<char> >, std::istreambuf_iterator<char, std::char_traits<char> >, std::ios_base &, std::_Iosb<int>::_Iostate &, std::tm *) const
 .gnu.linkonce.t.get_monthname__CQ23stdt8time_get2ZcZQ23stdt19istreambuf_iterator2ZcZQ23stdt11char_traits1ZcGQ23stdt19istreambuf_iterator2ZcZQ23stdt11char_traits1ZcT1RQ23std8ios_baseRQ33stdt5_Iosb1Zi8_IostatePQ23std2tm
                0x08089670       0x83 /x86/lib/libcpp.a(xlocale.o)
                0x08089670                std::time_get<char, std::istreambuf_iterator<char, std::char_traits<char> > >::get_monthname(std::istreambuf_iterator<char, std::char_traits<char> >, std::istreambuf_iterator<char, std::char_traits<char> >, std::ios_base &, std::_Iosb<int>::_Iostate &, std::tm *) const
 *fill*         0x080896f3        0x1 37008
 .gnu.linkonce.t.do_get_year__CQ23stdt8time_get2ZcZQ23stdt19istreambuf_iterator2ZcZQ23stdt11char_traits1ZcGQ23stdt19istreambuf_iterator2ZcZQ23stdt11char_traits1ZcT1RQ23std8ios_baseRQ33stdt5_Iosb1Zi8_IostatePQ23std2tm
                0x080896f4       0xc4 /x86/lib/libcpp.a(xlocale.o)
                0x080896f4                std::time_get<char, std::istreambuf_iterator<char, std::char_traits<char> > >::do_get_year(std::istreambuf_iterator<char, std::char_traits<char> >, std::istreambuf_iterator<char, std::char_traits<char> >, std::ios_base &, std::_Iosb<int>::_Iostate &, std::tm *) const
 .gnu.linkonce.t.get_year__CQ23stdt8time_get2ZcZQ23stdt19istreambuf_iterator2ZcZQ23stdt11char_traits1ZcGQ23stdt19istreambuf_iterator2ZcZQ23stdt11char_traits1ZcT1RQ23std8ios_baseRQ33stdt5_Iosb1Zi8_IostatePQ23std2tm
                0x080897b8       0x83 /x86/lib/libcpp.a(xlocale.o)
                0x080897b8                std::time_get<char, std::istreambuf_iterator<char, std::char_traits<char> > >::get_year(std::istreambuf_iterator<char, std::char_traits<char> >, std::istreambuf_iterator<char, std::char_traits<char> >, std::ios_base &, std::_Iosb<int>::_Iostate &, std::tm *) const
 *fill*         0x0808983b        0x1 37008
 .gnu.linkonce.t.do_get_date__CQ23stdt8time_get2ZcZQ23stdt19istreambuf_iterator2ZcZQ23stdt11char_traits1ZcGQ23stdt19istreambuf_iterator2ZcZQ23stdt11char_traits1ZcT1RQ23std8ios_baseRQ33stdt5_Iosb1Zi8_IostatePQ23std2tm
                0x0808983c      0x29a /x86/lib/libcpp.a(xlocale.o)
                0x0808983c                std::time_get<char, std::istreambuf_iterator<char, std::char_traits<char> > >::do_get_date(std::istreambuf_iterator<char, std::char_traits<char> >, std::istreambuf_iterator<char, std::char_traits<char> >, std::ios_base &, std::_Iosb<int>::_Iostate &, std::tm *) const
 *fill*         0x08089ad6        0x2 37008
 .gnu.linkonce.t.do_get_weekday__CQ23stdt8time_get2ZcZQ23stdt19istreambuf_iterator2ZcZQ23stdt11char_traits1ZcGQ23stdt19istreambuf_iterator2ZcZQ23stdt11char_traits1ZcT1RQ23std8ios_baseRQ33stdt5_Iosb1Zi8_IostatePQ23std2tm
                0x08089ad8       0x74 /x86/lib/libcpp.a(xlocale.o)
                0x08089ad8                std::time_get<char, std::istreambuf_iterator<char, std::char_traits<char> > >::do_get_weekday(std::istreambuf_iterator<char, std::char_traits<char> >, std::istreambuf_iterator<char, std::char_traits<char> >, std::ios_base &, std::_Iosb<int>::_Iostate &, std::tm *) const
 .gnu.linkonce.t.do_decimal_point__CQ23stdt7_Mpunct1Zc
                0x08089b4c       0x10 /x86/lib/libcpp.a(xlocale.o)
                0x08089b4c                std::_Mpunct<char>::do_decimal_point(void) const
 .gnu.linkonce.t.do_thousands_sep__CQ23stdt7_Mpunct1Zc
                0x08089b5c       0x10 /x86/lib/libcpp.a(xlocale.o)
                0x08089b5c                std::_Mpunct<char>::do_thousands_sep(void) const
 .gnu.linkonce.t.do_grouping__CQ23stdt7_Mpunct1Zc
                0x08089b6c       0x2d /x86/lib/libcpp.a(xlocale.o)
                0x08089b6c                std::_Mpunct<char>::do_grouping(void) const
 *fill*         0x08089b99        0x3 37008
 .gnu.linkonce.t.do_curr_symbol__CQ23stdt7_Mpunct1Zc
                0x08089b9c       0x2d /x86/lib/libcpp.a(xlocale.o)
                0x08089b9c                std::_Mpunct<char>::do_curr_symbol(void) const
 *fill*         0x08089bc9        0x3 37008
 .gnu.linkonce.t.do_positive_sign__CQ23stdt7_Mpunct1Zc
                0x08089bcc       0x2d /x86/lib/libcpp.a(xlocale.o)
                0x08089bcc                std::_Mpunct<char>::do_positive_sign(void) const
 *fill*         0x08089bf9        0x3 37008
 .gnu.linkonce.t.do_negative_sign__CQ23stdt7_Mpunct1Zc
                0x08089bfc       0x2d /x86/lib/libcpp.a(xlocale.o)
                0x08089bfc                std::_Mpunct<char>::do_negative_sign(void) const
 *fill*         0x08089c29        0x3 37008
 .gnu.linkonce.t.do_frac_digits__CQ23stdt7_Mpunct1Zc
                0x08089c2c        0xf /x86/lib/libcpp.a(xlocale.o)
                0x08089c2c                std::_Mpunct<char>::do_frac_digits(void) const
 *fill*         0x08089c3b        0x1 37008
 .gnu.linkonce.t.do_pos_format__CQ23stdt7_Mpunct1Zc
                0x08089c3c       0x16 /x86/lib/libcpp.a(xlocale.o)
                0x08089c3c                std::_Mpunct<char>::do_pos_format(void) const
 *fill*         0x08089c52        0x2 37008
 .gnu.linkonce.t.do_neg_format__CQ23stdt7_Mpunct1Zc
                0x08089c54       0x16 /x86/lib/libcpp.a(xlocale.o)
                0x08089c54                std::_Mpunct<char>::do_neg_format(void) const
 *fill*         0x08089c6a        0x2 37008
 .gnu.linkonce.t._._Q23stdt9money_put2ZcZQ23stdt19ostreambuf_iterator2ZcZQ23stdt11char_traits1Zc
                0x08089c6c       0x26 /x86/lib/libcpp.a(xlocale.o)
                0x08089c6c                std::money_put<char, std::ostreambuf_iterator<char, std::char_traits<char> > >::~money_put(void)
 *fill*         0x08089c92        0x2 37008
 .gnu.linkonce.t.frac_digits__CQ23stdt7_Mpunct1Zc
                0x08089c94       0x32 /x86/lib/libcpp.a(xlocale.o)
                0x08089c94                std::_Mpunct<char>::frac_digits(void) const
 *fill*         0x08089cc6        0x2 37008
 .gnu.linkonce.t.grouping__CQ23stdt7_Mpunct1Zc
                0x08089cc8       0x3c /x86/lib/libcpp.a(xlocale.o)
                0x08089cc8                std::_Mpunct<char>::grouping(void) const
 .gnu.linkonce.t.thousands_sep__CQ23stdt7_Mpunct1Zc
                0x08089d04       0x35 /x86/lib/libcpp.a(xlocale.o)
                0x08089d04                std::_Mpunct<char>::thousands_sep(void) const
 *fill*         0x08089d39        0x3 37008
 .gnu.linkonce.t.insert__Q23stdt12basic_string3ZcZQ23stdt11char_traits1ZcZQ23stdt9allocator1ZcUiUic
                0x08089d3c       0xed /x86/lib/libcpp.a(xlocale.o)
                0x08089d3c                std::basic_string<char, std::char_traits<char>, std::allocator<char> >::insert(unsigned int, unsigned int, char)
 *fill*         0x08089e29        0x3 37008
 .gnu.linkonce.t.neg_format__CQ23stdt7_Mpunct1Zc
                0x08089e2c       0x3c /x86/lib/libcpp.a(xlocale.o)
                0x08089e2c                std::_Mpunct<char>::neg_format(void) const
 .gnu.linkonce.t.negative_sign__CQ23stdt7_Mpunct1Zc
                0x08089e68       0x3c /x86/lib/libcpp.a(xlocale.o)
                0x08089e68                std::_Mpunct<char>::negative_sign(void) const
 .gnu.linkonce.t.pos_format__CQ23stdt7_Mpunct1Zc
                0x08089ea4       0x3c /x86/lib/libcpp.a(xlocale.o)
                0x08089ea4                std::_Mpunct<char>::pos_format(void) const
 .gnu.linkonce.t.positive_sign__CQ23stdt7_Mpunct1Zc
                0x08089ee0       0x3c /x86/lib/libcpp.a(xlocale.o)
                0x08089ee0                std::_Mpunct<char>::positive_sign(void) const
 .gnu.linkonce.t.curr_symbol__CQ23stdt7_Mpunct1Zc
                0x08089f1c       0x3c /x86/lib/libcpp.a(xlocale.o)
                0x08089f1c                std::_Mpunct<char>::curr_symbol(void) const
 .gnu.linkonce.t._Rep__Q23stdt9money_put2ZcZQ23stdt19ostreambuf_iterator2ZcZQ23stdt11char_traits1ZcGQ23stdt19ostreambuf_iterator2ZcZQ23stdt11char_traits1ZccUi
                0x08089f58       0x71 /x86/lib/libcpp.a(xlocale.o)
                0x08089f58                std::money_put<char, std::ostreambuf_iterator<char, std::char_traits<char> > >::_Rep(std::ostreambuf_iterator<char, std::char_traits<char> >, char, unsigned int)
 *fill*         0x08089fc9        0x3 37008
 .gnu.linkonce.t._Put__Q23stdt9money_put2ZcZQ23stdt19ostreambuf_iterator2ZcZQ23stdt11char_traits1ZcGQ23stdt19ostreambuf_iterator2ZcZQ23stdt11char_traits1ZcGQ23stdt6_Ptrit6ZcZiZPCcZRCcZPcZRcUi
                0x08089fcc       0x91 /x86/lib/libcpp.a(xlocale.o)
                0x08089fcc                std::money_put<char, std::ostreambuf_iterator<char, std::char_traits<char> > >::_Put(std::ostreambuf_iterator<char, std::char_traits<char> >, std::_Ptrit<char, int, char const *, char const &, char *, char &>, unsigned int)
 *fill*         0x0808a05d        0x3 37008
 .gnu.linkonce.t.__pp__Q23stdt19ostreambuf_iterator2ZcZQ23stdt11char_traits1Zci
                0x0808a060        0xe /x86/lib/libcpp.a(xlocale.o)
                0x0808a060                std::ostreambuf_iterator<char, std::char_traits<char> >::operator++(int)
 *fill*         0x0808a06e        0x2 37008
 .gnu.linkonce.t.decimal_point__CQ23stdt7_Mpunct1Zc
                0x0808a070       0x3c /x86/lib/libcpp.a(xlocale.o)
                0x0808a070                std::_Mpunct<char>::decimal_point(void) const
 .gnu.linkonce.t.__mi__CQ23stdt6_Ptrit6ZcZiZPcZRcZPcZRci
                0x0808a0ac       0x37 /x86/lib/libcpp.a(xlocale.o)
                0x0808a0ac                std::_Ptrit<char, int, char *, char &, char *, char &>::operator-(int) const
 *fill*         0x0808a0e3        0x1 37008
 .gnu.linkonce.t._Putmfld__CQ23stdt9money_put2ZcZQ23stdt19ostreambuf_iterator2ZcZQ23stdt11char_traits1ZcGQ23stdt19ostreambuf_iterator2ZcZQ23stdt11char_traits1ZcbRQ23std8ios_basecT2GQ23stdt12basic_string3ZcZQ23stdt11char_traits1ZcZQ23stdt9allocator1Zc
                0x0808a0e4      0xeef /x86/lib/libcpp.a(xlocale.o)
                0x0808a0e4                std::money_put<char, std::ostreambuf_iterator<char, std::char_traits<char> > >::_Putmfld(std::ostreambuf_iterator<char, std::char_traits<char> >, bool, std::ios_base &, char, bool, std::basic_string<char, std::char_traits<char>, std::allocator<char> >) const
 *fill*         0x0808afd3        0x1 37008
 .gnu.linkonce.t.do_put__CQ23stdt9money_put2ZcZQ23stdt19ostreambuf_iterator2ZcZQ23stdt11char_traits1ZcGQ23stdt19ostreambuf_iterator2ZcZQ23stdt11char_traits1ZcbRQ23std8ios_basecr
                0x0808afd4      0x1d2 /x86/lib/libcpp.a(xlocale.o)
                0x0808afd4                std::money_put<char, std::ostreambuf_iterator<char, std::char_traits<char> > >::do_put(std::ostreambuf_iterator<char, std::char_traits<char> >, bool, std::ios_base &, char, long double) const
 *fill*         0x0808b1a6        0x2 37008
 .gnu.linkonce.t.do_put__CQ23stdt9money_put2ZcZQ23stdt19ostreambuf_iterator2ZcZQ23stdt11char_traits1ZcGQ23stdt19ostreambuf_iterator2ZcZQ23stdt11char_traits1ZcbRQ23std8ios_basecRCQ23stdt12basic_string3ZcZQ23stdt11char_traits1ZcZQ23stdt9allocator1Zc
                0x0808b1a8      0x1dc /x86/lib/libcpp.a(xlocale.o)
                0x0808b1a8                std::money_put<char, std::ostreambuf_iterator<char, std::char_traits<char> > >::do_put(std::ostreambuf_iterator<char, std::char_traits<char> >, bool, std::ios_base &, char, std::basic_string<char, std::char_traits<char>, std::allocator<char> > const &) const
 .gnu.linkonce.t._._Q23stdt9money_get2ZcZQ23stdt19istreambuf_iterator2ZcZQ23stdt11char_traits1Zc
                0x0808b384       0x26 /x86/lib/libcpp.a(xlocale.o)
                0x0808b384                std::money_get<char, std::istreambuf_iterator<char, std::char_traits<char> > >::~money_get(void)
 *fill*         0x0808b3aa        0x2 37008
 .gnu.linkonce.t.__Q23stdt6_Ptrit6ZcZiZPCcZRCcZPcZRc
                0x0808b3ac        0xa /x86/lib/libcpp.a(xlocale.o)
                0x0808b3ac                std::_Ptrit<char, int, char const *, char const &, char *, char &>::_Ptrit(void)
 *fill*         0x0808b3b6        0x2 37008
 .gnu.linkonce.t.__eq__CQ23stdt6_Ptrit6ZcZiZPCcZRCcZPcZRcRCQ23stdt6_Ptrit6ZcZiZPCcZRCcZPcZRc
                0x0808b3b8       0x1b /x86/lib/libcpp.a(xlocale.o)
                0x0808b3b8                std::_Ptrit<char, int, char const *, char const &, char *, char &>::operator==(std::_Ptrit<char, int, char const *, char const &, char *, char &> const &) const
 *fill*         0x0808b3d3        0x1 37008
 .gnu.linkonce.t.__ne__CQ23stdt6_Ptrit6ZcZiZPCcZRCcZPcZRcRCQ23stdt6_Ptrit6ZcZiZPCcZRCcZPcZRc
                0x0808b3d4       0x28 /x86/lib/libcpp.a(xlocale.o)
                0x0808b3d4                std::_Ptrit<char, int, char const *, char const &, char *, char &>::operator!=(std::_Ptrit<char, int, char const *, char const &, char *, char &> const &) const
 .gnu.linkonce.t.__pp__Q23stdt19istreambuf_iterator2ZcZQ23stdt11char_traits1Zci
                0x0808b3fc       0x6b /x86/lib/libcpp.a(xlocale.o)
                0x0808b3fc                std::istreambuf_iterator<char, std::char_traits<char> >::operator++(int)
 *fill*         0x0808b467        0x1 37008
 .gnu.linkonce.t._Getmfld__CQ23stdt9money_get2ZcZQ23stdt19istreambuf_iterator2ZcZQ23stdt11char_traits1ZcRQ23stdt19istreambuf_iterator2ZcZQ23stdt11char_traits1ZcT1bRQ23std8ios_base
                0x0808b468     0x107f /x86/lib/libcpp.a(xlocale.o)
                0x0808b468                std::money_get<char, std::istreambuf_iterator<char, std::char_traits<char> > >::_Getmfld(std::istreambuf_iterator<char, std::char_traits<char> > &, std::istreambuf_iterator<char, std::char_traits<char> > &, bool, std::ios_base &) const
 *fill*         0x0808c4e7        0x1 37008
 .gnu.linkonce.t.do_get__CQ23stdt9money_get2ZcZQ23stdt19istreambuf_iterator2ZcZQ23stdt11char_traits1ZcGQ23stdt19istreambuf_iterator2ZcZQ23stdt11char_traits1ZcT1bRQ23std8ios_baseRQ33stdt5_Iosb1Zi8_IostateRr
                0x0808c4e8      0x220 /x86/lib/libcpp.a(xlocale.o)
                0x0808c4e8                std::money_get<char, std::istreambuf_iterator<char, std::char_traits<char> > >::do_get(std::istreambuf_iterator<char, std::char_traits<char> >, std::istreambuf_iterator<char, std::char_traits<char> >, bool, std::ios_base &, std::_Iosb<int>::_Iostate &, long double &) const
 .gnu.linkonce.t.do_get__CQ23stdt9money_get2ZcZQ23stdt19istreambuf_iterator2ZcZQ23stdt11char_traits1ZcGQ23stdt19istreambuf_iterator2ZcZQ23stdt11char_traits1ZcT1bRQ23std8ios_baseRQ33stdt5_Iosb1Zi8_IostateRQ23stdt12basic_string3ZcZQ23stdt11char_traits1ZcZQ23stdt9allocator1Zc
                0x0808c708      0x103 /x86/lib/libcpp.a(xlocale.o)
                0x0808c708                std::money_get<char, std::istreambuf_iterator<char, std::char_traits<char> > >::do_get(std::istreambuf_iterator<char, std::char_traits<char> >, std::istreambuf_iterator<char, std::char_traits<char> >, bool, std::ios_base &, std::_Iosb<int>::_Iostate &, std::basic_string<char, std::char_traits<char>, std::allocator<char> > &) const
 *fill*         0x0808c80b        0x1 37008
 .gnu.linkonce.t.do_open__CQ23stdt8messages1ZcRCQ23stdt12basic_string3ZcZQ23stdt11char_traits1ZcZQ23stdt9allocator1ZcRCQ23std6locale
                0x0808c80c       0x12 /x86/lib/libcpp.a(xlocale.o)
                0x0808c80c                std::messages<char>::do_open(std::basic_string<char, std::char_traits<char>, std::allocator<char> > const &, std::locale const &) const
 *fill*         0x0808c81e        0x2 37008
 .gnu.linkonce.t.do_get__CQ23stdt8messages1ZciiiRCQ23stdt12basic_string3ZcZQ23stdt11char_traits1ZcZQ23stdt9allocator1Zc
                0x0808c820       0x33 /x86/lib/libcpp.a(xlocale.o)
                0x0808c820                std::messages<char>::do_get(int, int, int, std::basic_string<char, std::char_traits<char>, std::allocator<char> > const &) const
 *fill*         0x0808c853        0x1 37008
 .gnu.linkonce.t.do_close__CQ23stdt8messages1Zci
                0x0808c854        0xe /x86/lib/libcpp.a(xlocale.o)
                0x0808c854                std::messages<char>::do_close(int) const
 *fill*         0x0808c862        0x2 37008
 .gnu.linkonce.t._._Q23stdt7collate1Zc
                0x0808c864       0x26 /x86/lib/libcpp.a(xlocale.o)
                0x0808c864                std::collate<char>::~collate(void)
 *fill*         0x0808c88a        0x2 37008
 .gnu.linkonce.t.do_compare__CQ23stdt7collate1ZcPCcN31
                0x0808c88c       0x39 /x86/lib/libcpp.a(xlocale.o)
                0x0808c88c                std::collate<char>::do_compare(char const *, char const *, char const *, char const *) const
 *fill*         0x0808c8c5        0x3 37008
 .gnu.linkonce.t.resize__Q23stdt12basic_string3ZcZQ23stdt11char_traits1ZcZQ23stdt9allocator1ZcUic
                0x0808c8c8       0x51 /x86/lib/libcpp.a(xlocale.o)
                0x0808c8c8                std::basic_string<char, std::char_traits<char>, std::allocator<char> >::resize(unsigned int, char)
 *fill*         0x0808c919        0x3 37008
 .gnu.linkonce.t.resize__Q23stdt12basic_string3ZcZQ23stdt11char_traits1ZcZQ23stdt9allocator1ZcUi
                0x0808c91c       0x25 /x86/lib/libcpp.a(xlocale.o)
                0x0808c91c                std::basic_string<char, std::char_traits<char>, std::allocator<char> >::resize(unsigned int)
 *fill*         0x0808c941        0x3 37008
 .gnu.linkonce.t.do_transform__CQ23stdt7collate1ZcPCcT1
                0x0808c944      0x150 /x86/lib/libcpp.a(xlocale.o)
                0x0808c944                std::collate<char>::do_transform(char const *, char const *) const
 .gnu.linkonce.t.do_hash__CQ23stdt7collate1ZcPCcT1
                0x0808ca94       0x49 /x86/lib/libcpp.a(xlocale.o)
                0x0808ca94                std::collate<char>::do_hash(char const *, char const *) const
 *fill*         0x0808cadd        0x3 37008
 .gnu.linkonce.t.__tfQ23stdt7collate1Zc
                0x0808cae0       0x3e /x86/lib/libcpp.a(xlocale.o)
                0x0808cae0                std::collate<char> type_info function
 *fill*         0x0808cb1e        0x2 37008
 .gnu.linkonce.t._._Q23stdt8messages1Zc
                0x0808cb20       0x22 /x86/lib/libcpp.a(xlocale.o)
                0x0808cb20                std::messages<char>::~messages(void)
 *fill*         0x0808cb42        0x2 37008
 .gnu.linkonce.t.__tfQ23stdt8messages1Zc
                0x0808cb44       0x3e /x86/lib/libcpp.a(xlocale.o)
                0x0808cb44                std::messages<char> type_info function
 *fill*         0x0808cb82        0x2 37008
 .gnu.linkonce.t.__tfQ23stdt9money_get2ZcZQ23stdt19istreambuf_iterator2ZcZQ23stdt11char_traits1Zc
                0x0808cb84       0x3e /x86/lib/libcpp.a(xlocale.o)
                0x0808cb84                std::money_get<char, std::istreambuf_iterator<char, std::char_traits<char> > > type_info function
 *fill*         0x0808cbc2        0x2 37008
 .gnu.linkonce.t.__tfQ23stdt9money_put2ZcZQ23stdt19ostreambuf_iterator2ZcZQ23stdt11char_traits1Zc
                0x0808cbc4       0x3e /x86/lib/libcpp.a(xlocale.o)
                0x0808cbc4                std::money_put<char, std::ostreambuf_iterator<char, std::char_traits<char> > > type_info function
 *fill*         0x0808cc02        0x2 37008
 .gnu.linkonce.t.__tfQ23stdt7_Mpunct1Zc
                0x0808cc04       0x3e /x86/lib/libcpp.a(xlocale.o)
                0x0808cc04                std::_Mpunct<char> type_info function
 *fill*         0x0808cc42        0x2 37008
 .gnu.linkonce.t._._Q23stdt10moneypunct2Zcb0
                0x0808cc44       0x22 /x86/lib/libcpp.a(xlocale.o)
                0x0808cc44                std::moneypunct<char, false>::~moneypunct(void)
 *fill*         0x0808cc66        0x2 37008
 .gnu.linkonce.t.__tfQ23stdt10moneypunct2Zcb0
                0x0808cc68       0x3e /x86/lib/libcpp.a(xlocale.o)
                0x0808cc68                std::moneypunct<char, false> type_info function
 *fill*         0x0808cca6        0x2 37008
 .gnu.linkonce.t._._Q23stdt10moneypunct2Zcb1
                0x0808cca8       0x22 /x86/lib/libcpp.a(xlocale.o)
                0x0808cca8                std::moneypunct<char, true>::~moneypunct(void)
 *fill*         0x0808ccca        0x2 37008
 .gnu.linkonce.t.__tfQ23stdt10moneypunct2Zcb1
                0x0808cccc       0x3e /x86/lib/libcpp.a(xlocale.o)
                0x0808cccc                std::moneypunct<char, true> type_info function
 *fill*         0x0808cd0a        0x2 37008
 .gnu.linkonce.t.__tfQ23stdt8time_get2ZcZQ23stdt19istreambuf_iterator2ZcZQ23stdt11char_traits1Zc
                0x0808cd0c       0x3e /x86/lib/libcpp.a(xlocale.o)
                0x0808cd0c                std::time_get<char, std::istreambuf_iterator<char, std::char_traits<char> > > type_info function
 *fill*         0x0808cd4a        0x2 37008
 .gnu.linkonce.t.__tfQ23stdt8time_put2ZcZQ23stdt19ostreambuf_iterator2ZcZQ23stdt11char_traits1Zc
                0x0808cd4c       0x3e /x86/lib/libcpp.a(xlocale.o)
                0x0808cd4c                std::time_put<char, std::ostreambuf_iterator<char, std::char_traits<char> > > type_info function
 *fill*         0x0808cd8a        0x2 37008
 .gnu.linkonce.t._LStrcoll__H1Zc_3stdPCX01N31PCQ23std8_Collvec_i
                0x0808cd8c      0x12c /x86/lib/libcpp.a(xlocale.o)
                0x0808cd8c                int std::_LStrcoll<char>(char const *, char const *, char const *, char const *, std::_Collvec const *)
 .gnu.linkonce.t._LStrxfrm__H1Zc_3stdPX01T1PCX01T3PCQ23std8_Collvec_Ui
                0x0808ceb8       0xd0 /x86/lib/libcpp.a(xlocale.o)
                0x0808ceb8                unsigned int std::_LStrxfrm<char>(char *, char *, char const *, char const *, std::_Collvec const *)
 .gnu.linkonce.t.is__CQ23stdt5ctype1Zcsc
                0x0808cf88       0x37 /x86/lib/libcpp.a(xlocale.o)
                0x0808cf88                std::ctype<char>::is(short, char) const
 *fill*         0x0808cfbf        0x1 37008
 .gnu.linkonce.t.use_facet__H1ZQ23stdt7collate1Zc_3stdRCQ23std6locale_RCX01
                0x0808cfc0      0x18c /x86/lib/libcpp.a(xlocale.o)
                0x0808cfc0                std::collate<char> const & std::use_facet<std::collate<char> >(std::locale const &)
 .gnu.linkonce.t.use_facet__H1ZQ23stdt8messages1Zc_3stdRCQ23std6locale_RCX01
                0x0808d14c      0x18c /x86/lib/libcpp.a(xlocale.o)
                0x0808d14c                std::messages<char> const & std::use_facet<std::messages<char> >(std::locale const &)
 .gnu.linkonce.t.use_facet__H1ZQ23stdt9money_get2ZcZQ23stdt19istreambuf_iterator2ZcZQ23stdt11char_traits1Zc_3stdRCQ23std6locale_RCX01
                0x0808d2d8      0x18c /x86/lib/libcpp.a(xlocale.o)
                0x0808d2d8                std::money_get<char, std::istreambuf_iterator<char, std::char_traits<char> > > const & std::use_facet<std::money_get<char, std::istreambuf_iterator<char, std::char_traits<char> > > >(std::locale const &)
 .gnu.linkonce.t.use_facet__H1ZQ23stdt9money_put2ZcZQ23stdt19ostreambuf_iterator2ZcZQ23stdt11char_traits1Zc_3stdRCQ23std6locale_RCX01
                0x0808d464      0x18c /x86/lib/libcpp.a(xlocale.o)
                0x0808d464                std::money_put<char, std::ostreambuf_iterator<char, std::char_traits<char> > > const & std::use_facet<std::money_put<char, std::ostreambuf_iterator<char, std::char_traits<char> > > >(std::locale const &)
 .gnu.linkonce.t.use_facet__H1ZQ23stdt10moneypunct2Zcb0__3stdRCQ23std6locale_RCX01
                0x0808d5f0      0x18c /x86/lib/libcpp.a(xlocale.o)
                0x0808d5f0                std::moneypunct<char, false> const & std use_facet<std::moneypunct<char, false> >(std::locale const &)
 .gnu.linkonce.t.use_facet__H1ZQ23stdt10moneypunct2Zcb1__3stdRCQ23std6locale_RCX01
                0x0808d77c      0x18c /x86/lib/libcpp.a(xlocale.o)
                0x0808d77c                std::moneypunct<char, true> const & std use_facet<std::moneypunct<char, true> >(std::locale const &)
 .gnu.linkonce.t.use_facet__H1ZQ23stdt8time_get2ZcZQ23stdt19istreambuf_iterator2ZcZQ23stdt11char_traits1Zc_3stdRCQ23std6locale_RCX01
                0x0808d908      0x18c /x86/lib/libcpp.a(xlocale.o)
                0x0808d908                std::time_get<char, std::istreambuf_iterator<char, std::char_traits<char> > > const & std::use_facet<std::time_get<char, std::istreambuf_iterator<char, std::char_traits<char> > > >(std::locale const &)
 .gnu.linkonce.t.use_facet__H1ZQ23stdt8time_put2ZcZQ23stdt19ostreambuf_iterator2ZcZQ23stdt11char_traits1Zc_3stdRCQ23std6locale_RCX01
                0x0808da94      0x18c /x86/lib/libcpp.a(xlocale.o)
                0x0808da94                std::time_put<char, std::ostreambuf_iterator<char, std::char_traits<char> > > const & std::use_facet<std::time_put<char, std::ostreambuf_iterator<char, std::char_traits<char> > > >(std::locale const &)
 .gnu.linkonce.t.__tf9exception
                0x0808dc20       0x38 /usr/lib/gcc-lib/ntox86/2.95.3/exceptions/libgcc.a(exception.o)
                0x0808dc20                exception type_info function
 .gnu.linkonce.t.__9exception
                0x0808dc58       0x20 /usr/lib/gcc-lib/ntox86/2.95.3/exceptions/libgcc.a(exception.o)
                0x0808dc58                exception::exception(void)
 .gnu.linkonce.t._._9exception
                0x0808dc78       0x34 /usr/lib/gcc-lib/ntox86/2.95.3/exceptions/libgcc.a(exception.o)
                0x0808dc78                exception::~exception(void)
 .gnu.linkonce.t.__tf13bad_exception
                0x0808dcac       0x65 /usr/lib/gcc-lib/ntox86/2.95.3/exceptions/libgcc.a(exception.o)
                0x0808dcac                bad_exception type_info function
 *fill*         0x0808dd11        0x3 37008
 .gnu.linkonce.t.__13bad_exception
                0x0808dd14       0x28 /usr/lib/gcc-lib/ntox86/2.95.3/exceptions/libgcc.a(exception.o)
                0x0808dd14                bad_exception::bad_exception(void)
 .gnu.linkonce.t._._13bad_exception
                0x0808dd3c       0x3b /usr/lib/gcc-lib/ntox86/2.95.3/exceptions/libgcc.a(exception.o)
                0x0808dd3c                bad_exception::~bad_exception(void)
 *fill*         0x0808dd77        0x1 37008
 .gnu.linkonce.t.__tf9type_info
                0x0808dd78       0x38 /usr/lib/gcc-lib/ntox86/2.95.3/exceptions/libgcc.a(tinfo.o)
                0x0808dd78                type_info type_info function
 .gnu.linkonce.t.__9type_infoPCc
                0x0808ddb0       0x26 /usr/lib/gcc-lib/ntox86/2.95.3/exceptions/libgcc.a(tinfo.o)
                0x0808ddb0                type_info::type_info(char const *)
 *fill*         0x0808ddd6        0x2 37008
 .gnu.linkonce.t.name__C9type_info
                0x0808ddd8        0xa /usr/lib/gcc-lib/ntox86/2.95.3/exceptions/libgcc.a(tinfo.o)
                0x0808ddd8                type_info::name(void) const
 *fill*         0x0808dde2        0x2 37008
 .gnu.linkonce.t.__ne__C9type_infoRC9type_info
                0x0808dde4       0x28 /usr/lib/gcc-lib/ntox86/2.95.3/exceptions/libgcc.a(tinfo.o)
                0x0808dde4                type_info::operator!=(type_info const &) const
 .gnu.linkonce.t.__tf8bad_cast
                0x0808de0c       0x43 /usr/lib/gcc-lib/ntox86/2.95.3/exceptions/libgcc.a(tinfo.o)
                0x0808de0c                bad_cast type_info function
 *fill*         0x0808de4f        0x1 37008
 .gnu.linkonce.t.__8bad_cast
                0x0808de50       0x28 /usr/lib/gcc-lib/ntox86/2.95.3/exceptions/libgcc.a(tinfo.o)
                0x0808de50                bad_cast::bad_cast(void)
 .gnu.linkonce.t._._8bad_cast
                0x0808de78       0x3b /usr/lib/gcc-lib/ntox86/2.95.3/exceptions/libgcc.a(tinfo.o)
                0x0808de78                bad_cast::~bad_cast(void)
 *fill*         0x0808deb3        0x1 37008
 .gnu.linkonce.t.__tf10bad_typeid
                0x0808deb4       0x43 /usr/lib/gcc-lib/ntox86/2.95.3/exceptions/libgcc.a(tinfo.o)
                0x0808deb4                bad_typeid type_info function
 *fill*         0x0808def7        0x1 37008
 .gnu.linkonce.t.__10bad_typeid
                0x0808def8       0x28 /usr/lib/gcc-lib/ntox86/2.95.3/exceptions/libgcc.a(tinfo.o)
                0x0808def8                bad_typeid::bad_typeid(void)
 .gnu.linkonce.t._._10bad_typeid
                0x0808df20       0x3b /usr/lib/gcc-lib/ntox86/2.95.3/exceptions/libgcc.a(tinfo.o)
                0x0808df20                bad_typeid::~bad_typeid(void)
 *fill*         0x0808df5b        0x1 37008
 .gnu.linkonce.t._._16__user_type_info
                0x0808df5c       0x26 /usr/lib/gcc-lib/ntox86/2.95.3/exceptions/libgcc.a(tinfo.o)
                0x0808df5c                __user_type_info::~__user_type_info(void)
 *fill*         0x0808df82        0x2 37008
 .gnu.linkonce.t.__tf16__user_type_info
                0x0808df84       0x65 /usr/lib/gcc-lib/ntox86/2.95.3/exceptions/libgcc.a(tinfo.o)
                0x0808df84                __user_type_info type_info function
 *fill*         0x0808dfe9        0x3 37008
 .gnu.linkonce.t.__16__user_type_infoPCc
                0x0808dfec       0x2f /usr/lib/gcc-lib/ntox86/2.95.3/exceptions/libgcc.a(tinfo.o)
                0x0808dfec                __user_type_info::__user_type_info(char const *)
 *fill*         0x0808e01b        0x1 37008
 .gnu.linkonce.t._._14__si_type_info
                0x0808e01c       0x26 /usr/lib/gcc-lib/ntox86/2.95.3/exceptions/libgcc.a(tinfo.o)
                0x0808e01c                __si_type_info::~__si_type_info(void)
 *fill*         0x0808e042        0x2 37008
 .gnu.linkonce.t.__tf14__si_type_info
                0x0808e044       0x90 /usr/lib/gcc-lib/ntox86/2.95.3/exceptions/libgcc.a(tinfo.o)
                0x0808e044                __si_type_info type_info function
 .gnu.linkonce.t.__14__si_type_infoPCcRC16__user_type_info
                0x0808e0d4       0x40 /usr/lib/gcc-lib/ntox86/2.95.3/exceptions/libgcc.a(tinfo.o)
                0x0808e0d4                __si_type_info::__si_type_info(char const *, __user_type_info const &)
 .gnu.linkonce.t._._17__class_type_info
                0x0808e114       0x26 /usr/lib/gcc-lib/ntox86/2.95.3/exceptions/libgcc.a(tinfo.o)
                0x0808e114                __class_type_info::~__class_type_info(void)
 *fill*         0x0808e13a        0x2 37008
 .gnu.linkonce.t.__tf17__class_type_info
                0x0808e13c       0x90 /usr/lib/gcc-lib/ntox86/2.95.3/exceptions/libgcc.a(tinfo.o)
                0x0808e13c                __class_type_info type_info function
 .gnu.linkonce.t.__17__class_type_infoPCcPCQ217__class_type_info9base_infoUi
                0x0808e1cc       0x48 /usr/lib/gcc-lib/ntox86/2.95.3/exceptions/libgcc.a(tinfo.o)
                0x0808e1cc                __class_type_info::__class_type_info(char const *, __class_type_info::base_info const *, unsigned int)
 .gnu.linkonce.t._._19__pointer_type_info
                0x0808e214       0x26 /usr/lib/gcc-lib/ntox86/2.95.3/exceptions/libgcc.a(tinfo2.o)
                0x0808e214                __pointer_type_info::~__pointer_type_info(void)
 *fill*         0x0808e23a        0x2 37008
 .gnu.linkonce.t.__tf19__pointer_type_info
                0x0808e23c       0x43 /usr/lib/gcc-lib/ntox86/2.95.3/exceptions/libgcc.a(tinfo2.o)
                0x0808e23c                __pointer_type_info type_info function
 *fill*         0x0808e27f        0x1 37008
 .gnu.linkonce.t._._16__attr_type_info
                0x0808e280       0x26 /usr/lib/gcc-lib/ntox86/2.95.3/exceptions/libgcc.a(tinfo2.o)
                0x0808e280                __attr_type_info::~__attr_type_info(void)
 *fill*         0x0808e2a6        0x2 37008
 .gnu.linkonce.t.__tf16__attr_type_info
                0x0808e2a8       0x43 /usr/lib/gcc-lib/ntox86/2.95.3/exceptions/libgcc.a(tinfo2.o)
                0x0808e2a8                __attr_type_info type_info function
 *fill*         0x0808e2eb        0x1 37008
 .gnu.linkonce.t._._19__builtin_type_info
                0x0808e2ec       0x26 /usr/lib/gcc-lib/ntox86/2.95.3/exceptions/libgcc.a(tinfo2.o)
                0x0808e2ec                __builtin_type_info::~__builtin_type_info(void)
 *fill*         0x0808e312        0x2 37008
 .gnu.linkonce.t.__tf19__builtin_type_info
                0x0808e314       0x43 /usr/lib/gcc-lib/ntox86/2.95.3/exceptions/libgcc.a(tinfo2.o)
                0x0808e314                __builtin_type_info type_info function
 *fill*         0x0808e357        0x1 37008
 .gnu.linkonce.t._._16__func_type_info
                0x0808e358       0x26 /usr/lib/gcc-lib/ntox86/2.95.3/exceptions/libgcc.a(tinfo2.o)
                0x0808e358                __func_type_info::~__func_type_info(void)
 *fill*         0x0808e37e        0x2 37008
 .gnu.linkonce.t.__tf16__func_type_info
                0x0808e380       0x43 /usr/lib/gcc-lib/ntox86/2.95.3/exceptions/libgcc.a(tinfo2.o)
                0x0808e380                __func_type_info type_info function
 *fill*         0x0808e3c3        0x1 37008
 .gnu.linkonce.t._._16__ptmf_type_info
                0x0808e3c4       0x26 /usr/lib/gcc-lib/ntox86/2.95.3/exceptions/libgcc.a(tinfo2.o)
                0x0808e3c4                __ptmf_type_info::~__ptmf_type_info(void)
 *fill*         0x0808e3ea        0x2 37008
 .gnu.linkonce.t.__tf16__ptmf_type_info
                0x0808e3ec       0x43 /usr/lib/gcc-lib/ntox86/2.95.3/exceptions/libgcc.a(tinfo2.o)
                0x0808e3ec                __ptmf_type_info type_info function
 *fill*         0x0808e42f        0x1 37008
 .gnu.linkonce.t._._16__ptmd_type_info
                0x0808e430       0x26 /usr/lib/gcc-lib/ntox86/2.95.3/exceptions/libgcc.a(tinfo2.o)
                0x0808e430                __ptmd_type_info::~__ptmd_type_info(void)
 *fill*         0x0808e456        0x2 37008
 .gnu.linkonce.t.__tf16__ptmd_type_info
                0x0808e458       0x43 /usr/lib/gcc-lib/ntox86/2.95.3/exceptions/libgcc.a(tinfo2.o)
                0x0808e458                __ptmd_type_info type_info function
 *fill*         0x0808e49b        0x1 37008
 .gnu.linkonce.t._._17__array_type_info
                0x0808e49c       0x26 /usr/lib/gcc-lib/ntox86/2.95.3/exceptions/libgcc.a(tinfo2.o)
                0x0808e49c                __array_type_info::~__array_type_info(void)
 *fill*         0x0808e4c2        0x2 37008
 .gnu.linkonce.t.__tf17__array_type_info
                0x0808e4c4       0x43 /usr/lib/gcc-lib/ntox86/2.95.3/exceptions/libgcc.a(tinfo2.o)
                0x0808e4c4                __array_type_info type_info function
                0x0808e507                _etext=.
                0x0808e507                PROVIDE (etext, .)

.fini           0x0808e507        0x8
 *(.fini)
 .fini          0x0808e507        0x5 /usr/lib/gcc-lib/ntox86/2.95.3/crtbeginC++.o
 .fini          0x0808e50c        0x3 /x86/lib/crtn.o

.rodata         0x0808e520     0x52a0
 *(.rodata)
 .rodata        0x0808e520       0x3a generator_logger.o
 *fill*         0x0808e55a        0x6
 .rodata        0x0808e560      0xd45 mock_generator.o
 *fill*         0x0808f2a5       0x1b
 .rodata        0x0808f2c0      0x259 main.o
 *fill*         0x0808f519        0x7
 .rodata        0x0808f520       0x28 /x86/lib/libm.a(sqrt.o)
 .rodata        0x0808f548        0xa /x86/lib/libcpp.a(delop3.o)
 .rodata        0x0808f552       0x12 /x86/lib/libcpp.a(gccex.o)
 .rodata        0x0808f564       0xab /x86/lib/libcpp.a(ios.o)
                0x0808f57c                std::_BADOFF
 *fill*         0x0808f60f       0x11
 .rodata        0x0808f620      0x160 /x86/lib/libcpp.a(iostream.o)
 .rodata        0x0808f780      0x1fd /x86/lib/libcpp.a(locale.o)
 *fill*         0x0808f97d        0x3
 .rodata        0x0808f980       0x48 /x86/lib/libcpp.a(locale0.o)
                0x0808f998                std::ctype<char>::table_size
 .rodata        0x0808f9c8       0x1b /x86/lib/libcpp.a(newaop.o)
 .rodata        0x0808f9e3       0x1b /x86/lib/libcpp.a(newop.o)
 .rodata        0x0808f9fe       0x1b /x86/lib/libcpp.a(nomemory.o)
 .rodata        0x0808fa19       0x7d /x86/lib/libcpp.a(string.o)
 *fill*         0x0808fa96        0xa
 .rodata        0x0808faa0      0x492 /x86/lib/libcpp.a(wlocale.o)
 *fill*         0x0808ff32        0xe
 .rodata        0x0808ff40      0x30e /x86/lib/libcpp.a(xlocale.o)
 .rodata        0x0809024e        0xa /x86/lib/libcpp.a(new.o)
 .rodata        0x08090258      0x100 /usr/lib/gcc-lib/ntox86/2.95.3/exceptions/libgcc.a(_udivdi3.o)
 .rodata        0x08090358       0x1b /usr/lib/gcc-lib/ntox86/2.95.3/exceptions/libgcc.a(exception.o)
 .rodata        0x08090373        0x4 /usr/lib/gcc-lib/ntox86/2.95.3/exceptions/libgcc.a(frame.o)
 .rodata        0x08090377       0x64 /usr/lib/gcc-lib/ntox86/2.95.3/exceptions/libgcc.a(tinfo.o)
 .rodata        0x080903db       0xbe /usr/lib/gcc-lib/ntox86/2.95.3/exceptions/libgcc.a(tinfo2.o)
 *fill*         0x08090499        0x7
 .rodata        0x080904a0       0x67 /x86/lib/libc.a(util.o)
 .rodata        0x08090507       0x21 /x86/lib/libc.a(localeco.o)
 .rodata        0x08090528        0x1 /x86/lib/libc.a(mbrtowc.o)
 *fill*         0x08090529        0x3
 .rodata        0x0809052c       0x68 /x86/lib/libc.a(setlocal.o)
                0x08090530                _Nmcats
 *fill*         0x08090594        0xc
 .rodata        0x080905a0      0x202 /x86/lib/libc.a(xctype.o)
 *fill*         0x080907a2        0x2
 .rodata        0x080907a4       0x76 /x86/lib/libc.a(xdefloc.o)
 .rodata        0x0809081a       0x4e /x86/lib/libc.a(xgetloc.o)
 *fill*         0x08090868       0x18
 .rodata        0x08090880       0x58 /x86/lib/libc.a(xmakeloc.o)
 .rodata        0x080908d8        0x3 /x86/lib/libc.a(xmakewct.o)
 *fill*         0x080908db        0x1
 .rodata        0x080908dc        0x8 /x86/lib/libc.a(xmbtowc.o)
 *fill*         0x080908e4       0x1c
 .rodata        0x08090900       0x36 /x86/lib/libc.a(xreadloc.o)
 *fill*         0x08090936        0x2
 .rodata        0x08090938       0x1c /x86/lib/libc.a(xsetloc.o)
 *fill*         0x08090954        0x4
 .rodata        0x08090958       0x20 /x86/lib/libc.a(xstod.o)
 .rodata        0x08090978       0x20 /x86/lib/libc.a(xstoflt.o)
 *fill*         0x08090998        0x8
 .rodata        0x080909a0       0x60 /x86/lib/libc.a(xstold.o)
 .rodata        0x08090a00       0x2d /x86/lib/libc.a(xstoxflt.o)
 *fill*         0x08090a2d       0x13
 .rodata        0x08090a40      0x202 /x86/lib/libc.a(xtolotab.o)
 *fill*         0x08090c42       0x1e
 .rodata        0x08090c60      0x202 /x86/lib/libc.a(xtouptab.o)
 *fill*         0x08090e62        0x6
 .rodata        0x08090e68       0x80 /x86/lib/libc.a(xvalues.o)
                0x08090ec8                _Snan
                0x08090eb8                _Rteps
                0x08090e98                _Inf
                0x08090e78                _Eps
                0x08090e68                _Denorm
                0x08090ea8                _Nan
                0x08090e88                _Hugeval
                0x08090ed8                _Xbig
                0x08090ee0                _Zero
 .rodata        0x08090ee8        0x8 /x86/lib/libc.a(xwctomb.o)
 .rodata        0x08090ef0       0x54 /x86/lib/libc.a(xwctrtab.o)
 .rodata        0x08090f44      0x165 /x86/lib/libc.a(xwctytab.o)
 .rodata        0x080910a9        0xa /x86/lib/libc.a(slog.o)
 .rodata        0x080910b3        0xe /x86/lib/libc.a(strerror.o)
 *fill*         0x080910c1       0x1f
 .rodata        0x080910e0       0x3e /x86/lib/libc.a(xfiles.o)
                0x080910e0                _PJP_C_Copyright
 *fill*         0x0809111e        0x2
 .rodata        0x08091120       0x27 /x86/lib/libc.a(xprintf.o)
 *fill*         0x08091147        0x1
 .rodata        0x08091148      0x1b8 /x86/lib/libc.a(xputfld.o)
 .rodata        0x08091300       0x61 /x86/lib/libc.a(xputtxt.o)
 *fill*         0x08091361        0x3
 .rodata        0x08091364        0x8 /x86/lib/libc.a(wcscoll.o)
 *fill*         0x0809136c       0x14
 .rodata        0x08091380      0x14c /x86/lib/libc.a(asctime.o)
 .rodata        0x080914cc       0x1e /x86/lib/libc.a(xtzset.o)
 *fill*         0x080914ea       0x16
 .rodata        0x08091500     0x1224 /x86/lib/libc.a(sys_err.o)
                0x08092720                sys_nerr
                0x08091510                sys_errlist
 *fill*         0x08092724       0x1c
 .rodata        0x08092740       0x6c /x86/lib/libc.a(random.o)
 .rodata        0x080927ac       0xb0 /x86/lib/libc.a(sysconf.o)
 .rodata        0x0809285c       0x10 /x86/lib/libc.a(confstr.o)
 .rodata        0x0809286c       0x18 /x86/lib/libc.a(dlist.o)
 *fill*         0x08092884        0x4
 .rodata        0x08092888       0x4c /x86/lib/libc.a(xdtento.o)
 .rodata        0x080928d4       0x1c /x86/lib/libc.a(xfdtento.o)
 .rodata        0x080928f0       0x24 /x86/lib/libc.a(xfreeloc.o)
 .rodata        0x08092914       0x68 /x86/lib/libc.a(xfvalues.o)
                0x08092964                _FRteps
                0x08092974                _FXbig
                0x08092924                _FEps
                0x08092934                _FInf
                0x08092914                _FDenorm
                0x08092954                _FSnan
                0x08092944                _FNan
                0x08092978                _FZero
 *fill*         0x0809297c        0x4
 .rodata        0x08092980       0xa0 /x86/lib/libc.a(xldtento.o)
 .rodata        0x08092a20      0x526 /x86/lib/libc.a(xloctab.o)
                0x08092a20                _Loctab
 *fill*         0x08092f46       0x1a
 .rodata        0x08092f60       0x7d /x86/lib/libc.a(xlocterm.o)
 *fill*         0x08092fdd        0x3
 .rodata        0x08092fe0       0x7c /x86/lib/libc.a(xlvalues.o)
                0x08092fe0                _LDenorm
                0x08093000                _LInf
                0x08093050                _LZero
                0x08093020                _LSnan
                0x08093030                _LRteps
                0x08093010                _LNan
                0x08092ff0                _LEps
                0x08093040                _LXbig
 .rodata        0x0809305c       0x20 /x86/lib/libc.a(xstoint.o)
 .rodata        0x0809307c        0x5 /x86/lib/libc.a(spawn.o)
 *fill*         0x08093081        0xf
 .rodata        0x08093090       0xdc /x86/lib/libc.a(xldtob.o)
 .rodata        0x0809316c       0x22 /x86/lib/libc.a(xlitob.o)
 *fill*         0x0809318e       0x12
 .rodata        0x080931a0       0x25 /x86/lib/libc.a(ulltoa.o)
 *fill*         0x080931c5        0x3
 .rodata        0x080931c8      0x184 /x86/lib/libc.a(xgentime.o)
 .rodata        0x0809334c       0x38 /x86/lib/libc.a(xttotm.o)
 .rodata        0x08093384       0x18 /x86/lib/libc.a(wait4.o)
 .rodata        0x0809339c        0x8 /x86/lib/libc.a(fork.o)
 .rodata        0x080933a4        0x1 /x86/lib/libc.a(_findenv.o)
 *fill*         0x080933a5        0x3
 .rodata        0x080933a8        0x4 /x86/lib/libc.a(ldiv.o)
 .rodata        0x080933ac        0x2 /x86/lib/libc.a(xgenld.o)
 *fill*         0x080933ae       0x12
 .rodata        0x080933c0       0x20 /x86/lib/libc.a(_connect_ctrl.o)
 .rodata        0x080933e0       0x60 /x86/lib/libc.a(xisdst.o)
 .rodata        0x08093440        0x4 /x86/lib/libc.a(div.o)
 .rodata        0x08093444      0x100 /usr/lib/gcc-lib/ntox86/2.95.3/exceptions/libgcc.a(_divdi3.o)
 .rodata        0x08093544      0x100 /usr/lib/gcc-lib/ntox86/2.95.3/exceptions/libgcc.a(_moddi3.o)
 .rodata        0x08093644      0x100 /usr/lib/gcc-lib/ntox86/2.95.3/exceptions/libgcc.a(_umoddi3.o)
 *(.rodata.*)
 *(.gnu.linkonce.r*)
 .gnu.linkonce.r._Q23stdt12basic_string3ZcZQ23stdt11char_traits1ZcZQ23stdt9allocator1Zc.npos
                0x08093744        0x4 generator_logger.o
                0x08093744                std::basic_string<char, std::char_traits<char>, std::allocator<char> >::npos
 .gnu.linkonce.r._Q23stdt12basic_string3ZwZQ23stdt11char_traits1ZwZQ23stdt9allocator1Zw.npos
                0x08093748        0x4 generator_logger.o
                0x08093748                std::basic_string<wchar_t, std::char_traits<wchar_t>, std::allocator<wchar_t> >::npos
 .gnu.linkonce.r._Q23stdt8_Locbase1Zi.all
                0x0809374c        0x4 generator_logger.o
                0x0809374c                std::_Locbase<int>::all
 .gnu.linkonce.r._Q23stdt5_Iosb1Zi.skipws
                0x08093750        0x4 generator_logger.o
                0x08093750                std::_Iosb<int>::skipws
 .gnu.linkonce.r._Q23stdt5_Iosb1Zi.unitbuf
                0x08093754        0x4 generator_logger.o
                0x08093754                std::_Iosb<int>::unitbuf
 .gnu.linkonce.r._Q23stdt5_Iosb1Zi.uppercase
                0x08093758        0x4 generator_logger.o
                0x08093758                std::_Iosb<int>::uppercase
 .gnu.linkonce.r._Q23stdt5_Iosb1Zi.showbase
                0x0809375c        0x4 generator_logger.o
                0x0809375c                std::_Iosb<int>::showbase
 .gnu.linkonce.r._Q23stdt5_Iosb1Zi.showpoint
                0x08093760        0x4 generator_logger.o
                0x08093760                std::_Iosb<int>::showpoint
 .gnu.linkonce.r._Q23stdt5_Iosb1Zi.showpos
                0x08093764        0x4 generator_logger.o
                0x08093764                std::_Iosb<int>::showpos
 .gnu.linkonce.r._Q23stdt5_Iosb1Zi.left
                0x08093768        0x4 generator_logger.o
                0x08093768                std::_Iosb<int>::left
 .gnu.linkonce.r._Q23stdt5_Iosb1Zi.right
                0x0809376c        0x4 generator_logger.o
                0x0809376c                std::_Iosb<int>::right
 .gnu.linkonce.r._Q23stdt5_Iosb1Zi.internal
                0x08093770        0x4 generator_logger.o
                0x08093770                std::_Iosb<int>::internal
 .gnu.linkonce.r._Q23stdt5_Iosb1Zi.dec
                0x08093774        0x4 generator_logger.o
                0x08093774                std::_Iosb<int>::dec
 .gnu.linkonce.r._Q23stdt5_Iosb1Zi.oct
                0x08093778        0x4 generator_logger.o
                0x08093778                std::_Iosb<int>::oct
 .gnu.linkonce.r._Q23stdt5_Iosb1Zi.hex
                0x0809377c        0x4 generator_logger.o
                0x0809377c                std::_Iosb<int>::hex
 .gnu.linkonce.r._Q23stdt5_Iosb1Zi.scientific
                0x08093780        0x4 generator_logger.o
                0x08093780                std::_Iosb<int>::scientific
 .gnu.linkonce.r._Q23stdt5_Iosb1Zi.fixed
                0x08093784        0x4 generator_logger.o
                0x08093784                std::_Iosb<int>::fixed
 .gnu.linkonce.r._Q23stdt5_Iosb1Zi.boolalpha
                0x08093788        0x4 generator_logger.o
                0x08093788                std::_Iosb<int>::boolalpha
 .gnu.linkonce.r._Q23stdt5_Iosb1Zi.adjustfield
                0x0809378c        0x4 generator_logger.o
                0x0809378c                std::_Iosb<int>::adjustfield
 .gnu.linkonce.r._Q23stdt5_Iosb1Zi.basefield
                0x08093790        0x4 generator_logger.o
                0x08093790                std::_Iosb<int>::basefield
 .gnu.linkonce.r._Q23stdt5_Iosb1Zi.floatfield
                0x08093794        0x4 generator_logger.o
                0x08093794                std::_Iosb<int>::floatfield
 .gnu.linkonce.r._Q23stdt5_Iosb1Zi.goodbit
                0x08093798        0x4 generator_logger.o
                0x08093798                std::_Iosb<int>::goodbit
 .gnu.linkonce.r._Q23stdt5_Iosb1Zi.eofbit
                0x0809379c        0x4 generator_logger.o
                0x0809379c                std::_Iosb<int>::eofbit
 .gnu.linkonce.r._Q23stdt5_Iosb1Zi.failbit
                0x080937a0        0x4 generator_logger.o
                0x080937a0                std::_Iosb<int>::failbit
 .gnu.linkonce.r._Q23stdt5_Iosb1Zi.badbit
                0x080937a4        0x4 generator_logger.o
                0x080937a4                std::_Iosb<int>::badbit
 .gnu.linkonce.r._Q23stdt5_Iosb1Zi.in
                0x080937a8        0x4 mock_generator.o
                0x080937a8                std::_Iosb<int>::in
 .gnu.linkonce.r._Q23stdt5_Iosb1Zi.end
                0x080937ac        0x4 mock_generator.o
                0x080937ac                std::_Iosb<int>::end
 .gnu.linkonce.r._Q23stdt5_Iosb1Zi.cur
                0x080937b0        0x4 mock_generator.o
                0x080937b0                std::_Iosb<int>::cur
 .gnu.linkonce.r._Q23stdt5_Iosb1Zi.beg
                0x080937b4        0x4 mock_generator.o
                0x080937b4                std::_Iosb<int>::beg
 .gnu.linkonce.r._Q23stdt5_Iosb1Zi.out
                0x080937b8        0x4 mock_generator.o
                0x080937b8                std::_Iosb<int>::out
 .gnu.linkonce.r._Q23stdt8_Locbase1Zi.none
                0x080937bc        0x4 /x86/lib/libcpp.a(locale0.o)
                0x080937bc                std::_Locbase<int>::none

.rodata1
 *(.rodata1)
                0x080947c0                .=(ALIGN(0x1000)+(.&0xfff))

.data           0x080947c0     0x1a40
 *(.data)
 .data          0x080947c0        0x8 /usr/lib/gcc-lib/ntox86/2.95.3/crtbeginC++.o
 .data          0x080947c8        0x8 generator_logger.o
                0x080947cc                generator_logger::logger_instance
 .data          0x080947d0       0x1c mock_generator.o
                0x080947de                mock_generator::e1_count
                0x080947e0                mock_generator::max_channel_number
                0x080947dd                mock_generator::ie1_count
                0x080947dc                mock_generator::upo_count
                0x080947d4                mock_generator::mock_generator_instance
                0x080947d8                mock_generator::channel_id
                0x080947df                mock_generator::channelb_count
 .data          0x080947ec        0x4 main.o
 .data          0x080947f0        0x8 /x86/lib/libcpp.a(exceptio.o)
 *fill*         0x080947f8        0x8
 .data          0x08094800       0x52 /x86/lib/libcpp.a(ios.o)
                0x08094818                std::ios_base::_Index
                0x0809481c                std::ios_base::_Sync
                0x08094808                std::_Fpz
 *fill*         0x08094852        0x2
 .data          0x08094854        0x8 /x86/lib/libcpp.a(iostream.o)
                0x08094858                std::ios_base::Init::_Init_cnt
 .data          0x0809485c       0x14 /x86/lib/libcpp.a(locale.o)
 .data          0x08094870       0x10 /x86/lib/libcpp.a(locale0.o)
                0x0809487c                std::locale::id::_Id_cnt
                0x08094878                std::locale::_Locimp::_Global
                0x08094874                std::locale::_Locimp::_Clocptr
 .data          0x08094880        0x4 /x86/lib/libcpp.a(raisehan.o)
                0x08094880                std::_Raise_handler
 .data          0x08094884        0x4 /x86/lib/libcpp.a(string.o)
 .data          0x08094888       0x38 /x86/lib/libcpp.a(wlocale.o)
 .data          0x080948c0       0x24 /x86/lib/libcpp.a(xlocale.o)
 .data          0x080948e4        0xc /x86/lib/libcpp.a(xlock.o)
 .data          0x080948f0        0x4 /x86/lib/libcpp.a(new.o)
                0x080948f0                std::_New_hand
 .data          0x080948f4       0x18 /usr/lib/gcc-lib/ntox86/2.95.3/exceptions/libgcc.a(_eh.o)
                0x080948f8                __terminate_func
 .data          0x0809490c        0x4 /usr/lib/gcc-lib/ntox86/2.95.3/exceptions/libgcc.a(exception.o)
 .data          0x08094910        0xc /usr/lib/gcc-lib/ntox86/2.95.3/exceptions/libgcc.a(frame.o)
 .data          0x0809491c        0x8 /x86/lib/libc.a(malloc.o)
                0x0809491c                _malloc_mutex
 .data          0x08094924       0x10 /x86/lib/libc.a(util.o)
 *fill*         0x08094934        0xc
 .data          0x08094940       0x78 /x86/lib/libc.a(localeco.o)
                0x08094940                _Locale
 *fill*         0x080949b8        0x8
 .data          0x080949c0      0x22c /x86/lib/libc.a(setlocal.o)
                0x080949c0                _Clocale
 .data          0x08094bec        0x4 /x86/lib/libc.a(xctype.o)
                0x08094bec                _Ctype
 .data          0x08094bf0        0x4 /x86/lib/libc.a(xdefloc.o)
 .data          0x08094bf4        0x4 /x86/lib/libc.a(xgetloc.o)
 .data          0x08094bf8        0x1 /x86/lib/libc.a(xstate.o)
                0x08094bf8                _Mbcurmax
 *fill*         0x08094bf9        0x3
 .data          0x08094bfc        0x4 /x86/lib/libc.a(xtolotab.o)
                0x08094bfc                _Tolotab
 .data          0x08094c00        0x4 /x86/lib/libc.a(xtouptab.o)
                0x08094c00                _Touptab
 .data          0x08094c04        0x4 /x86/lib/libc.a(xwctrtab.o)
                0x08094c04                _Wctrans
 .data          0x08094c08        0x4 /x86/lib/libc.a(xwctytab.o)
                0x08094c08                _Wctype
 .data          0x08094c0c        0x4 /x86/lib/libc.a(slog.o)
                0x08094c0c                _slogfd
 .data          0x08094c10       0x10 /x86/lib/libc.a(flockfile.o)
                0x08094c18                _stdio_cond
                0x08094c10                _stdio_mutex
 .data          0x08094c20      0x160 /x86/lib/libc.a(xfiles.o)
                0x08094c80                _Stdout
                0x08094d40                _Files
                0x08094c20                _Stdin
                0x08094ce0                _Stderr
 .data          0x08094d80        0x4 /x86/lib/libc.a(_math_emu_callout.o)
                0x08094d80                _emulator_callout
 *fill*         0x08094d84       0x1c
 .data          0x08094da0      0x10e /x86/lib/libc.a(asctime.o)
                0x08094e20                _Times
 *fill*         0x08094eae        0x2
 .data          0x08094eb0        0x4 /x86/lib/libc.a(xtzset.o)
 *fill*         0x08094eb4        0xc
 .data          0x08094ec0       0xdc /x86/lib/libc.a(random.o)
 .data          0x08094f9c       0x10 /x86/lib/libc.a(pthread_key_data.o)
                0x08094fa0                _key_destructor
                0x08094f9c                _key_count
                0x08094fa4                _key_mutex
 .data          0x08094fac        0x4 /x86/lib/libc.a(amblksiz.o)
                0x08094fac                _amblksiz
 *fill*         0x08094fb0       0x10
 .data          0x08094fc0      0x130 /x86/lib/libc.a(dlist.o)
                0x08094fdc                __flist_crumbs
                0x080950e0                _malloc_monotonic_growth
                0x080950d4                _malloc_check_fd
                0x08094fd0                __flist_avail
                0x08094fc0                __arenas
                0x080950d0                __ndlist_stat_bins
                0x080950dc                _malloc_check_on
                0x080950d8                _malloc_abort
                0x08095000                __dlist_stat_bins
                0x080950e4                _malloc_free_check
 *fill*         0x080950f0       0x10
 .data          0x08095100      0x13c /x86/lib/libc.a(malloc-config.o)
                0x08095224                __bandmap
                0x08095200                __Bands
                0x08095238                __nbandmap
                0x08095220                __nband
 .data          0x0809523c        0x8 /x86/lib/libc.a(fork.o)
                0x0809523c                pthread_atfork_mutex
 .data          0x08095244        0x1 /x86/lib/libc.a(core.o)
 *fill*         0x08095245        0x3
 *(.data.*)
 *(.gnu.linkonce.d*)
 .gnu.linkonce.d._Q23stdt8_Tidyfac1ZQ23stdt5ctype1Zc._Facsav
                0x08095248        0x4 generator_logger.o
                0x08095248                std::_Tidyfac<std::ctype<char> >::_Facsav
 .gnu.linkonce.d._Q23stdt8_Tidyfac1ZQ23stdt7num_put2ZcZQ23stdt19ostreambuf_iterator2ZcZQ23stdt11char_traits1Zc._Facsav
                0x0809524c        0x4 mock_generator.o
                0x0809524c                std::_Tidyfac<std::num_put<char, std::ostreambuf_iterator<char, std::char_traits<char> > > >::_Facsav
 .gnu.linkonce.d._Q23stdt8_Tidyfac1ZQ23stdt8numpunct1Zc._Facsav
                0x08095250        0x4 mock_generator.o
                0x08095250                std::_Tidyfac<std::numpunct<char> >::_Facsav
 *fill*         0x08095254        0xc
 .gnu.linkonce.d._vt.Q23stdt8numpunct1Zc
                0x08095260       0x40 mock_generator.o
                0x08095260                std::numpunct<char> virtual table
 .gnu.linkonce.d._vt.Q23stdt7num_put2ZcZQ23stdt19ostreambuf_iterator2ZcZQ23stdt11char_traits1Zc
                0x080952a0       0x58 mock_generator.o
                0x080952a0                std::num_put<char, std::ostreambuf_iterator<char, std::char_traits<char> > > virtual table
 .gnu.linkonce.d._vt.Q23stdt19basic_ostringstream3ZcZQ23stdt11char_traits1ZcZQ23stdt9allocator1Zc.Q23stdt9basic_ios2ZcZQ23stdt11char_traits1Zc
                0x080952f8       0x18 mock_generator.o
                0x080952f8                std::basic_ostringstream<char, std::char_traits<char>, std::allocator<char> >::std::basic_ios<char, std::char_traits<char> > virtual table
 *fill*         0x08095310       0x10
 .gnu.linkonce.d._vt.Q23stdt15basic_stringbuf3ZcZQ23stdt11char_traits1ZcZQ23stdt9allocator1Zc
                0x08095320       0x78 mock_generator.o
                0x08095320                std::basic_stringbuf<char, std::char_traits<char>, std::allocator<char> > virtual table
 *fill*         0x08095398        0x8
 .gnu.linkonce.d._vt.Q23stdt15basic_streambuf2ZcZQ23stdt11char_traits1Zc
                0x080953a0       0x78 mock_generator.o
                0x080953a0                std::basic_streambuf<char, std::char_traits<char> > virtual table
 .gnu.linkonce.d._vt.Q23stdt13basic_ostream2ZcZQ23stdt11char_traits1Zc.Q23stdt9basic_ios2ZcZQ23stdt11char_traits1Zc
                0x08095418       0x18 mock_generator.o
                0x08095418                std::basic_ostream<char, std::char_traits<char> >::std::basic_ios<char, std::char_traits<char> > virtual table
 .gnu.linkonce.d._vt.Q23stdt9basic_ios2ZcZQ23stdt11char_traits1Zc
                0x08095430       0x18 mock_generator.o
                0x08095430                std::basic_ios<char, std::char_traits<char> > virtual table
 .gnu.linkonce.d._vt.Q33std6locale5facet
                0x08095448       0x18 mock_generator.o
                0x08095448                std::locale::facet virtual table
 .gnu.linkonce.d._vt.Q23std8bad_cast
                0x08095460       0x28 mock_generator.o
                0x08095460                std::bad_cast virtual table
 *fill*         0x08095488       0x18
 .gnu.linkonce.d._vt.Q23std12length_error
                0x080954a0       0x28 mock_generator.o
                0x080954a0                std::length_error virtual table
 *fill*         0x080954c8       0x18
 .gnu.linkonce.d._vt.Q23std11logic_error
                0x080954e0       0x28 mock_generator.o
                0x080954e0                std::logic_error virtual table
 *fill*         0x08095508       0x18
 .gnu.linkonce.d._vt.Q23stdt5ctype1Zc
                0x08095520       0x58 mock_generator.o
                0x08095520                std::ctype<char> virtual table
 .gnu.linkonce.d._vt.Q23std10ctype_base
                0x08095578       0x18 mock_generator.o
                0x08095578                std::ctype_base virtual table
 *fill*         0x08095590       0x10
 .gnu.linkonce.d._vt.Q23std9exception
                0x080955a0       0x28 /x86/lib/libcpp.a(gccex.o)
                0x080955a0                std::exception virtual table
 .gnu.linkonce.d._vt.Q23std8ios_base
                0x080955c8       0x18 /x86/lib/libcpp.a(ios.o)
                0x080955c8                std::ios_base virtual table
 .gnu.linkonce.d._vt.Q33std8ios_base7failure
                0x080955e0       0x28 /x86/lib/libcpp.a(ios.o)
                0x080955e0                std::ios_base::failure virtual table
 *fill*         0x08095608       0x18
 .gnu.linkonce.d._vt.Q23std13runtime_error
                0x08095620       0x28 /x86/lib/libcpp.a(ios.o)
                0x08095620                std::runtime_error virtual table
 .gnu.linkonce.d._vt.Q23stdt13basic_istream2ZcZQ23stdt11char_traits1Zc.Q23stdt9basic_ios2ZcZQ23stdt11char_traits1Zc
                0x08095648       0x18 /x86/lib/libcpp.a(iostream.o)
                0x08095648                std::basic_istream<char, std::char_traits<char> >::std::basic_ios<char, std::char_traits<char> > virtual table
 .gnu.linkonce.d._vt.Q23stdt13basic_filebuf2ZcZQ23stdt11char_traits1Zc
                0x08095660       0x78 /x86/lib/libcpp.a(iostream.o)
                0x08095660                std::basic_filebuf<char, std::char_traits<char> > virtual table
 .gnu.linkonce.d._Q23stdt8_Tidyfac1ZQ23stdt7num_get2ZcZQ23stdt19istreambuf_iterator2ZcZQ23stdt11char_traits1Zc._Facsav
                0x080956d8        0x4 /x86/lib/libcpp.a(locale.o)
                0x080956d8                std::_Tidyfac<std::num_get<char, std::istreambuf_iterator<char, std::char_traits<char> > > >::_Facsav
 .gnu.linkonce.d._Q23stdt8_Tidyfac1ZQ23stdt7codecvt3ZcZcZ9_Mbstatet._Facsav
                0x080956dc        0x4 /x86/lib/libcpp.a(locale.o)
                0x080956dc                std::_Tidyfac<std::codecvt<char, char, _Mbstatet> >::_Facsav
 .gnu.linkonce.d._vt.Q23stdt7codecvt3ZcZcZ9_Mbstatet
                0x080956e0       0x50 /x86/lib/libcpp.a(locale.o)
                0x080956e0                std::codecvt<char, char, _Mbstatet> virtual table
 *fill*         0x08095730       0x10
 .gnu.linkonce.d._vt.Q23stdt7num_get2ZcZQ23stdt19istreambuf_iterator2ZcZQ23stdt11char_traits1Zc
                0x08095740       0x70 /x86/lib/libcpp.a(locale.o)
                0x08095740                std::num_get<char, std::istreambuf_iterator<char, std::char_traits<char> > > virtual table
 *fill*         0x080957b0       0x10
 .gnu.linkonce.d._vt.Q23std12codecvt_base
                0x080957c0       0x30 /x86/lib/libcpp.a(locale.o)
                0x080957c0                std::codecvt_base virtual table
 .gnu.linkonce.d._vt.Q33std6locale7_Locimp
                0x080957f0       0x18 /x86/lib/libcpp.a(locale0.o)
                0x080957f0                std::locale::_Locimp virtual table
 *fill*         0x08095808       0x18
 .gnu.linkonce.d._vt.Q23std9bad_alloc
                0x08095820       0x28 /x86/lib/libcpp.a(nomemory.o)
                0x08095820                std::bad_alloc virtual table
 *fill*         0x08095848       0x18
 .gnu.linkonce.d._vt.Q23std12out_of_range
                0x08095860       0x28 /x86/lib/libcpp.a(string.o)
                0x08095860                std::out_of_range virtual table
 .gnu.linkonce.d._Q23stdt8_Tidyfac1ZQ23stdt5ctype1Zw._Facsav
                0x08095888        0x4 /x86/lib/libcpp.a(wlocale.o)
                0x08095888                std::_Tidyfac<std::ctype<wchar_t> >::_Facsav
 .gnu.linkonce.d._Q23stdt8_Tidyfac1ZQ23stdt7num_get2ZwZQ23stdt19istreambuf_iterator2ZwZQ23stdt11char_traits1Zw._Facsav
                0x0809588c        0x4 /x86/lib/libcpp.a(wlocale.o)
                0x0809588c                std::_Tidyfac<std::num_get<wchar_t, std::istreambuf_iterator<wchar_t, std::char_traits<wchar_t> > > >::_Facsav
 .gnu.linkonce.d._Q23stdt8_Tidyfac1ZQ23stdt7num_put2ZwZQ23stdt19ostreambuf_iterator2ZwZQ23stdt11char_traits1Zw._Facsav
                0x08095890        0x4 /x86/lib/libcpp.a(wlocale.o)
                0x08095890                std::_Tidyfac<std::num_put<wchar_t, std::ostreambuf_iterator<wchar_t, std::char_traits<wchar_t> > > >::_Facsav
 .gnu.linkonce.d._Q23stdt8_Tidyfac1ZQ23stdt8numpunct1Zw._Facsav
                0x08095894        0x4 /x86/lib/libcpp.a(wlocale.o)
                0x08095894                std::_Tidyfac<std::numpunct<wchar_t> >::_Facsav
 .gnu.linkonce.d._Q23stdt8_Tidyfac1ZQ23stdt7collate1Zw._Facsav
                0x08095898        0x4 /x86/lib/libcpp.a(wlocale.o)
                0x08095898                std::_Tidyfac<std::collate<wchar_t> >::_Facsav
 .gnu.linkonce.d._Q23stdt8_Tidyfac1ZQ23stdt8messages1Zw._Facsav
                0x0809589c        0x4 /x86/lib/libcpp.a(wlocale.o)
                0x0809589c                std::_Tidyfac<std::messages<wchar_t> >::_Facsav
 .gnu.linkonce.d._Q23stdt8_Tidyfac1ZQ23stdt9money_get2ZwZQ23stdt19istreambuf_iterator2ZwZQ23stdt11char_traits1Zw._Facsav
                0x080958a0        0x4 /x86/lib/libcpp.a(wlocale.o)
                0x080958a0                std::_Tidyfac<std::money_get<wchar_t, std::istreambuf_iterator<wchar_t, std::char_traits<wchar_t> > > >::_Facsav
 .gnu.linkonce.d._Q23stdt8_Tidyfac1ZQ23stdt9money_put2ZwZQ23stdt19ostreambuf_iterator2ZwZQ23stdt11char_traits1Zw._Facsav
                0x080958a4        0x4 /x86/lib/libcpp.a(wlocale.o)
                0x080958a4                std::_Tidyfac<std::money_put<wchar_t, std::ostreambuf_iterator<wchar_t, std::char_traits<wchar_t> > > >::_Facsav
 .gnu.linkonce.d._Q23stdt8_Tidyfac1ZQ23stdt10moneypunct2Zwb0._Facsav
                0x080958a8        0x4 /x86/lib/libcpp.a(wlocale.o)
                0x080958a8                std::_Tidyfac<std::moneypunct<wchar_t, false> >::_Facsav
 .gnu.linkonce.d._Q23stdt8_Tidyfac1ZQ23stdt10moneypunct2Zwb1._Facsav
                0x080958ac        0x4 /x86/lib/libcpp.a(wlocale.o)
                0x080958ac                std::_Tidyfac<std::moneypunct<wchar_t, true> >::_Facsav
 .gnu.linkonce.d._Q23stdt8_Tidyfac1ZQ23stdt8time_get2ZwZQ23stdt19istreambuf_iterator2ZwZQ23stdt11char_traits1Zw._Facsav
                0x080958b0        0x4 /x86/lib/libcpp.a(wlocale.o)
                0x080958b0                std::_Tidyfac<std::time_get<wchar_t, std::istreambuf_iterator<wchar_t, std::char_traits<wchar_t> > > >::_Facsav
 .gnu.linkonce.d._Q23stdt8_Tidyfac1ZQ23stdt8time_put2ZwZQ23stdt19ostreambuf_iterator2ZwZQ23stdt11char_traits1Zw._Facsav
                0x080958b4        0x4 /x86/lib/libcpp.a(wlocale.o)
                0x080958b4                std::_Tidyfac<std::time_put<wchar_t, std::ostreambuf_iterator<wchar_t, std::char_traits<wchar_t> > > >::_Facsav
 .gnu.linkonce.d._Q23stdt8_Tidyfac1ZQ23stdt7codecvt3ZwZcZ9_Mbstatet._Facsav
                0x080958b8        0x4 /x86/lib/libcpp.a(wlocale.o)
                0x080958b8                std::_Tidyfac<std::codecvt<wchar_t, char, _Mbstatet> >::_Facsav
 *fill*         0x080958bc        0x4
 .gnu.linkonce.d._vt.Q23stdt8time_put2ZwZQ23stdt19ostreambuf_iterator2ZwZQ23stdt11char_traits1Zw
                0x080958c0       0x20 /x86/lib/libcpp.a(wlocale.o)
                0x080958c0                std::time_put<wchar_t, std::ostreambuf_iterator<wchar_t, std::char_traits<wchar_t> > > virtual table
 .gnu.linkonce.d._vt.Q23stdt8time_get2ZwZQ23stdt19istreambuf_iterator2ZwZQ23stdt11char_traits1Zw
                0x080958e0       0x48 /x86/lib/libcpp.a(wlocale.o)
                0x080958e0                std::time_get<wchar_t, std::istreambuf_iterator<wchar_t, std::char_traits<wchar_t> > > virtual table
 *fill*         0x08095928       0x18
 .gnu.linkonce.d._vt.Q23stdt10moneypunct2Zwb1
                0x08095940       0x60 /x86/lib/libcpp.a(wlocale.o)
                0x08095940                std::moneypunct<wchar_t, true> virtual table
 .gnu.linkonce.d._vt.Q23stdt10moneypunct2Zwb0
                0x080959a0       0x60 /x86/lib/libcpp.a(wlocale.o)
                0x080959a0                std::moneypunct<wchar_t, false> virtual table
 .gnu.linkonce.d._vt.Q23stdt7_Mpunct1Zw
                0x08095a00       0x60 /x86/lib/libcpp.a(wlocale.o)
                0x08095a00                std::_Mpunct<wchar_t> virtual table
 .gnu.linkonce.d._vt.Q23stdt9money_put2ZwZQ23stdt19ostreambuf_iterator2ZwZQ23stdt11char_traits1Zw
                0x08095a60       0x28 /x86/lib/libcpp.a(wlocale.o)
                0x08095a60                std::money_put<wchar_t, std::ostreambuf_iterator<wchar_t, std::char_traits<wchar_t> > > virtual table
 *fill*         0x08095a88       0x18
 .gnu.linkonce.d._vt.Q23stdt9money_get2ZwZQ23stdt19istreambuf_iterator2ZwZQ23stdt11char_traits1Zw
                0x08095aa0       0x28 /x86/lib/libcpp.a(wlocale.o)
                0x08095aa0                std::money_get<wchar_t, std::istreambuf_iterator<wchar_t, std::char_traits<wchar_t> > > virtual table
 *fill*         0x08095ac8       0x18
 .gnu.linkonce.d._vt.Q23stdt8messages1Zw
                0x08095ae0       0x30 /x86/lib/libcpp.a(wlocale.o)
                0x08095ae0                std::messages<wchar_t> virtual table
 *fill*         0x08095b10       0x10
 .gnu.linkonce.d._vt.Q23stdt7collate1Zw
                0x08095b20       0x30 /x86/lib/libcpp.a(wlocale.o)
                0x08095b20                std::collate<wchar_t> virtual table
 *fill*         0x08095b50       0x10
 .gnu.linkonce.d._vt.Q23stdt8numpunct1Zw
                0x08095b60       0x40 /x86/lib/libcpp.a(wlocale.o)
                0x08095b60                std::numpunct<wchar_t> virtual table
 .gnu.linkonce.d._vt.Q23stdt7num_put2ZwZQ23stdt19ostreambuf_iterator2ZwZQ23stdt11char_traits1Zw
                0x08095ba0       0x58 /x86/lib/libcpp.a(wlocale.o)
                0x08095ba0                std::num_put<wchar_t, std::ostreambuf_iterator<wchar_t, std::char_traits<wchar_t> > > virtual table
 *fill*         0x08095bf8        0x8
 .gnu.linkonce.d._vt.Q23stdt7num_get2ZwZQ23stdt19istreambuf_iterator2ZwZQ23stdt11char_traits1Zw
                0x08095c00       0x70 /x86/lib/libcpp.a(wlocale.o)
                0x08095c00                std::num_get<wchar_t, std::istreambuf_iterator<wchar_t, std::char_traits<wchar_t> > > virtual table
 *fill*         0x08095c70       0x10
 .gnu.linkonce.d._vt.Q23stdt5ctype1Zw
                0x08095c80       0x78 /x86/lib/libcpp.a(wlocale.o)
                0x08095c80                std::ctype<wchar_t> virtual table
 .gnu.linkonce.d._vt.Q23std9time_base
                0x08095cf8       0x18 /x86/lib/libcpp.a(wlocale.o)
                0x08095cf8                std::time_base virtual table
 .gnu.linkonce.d._vt.Q23std10money_base
                0x08095d10       0x18 /x86/lib/libcpp.a(wlocale.o)
                0x08095d10                std::money_base virtual table
 .gnu.linkonce.d._vt.Q23std13messages_base
                0x08095d28       0x18 /x86/lib/libcpp.a(wlocale.o)
                0x08095d28                std::messages_base virtual table
 .gnu.linkonce.d._vt.Q23stdt7codecvt3ZwZcZ9_Mbstatet
                0x08095d40       0x50 /x86/lib/libcpp.a(wlocale.o)
                0x08095d40                std::codecvt<wchar_t, char, _Mbstatet> virtual table
 .gnu.linkonce.d._Q23stdt8_Tidyfac1ZQ23stdt7collate1Zc._Facsav
                0x08095d90        0x4 /x86/lib/libcpp.a(xlocale.o)
                0x08095d90                std::_Tidyfac<std::collate<char> >::_Facsav
 .gnu.linkonce.d._Q23stdt8_Tidyfac1ZQ23stdt8messages1Zc._Facsav
                0x08095d94        0x4 /x86/lib/libcpp.a(xlocale.o)
                0x08095d94                std::_Tidyfac<std::messages<char> >::_Facsav
 .gnu.linkonce.d._Q23stdt8_Tidyfac1ZQ23stdt9money_get2ZcZQ23stdt19istreambuf_iterator2ZcZQ23stdt11char_traits1Zc._Facsav
                0x08095d98        0x4 /x86/lib/libcpp.a(xlocale.o)
                0x08095d98                std::_Tidyfac<std::money_get<char, std::istreambuf_iterator<char, std::char_traits<char> > > >::_Facsav
 .gnu.linkonce.d._Q23stdt8_Tidyfac1ZQ23stdt9money_put2ZcZQ23stdt19ostreambuf_iterator2ZcZQ23stdt11char_traits1Zc._Facsav
                0x08095d9c        0x4 /x86/lib/libcpp.a(xlocale.o)
                0x08095d9c                std::_Tidyfac<std::money_put<char, std::ostreambuf_iterator<char, std::char_traits<char> > > >::_Facsav
 .gnu.linkonce.d._Q23stdt8_Tidyfac1ZQ23stdt10moneypunct2Zcb0._Facsav
                0x08095da0        0x4 /x86/lib/libcpp.a(xlocale.o)
                0x08095da0                std::_Tidyfac<std::moneypunct<char, false> >::_Facsav
 .gnu.linkonce.d._Q23stdt8_Tidyfac1ZQ23stdt10moneypunct2Zcb1._Facsav
                0x08095da4        0x4 /x86/lib/libcpp.a(xlocale.o)
                0x08095da4                std::_Tidyfac<std::moneypunct<char, true> >::_Facsav
 .gnu.linkonce.d._Q23stdt8_Tidyfac1ZQ23stdt8time_get2ZcZQ23stdt19istreambuf_iterator2ZcZQ23stdt11char_traits1Zc._Facsav
                0x08095da8        0x4 /x86/lib/libcpp.a(xlocale.o)
                0x08095da8                std::_Tidyfac<std::time_get<char, std::istreambuf_iterator<char, std::char_traits<char> > > >::_Facsav
 .gnu.linkonce.d._Q23stdt8_Tidyfac1ZQ23stdt8time_put2ZcZQ23stdt19ostreambuf_iterator2ZcZQ23stdt11char_traits1Zc._Facsav
                0x08095dac        0x4 /x86/lib/libcpp.a(xlocale.o)
                0x08095dac                std::_Tidyfac<std::time_put<char, std::ostreambuf_iterator<char, std::char_traits<char> > > >::_Facsav
 *fill*         0x08095db0       0x10
 .gnu.linkonce.d._vt.Q23stdt8time_put2ZcZQ23stdt19ostreambuf_iterator2ZcZQ23stdt11char_traits1Zc
                0x08095dc0       0x20 /x86/lib/libcpp.a(xlocale.o)
                0x08095dc0                std::time_put<char, std::ostreambuf_iterator<char, std::char_traits<char> > > virtual table
 .gnu.linkonce.d._vt.Q23stdt8time_get2ZcZQ23stdt19istreambuf_iterator2ZcZQ23stdt11char_traits1Zc
                0x08095de0       0x48 /x86/lib/libcpp.a(xlocale.o)
                0x08095de0                std::time_get<char, std::istreambuf_iterator<char, std::char_traits<char> > > virtual table
 *fill*         0x08095e28       0x18
 .gnu.linkonce.d._vt.Q23stdt10moneypunct2Zcb1
                0x08095e40       0x60 /x86/lib/libcpp.a(xlocale.o)
                0x08095e40                std::moneypunct<char, true> virtual table
 .gnu.linkonce.d._vt.Q23stdt10moneypunct2Zcb0
                0x08095ea0       0x60 /x86/lib/libcpp.a(xlocale.o)
                0x08095ea0                std::moneypunct<char, false> virtual table
 .gnu.linkonce.d._vt.Q23stdt7_Mpunct1Zc
                0x08095f00       0x60 /x86/lib/libcpp.a(xlocale.o)
                0x08095f00                std::_Mpunct<char> virtual table
 .gnu.linkonce.d._vt.Q23stdt9money_put2ZcZQ23stdt19ostreambuf_iterator2ZcZQ23stdt11char_traits1Zc
                0x08095f60       0x28 /x86/lib/libcpp.a(xlocale.o)
                0x08095f60                std::money_put<char, std::ostreambuf_iterator<char, std::char_traits<char> > > virtual table
 *fill*         0x08095f88       0x18
 .gnu.linkonce.d._vt.Q23stdt9money_get2ZcZQ23stdt19istreambuf_iterator2ZcZQ23stdt11char_traits1Zc
                0x08095fa0       0x28 /x86/lib/libcpp.a(xlocale.o)
                0x08095fa0                std::money_get<char, std::istreambuf_iterator<char, std::char_traits<char> > > virtual table
 *fill*         0x08095fc8       0x18
 .gnu.linkonce.d._vt.Q23stdt8messages1Zc
                0x08095fe0       0x30 /x86/lib/libcpp.a(xlocale.o)
                0x08095fe0                std::messages<char> virtual table
 *fill*         0x08096010       0x10
 .gnu.linkonce.d._vt.Q23stdt7collate1Zc
                0x08096020       0x30 /x86/lib/libcpp.a(xlocale.o)
                0x08096020                std::collate<char> virtual table
 *fill*         0x08096050       0x10
 .gnu.linkonce.d._vt.13bad_exception
                0x08096060       0x20 /usr/lib/gcc-lib/ntox86/2.95.3/exceptions/libgcc.a(exception.o)
                0x08096060                bad_exception virtual table
 .gnu.linkonce.d._vt.9exception
                0x08096080       0x20 /usr/lib/gcc-lib/ntox86/2.95.3/exceptions/libgcc.a(exception.o)
                0x08096080                exception virtual table
 .gnu.linkonce.d._vt.17__class_type_info
                0x080960a0       0x20 /usr/lib/gcc-lib/ntox86/2.95.3/exceptions/libgcc.a(tinfo.o)
                0x080960a0                __class_type_info virtual table
 .gnu.linkonce.d._vt.14__si_type_info
                0x080960c0       0x20 /usr/lib/gcc-lib/ntox86/2.95.3/exceptions/libgcc.a(tinfo.o)
                0x080960c0                __si_type_info virtual table
 .gnu.linkonce.d._vt.16__user_type_info
                0x080960e0       0x20 /usr/lib/gcc-lib/ntox86/2.95.3/exceptions/libgcc.a(tinfo.o)
                0x080960e0                __user_type_info virtual table
 .gnu.linkonce.d._vt.10bad_typeid
                0x08096100       0x20 /usr/lib/gcc-lib/ntox86/2.95.3/exceptions/libgcc.a(tinfo.o)
                0x08096100                bad_typeid virtual table
 .gnu.linkonce.d._vt.8bad_cast
                0x08096120       0x20 /usr/lib/gcc-lib/ntox86/2.95.3/exceptions/libgcc.a(tinfo.o)
                0x08096120                bad_cast virtual table
 .gnu.linkonce.d._vt.9type_info
                0x08096140       0x18 /usr/lib/gcc-lib/ntox86/2.95.3/exceptions/libgcc.a(tinfo.o)
                0x08096140                type_info virtual table
 .gnu.linkonce.d._vt.17__array_type_info
                0x08096158       0x18 /usr/lib/gcc-lib/ntox86/2.95.3/exceptions/libgcc.a(tinfo2.o)
                0x08096158                __array_type_info virtual table
 .gnu.linkonce.d._vt.16__ptmd_type_info
                0x08096170       0x18 /usr/lib/gcc-lib/ntox86/2.95.3/exceptions/libgcc.a(tinfo2.o)
                0x08096170                __ptmd_type_info virtual table
 .gnu.linkonce.d._vt.16__ptmf_type_info
                0x08096188       0x18 /usr/lib/gcc-lib/ntox86/2.95.3/exceptions/libgcc.a(tinfo2.o)
                0x08096188                __ptmf_type_info virtual table
 .gnu.linkonce.d._vt.16__func_type_info
                0x080961a0       0x18 /usr/lib/gcc-lib/ntox86/2.95.3/exceptions/libgcc.a(tinfo2.o)
                0x080961a0                __func_type_info virtual table
 .gnu.linkonce.d._vt.19__builtin_type_info
                0x080961b8       0x18 /usr/lib/gcc-lib/ntox86/2.95.3/exceptions/libgcc.a(tinfo2.o)
                0x080961b8                __builtin_type_info virtual table
 .gnu.linkonce.d._vt.16__attr_type_info
                0x080961d0       0x18 /usr/lib/gcc-lib/ntox86/2.95.3/exceptions/libgcc.a(tinfo2.o)
                0x080961d0                __attr_type_info virtual table
 .gnu.linkonce.d._vt.19__pointer_type_info
                0x080961e8       0x18 /usr/lib/gcc-lib/ntox86/2.95.3/exceptions/libgcc.a(tinfo2.o)
                0x080961e8                __pointer_type_info virtual table

.data1
 *(.data1)

.eh_frame       0x08096200    0x16c28
 *(.eh_frame)
 .eh_frame      0x08096200      0xb5c generator_logger.o
 .eh_frame      0x08096d5c     0x5a4c mock_generator.o
 .eh_frame      0x0809c7a8     0x1b0c main.o
 .eh_frame      0x0809e2b4       0x48 /x86/lib/libcpp.a(delaop.o)
 .eh_frame      0x0809e2fc       0x48 /x86/lib/libcpp.a(delop.o)
 .eh_frame      0x0809e344       0x2c /x86/lib/libcpp.a(delop3.o)
 .eh_frame      0x0809e370       0x8c /x86/lib/libcpp.a(exceptio.o)
 .eh_frame      0x0809e3fc       0xd8 /x86/lib/libcpp.a(gccex.o)
 .eh_frame      0x0809e4d4     0x1254 /x86/lib/libcpp.a(ios.o)
 .eh_frame      0x0809f728     0x15e0 /x86/lib/libcpp.a(iostream.o)
 .eh_frame      0x080a0d08     0x2508 /x86/lib/libcpp.a(locale.o)
 .eh_frame      0x080a3210      0xe08 /x86/lib/libcpp.a(locale0.o)
 .eh_frame      0x080a4018       0x68 /x86/lib/libcpp.a(newaop.o)
 .eh_frame      0x080a4080       0x68 /x86/lib/libcpp.a(newop.o)
 .eh_frame      0x080a40e8       0xec /x86/lib/libcpp.a(nomemory.o)
 .eh_frame      0x080a41d4       0x14 /x86/lib/libcpp.a(raisehan.o)
 .eh_frame      0x080a41e8      0xcbc /x86/lib/libcpp.a(string.o)
 .eh_frame      0x080a4ea4       0x2c /x86/lib/libcpp.a(uncaught.o)
 .eh_frame      0x080a4ed0     0x3f04 /x86/lib/libcpp.a(wlocale.o)
 .eh_frame      0x080a8dd4     0x2bc4 /x86/lib/libcpp.a(xlocale.o)
 .eh_frame      0x080ab998       0xa0 /x86/lib/libcpp.a(xlock.o)
 .eh_frame      0x080aba38       0x90 /x86/lib/libcpp.a(xmutex.o)
 .eh_frame      0x080abac8       0x2c /x86/lib/libcpp.a(new.o)
 .eh_frame      0x080abaf4       0x34 /usr/lib/gcc-lib/ntox86/2.95.3/exceptions/libgcc.a(_cmpdi2.o)
 .eh_frame      0x080abb28      0x3ac /usr/lib/gcc-lib/ntox86/2.95.3/exceptions/libgcc.a(_eh.o)
 .eh_frame      0x080abed4       0x34 /usr/lib/gcc-lib/ntox86/2.95.3/exceptions/libgcc.a(_udivdi3.o)
 .eh_frame      0x080abf08      0x35c /usr/lib/gcc-lib/ntox86/2.95.3/exceptions/libgcc.a(exception.o)
 .eh_frame      0x080ac264      0x294 /usr/lib/gcc-lib/ntox86/2.95.3/exceptions/libgcc.a(frame.o)
 .eh_frame      0x080ac4f8      0x378 /usr/lib/gcc-lib/ntox86/2.95.3/exceptions/libgcc.a(tinfo.o)
 .eh_frame      0x080ac870      0x518 /usr/lib/gcc-lib/ntox86/2.95.3/exceptions/libgcc.a(tinfo2.o)
 .eh_frame      0x080acd88       0x34 /usr/lib/gcc-lib/ntox86/2.95.3/exceptions/libgcc.a(_divdi3.o)
 .eh_frame      0x080acdbc       0x34 /usr/lib/gcc-lib/ntox86/2.95.3/exceptions/libgcc.a(_moddi3.o)
 .eh_frame      0x080acdf0       0x34 /usr/lib/gcc-lib/ntox86/2.95.3/exceptions/libgcc.a(_umoddi3.o)
 .eh_frame      0x080ace24        0x4 /usr/lib/gcc-lib/ntox86/2.95.3/crtendC++.o

.gcc_except_table
                0x080ace28     0x4c70
 *(.gcc_except_table)
 .gcc_except_table
                0x080ace28       0xf8 generator_logger.o
 .gcc_except_table
                0x080acf20     0x12d4 mock_generator.o
 .gcc_except_table
                0x080ae1f4      0x698 main.o
 .gcc_except_table
                0x080ae88c       0x38 /x86/lib/libcpp.a(delaop.o)
 .gcc_except_table
                0x080ae8c4       0x38 /x86/lib/libcpp.a(delop.o)
 .gcc_except_table
                0x080ae8fc      0x380 /x86/lib/libcpp.a(ios.o)
 .gcc_except_table
                0x080aec7c      0x2b4 /x86/lib/libcpp.a(iostream.o)
 .gcc_except_table
                0x080aef30      0x950 /x86/lib/libcpp.a(locale.o)
 .gcc_except_table
                0x080af880      0x1e8 /x86/lib/libcpp.a(locale0.o)
 .gcc_except_table
                0x080afa68       0x38 /x86/lib/libcpp.a(newaop.o)
 .gcc_except_table
                0x080afaa0       0x38 /x86/lib/libcpp.a(newop.o)
 .gcc_except_table
                0x080afad8       0x38 /x86/lib/libcpp.a(nomemory.o)
 .gcc_except_table
                0x080afb10      0x20c /x86/lib/libcpp.a(string.o)
 .gcc_except_table
                0x080afd1c     0x11c0 /x86/lib/libcpp.a(wlocale.o)
 .gcc_except_table
                0x080b0edc      0xb60 /x86/lib/libcpp.a(xlocale.o)
 .gcc_except_table
                0x080b1a3c       0x5c /usr/lib/gcc-lib/ntox86/2.95.3/exceptions/libgcc.a(exception.o)

.ctors          0x080b1a98       0x24
 *crtbegin.o(.ctors)
 EXCLUDE_FILE ( *crtend.o)*(.ctors)
 .ctors         0x080b1a98        0x4 /usr/lib/gcc-lib/ntox86/2.95.3/crtbeginC++.o
 .ctors         0x080b1a9c        0x4 mock_generator.o
 .ctors         0x080b1aa0        0x4 main.o
 .ctors         0x080b1aa4        0x4 /x86/lib/libcpp.a(iostream.o)
 .ctors         0x080b1aa8        0x4 /x86/lib/libcpp.a(locale.o)
 .ctors         0x080b1aac        0x4 /x86/lib/libcpp.a(locale0.o)
 .ctors         0x080b1ab0        0x4 /x86/lib/libcpp.a(wlocale.o)
 .ctors         0x080b1ab4        0x4 /x86/lib/libcpp.a(xlocale.o)
 .ctors         0x080b1ab8        0x4 /usr/lib/gcc-lib/ntox86/2.95.3/crtendC++.o
 *(SORT(.ctors.*))
 *(.ctors)

.dtors          0x080b1abc       0x18
 *crtbegin.o(.dtors)
 EXCLUDE_FILE ( *crtend.o)*(.dtors)
 .dtors         0x080b1abc        0x4 /usr/lib/gcc-lib/ntox86/2.95.3/crtbeginC++.o
 .dtors         0x080b1ac0        0x4 mock_generator.o
 .dtors         0x080b1ac4        0x4 main.o
 .dtors         0x080b1ac8        0x4 /x86/lib/libcpp.a(iostream.o)
 .dtors         0x080b1acc        0x4 /x86/lib/libcpp.a(locale0.o)
 .dtors         0x080b1ad0        0x4 /usr/lib/gcc-lib/ntox86/2.95.3/crtendC++.o
 *(SORT(.dtors.*))
 *(.dtors)

.got            0x080b1ad4       0xf8
 *(.got.plt)
 .got.plt       0x080b1ad4        0xc /usr/lib/gcc-lib/ntox86/2.95.3/crtbeginC++.o
                0x080b1ad4                _GLOBAL_OFFSET_TABLE_
 *(.got)
 .got           0x080b1ae0       0xec /usr/lib/gcc-lib/ntox86/2.95.3/crtbeginC++.o

.dynamic
 *(.dynamic)

.sdata
 *(.sdata)
 *(.sdata.*)
 *(.gnu.linkonce.s.*)
                0x080b1bcc                _edata=.
                0x080b1bcc                PROVIDE (edata, .)
                0x080b1bcc                __bss_start=.

.sbss
 *(.dynsbss)
 *(.sbss)
 *(.sbss.*)
 *(.scommon)

.bss            0x080b1be0      0xbf8
 *(.dynbss)
 *(.bss)
 .bss           0x080b1be0       0x18 /usr/lib/gcc-lib/ntox86/2.95.3/crtbeginC++.o
 .bss           0x080b1bf8        0x1 mock_generator.o
 *fill*         0x080b1bf9        0x3
 .bss           0x080b1bfc        0x1 main.o
 *fill*         0x080b1bfd        0x3
 .bss           0x080b1c00       0x14 /x86/lib/libcpp.a(ios.o)
 *fill*         0x080b1c14        0xc
 .bss           0x080b1c20      0x29c /x86/lib/libcpp.a(iostream.o)
                0x080b1e40                std::cerr
                0x080b1d40                std::cin
                0x080b1d80                std::cout
                0x080b1e80                std::clog
 .bss           0x080b1ebc        0x4 /x86/lib/libcpp.a(locale.o)
                0x080b1ebc                std::ctype<char>::id
 .bss           0x080b1ec0        0x8 /x86/lib/libcpp.a(locale0.o)
 .bss           0x080b1ec8        0x8 /x86/lib/libcpp.a(nomemory.o)
 .bss           0x080b1ed0        0x4 /x86/lib/libcpp.a(wlocale.o)
                0x080b1ed0                std::codecvt<wchar_t, char, _Mbstatet>::id
 *fill*         0x080b1ed4        0xc
 .bss           0x080b1ee0       0x20 /x86/lib/libcpp.a(xlock.o)
 .bss           0x080b1f00       0x20 /usr/lib/gcc-lib/ntox86/2.95.3/exceptions/libgcc.a(_eh.o)
 .bss           0x080b1f20        0x4 /usr/lib/gcc-lib/ntox86/2.95.3/exceptions/libgcc.a(frame.o)
 .bss           0x080b1f24       0x88 /usr/lib/gcc-lib/ntox86/2.95.3/exceptions/libgcc.a(tinfo2.o)
                0x080b1fa4                signed char type_info node
                0x080b1f54                char type_info node
                0x080b1f74                float type_info node
                0x080b1f84                unsigned long type_info node
                0x080b1f8c                unsigned long long type_info node
                0x080b1f4c                bool type_info node
                0x080b1f44                short type_info node
                0x080b1f6c                double type_info node
                0x080b1f3c                int type_info node
                0x080b1f7c                unsigned int type_info node
                0x080b1f9c                unsigned char type_info node
                0x080b1f94                unsigned short type_info node
                0x080b1f34                long type_info node
                0x080b1f5c                wchar_t type_info node
                0x080b1f2c                long long type_info node
                0x080b1f24                void type_info node
                0x080b1f64                long double type_info node
 .bss           0x080b1fac        0x8 /x86/lib/libc.a(mbrtowc.o)
 .bss           0x080b1fb4        0x4 /x86/lib/libc.a(setlocal.o)
 .bss           0x080b1fb8        0x8 /x86/lib/libc.a(wcrtomb.o)
 .bss           0x080b1fc0        0x4 /x86/lib/libc.a(xdefloc.o)
 .bss           0x080b1fc4        0x4 /x86/lib/libc.a(xgetloc.o)
 *fill*         0x080b1fc8       0x18
 .bss           0x080b1fe0       0x50 /x86/lib/libc.a(xfiles.o)
 *fill*         0x080b2030       0x10
 .bss           0x080b2040       0x3c /x86/lib/libc.a(strcoll.o)
 .bss           0x080b207c       0x18 /x86/lib/libc.a(strxfrm.o)
 .bss           0x080b2094        0x4 /x86/lib/libc.a(time.o)
 *fill*         0x080b2098        0x8
 .bss           0x080b20a0       0x88 /x86/lib/libc.a(xtzset.o)
 *fill*         0x080b2128       0x18
 .bss           0x080b2140       0x68 /x86/lib/libc.a(xlocterm.o)
 .bss           0x080b21a8       0x10 /x86/lib/libc.a(localtim.o)
 .bss           0x080b21b8        0x8 /x86/lib/libc.a(xgetrules.o)
 .bss           0x080b21c0       0x2c /x86/lib/libc.a(xttotm.o)
 .bss           0x080b21ec        0x4 /x86/lib/libc.a(core.o)
 .bss           0x080b21f0        0x4 /x86/lib/libc.a(_findenv.o)
 .bss           0x080b21f4        0x7 /x86/lib/libc.a(_connect_ctrl.o)
 *fill*         0x080b21fb        0x1
 *(.bss.*)
 *(COMMON)
 COMMON         0x080b21fc       0xc8 mock_generator.o
                                  0x0 (size before relaxing)
                0x080b21fc                std::ctype<char> type_info node
                0x080b2208                std::bad_cast type_info node
                0x080b2214                std::locale::facet type_info node
                0x080b221c                std::numpunct<char> type_info node
                0x080b2228                std::basic_stringbuf<char, std::char_traits<char>, std::allocator<char> > type_info node
                0x080b2234                std::ctype_base type_info node
                0x080b2240                std::length_error type_info node
                0x080b224c                std::fpos<_Mbstatet>::_Stz
                0x080b2254                __sn_Q23stdt8numpunct1Zc.id
                0x080b2258                std::numpunct<char>::id
                0x080b225c                generator_exception type_info node
                0x080b2264                std::_Mutex type_info node
                0x080b226c                std::basic_ios<char, std::char_traits<char> > type_info node
                0x080b2278                std::num_put<char, std::ostreambuf_iterator<char, std::char_traits<char> > >::id
                0x080b227c                __sn_Q23stdt7num_put2ZcZQ23stdt19ostreambuf_iterator2ZcZQ23stdt11char_traits1Zc.id
                0x080b2280                std::logic_error type_info node
                0x080b228c                std::basic_ostringstream<char, std::char_traits<char>, std::allocator<char> > type_info node
                0x080b229c                std::num_put<char, std::ostreambuf_iterator<char, std::char_traits<char> > > type_info node
                0x080b22a8                std::basic_ostream<char, std::char_traits<char> > type_info node
                0x080b22b8                std::basic_streambuf<char, std::char_traits<char> > type_info node
 COMMON         0x080b22c4        0x8 /x86/lib/libcpp.a(gccex.o)
                                  0x0 (size before relaxing)
                0x080b22c4                std::exception type_info node
 COMMON         0x080b22cc       0x2c /x86/lib/libcpp.a(ios.o)
                                  0x0 (size before relaxing)
                0x080b22cc                std::_Iosb<int> type_info node
                0x080b22d4                std::runtime_error type_info node
                0x080b22e0                std::ios_base type_info node
                0x080b22ec                std::ios_base::failure type_info node
 COMMON         0x080b22f8       0x1c /x86/lib/libcpp.a(iostream.o)
                                  0x0 (size before relaxing)
                0x080b22f8                std::basic_istream<char, std::char_traits<char> > type_info node
                0x080b2308                std::basic_filebuf<char, std::char_traits<char> > type_info node
 COMMON         0x080b2314       0x34 /x86/lib/libcpp.a(locale.o)
                                  0x0 (size before relaxing)
                0x080b2314                std::codecvt_base type_info node
                0x080b2320                __sn_Q23stdt7codecvt3ZcZcZ9_Mbstatet.id
                0x080b2324                __sn_Q23stdt7num_get2ZcZQ23stdt19istreambuf_iterator2ZcZQ23stdt11char_traits1Zc.id
                0x080b2328                std::num_get<char, std::istreambuf_iterator<char, std::char_traits<char> > > type_info node
                0x080b2334                std::num_get<char, std::istreambuf_iterator<char, std::char_traits<char> > >::id
                0x080b2338                std::codecvt<char, char, _Mbstatet>::id
                0x080b233c                std::codecvt<char, char, _Mbstatet> type_info node
 COMMON         0x080b2348        0xc /x86/lib/libcpp.a(locale0.o)
                                  0x0 (size before relaxing)
                0x080b2348                std::locale::_Locimp type_info node
 COMMON         0x080b2354        0xc /x86/lib/libcpp.a(newaop.o)
                                  0x0 (size before relaxing)
                0x080b2354                std::bad_alloc type_info node
 COMMON         0x080b2360        0xc /x86/lib/libcpp.a(string.o)
                                  0x0 (size before relaxing)
                0x080b2360                std::out_of_range type_info node
 COMMON         0x080b236c      0x12c /x86/lib/libcpp.a(wlocale.o)
                                  0x0 (size before relaxing)
                0x080b236c                std::time_get<wchar_t, std::istreambuf_iterator<wchar_t, std::char_traits<wchar_t> > >::id
                0x080b2370                __sn_Q23stdt10moneypunct2Zwb1.id
                0x080b2374                std::collate<wchar_t>::id
                0x080b2378                __sn_Q23stdt5ctype1Zw.id
                0x080b237c                __sn_Q23stdt8time_get2ZwZQ23stdt19istreambuf_iterator2ZwZQ23stdt11char_traits1Zw.id
                0x080b2380                std::moneypunct<wchar_t, false> type_info node
                0x080b238c                std::money_get<wchar_t, std::istreambuf_iterator<wchar_t, std::char_traits<wchar_t> > >::id
                0x080b2390                __sn_Q23stdt8time_put2ZwZQ23stdt19ostreambuf_iterator2ZwZQ23stdt11char_traits1Zw.id
                0x080b2394                std::messages<wchar_t>::id
                0x080b2398                std::collate<wchar_t> type_info node
                0x080b23a4                std::codecvt<wchar_t, char, _Mbstatet> type_info node
                0x080b23b0                __sn_Q23stdt7collate1Zw.id
                0x080b23b4                std::numpunct<wchar_t>::id
                0x080b23b8                std::num_get<wchar_t, std::istreambuf_iterator<wchar_t, std::char_traits<wchar_t> > > type_info node
                0x080b23c4                std::messages_base type_info node
                0x080b23d0                std::numpunct<wchar_t> type_info node
                0x080b23dc                std::money_base type_info node
                0x080b23e8                __sn_Q23stdt9money_put2ZwZQ23stdt19ostreambuf_iterator2ZwZQ23stdt11char_traits1Zw.id
                0x080b23ec                __sn_Q23stdt9money_get2ZwZQ23stdt19istreambuf_iterator2ZwZQ23stdt11char_traits1Zw.id
                0x080b23f0                __sn_Q23stdt8numpunct1Zw.id
                0x080b23f4                __sn_Q23stdt7num_put2ZwZQ23stdt19ostreambuf_iterator2ZwZQ23stdt11char_traits1Zw.id
                0x080b23f8                std::money_get<wchar_t, std::istreambuf_iterator<wchar_t, std::char_traits<wchar_t> > > type_info node
                0x080b2404                std::num_get<wchar_t, std::istreambuf_iterator<wchar_t, std::char_traits<wchar_t> > >::id
                0x080b2408                std::time_put<wchar_t, std::ostreambuf_iterator<wchar_t, std::char_traits<wchar_t> > >::id
                0x080b240c                std::moneypunct<wchar_t, false>::id
                0x080b2410                std::time_get<wchar_t, std::istreambuf_iterator<wchar_t, std::char_traits<wchar_t> > > type_info node
                0x080b241c                std::ctype<wchar_t>::id
                0x080b2420                std::num_put<wchar_t, std::ostreambuf_iterator<wchar_t, std::char_traits<wchar_t> > > type_info node
                0x080b242c                std::money_put<wchar_t, std::ostreambuf_iterator<wchar_t, std::char_traits<wchar_t> > >::id
                0x080b2430                std::_Mpunct<wchar_t> type_info node
                0x080b243c                std::moneypunct<wchar_t, true>::id
                0x080b2440                std::num_put<wchar_t, std::ostreambuf_iterator<wchar_t, std::char_traits<wchar_t> > >::id
                0x080b2444                std::time_base type_info node
                0x080b2450                std::money_put<wchar_t, std::ostreambuf_iterator<wchar_t, std::char_traits<wchar_t> > > type_info node
                0x080b245c                std::moneypunct<wchar_t, true> type_info node
                0x080b2468                __sn_Q23stdt8messages1Zw.id
                0x080b246c                std::time_put<wchar_t, std::ostreambuf_iterator<wchar_t, std::char_traits<wchar_t> > > type_info node
                0x080b2478                __sn_Q23stdt7num_get2ZwZQ23stdt19istreambuf_iterator2ZwZQ23stdt11char_traits1Zw.id
                0x080b247c                std::ctype<wchar_t> type_info node
                0x080b2488                __sn_Q23stdt10moneypunct2Zwb0.id
                0x080b248c                std::messages<wchar_t> type_info node
 COMMON         0x080b2498       0xac /x86/lib/libcpp.a(xlocale.o)
                                  0x0 (size before relaxing)
                0x080b2498                __sn_Q23stdt10moneypunct2Zcb1.id
                0x080b249c                std::money_put<char, std::ostreambuf_iterator<char, std::char_traits<char> > > type_info node
                0x080b24a8                __sn_Q23stdt8time_put2ZcZQ23stdt19ostreambuf_iterator2ZcZQ23stdt11char_traits1Zc.id
                0x080b24ac                std::_Mpunct<char> type_info node
                0x080b24b8                std::moneypunct<char, false>::id
                0x080b24bc                __sn_Q23stdt8time_get2ZcZQ23stdt19istreambuf_iterator2ZcZQ23stdt11char_traits1Zc.id
                0x080b24c0                std::messages<char>::id
                0x080b24c4                std::time_get<char, std::istreambuf_iterator<char, std::char_traits<char> > >::id
                0x080b24c8                std::collate<char>::id
                0x080b24cc                __sn_Q23stdt10moneypunct2Zcb0.id
                0x080b24d0                std::messages<char> type_info node
                0x080b24dc                __sn_Q23stdt9money_get2ZcZQ23stdt19istreambuf_iterator2ZcZQ23stdt11char_traits1Zc.id
                0x080b24e0                std::collate<char> type_info node
                0x080b24ec                std::time_put<char, std::ostreambuf_iterator<char, std::char_traits<char> > >::id
                0x080b24f0                std::time_get<char, std::istreambuf_iterator<char, std::char_traits<char> > > type_info node
                0x080b24fc                std::money_get<char, std::istreambuf_iterator<char, std::char_traits<char> > >::id
                0x080b2500                __sn_Q23stdt7collate1Zc.id
                0x080b2504                std::money_get<char, std::istreambuf_iterator<char, std::char_traits<char> > > type_info node
                0x080b2510                std::moneypunct<char, true>::id
                0x080b2514                std::money_put<char, std::ostreambuf_iterator<char, std::char_traits<char> > >::id
                0x080b2518                std::moneypunct<char, true> type_info node
                0x080b2524                std::moneypunct<char, false> type_info node
                0x080b2530                __sn_Q23stdt9money_put2ZcZQ23stdt19ostreambuf_iterator2ZcZQ23stdt11char_traits1Zc.id
                0x080b2534                __sn_Q23stdt8messages1Zc.id
                0x080b2538                std::time_put<char, std::ostreambuf_iterator<char, std::char_traits<char> > > type_info node
 COMMON         0x080b2544       0x14 /usr/lib/gcc-lib/ntox86/2.95.3/exceptions/libgcc.a(exception.o)
                                  0x0 (size before relaxing)
                0x080b2544                bad_exception type_info node
                0x080b2550                exception type_info node
 COMMON         0x080b2558       0x44 /usr/lib/gcc-lib/ntox86/2.95.3/exceptions/libgcc.a(tinfo.o)
                                  0x0 (size before relaxing)
                0x080b2558                bad_typeid type_info node
                0x080b2564                bad_cast type_info node
                0x080b2570                type_info type_info node
                0x080b2578                __user_type_info type_info node
                0x080b2584                __si_type_info type_info node
                0x080b2590                __class_type_info type_info node
 COMMON         0x080b259c       0x54 /usr/lib/gcc-lib/ntox86/2.95.3/exceptions/libgcc.a(tinfo2.o)
                                  0x0 (size before relaxing)
                0x080b259c                __func_type_info type_info node
                0x080b25a8                __attr_type_info type_info node
                0x080b25b4                __ptmf_type_info type_info node
                0x080b25c0                __array_type_info type_info node
                0x080b25cc                __pointer_type_info type_info node
                0x080b25d8                __ptmd_type_info type_info node
                0x080b25e4                __builtin_type_info type_info node
 *fill*         0x080b25f0       0x10
 COMMON         0x080b2600       0x5c /x86/lib/libc.a(malloc.o)
                                  0x0 (size before relaxing)
                0x080b2600                _malloc_fill_area
                0x080b2620                _malloc_stats
 *fill*         0x080b265c        0x4
 COMMON         0x080b2660      0x100 /x86/lib/libc.a(xstate.o)
                                  0x0 (size before relaxing)
                0x080b2660                _Wcstate
                0x080b26a0                _Mbstate
                0x080b26e0                _WCostate
                0x080b2720                _Costate
 COMMON         0x080b2760       0x4c /x86/lib/libc.a(_init_libc.o)
                                  0x0 (size before relaxing)
                0x080b2760                _argv
                0x080b2764                errno
                0x080b2768                _syspage_ptr
                0x080b276c                _auxv
                0x080b2770                _Multi_threaded
                0x080b2774                environ
                0x080b2778                __progname
                0x080b277c                __cpu_flags
                0x080b2780                _pls
                0x080b27a8                _argc
 COMMON         0x080b27ac       0x10 /x86/lib/libc.a(xtzset.o)
                                  0x0 (size before relaxing)
                0x080b27ac                daylight
                0x080b27b0                tzname
                0x080b27b8                timezone
 COMMON         0x080b27bc        0x4 /x86/lib/libc.a(sysconf.o)
                                  0x0 (size before relaxing)
                0x080b27bc                _sysconf_list
 COMMON         0x080b27c0        0x4 /x86/lib/libc.a(confstr.o)
                                  0x0 (size before relaxing)
                0x080b27c0                _confstr_list
 COMMON         0x080b27c4        0x4 /x86/lib/libc.a(_atexit.o)
                                  0x0 (size before relaxing)
                0x080b27c4                _atexit_list
 COMMON         0x080b27c8        0xc /x86/lib/libc.a(fork.o)
                                  0x0 (size before relaxing)
                0x080b27c8                _pthread_atfork_parent
                0x080b27cc                _pthread_atfork_prepare
                0x080b27d0                _pthread_atfork_child
 COMMON         0x080b27d4        0x1 /x86/lib/libc.a(_connect_ctrl.o)
                                  0x0 (size before relaxing)
                0x080b27d4                _connect_malloc
 *fill*         0x080b27d5        0x3
                0x080b27d8                .=ALIGN(0x4)
                0x080b27d8                .=ALIGN(0x4)
                0x080b27d8                _end=.
                0x080b27d8                PROVIDE (end, .)

.stab           0x00000000    0x3c7a4
 *(.stab)
 .stab          0x00000000     0x7650 generator_logger.o
                               0x76e0 (size before relaxing)
 .stab          0x00007650    0x2157c mock_generator.o
                              0x246f0 (size before relaxing)
 .stab          0x00028bcc     0x978c main.o
                               0xe58c (size before relaxing)
 .stab          0x00032358      0x810 /usr/lib/gcc-lib/ntox86/2.95.3/exceptions/libgcc.a(_cmpdi2.o)
                                0x81c (size before relaxing)
 .stab          0x00032b68      0xf24 /usr/lib/gcc-lib/ntox86/2.95.3/exceptions/libgcc.a(_eh.o)
                               0x14ac (size before relaxing)
 .stab          0x00033a8c      0x30c /usr/lib/gcc-lib/ntox86/2.95.3/exceptions/libgcc.a(_udivdi3.o)
                                0x834 (size before relaxing)
 .stab          0x00033d98     0x1d04 /usr/lib/gcc-lib/ntox86/2.95.3/exceptions/libgcc.a(exception.o)
                               0x1ef0 (size before relaxing)
 .stab          0x00035a9c     0x13b0 /usr/lib/gcc-lib/ntox86/2.95.3/exceptions/libgcc.a(frame.o)
                               0x1974 (size before relaxing)
 .stab          0x00036e4c     0x1d34 /usr/lib/gcc-lib/ntox86/2.95.3/exceptions/libgcc.a(tinfo.o)
                               0x1f2c (size before relaxing)
 .stab          0x00038b80     0x3348 /usr/lib/gcc-lib/ntox86/2.95.3/exceptions/libgcc.a(tinfo2.o)
                               0x36d8 (size before relaxing)
 .stab          0x0003bec8      0x2f4 /usr/lib/gcc-lib/ntox86/2.95.3/exceptions/libgcc.a(_divdi3.o)
                                0x828 (size before relaxing)
 .stab          0x0003c1bc      0x2f4 /usr/lib/gcc-lib/ntox86/2.95.3/exceptions/libgcc.a(_moddi3.o)
                                0x828 (size before relaxing)
 .stab          0x0003c4b0      0x2f4 /usr/lib/gcc-lib/ntox86/2.95.3/exceptions/libgcc.a(_umoddi3.o)
                                0x828 (size before relaxing)

.stabstr        0x00000000    0x7cd73
 *(.stabstr)
 .stabstr       0x00000000    0x7cd73 generator_logger.o
                                  0x0 (size before relaxing)

.stab.excl
 *(.stab.excl)

.stab.exclstr
 *(.stab.exclstr)

.stab.index
 *(.stab.index)

.stab.indexstr
 *(.stab.indexstr)

.comment        0x00000000     0x25d1
 *(.comment)
 .comment       0x00000000       0x2d /usr/lib/gcc-lib/ntox86/2.95.3/crtbeginC++.o
 .comment       0x0000002d       0x2d generator_logger.o
 .comment       0x0000005a       0x2d mock_generator.o
 .comment       0x00000087       0x2d main.o
 .comment       0x000000b4       0x26 /x86/lib/libm.a(sqrt.o)
 .comment       0x000000da       0x26 /x86/lib/libcpp.a(delaop.o)
 .comment       0x00000100       0x26 /x86/lib/libcpp.a(delop.o)
 .comment       0x00000126       0x26 /x86/lib/libcpp.a(delop3.o)
 .comment       0x0000014c       0x26 /x86/lib/libcpp.a(exceptio.o)
 .comment       0x00000172       0x26 /x86/lib/libcpp.a(gccex.o)
 .comment       0x00000198       0x26 /x86/lib/libcpp.a(ios.o)
 .comment       0x000001be       0x26 /x86/lib/libcpp.a(iostream.o)
 .comment       0x000001e4       0x26 /x86/lib/libcpp.a(locale.o)
 .comment       0x0000020a       0x26 /x86/lib/libcpp.a(locale0.o)
 .comment       0x00000230       0x26 /x86/lib/libcpp.a(newaop.o)
 .comment       0x00000256       0x26 /x86/lib/libcpp.a(newop.o)
 .comment       0x0000027c       0x26 /x86/lib/libcpp.a(nomemory.o)
 .comment       0x000002a2       0x26 /x86/lib/libcpp.a(raisehan.o)
 .comment       0x000002c8       0x26 /x86/lib/libcpp.a(string.o)
 .comment       0x000002ee       0x26 /x86/lib/libcpp.a(uncaught.o)
 .comment       0x00000314       0x26 /x86/lib/libcpp.a(wlocale.o)
 .comment       0x0000033a       0x26 /x86/lib/libcpp.a(xlocale.o)
 .comment       0x00000360       0x26 /x86/lib/libcpp.a(xlock.o)
 .comment       0x00000386       0x26 /x86/lib/libcpp.a(xmtx.o)
 .comment       0x000003ac       0x26 /x86/lib/libcpp.a(xmutex.o)
 .comment       0x000003d2       0x26 /x86/lib/libcpp.a(new.o)
 .comment       0x000003f8       0x2d /usr/lib/gcc-lib/ntox86/2.95.3/exceptions/libgcc.a(_cmpdi2.o)
 .comment       0x00000425       0x2d /usr/lib/gcc-lib/ntox86/2.95.3/exceptions/libgcc.a(_eh.o)
 .comment       0x00000452       0x2d /usr/lib/gcc-lib/ntox86/2.95.3/exceptions/libgcc.a(_udivdi3.o)
 .comment       0x0000047f       0x2d /usr/lib/gcc-lib/ntox86/2.95.3/exceptions/libgcc.a(exception.o)
 .comment       0x000004ac       0x2d /usr/lib/gcc-lib/ntox86/2.95.3/exceptions/libgcc.a(frame.o)
 .comment       0x000004d9       0x2d /usr/lib/gcc-lib/ntox86/2.95.3/exceptions/libgcc.a(tinfo.o)
 .comment       0x00000506       0x2d /usr/lib/gcc-lib/ntox86/2.95.3/exceptions/libgcc.a(tinfo2.o)
 .comment       0x00000533       0x26 /x86/lib/libc.a(getpid.o)
 .comment       0x00000559       0x26 /x86/lib/libc.a(pthread_mutex_lock.o)
 .comment       0x0000057f       0x26 /x86/lib/libc.a(pthread_mutex_init.o)
 .comment       0x000005a5       0x26 /x86/lib/libc.a(pthread_mutex_destroy.o)
 .comment       0x000005cb       0x26 /x86/lib/libc.a(pthread_mutex_unlock.o)
 .comment       0x000005f1       0x26 /x86/lib/libc.a(pthread_mutexattr_destroy.o)
 .comment       0x00000617       0x26 /x86/lib/libc.a(pthread_mutexattr_init.o)
 .comment       0x0000063d       0x26 /x86/lib/libc.a(pthread_mutexattr_settype.o)
 .comment       0x00000663       0x26 /x86/lib/libc.a(pthread_once.o)
 .comment       0x00000689       0x26 /x86/lib/libc.a(malloc.o)
 .comment       0x000006af       0x26 /x86/lib/libc.a(util.o)
 .comment       0x000006d5       0x26 /x86/lib/libc.a(_exit.o)
 .comment       0x000006fb       0x26 /x86/lib/libc.a(abort.o)
 .comment       0x00000721       0x26 /x86/lib/libc.a(atexit.o)
 .comment       0x00000747       0x26 /x86/lib/libc.a(exit.o)
 .comment       0x0000076d       0x26 /x86/lib/libc.a(localeco.o)
 .comment       0x00000793       0x26 /x86/lib/libc.a(mbrtowc.o)
 .comment       0x000007b9       0x26 /x86/lib/libc.a(raise.o)
 .comment       0x000007df       0x26 /x86/lib/libc.a(setlocal.o)
 .comment       0x00000805       0x26 /x86/lib/libc.a(wcrtomb.o)
 .comment       0x0000082b       0x26 /x86/lib/libc.a(xbtowc.o)
 .comment       0x00000851       0x26 /x86/lib/libc.a(xctype.o)
 .comment       0x00000877       0x26 /x86/lib/libc.a(xdefloc.o)
 .comment       0x0000089d       0x26 /x86/lib/libc.a(xdscale.o)
 .comment       0x000008c3       0x26 /x86/lib/libc.a(xdunscal.o)
 .comment       0x000008e9       0x26 /x86/lib/libc.a(xferaise.o)
 .comment       0x0000090f       0x26 /x86/lib/libc.a(xgetloc.o)
 .comment       0x00000935       0x26 /x86/lib/libc.a(xmakeloc.o)
 .comment       0x0000095b       0x26 /x86/lib/libc.a(xmakesta.o)
 .comment       0x00000981       0x26 /x86/lib/libc.a(xmakewct.o)
 .comment       0x000009a7       0x26 /x86/lib/libc.a(xmbtowc.o)
 .comment       0x000009cd       0x26 /x86/lib/libc.a(xreadloc.o)
 .comment       0x000009f3       0x26 /x86/lib/libc.a(xsetloc.o)
 .comment       0x00000a19       0x26 /x86/lib/libc.a(xstate.o)
 .comment       0x00000a3f       0x26 /x86/lib/libc.a(xstod.o)
 .comment       0x00000a65       0x26 /x86/lib/libc.a(xstof.o)
 .comment       0x00000a8b       0x26 /x86/lib/libc.a(xstoflt.o)
 .comment       0x00000ab1       0x26 /x86/lib/libc.a(xstold.o)
 .comment       0x00000ad7       0x26 /x86/lib/libc.a(xstopfx.o)
 .comment       0x00000afd       0x26 /x86/lib/libc.a(xstoxflt.o)
 .comment       0x00000b23       0x26 /x86/lib/libc.a(xtolotab.o)
 .comment       0x00000b49       0x26 /x86/lib/libc.a(xtouptab.o)
 .comment       0x00000b6f       0x26 /x86/lib/libc.a(xvalues.o)
 .comment       0x00000b95       0x26 /x86/lib/libc.a(xwctomb.o)
 .comment       0x00000bbb       0x26 /x86/lib/libc.a(xwctrtab.o)
 .comment       0x00000be1       0x26 /x86/lib/libc.a(xwctytab.o)
 .comment       0x00000c07       0x26 /x86/lib/libc.a(__ker_err.o)
 .comment       0x00000c2d       0x26 /x86/lib/libc.a(gettid.o)
 .comment       0x00000c53       0x26 /x86/lib/libc.a(spawnl.o)
 .comment       0x00000c79       0x26 /x86/lib/libc.a(spawnve.o)
 .comment       0x00000c9f       0x26 /x86/lib/libc.a(slog.o)
 .comment       0x00000cc5       0x26 /x86/lib/libc.a(fclose.o)
 .comment       0x00000ceb       0x26 /x86/lib/libc.a(fflush.o)
 .comment       0x00000d11       0x26 /x86/lib/libc.a(fgetc.o)
 .comment       0x00000d37       0x26 /x86/lib/libc.a(fgetpos.o)
 .comment       0x00000d5d       0x26 /x86/lib/libc.a(fgets.o)
 .comment       0x00000d83       0x26 /x86/lib/libc.a(fileno.o)
 .comment       0x00000da9       0x26 /x86/lib/libc.a(flockfile.o)
 .comment       0x00000dcf       0x26 /x86/lib/libc.a(fopen.o)
 .comment       0x00000df5       0x26 /x86/lib/libc.a(fputc.o)
 .comment       0x00000e1b       0x26 /x86/lib/libc.a(fputs.o)
 .comment       0x00000e41       0x26 /x86/lib/libc.a(fseek.o)
 .comment       0x00000e67       0x26 /x86/lib/libc.a(fsetpos.o)
 .comment       0x00000e8d       0x26 /x86/lib/libc.a(funlockfile.o)
 .comment       0x00000eb3       0x26 /x86/lib/libc.a(fwrite.o)
 .comment       0x00000ed9       0x26 /x86/lib/libc.a(setvbuf.o)
 .comment       0x00000eff       0x26 /x86/lib/libc.a(sprintf.o)
 .comment       0x00000f25       0x26 /x86/lib/libc.a(strerror.o)
 .comment       0x00000f4b       0x26 /x86/lib/libc.a(ungetc.o)
 .comment       0x00000f71       0x26 /x86/lib/libc.a(vsnprintf.o)
 .comment       0x00000f97       0x26 /x86/lib/libc.a(vsprintf.o)
 .comment       0x00000fbd       0x26 /x86/lib/libc.a(xfgpos.o)
 .comment       0x00000fe3       0x26 /x86/lib/libc.a(xfiles.o)
 .comment       0x00001009       0x26 /x86/lib/libc.a(xfrprep.o)
 .comment       0x0000102f       0x26 /x86/lib/libc.a(xfspos.o)
 .comment       0x00001055       0x26 /x86/lib/libc.a(xfwprep.o)
 .comment       0x0000107b       0x26 /x86/lib/libc.a(xprintf.o)
 .comment       0x000010a1       0x26 /x86/lib/libc.a(xputfld.o)
 .comment       0x000010c7       0x26 /x86/lib/libc.a(xputstr.o)
 .comment       0x000010ed       0x26 /x86/lib/libc.a(xputtxt.o)
 .comment       0x00001113       0x26 /x86/lib/libc.a(xsnprout.o)
 .comment       0x00001139       0x26 /x86/lib/libc.a(xsprout.o)
 .comment       0x0000115f       0x26 /x86/lib/libc.a(atoi.o)
 .comment       0x00001185       0x26 /x86/lib/libc.a(itoa.o)
 .comment       0x000011ab       0x26 /x86/lib/libc.a(ltoa.o)
 .comment       0x000011d1       0x26 /x86/lib/libc.a(memchr.o)
 .comment       0x000011f7       0x26 /x86/lib/libc.a(memcmp.o)
 .comment       0x0000121d       0x26 /x86/lib/libc.a(memcpy.o)
 .comment       0x00001243       0x26 /x86/lib/libc.a(memmove.o)
 .comment       0x00001269       0x26 /x86/lib/libc.a(memset.o)
 .comment       0x0000128f       0x26 /x86/lib/libc.a(strcat.o)
 .comment       0x000012b5       0x26 /x86/lib/libc.a(strchr.o)
 .comment       0x000012db       0x26 /x86/lib/libc.a(strcmp.o)
 .comment       0x00001301       0x26 /x86/lib/libc.a(strcoll.o)
 .comment       0x00001327       0x26 /x86/lib/libc.a(strcpy.o)
 .comment       0x0000134d       0x26 /x86/lib/libc.a(strcspn.o)
 .comment       0x00001373       0x26 /x86/lib/libc.a(strdup.o)
 .comment       0x00001399       0x26 /x86/lib/libc.a(strlen.o)
 .comment       0x000013bf       0x26 /x86/lib/libc.a(strncmp.o)
 .comment       0x000013e5       0x26 /x86/lib/libc.a(strrchr.o)
 .comment       0x0000140b       0x26 /x86/lib/libc.a(strspn.o)
 .comment       0x00001431       0x26 /x86/lib/libc.a(strtol.o)
 .comment       0x00001457       0x26 /x86/lib/libc.a(strtoll.o)
 .comment       0x0000147d       0x26 /x86/lib/libc.a(strtoul.o)
 .comment       0x000014a3       0x26 /x86/lib/libc.a(strtoull.o)
 .comment       0x000014c9       0x26 /x86/lib/libc.a(strxfrm.o)
 .comment       0x000014ef       0x26 /x86/lib/libc.a(ultoa.o)
 .comment       0x00001515       0x26 /x86/lib/libc.a(wcscoll.o)
 .comment       0x0000153b       0x26 /x86/lib/libc.a(wcslen.o)
 .comment       0x00001561       0x26 /x86/lib/libc.a(wcsxfrm.o)
 .comment       0x00001587       0x26 /x86/lib/libc.a(wmemcmp.o)
 .comment       0x000015ad       0x26 /x86/lib/libc.a(wmemcpy.o)
 .comment       0x000015d3       0x26 /x86/lib/libc.a(wmemmove.o)
 .comment       0x000015f9       0x26 /x86/lib/libc.a(wmemset.o)
 .comment       0x0000161f       0x26 /x86/lib/libc.a(xstrxfrm.o)
 .comment       0x00001645       0x26 /x86/lib/libc.a(xwcsxfrm.o)
 .comment       0x0000166b       0x26 /x86/lib/libc.a(__cleanup.o)
 .comment       0x00001691       0x26 /x86/lib/libc.a(__get_errno_ptr.o)
 .comment       0x000016b7       0x26 /x86/lib/libc.a(__stackavail.o)
 .comment       0x000016dd       0x26 /x86/lib/libc.a(__tls.o)
 .comment       0x00001703       0x26 /x86/lib/libc.a(_init_libc.o)
 .comment       0x00001729       0x26 /x86/lib/libc.a(_math_emu_stub.o)
 .comment       0x0000174f       0x26 /x86/lib/libc.a(_math_emu_callout.o)
 .comment       0x00001775       0x26 /x86/lib/libc.a(asctime.o)
 .comment       0x0000179b       0x26 /x86/lib/libc.a(time.o)
 .comment       0x000017c1       0x26 /x86/lib/libc.a(xstrftim.o)
 .comment       0x000017e7       0x26 /x86/lib/libc.a(xtzset.o)
 .comment       0x0000180d       0x26 /x86/lib/libc.a(sys_err.o)
 .comment       0x00001833       0x26 /x86/lib/libc.a(random.o)
 .comment       0x00001859       0x26 /x86/lib/libc.a(close.o)
 .comment       0x0000187f       0x26 /x86/lib/libc.a(lseek.o)
 .comment       0x000018a5       0x26 /x86/lib/libc.a(open.o)
 .comment       0x000018cb       0x26 /x86/lib/libc.a(read.o)
 .comment       0x000018f1       0x26 /x86/lib/libc.a(sigaction.o)
 .comment       0x00001917       0x26 /x86/lib/libc.a(sigdelset.o)
 .comment       0x0000193d       0x26 /x86/lib/libc.a(sigfillset.o)
 .comment       0x00001963       0x26 /x86/lib/libc.a(sysconf.o)
 .comment       0x00001989       0x26 /x86/lib/libc.a(waitpid.o)
 .comment       0x000019af       0x26 /x86/lib/libc.a(write.o)
 .comment       0x000019d5       0x26 /x86/lib/libc.a(confstr.o)
 .comment       0x000019fb       0x26 /x86/lib/libc.a(__my_thread_exit.o)
 .comment       0x00001a21       0x26 /x86/lib/libc.a(pthread_cond_broadcast.o)
 .comment       0x00001a47       0x26 /x86/lib/libc.a(pthread_cond_wait.o)
 .comment       0x00001a6d       0x26 /x86/lib/libc.a(pthread_exit.o)
 .comment       0x00001a93       0x26 /x86/lib/libc.a(pthread_key_data.o)
 .comment       0x00001ab9       0x26 /x86/lib/libc.a(pthread_self.o)
 .comment       0x00001adf       0x26 /x86/lib/libc.a(pthread_sigmask.o)
 .comment       0x00001b05       0x26 /x86/lib/libc.a(amblksiz.o)
 .comment       0x00001b2b       0x26 /x86/lib/libc.a(band.o)
 .comment       0x00001b51       0x26 /x86/lib/libc.a(compat.o)
 .comment       0x00001b77       0x26 /x86/lib/libc.a(dlist.o)
 .comment       0x00001b9d       0x26 /x86/lib/libc.a(malloc-config.o)
 .comment       0x00001bc3       0x26 /x86/lib/libc.a(__exit.o)
 .comment       0x00001be9       0x26 /x86/lib/libc.a(_atexit.o)
 .comment       0x00001c0f       0x26 /x86/lib/libc.a(_cleanup.o)
 .comment       0x00001c35       0x26 /x86/lib/libc.a(getenv.o)
 .comment       0x00001c5b       0x26 /x86/lib/libc.a(xdnorm.o)
 .comment       0x00001c81       0x26 /x86/lib/libc.a(xdtento.o)
 .comment       0x00001ca7       0x26 /x86/lib/libc.a(xfdscale.o)
 .comment       0x00001ccd       0x26 /x86/lib/libc.a(xfdtento.o)
 .comment       0x00001cf3       0x26 /x86/lib/libc.a(xfdunsca.o)
 .comment       0x00001d19       0x26 /x86/lib/libc.a(xfreeloc.o)
 .comment       0x00001d3f       0x26 /x86/lib/libc.a(xfvalues.o)
 .comment       0x00001d65       0x26 /x86/lib/libc.a(xldscale.o)
 .comment       0x00001d8b       0x26 /x86/lib/libc.a(xldtento.o)
 .comment       0x00001db1       0x26 /x86/lib/libc.a(xldunsca.o)
 .comment       0x00001dd7       0x26 /x86/lib/libc.a(xloctab.o)
 .comment       0x00001dfd       0x26 /x86/lib/libc.a(xlocterm.o)
 .comment       0x00001e23       0x26 /x86/lib/libc.a(xlvalues.o)
 .comment       0x00001e49       0x26 /x86/lib/libc.a(xstoint.o)
 .comment       0x00001e6f       0x26 /x86/lib/libc.a(spawn.o)
 .comment       0x00001e95       0x26 /x86/lib/libc.a(sysmgr_confstr_set.o)
 .comment       0x00001ebb       0x26 /x86/lib/libc.a(_fsopen.o)
 .comment       0x00001ee1       0x26 /x86/lib/libc.a(fdopen.o)
 .comment       0x00001f07       0x26 /x86/lib/libc.a(fprintf.o)
 .comment       0x00001f2d       0x26 /x86/lib/libc.a(xfbuf.o)
 .comment       0x00001f53       0x26 /x86/lib/libc.a(xfprout.o)
 .comment       0x00001f79       0x26 /x86/lib/libc.a(xldtob.o)
 .comment       0x00001f9f       0x26 /x86/lib/libc.a(xlitob.o)
 .comment       0x00001fc5       0x26 /x86/lib/libc.a(ulltoa.o)
 .comment       0x00001feb       0x26 /x86/lib/libc.a(_conf_get.o)
 .comment       0x00002011       0x26 /x86/lib/libc.a(_math_emu_load.o)
 .comment       0x00002037       0x26 /x86/lib/libc.a(_vopen.o)
 .comment       0x0000205d       0x26 /x86/lib/libc.a(localtim.o)
 .comment       0x00002083       0x26 /x86/lib/libc.a(xgentime.o)
 .comment       0x000020a9       0x26 /x86/lib/libc.a(xgetdst.o)
 .comment       0x000020cf       0x26 /x86/lib/libc.a(xgetrules.o)
 .comment       0x000020f5       0x26 /x86/lib/libc.a(xgettime.o)
 .comment       0x0000211b       0x26 /x86/lib/libc.a(xgetzone.o)
 .comment       0x00002141       0x26 /x86/lib/libc.a(xttotm.o)
 .comment       0x00002167       0x26 /x86/lib/libc.a(wait4.o)
 .comment       0x0000218d       0x26 /x86/lib/libc.a(waitid.o)
 .comment       0x000021b3       0x26 /x86/lib/libc.a(fork.o)
 .comment       0x000021d9       0x26 /x86/lib/libc.a(getpgrp.o)
 .comment       0x000021ff       0x26 /x86/lib/libc.a(isatty.o)
 .comment       0x00002225       0x26 /x86/lib/libc.a(core.o)
 .comment       0x0000224b       0x26 /x86/lib/libc.a(_findenv.o)
 .comment       0x00002271       0x26 /x86/lib/libc.a(ldiv.o)
 .comment       0x00002297       0x26 /x86/lib/libc.a(xfdnorm.o)
 .comment       0x000022bd       0x26 /x86/lib/libc.a(xldnorm.o)
 .comment       0x000022e3       0x26 /x86/lib/libc.a(sopen.o)
 .comment       0x00002309       0x26 /x86/lib/libc.a(__fpinit.o)
 .comment       0x0000232f       0x26 /x86/lib/libc.a(__parse_oflag.o)
 .comment       0x00002355       0x26 /x86/lib/libc.a(xgenld.o)
 .comment       0x0000237b       0x26 /x86/lib/libc.a(strncpy.o)
 .comment       0x000023a1       0x26 /x86/lib/libc.a(_connect.o)
 .comment       0x000023c7       0x26 /x86/lib/libc.a(_connect_entry.o)
 .comment       0x000023ed       0x26 /x86/lib/libc.a(_connect_ctrl.o)
 .comment       0x00002413       0x26 /x86/lib/libc.a(_devctl.o)
 .comment       0x00002439       0x26 /x86/lib/libc.a(xisdst.o)
 .comment       0x0000245f       0x26 /x86/lib/libc.a(mmap.o)
 .comment       0x00002485       0x26 /x86/lib/libc.a(munmap.o)
 .comment       0x000024ab       0x26 /x86/lib/libc.a(div.o)
 .comment       0x000024d1       0x26 /x86/lib/libc.a(procmgr_session.o)
 .comment       0x000024f7       0x26 /x86/lib/libc.a(__fpbufinit.o)
 .comment       0x0000251d       0x2d /usr/lib/gcc-lib/ntox86/2.95.3/exceptions/libgcc.a(_divdi3.o)
 .comment       0x0000254a       0x2d /usr/lib/gcc-lib/ntox86/2.95.3/exceptions/libgcc.a(_moddi3.o)
 .comment       0x00002577       0x2d /usr/lib/gcc-lib/ntox86/2.95.3/exceptions/libgcc.a(_umoddi3.o)
 .comment       0x000025a4       0x2d /usr/lib/gcc-lib/ntox86/2.95.3/crtendC++.o

.debug
 *(.debug)

.line
 *(.line)

.debug_srcinfo
 *(.debug_srcinfo)

.debug_sfnames
 *(.debug_sfnames)

.debug_aranges
 *(.debug_aranges)

.debug_pubnames
 *(.debug_pubnames)

.debug_info
 *(.debug_info)

.debug_abbrev
 *(.debug_abbrev)

.debug_line
 *(.debug_line)

.debug_frame
 *(.debug_frame)

.debug_str
 *(.debug_str)

.debug_loc
 *(.debug_loc)

.debug_macinfo
 *(.debug_macinfo)

.debug_weaknames
 *(.debug_weaknames)

.debug_funcnames
 *(.debug_funcnames)

.debug_typenames
 *(.debug_typenames)

.debug_varnames
 *(.debug_varnames)
OUTPUT(requests_generator elf32-i386)

.note           0x00000000     0x13b0
 .note          0x00000000       0x14 /usr/lib/gcc-lib/ntox86/2.95.3/crtbeginC++.o
 .note          0x00000014       0x14 generator_logger.o
 .note          0x00000028       0x14 mock_generator.o
 .note          0x0000003c       0x14 main.o
 .note          0x00000050       0x14 /x86/lib/libm.a(sqrt.o)
 .note          0x00000064       0x14 /x86/lib/libcpp.a(delaop.o)
 .note          0x00000078       0x14 /x86/lib/libcpp.a(delop.o)
 .note          0x0000008c       0x14 /x86/lib/libcpp.a(delop3.o)
 .note          0x000000a0       0x14 /x86/lib/libcpp.a(exceptio.o)
 .note          0x000000b4       0x14 /x86/lib/libcpp.a(gccex.o)
 .note          0x000000c8       0x14 /x86/lib/libcpp.a(ios.o)
 .note          0x000000dc       0x14 /x86/lib/libcpp.a(iostream.o)
 .note          0x000000f0       0x14 /x86/lib/libcpp.a(locale.o)
 .note          0x00000104       0x14 /x86/lib/libcpp.a(locale0.o)
 .note          0x00000118       0x14 /x86/lib/libcpp.a(newaop.o)
 .note          0x0000012c       0x14 /x86/lib/libcpp.a(newop.o)
 .note          0x00000140       0x14 /x86/lib/libcpp.a(nomemory.o)
 .note          0x00000154       0x14 /x86/lib/libcpp.a(raisehan.o)
 .note          0x00000168       0x14 /x86/lib/libcpp.a(string.o)
 .note          0x0000017c       0x14 /x86/lib/libcpp.a(uncaught.o)
 .note          0x00000190       0x14 /x86/lib/libcpp.a(wlocale.o)
 .note          0x000001a4       0x14 /x86/lib/libcpp.a(xlocale.o)
 .note          0x000001b8       0x14 /x86/lib/libcpp.a(xlock.o)
 .note          0x000001cc       0x14 /x86/lib/libcpp.a(xmtx.o)
 .note          0x000001e0       0x14 /x86/lib/libcpp.a(xmutex.o)
 .note          0x000001f4       0x14 /x86/lib/libcpp.a(new.o)
 .note          0x00000208       0x14 /usr/lib/gcc-lib/ntox86/2.95.3/exceptions/libgcc.a(_cmpdi2.o)
 .note          0x0000021c       0x14 /usr/lib/gcc-lib/ntox86/2.95.3/exceptions/libgcc.a(_eh.o)
 .note          0x00000230       0x14 /usr/lib/gcc-lib/ntox86/2.95.3/exceptions/libgcc.a(_udivdi3.o)
 .note          0x00000244       0x14 /usr/lib/gcc-lib/ntox86/2.95.3/exceptions/libgcc.a(exception.o)
 .note          0x00000258       0x14 /usr/lib/gcc-lib/ntox86/2.95.3/exceptions/libgcc.a(frame.o)
 .note          0x0000026c       0x14 /usr/lib/gcc-lib/ntox86/2.95.3/exceptions/libgcc.a(tinfo.o)
 .note          0x00000280       0x14 /usr/lib/gcc-lib/ntox86/2.95.3/exceptions/libgcc.a(tinfo2.o)
 .note          0x00000294       0x14 /x86/lib/libc.a(getpid.o)
 .note          0x000002a8       0x14 /x86/lib/libc.a(pthread_mutex_lock.o)
 .note          0x000002bc       0x14 /x86/lib/libc.a(pthread_mutex_init.o)
 .note          0x000002d0       0x14 /x86/lib/libc.a(pthread_mutex_destroy.o)
 .note          0x000002e4       0x14 /x86/lib/libc.a(pthread_mutex_unlock.o)
 .note          0x000002f8       0x14 /x86/lib/libc.a(pthread_mutexattr_destroy.o)
 .note          0x0000030c       0x14 /x86/lib/libc.a(pthread_mutexattr_init.o)
 .note          0x00000320       0x14 /x86/lib/libc.a(pthread_mutexattr_settype.o)
 .note          0x00000334       0x14 /x86/lib/libc.a(pthread_once.o)
 .note          0x00000348       0x14 /x86/lib/libc.a(malloc.o)
 .note          0x0000035c       0x14 /x86/lib/libc.a(util.o)
 .note          0x00000370       0x14 /x86/lib/libc.a(_exit.o)
 .note          0x00000384       0x14 /x86/lib/libc.a(abort.o)
 .note          0x00000398       0x14 /x86/lib/libc.a(atexit.o)
 .note          0x000003ac       0x14 /x86/lib/libc.a(exit.o)
 .note          0x000003c0       0x14 /x86/lib/libc.a(localeco.o)
 .note          0x000003d4       0x14 /x86/lib/libc.a(mbrtowc.o)
 .note          0x000003e8       0x14 /x86/lib/libc.a(raise.o)
 .note          0x000003fc       0x14 /x86/lib/libc.a(setlocal.o)
 .note          0x00000410       0x14 /x86/lib/libc.a(wcrtomb.o)
 .note          0x00000424       0x14 /x86/lib/libc.a(xbtowc.o)
 .note          0x00000438       0x14 /x86/lib/libc.a(xctype.o)
 .note          0x0000044c       0x14 /x86/lib/libc.a(xdefloc.o)
 .note          0x00000460       0x14 /x86/lib/libc.a(xdscale.o)
 .note          0x00000474       0x14 /x86/lib/libc.a(xdunscal.o)
 .note          0x00000488       0x14 /x86/lib/libc.a(xferaise.o)
 .note          0x0000049c       0x14 /x86/lib/libc.a(xgetloc.o)
 .note          0x000004b0       0x14 /x86/lib/libc.a(xmakeloc.o)
 .note          0x000004c4       0x14 /x86/lib/libc.a(xmakesta.o)
 .note          0x000004d8       0x14 /x86/lib/libc.a(xmakewct.o)
 .note          0x000004ec       0x14 /x86/lib/libc.a(xmbtowc.o)
 .note          0x00000500       0x14 /x86/lib/libc.a(xreadloc.o)
 .note          0x00000514       0x14 /x86/lib/libc.a(xsetloc.o)
 .note          0x00000528       0x14 /x86/lib/libc.a(xstate.o)
 .note          0x0000053c       0x14 /x86/lib/libc.a(xstod.o)
 .note          0x00000550       0x14 /x86/lib/libc.a(xstof.o)
 .note          0x00000564       0x14 /x86/lib/libc.a(xstoflt.o)
 .note          0x00000578       0x14 /x86/lib/libc.a(xstold.o)
 .note          0x0000058c       0x14 /x86/lib/libc.a(xstopfx.o)
 .note          0x000005a0       0x14 /x86/lib/libc.a(xstoxflt.o)
 .note          0x000005b4       0x14 /x86/lib/libc.a(xtolotab.o)
 .note          0x000005c8       0x14 /x86/lib/libc.a(xtouptab.o)
 .note          0x000005dc       0x14 /x86/lib/libc.a(xvalues.o)
 .note          0x000005f0       0x14 /x86/lib/libc.a(xwctomb.o)
 .note          0x00000604       0x14 /x86/lib/libc.a(xwctrtab.o)
 .note          0x00000618       0x14 /x86/lib/libc.a(xwctytab.o)
 .note          0x0000062c       0x14 /x86/lib/libc.a(__ker_err.o)
 .note          0x00000640       0x14 /x86/lib/libc.a(gettid.o)
 .note          0x00000654       0x14 /x86/lib/libc.a(spawnl.o)
 .note          0x00000668       0x14 /x86/lib/libc.a(spawnve.o)
 .note          0x0000067c       0x14 /x86/lib/libc.a(slog.o)
 .note          0x00000690       0x14 /x86/lib/libc.a(fclose.o)
 .note          0x000006a4       0x14 /x86/lib/libc.a(fflush.o)
 .note          0x000006b8       0x14 /x86/lib/libc.a(fgetc.o)
 .note          0x000006cc       0x14 /x86/lib/libc.a(fgetpos.o)
 .note          0x000006e0       0x14 /x86/lib/libc.a(fgets.o)
 .note          0x000006f4       0x14 /x86/lib/libc.a(fileno.o)
 .note          0x00000708       0x14 /x86/lib/libc.a(flockfile.o)
 .note          0x0000071c       0x14 /x86/lib/libc.a(fopen.o)
 .note          0x00000730       0x14 /x86/lib/libc.a(fputc.o)
 .note          0x00000744       0x14 /x86/lib/libc.a(fputs.o)
 .note          0x00000758       0x14 /x86/lib/libc.a(fseek.o)
 .note          0x0000076c       0x14 /x86/lib/libc.a(fsetpos.o)
 .note          0x00000780       0x14 /x86/lib/libc.a(funlockfile.o)
 .note          0x00000794       0x14 /x86/lib/libc.a(fwrite.o)
 .note          0x000007a8       0x14 /x86/lib/libc.a(setvbuf.o)
 .note          0x000007bc       0x14 /x86/lib/libc.a(sprintf.o)
 .note          0x000007d0       0x14 /x86/lib/libc.a(strerror.o)
 .note          0x000007e4       0x14 /x86/lib/libc.a(ungetc.o)
 .note          0x000007f8       0x14 /x86/lib/libc.a(vsnprintf.o)
 .note          0x0000080c       0x14 /x86/lib/libc.a(vsprintf.o)
 .note          0x00000820       0x14 /x86/lib/libc.a(xfgpos.o)
 .note          0x00000834       0x14 /x86/lib/libc.a(xfiles.o)
 .note          0x00000848       0x14 /x86/lib/libc.a(xfrprep.o)
 .note          0x0000085c       0x14 /x86/lib/libc.a(xfspos.o)
 .note          0x00000870       0x14 /x86/lib/libc.a(xfwprep.o)
 .note          0x00000884       0x14 /x86/lib/libc.a(xprintf.o)
 .note          0x00000898       0x14 /x86/lib/libc.a(xputfld.o)
 .note          0x000008ac       0x14 /x86/lib/libc.a(xputstr.o)
 .note          0x000008c0       0x14 /x86/lib/libc.a(xputtxt.o)
 .note          0x000008d4       0x14 /x86/lib/libc.a(xsnprout.o)
 .note          0x000008e8       0x14 /x86/lib/libc.a(xsprout.o)
 .note          0x000008fc       0x14 /x86/lib/libc.a(atoi.o)
 .note          0x00000910       0x14 /x86/lib/libc.a(itoa.o)
 .note          0x00000924       0x14 /x86/lib/libc.a(ltoa.o)
 .note          0x00000938       0x14 /x86/lib/libc.a(memchr.o)
 .note          0x0000094c       0x14 /x86/lib/libc.a(memcmp.o)
 .note          0x00000960       0x14 /x86/lib/libc.a(memcpy.o)
 .note          0x00000974       0x14 /x86/lib/libc.a(memmove.o)
 .note          0x00000988       0x14 /x86/lib/libc.a(memset.o)
 .note          0x0000099c       0x14 /x86/lib/libc.a(strcat.o)
 .note          0x000009b0       0x14 /x86/lib/libc.a(strchr.o)
 .note          0x000009c4       0x14 /x86/lib/libc.a(strcmp.o)
 .note          0x000009d8       0x14 /x86/lib/libc.a(strcoll.o)
 .note          0x000009ec       0x14 /x86/lib/libc.a(strcpy.o)
 .note          0x00000a00       0x14 /x86/lib/libc.a(strcspn.o)
 .note          0x00000a14       0x14 /x86/lib/libc.a(strdup.o)
 .note          0x00000a28       0x14 /x86/lib/libc.a(strlen.o)
 .note          0x00000a3c       0x14 /x86/lib/libc.a(strncmp.o)
 .note          0x00000a50       0x14 /x86/lib/libc.a(strrchr.o)
 .note          0x00000a64       0x14 /x86/lib/libc.a(strspn.o)
 .note          0x00000a78       0x14 /x86/lib/libc.a(strtol.o)
 .note          0x00000a8c       0x14 /x86/lib/libc.a(strtoll.o)
 .note          0x00000aa0       0x14 /x86/lib/libc.a(strtoul.o)
 .note          0x00000ab4       0x14 /x86/lib/libc.a(strtoull.o)
 .note          0x00000ac8       0x14 /x86/lib/libc.a(strxfrm.o)
 .note          0x00000adc       0x14 /x86/lib/libc.a(ultoa.o)
 .note          0x00000af0       0x14 /x86/lib/libc.a(wcscoll.o)
 .note          0x00000b04       0x14 /x86/lib/libc.a(wcslen.o)
 .note          0x00000b18       0x14 /x86/lib/libc.a(wcsxfrm.o)
 .note          0x00000b2c       0x14 /x86/lib/libc.a(wmemcmp.o)
 .note          0x00000b40       0x14 /x86/lib/libc.a(wmemcpy.o)
 .note          0x00000b54       0x14 /x86/lib/libc.a(wmemmove.o)
 .note          0x00000b68       0x14 /x86/lib/libc.a(wmemset.o)
 .note          0x00000b7c       0x14 /x86/lib/libc.a(xstrxfrm.o)
 .note          0x00000b90       0x14 /x86/lib/libc.a(xwcsxfrm.o)
 .note          0x00000ba4       0x14 /x86/lib/libc.a(__cleanup.o)
 .note          0x00000bb8       0x14 /x86/lib/libc.a(__get_errno_ptr.o)
 .note          0x00000bcc       0x14 /x86/lib/libc.a(__stackavail.o)
 .note          0x00000be0       0x14 /x86/lib/libc.a(__tls.o)
 .note          0x00000bf4       0x14 /x86/lib/libc.a(_init_libc.o)
 .note          0x00000c08       0x14 /x86/lib/libc.a(_math_emu_stub.o)
 .note          0x00000c1c       0x14 /x86/lib/libc.a(_math_emu_callout.o)
 .note          0x00000c30       0x14 /x86/lib/libc.a(asctime.o)
 .note          0x00000c44       0x14 /x86/lib/libc.a(time.o)
 .note          0x00000c58       0x14 /x86/lib/libc.a(xstrftim.o)
 .note          0x00000c6c       0x14 /x86/lib/libc.a(xtzset.o)
 .note          0x00000c80       0x14 /x86/lib/libc.a(sys_err.o)
 .note          0x00000c94       0x14 /x86/lib/libc.a(random.o)
 .note          0x00000ca8       0x14 /x86/lib/libc.a(close.o)
 .note          0x00000cbc       0x14 /x86/lib/libc.a(lseek.o)
 .note          0x00000cd0       0x14 /x86/lib/libc.a(open.o)
 .note          0x00000ce4       0x14 /x86/lib/libc.a(read.o)
 .note          0x00000cf8       0x14 /x86/lib/libc.a(sigaction.o)
 .note          0x00000d0c       0x14 /x86/lib/libc.a(sigdelset.o)
 .note          0x00000d20       0x14 /x86/lib/libc.a(sigfillset.o)
 .note          0x00000d34       0x14 /x86/lib/libc.a(sysconf.o)
 .note          0x00000d48       0x14 /x86/lib/libc.a(waitpid.o)
 .note          0x00000d5c       0x14 /x86/lib/libc.a(write.o)
 .note          0x00000d70       0x14 /x86/lib/libc.a(confstr.o)
 .note          0x00000d84       0x14 /x86/lib/libc.a(__my_thread_exit.o)
 .note          0x00000d98       0x14 /x86/lib/libc.a(pthread_cond_broadcast.o)
 .note          0x00000dac       0x14 /x86/lib/libc.a(pthread_cond_wait.o)
 .note          0x00000dc0       0x14 /x86/lib/libc.a(pthread_exit.o)
 .note          0x00000dd4       0x14 /x86/lib/libc.a(pthread_key_data.o)
 .note          0x00000de8       0x14 /x86/lib/libc.a(pthread_self.o)
 .note          0x00000dfc       0x14 /x86/lib/libc.a(pthread_sigmask.o)
 .note          0x00000e10       0x14 /x86/lib/libc.a(amblksiz.o)
 .note          0x00000e24       0x14 /x86/lib/libc.a(band.o)
 .note          0x00000e38       0x14 /x86/lib/libc.a(compat.o)
 .note          0x00000e4c       0x14 /x86/lib/libc.a(dlist.o)
 .note          0x00000e60       0x14 /x86/lib/libc.a(malloc-config.o)
 .note          0x00000e74       0x14 /x86/lib/libc.a(__exit.o)
 .note          0x00000e88       0x14 /x86/lib/libc.a(_atexit.o)
 .note          0x00000e9c       0x14 /x86/lib/libc.a(_cleanup.o)
 .note          0x00000eb0       0x14 /x86/lib/libc.a(getenv.o)
 .note          0x00000ec4       0x14 /x86/lib/libc.a(xdnorm.o)
 .note          0x00000ed8       0x14 /x86/lib/libc.a(xdtento.o)
 .note          0x00000eec       0x14 /x86/lib/libc.a(xfdscale.o)
 .note          0x00000f00       0x14 /x86/lib/libc.a(xfdtento.o)
 .note          0x00000f14       0x14 /x86/lib/libc.a(xfdunsca.o)
 .note          0x00000f28       0x14 /x86/lib/libc.a(xfreeloc.o)
 .note          0x00000f3c       0x14 /x86/lib/libc.a(xfvalues.o)
 .note          0x00000f50       0x14 /x86/lib/libc.a(xldscale.o)
 .note          0x00000f64       0x14 /x86/lib/libc.a(xldtento.o)
 .note          0x00000f78       0x14 /x86/lib/libc.a(xldunsca.o)
 .note          0x00000f8c       0x14 /x86/lib/libc.a(xloctab.o)
 .note          0x00000fa0       0x14 /x86/lib/libc.a(xlocterm.o)
 .note          0x00000fb4       0x14 /x86/lib/libc.a(xlvalues.o)
 .note          0x00000fc8       0x14 /x86/lib/libc.a(xstoint.o)
 .note          0x00000fdc       0x14 /x86/lib/libc.a(spawn.o)
 .note          0x00000ff0       0x14 /x86/lib/libc.a(sysmgr_confstr_set.o)
 .note          0x00001004       0x14 /x86/lib/libc.a(_fsopen.o)
 .note          0x00001018       0x14 /x86/lib/libc.a(fdopen.o)
 .note          0x0000102c       0x14 /x86/lib/libc.a(fprintf.o)
 .note          0x00001040       0x14 /x86/lib/libc.a(xfbuf.o)
 .note          0x00001054       0x14 /x86/lib/libc.a(xfprout.o)
 .note          0x00001068       0x14 /x86/lib/libc.a(xldtob.o)
 .note          0x0000107c       0x14 /x86/lib/libc.a(xlitob.o)
 .note          0x00001090       0x14 /x86/lib/libc.a(ulltoa.o)
 .note          0x000010a4       0x14 /x86/lib/libc.a(_conf_get.o)
 .note          0x000010b8       0x14 /x86/lib/libc.a(_math_emu_load.o)
 .note          0x000010cc       0x14 /x86/lib/libc.a(_vopen.o)
 .note          0x000010e0       0x14 /x86/lib/libc.a(localtim.o)
 .note          0x000010f4       0x14 /x86/lib/libc.a(xgentime.o)
 .note          0x00001108       0x14 /x86/lib/libc.a(xgetdst.o)
 .note          0x0000111c       0x14 /x86/lib/libc.a(xgetrules.o)
 .note          0x00001130       0x14 /x86/lib/libc.a(xgettime.o)
 .note          0x00001144       0x14 /x86/lib/libc.a(xgetzone.o)
 .note          0x00001158       0x14 /x86/lib/libc.a(xttotm.o)
 .note          0x0000116c       0x14 /x86/lib/libc.a(wait4.o)
 .note          0x00001180       0x14 /x86/lib/libc.a(waitid.o)
 .note          0x00001194       0x14 /x86/lib/libc.a(fork.o)
 .note          0x000011a8       0x14 /x86/lib/libc.a(getpgrp.o)
 .note          0x000011bc       0x14 /x86/lib/libc.a(isatty.o)
 .note          0x000011d0       0x14 /x86/lib/libc.a(core.o)
 .note          0x000011e4       0x14 /x86/lib/libc.a(_findenv.o)
 .note          0x000011f8       0x14 /x86/lib/libc.a(ldiv.o)
 .note          0x0000120c       0x14 /x86/lib/libc.a(xfdnorm.o)
 .note          0x00001220       0x14 /x86/lib/libc.a(xldnorm.o)
 .note          0x00001234       0x14 /x86/lib/libc.a(sopen.o)
 .note          0x00001248       0x14 /x86/lib/libc.a(__fpinit.o)
 .note          0x0000125c       0x14 /x86/lib/libc.a(__parse_oflag.o)
 .note          0x00001270       0x14 /x86/lib/libc.a(xgenld.o)
 .note          0x00001284       0x14 /x86/lib/libc.a(strncpy.o)
 .note          0x00001298       0x14 /x86/lib/libc.a(_connect.o)
 .note          0x000012ac       0x14 /x86/lib/libc.a(_connect_entry.o)
 .note          0x000012c0       0x14 /x86/lib/libc.a(_connect_ctrl.o)
 .note          0x000012d4       0x14 /x86/lib/libc.a(_devctl.o)
 .note          0x000012e8       0x14 /x86/lib/libc.a(xisdst.o)
 .note          0x000012fc       0x14 /x86/lib/libc.a(mmap.o)
 .note          0x00001310       0x14 /x86/lib/libc.a(munmap.o)
 .note          0x00001324       0x14 /x86/lib/libc.a(div.o)
 .note          0x00001338       0x14 /x86/lib/libc.a(procmgr_session.o)
 .note          0x0000134c       0x14 /x86/lib/libc.a(__fpbufinit.o)
 .note          0x00001360       0x14 /usr/lib/gcc-lib/ntox86/2.95.3/exceptions/libgcc.a(_divdi3.o)
 .note          0x00001374       0x14 /usr/lib/gcc-lib/ntox86/2.95.3/exceptions/libgcc.a(_moddi3.o)
 .note          0x00001388       0x14 /usr/lib/gcc-lib/ntox86/2.95.3/exceptions/libgcc.a(_umoddi3.o)
 .note          0x0000139c       0x14 /usr/lib/gcc-lib/ntox86/2.95.3/crtendC++.o
