Archive member included       because of file (symbol)

/x86/lib/libcpp.a(delaop.o)   manager_of_data_storage.o (__builtin_vec_delete)
/x86/lib/libcpp.a(delop.o)    objects_storage_logger.o (__builtin_delete)
/x86/lib/libcpp.a(delop3.o)   manager_of_data_storage.o (operator delete(void *, void *))
/x86/lib/libcpp.a(exceptio.o)
                              objects_storage_logger.o (std::terminate(void))
/x86/lib/libcpp.a(gccex.o)    manager_of_data_storage.o (std::exception::exception(void))
/x86/lib/libcpp.a(ios.o)      manager_of_data_storage.o (std::_BADOFF)
/x86/lib/libcpp.a(iostream.o)
                              manager_of_data_storage.o (std::ios_base::Init::Init(void))
/x86/lib/libcpp.a(locale.o)   main.o (std::ctype<char>::id)
/x86/lib/libcpp.a(locale0.o)  /x86/lib/libcpp.a(locale.o) (std::locale::_Locimp::_Clocptr)
/x86/lib/libcpp.a(newaop.o)   manager_of_data_storage.o (__builtin_vec_new)
/x86/lib/libcpp.a(newop.o)    objects_storage_logger.o (__builtin_new)
/x86/lib/libcpp.a(nomemory.o)
                              manager_of_data_storage.o (std::_Nomemory(void))
/x86/lib/libcpp.a(raisehan.o)
                              /x86/lib/libcpp.a(gccex.o) (std::_Raise_handler)
/x86/lib/libcpp.a(string.o)   objects_storage_logger.o (std::_String_base::_Xlen(void) const)
/x86/lib/libcpp.a(uncaught.o)
                              manager_of_data_storage.o (std::uncaught_exception(void))
/x86/lib/libcpp.a(wlocale.o)  /x86/lib/libcpp.a(locale.o) (std::locale::_Locimp::_Makewloc(std::_Locinfo const &, int, std::locale::_Locimp *, std::locale const *))
/x86/lib/libcpp.a(xlocale.o)  /x86/lib/libcpp.a(locale.o) (std::locale::_Locimp::_Makexloc(std::_Locinfo const &, int, std::locale::_Locimp *, std::locale const *))
/x86/lib/libcpp.a(xlock.o)    objects_storage_logger.o (std::_Lockit::_Lockit(int))
/x86/lib/libcpp.a(xmtx.o)     /x86/lib/libcpp.a(xlock.o) (_Mtxinit)
/x86/lib/libcpp.a(xmutex.o)   manager_of_data_storage.o (std::_Mutex::_Mutex(void))
/x86/lib/libcpp.a(new.o)      /x86/lib/libcpp.a(newop.o) (std::_New_hand)
/usr/lib/gcc-lib/ntox86/2.95.3/exceptions/libgcc.a(_eh.o)
                              manager_of_data_storage.o (__eh_rtime_match)
/usr/lib/gcc-lib/ntox86/2.95.3/exceptions/libgcc.a(_pure.o)
                              pri_data_manager.o (__pure_virtual)
/usr/lib/gcc-lib/ntox86/2.95.3/exceptions/libgcc.a(exception.o)
                              objects_storage_logger.o (__start_cp_handler)
/usr/lib/gcc-lib/ntox86/2.95.3/exceptions/libgcc.a(frame.o)
                              /usr/lib/gcc-lib/ntox86/2.95.3/exceptions/libgcc.a(_eh.o) (__frame_state_for)
/usr/lib/gcc-lib/ntox86/2.95.3/exceptions/libgcc.a(tinfo.o)
                              manager_of_data_storage.o (__rtti_class)
/usr/lib/gcc-lib/ntox86/2.95.3/exceptions/libgcc.a(tinfo2.o)
                              /usr/lib/gcc-lib/ntox86/2.95.3/exceptions/libgcc.a(exception.o) (__throw_type_match_rtti)
/x86/lib/libc.a(getopt.o)     main.o (getopt)
/x86/lib/libc.a(pthread_mutex_lock.o)
                              /x86/lib/libcpp.a(xlock.o) (pthread_mutex_lock)
/x86/lib/libc.a(pthread_mutex_init.o)
                              /x86/lib/libcpp.a(xmtx.o) (pthread_mutex_init)
/x86/lib/libc.a(pthread_mutex_destroy.o)
                              /x86/lib/libcpp.a(xlock.o) (pthread_mutex_destroy)
/x86/lib/libc.a(pthread_mutex_unlock.o)
                              /x86/lib/libcpp.a(xlock.o) (pthread_mutex_unlock)
/x86/lib/libc.a(pthread_mutexattr_destroy.o)
                              /x86/lib/libcpp.a(xmtx.o) (pthread_mutexattr_destroy)
/x86/lib/libc.a(pthread_mutexattr_init.o)
                              /x86/lib/libcpp.a(xmtx.o) (pthread_mutexattr_init)
/x86/lib/libc.a(pthread_mutexattr_settype.o)
                              /x86/lib/libcpp.a(xmtx.o) (pthread_mutexattr_settype)
/x86/lib/libc.a(pthread_once.o)
                              /x86/lib/libcpp.a(xlock.o) (pthread_once)
/x86/lib/libc.a(malloc.o)     main.o (free)
/x86/lib/libc.a(util.o)       /x86/lib/libc.a(malloc.o) (malloc_abort)
/x86/lib/libc.a(_exit.o)      /x86/lib/libc.a(util.o) (_exit)
/x86/lib/libc.a(abort.o)      /x86/lib/libcpp.a(exceptio.o) (abort)
/x86/lib/libc.a(atexit.o)     /x86/lib/crt1.o (atexit)
/x86/lib/libc.a(exit.o)       /x86/lib/crt1.o (exit)
/x86/lib/libc.a(localeco.o)   manager_of_data_storage.o (_Locale)
/x86/lib/libc.a(mbrtowc.o)    /x86/lib/libcpp.a(wlocale.o) (mbrtowc)
/x86/lib/libc.a(raise.o)      /x86/lib/libc.a(abort.o) (raise)
/x86/lib/libc.a(setlocal.o)   /x86/lib/libcpp.a(locale.o) (setlocale)
/x86/lib/libc.a(wcrtomb.o)    /x86/lib/libcpp.a(wlocale.o) (wcrtomb)
/x86/lib/libc.a(xbtowc.o)     /x86/lib/libcpp.a(wlocale.o) (_Btowc)
/x86/lib/libc.a(xctype.o)     main.o (_Ctype)
/x86/lib/libc.a(xdefloc.o)    /x86/lib/libc.a(setlocal.o) (_Defloc)
/x86/lib/libc.a(xgetloc.o)    /x86/lib/libc.a(setlocal.o) (_Getloc)
/x86/lib/libc.a(xmakeloc.o)   /x86/lib/libc.a(xgetloc.o) (_Makeloc)
/x86/lib/libc.a(xmakesta.o)   /x86/lib/libc.a(xmakeloc.o) (_Makestab)
/x86/lib/libc.a(xmakewct.o)   /x86/lib/libc.a(xmakeloc.o) (_Makewct)
/x86/lib/libc.a(xmbtowc.o)    /x86/lib/libc.a(mbrtowc.o) (_Mbtowc)
/x86/lib/libc.a(xreadloc.o)   /x86/lib/libc.a(xgetloc.o) (_Readloc)
/x86/lib/libc.a(xsetloc.o)    /x86/lib/libc.a(setlocal.o) (_Setloc)
/x86/lib/libc.a(xstate.o)     /x86/lib/libcpp.a(wlocale.o) (_Mbcurmax)
/x86/lib/libc.a(xstod.o)      /x86/lib/libcpp.a(locale.o) (_Stod)
/x86/lib/libc.a(xstof.o)      /x86/lib/libcpp.a(locale.o) (_Stof)
/x86/lib/libc.a(xstoflt.o)    /x86/lib/libc.a(xstod.o) (_Stoflt)
/x86/lib/libc.a(xstold.o)     /x86/lib/libcpp.a(locale.o) (_Stold)
/x86/lib/libc.a(xstopfx.o)    /x86/lib/libc.a(xstod.o) (_Stopfx)
/x86/lib/libc.a(xstoxflt.o)   /x86/lib/libc.a(xstod.o) (_Stoxflt)
/x86/lib/libc.a(xtolotab.o)   main.o (_Tolotab)
/x86/lib/libc.a(xtouptab.o)   main.o (_Touptab)
/x86/lib/libc.a(xvalues.o)    /x86/lib/libc.a(xstod.o) (_Inf)
/x86/lib/libc.a(xwctomb.o)    /x86/lib/libc.a(wcrtomb.o) (_Wctomb)
/x86/lib/libc.a(xwctrtab.o)   /x86/lib/libc.a(setlocal.o) (_Wctrans)
/x86/lib/libc.a(xwctytab.o)   /x86/lib/libc.a(setlocal.o) (_Wctype)
/x86/lib/libc.a(ConnectAttach.o)
                              manager_of_data_storage.o (ConnectAttach)
/x86/lib/libc.a(MsgSend.o)    manager_of_data_storage.o (MsgSend)
/x86/lib/libc.a(SignalKill.o)
                              /x86/lib/libc.a(raise.o) (SignalKill)
/x86/lib/libc.a(SyncDestroy_r.o)
                              /x86/lib/libc.a(pthread_mutex_destroy.o) (SyncDestroy_r)
/x86/lib/libc.a(SyncMutexUnlock_r.o)
                              /x86/lib/libc.a(pthread_mutex_unlock.o) (SyncMutexUnlock_r)
/x86/lib/libc.a(SyncMutexLock_r.o)
                              /x86/lib/libc.a(pthread_mutex_lock.o) (SyncMutexLock_r)
/x86/lib/libc.a(SyncTypeCreate_r.o)
                              /x86/lib/libc.a(pthread_mutex_init.o) (SyncTypeCreate_r)
/x86/lib/libc.a(__ker_err.o)  /x86/lib/libc.a(ConnectAttach.o) (__ker_err)
/x86/lib/libc.a(gettid.o)     /x86/lib/libc.a(raise.o) (gettid)
/x86/lib/libc.a(slog.o)       objects_storage_logger.o (vslogf)
/x86/lib/libc.a(fclose.o)     /x86/lib/libcpp.a(iostream.o) (fclose)
/x86/lib/libc.a(fflush.o)     /x86/lib/libcpp.a(iostream.o) (fflush)
/x86/lib/libc.a(fgetc.o)      /x86/lib/libcpp.a(iostream.o) (fgetc)
/x86/lib/libc.a(fgetpos.o)    /x86/lib/libcpp.a(iostream.o) (fgetpos)
/x86/lib/libc.a(fgets.o)      /x86/lib/libc.a(xreadloc.o) (fgets)
/x86/lib/libc.a(fileno.o)     /x86/lib/libc.a(fclose.o) (fileno)
/x86/lib/libc.a(flockfile.o)  /x86/lib/libc.a(fclose.o) (_stdio_mutex)
/x86/lib/libc.a(fopen.o)      /x86/lib/libc.a(xgetloc.o) (fopen)
/x86/lib/libc.a(fputc.o)      /x86/lib/libcpp.a(iostream.o) (fputc)
/x86/lib/libc.a(fputs.o)      /x86/lib/libc.a(xgetloc.o) (fputs)
/x86/lib/libc.a(fseek.o)      /x86/lib/libcpp.a(iostream.o) (fseek)
/x86/lib/libc.a(fsetpos.o)    /x86/lib/libcpp.a(iostream.o) (fsetpos)
/x86/lib/libc.a(funlockfile.o)
                              /x86/lib/libc.a(fclose.o) (funlockfile)
/x86/lib/libc.a(fwrite.o)     /x86/lib/libcpp.a(iostream.o) (fwrite)
/x86/lib/libc.a(setvbuf.o)    /x86/lib/libcpp.a(iostream.o) (setvbuf)
/x86/lib/libc.a(sprintf.o)    manager_of_data_storage.o (sprintf)
/x86/lib/libc.a(sscanf.o)     main.o (sscanf)
/x86/lib/libc.a(strerror.o)   manager_of_data_storage.o (strerror)
/x86/lib/libc.a(ungetc.o)     /x86/lib/libcpp.a(iostream.o) (ungetc)
/x86/lib/libc.a(vsnprintf.o)  /x86/lib/libc.a(slog.o) (vsnprintf)
/x86/lib/libc.a(vsprintf.o)   /x86/lib/libc.a(util.o) (vsprintf)
/x86/lib/libc.a(xfgpos.o)     /x86/lib/libc.a(fgetpos.o) (_Fgpos)
/x86/lib/libc.a(xfiles.o)     /x86/lib/libcpp.a(iostream.o) (_Stdin)
/x86/lib/libc.a(xfrprep.o)    /x86/lib/libc.a(fgetc.o) (_Frprep)
/x86/lib/libc.a(xfspos.o)     /x86/lib/libc.a(fseek.o) (_Fspos)
/x86/lib/libc.a(xfwprep.o)    /x86/lib/libc.a(fputc.o) (_Fwprep)
/x86/lib/libc.a(xprintf.o)    /x86/lib/libc.a(sprintf.o) (_Printf)
/x86/lib/libc.a(xputfld.o)    /x86/lib/libc.a(xprintf.o) (_Putfld)
/x86/lib/libc.a(xputstr.o)    /x86/lib/libc.a(xputfld.o) (_Putstr)
/x86/lib/libc.a(xputtxt.o)    /x86/lib/libc.a(xprintf.o) (_Puttxt)
/x86/lib/libc.a(xscanf.o)     /x86/lib/libc.a(sscanf.o) (_Scanf)
/x86/lib/libc.a(xsnprout.o)   /x86/lib/libc.a(vsnprintf.o) (_Snprout)
/x86/lib/libc.a(xsprout.o)    /x86/lib/libc.a(sprintf.o) (_Sprout)
/x86/lib/libc.a(memchr.o)     manager_of_data_storage.o (memchr)
/x86/lib/libc.a(memcmp.o)     /x86/lib/libcpp.a(locale.o) (memcmp)
/x86/lib/libc.a(memcpy.o)     objects_storage_logger.o (memcpy)
/x86/lib/libc.a(memmove.o)    objects_storage_logger.o (memmove)
/x86/lib/libc.a(memset.o)     /x86/lib/libcpp.a(iostream.o) (memset)
/x86/lib/libc.a(strcat.o)     /x86/lib/libc.a(xdefloc.o) (strcat)
/x86/lib/libc.a(strchr.o)     /x86/lib/libc.a(xmakeloc.o) (strchr)
/x86/lib/libc.a(strcmp.o)     /usr/lib/gcc-lib/ntox86/2.95.3/exceptions/libgcc.a(_eh.o) (strcmp)
/x86/lib/libc.a(strcoll.o)    /x86/lib/libcpp.a(xlocale.o) (strcoll)
/x86/lib/libc.a(strcpy.o)     /x86/lib/libc.a(getopt.o) (strcpy)
/x86/lib/libc.a(strcspn.o)    manager_of_data_storage.o (strcspn)
/x86/lib/libc.a(strdup.o)     /x86/lib/libc.a(xdefloc.o) (strdup)
/x86/lib/libc.a(strlen.o)     objects_storage_logger.o (strlen)
/x86/lib/libc.a(strncmp.o)    /x86/lib/libc.a(xreadloc.o) (strncmp)
/x86/lib/libc.a(strrchr.o)    /x86/lib/libc.a(xmakeloc.o) (strrchr)
/x86/lib/libc.a(strspn.o)     /x86/lib/libc.a(xgetloc.o) (strspn)
/x86/lib/libc.a(strtol.o)     /x86/lib/libcpp.a(locale.o) (strtol)
/x86/lib/libc.a(strtoll.o)    /x86/lib/libcpp.a(locale.o) (strtoll)
/x86/lib/libc.a(strtoul.o)    /x86/lib/libcpp.a(locale.o) (strtoul)
/x86/lib/libc.a(strtoull.o)   /x86/lib/libcpp.a(locale.o) (strtoull)
/x86/lib/libc.a(strxfrm.o)    /x86/lib/libcpp.a(xlocale.o) (strxfrm)
/x86/lib/libc.a(wcscoll.o)    /x86/lib/libcpp.a(wlocale.o) (wcscoll)
/x86/lib/libc.a(wcslen.o)     /x86/lib/libcpp.a(wlocale.o) (wcslen)
/x86/lib/libc.a(wcsxfrm.o)    /x86/lib/libcpp.a(wlocale.o) (wcsxfrm)
/x86/lib/libc.a(wmemcmp.o)    /x86/lib/libc.a(wcscoll.o) (wmemcmp)
/x86/lib/libc.a(wmemcpy.o)    objects_storage_logger.o (wmemcpy)
/x86/lib/libc.a(wmemmove.o)   objects_storage_logger.o (wmemmove)
/x86/lib/libc.a(wmemset.o)    /x86/lib/libcpp.a(wlocale.o) (wmemset)
/x86/lib/libc.a(xstrxfrm.o)   /x86/lib/libc.a(strcoll.o) (_CStrxfrm)
/x86/lib/libc.a(xwcsxfrm.o)   /x86/lib/libc.a(wcscoll.o) (_CWcsxfrm)
/x86/lib/libc.a(__cleanup.o)  /x86/lib/libc.a(fclose.o) (__cleanup_push)
/x86/lib/libc.a(__get_errno_ptr.o)
                              manager_of_data_storage.o (__get_errno_ptr)
/x86/lib/libc.a(__stackavail.o)
                              /x86/lib/libc.a(getopt.o) (__stackavail)
/x86/lib/libc.a(__tls.o)      /x86/lib/libc.a(pthread_once.o) (__tls)
/x86/lib/libc.a(_init_libc.o)
                              /x86/lib/crt1.o (_init_libc)
/x86/lib/libc.a(_math_emu_stub.o)
                              /x86/lib/libc.a(_init_libc.o) (_math_emu_stub)
/x86/lib/libc.a(_math_emu_callout.o)
                              /x86/lib/libc.a(_math_emu_stub.o) (_emulator_callout)
/x86/lib/libc.a(asctime.o)    /x86/lib/libcpp.a(locale.o) (_Times)
/x86/lib/libc.a(time.o)       mock_database_wrapper.o (time)
/x86/lib/libc.a(xstrftim.o)   /x86/lib/libcpp.a(wlocale.o) (_CStrftime)
/x86/lib/libc.a(xtzset.o)     /x86/lib/libc.a(xstrftim.o) (_Tzset)
/x86/lib/libc.a(sys_err.o)    /x86/lib/libc.a(strerror.o) (sys_errlist)
/x86/lib/libc.a(random.o)     mock_database_wrapper.o (random)
/x86/lib/libc.a(close.o)      /x86/lib/libc.a(fclose.o) (close)
/x86/lib/libc.a(getpid.o)     /x86/lib/libc.a(raise.o) (getpid)
/x86/lib/libc.a(lseek.o)      /x86/lib/libc.a(xfgpos.o) (lseek64)
/x86/lib/libc.a(open.o)       /x86/lib/libc.a(slog.o) (open)
/x86/lib/libc.a(read.o)       /x86/lib/libc.a(xfrprep.o) (read)
/x86/lib/libc.a(sigaction.o)  /x86/lib/libc.a(abort.o) (sigaction)
/x86/lib/libc.a(sigdelset.o)  /x86/lib/libc.a(abort.o) (sigdelset)
/x86/lib/libc.a(sigfillset.o)
                              /x86/lib/libc.a(abort.o) (sigfillset)
/x86/lib/libc.a(sigstub.o)    /x86/lib/libc.a(sigaction.o) (__signalstub)
/x86/lib/libc.a(sysconf.o)    /x86/lib/libc.a(malloc.o) (sysconf)
/x86/lib/libc.a(write.o)      /x86/lib/libc.a(getopt.o) (write)
/x86/lib/libc.a(basename.o)   /x86/lib/libc.a(getopt.o) (basename)
/x86/lib/libc.a(confstr.o)    /x86/lib/libc.a(xdefloc.o) (confstr)
/x86/lib/libc.a(__my_thread_exit.o)
                              /x86/lib/libc.a(_init_libc.o) (__my_thread_exit)
/x86/lib/libc.a(pthread_cond_broadcast.o)
                              /x86/lib/libc.a(funlockfile.o) (pthread_cond_broadcast)
/x86/lib/libc.a(pthread_cond_wait.o)
                              /x86/lib/libc.a(flockfile.o) (pthread_cond_wait)
/x86/lib/libc.a(pthread_exit.o)
                              /x86/lib/libc.a(__my_thread_exit.o) (pthread_exit)
/x86/lib/libc.a(pthread_key_data.o)
                              /x86/lib/libc.a(pthread_exit.o) (_key_count)
/x86/lib/libc.a(pthread_self.o)
                              /x86/lib/libc.a(flockfile.o) (pthread_self)
/x86/lib/libc.a(pthread_sigmask.o)
                              /x86/lib/libc.a(abort.o) (pthread_sigmask)
/x86/lib/libc.a(amblksiz.o)   /x86/lib/libc.a(malloc.o) (_amblksiz)
/x86/lib/libc.a(band.o)       /x86/lib/libc.a(malloc.o) (_band_get_aligned)
/x86/lib/libc.a(compat.o)     /x86/lib/libc.a(malloc.o) (mprobe)
/x86/lib/libc.a(dlist.o)      /x86/lib/libc.a(util.o) (_malloc_check_fd)
/x86/lib/libc.a(malloc-config.o)
                              /x86/lib/libc.a(malloc.o) (__Bands)
/x86/lib/libc.a(__exit.o)     /x86/lib/libc.a(_exit.o) (__exit)
/x86/lib/libc.a(_atexit.o)    /x86/lib/libc.a(atexit.o) (_atexit_list)
/x86/lib/libc.a(_cleanup.o)   /x86/lib/libc.a(exit.o) (_cleanup)
/x86/lib/libc.a(getenv.o)     /x86/lib/libc.a(xdefloc.o) (getenv)
/x86/lib/libc.a(xdscale.o)    /x86/lib/libc.a(xstod.o) (_Dscale)
/x86/lib/libc.a(xdtento.o)    /x86/lib/libc.a(xstod.o) (_Dtento)
/x86/lib/libc.a(xdunscal.o)   /x86/lib/libc.a(xdtento.o) (_Dunscale)
/x86/lib/libc.a(xfdscale.o)   /x86/lib/libc.a(xstof.o) (_FDscale)
/x86/lib/libc.a(xfdtento.o)   /x86/lib/libc.a(xstof.o) (_FDtento)
/x86/lib/libc.a(xfdunsca.o)   /x86/lib/libc.a(xfdtento.o) (_FDunscale)
/x86/lib/libc.a(xferaise.o)   /x86/lib/libc.a(xdtento.o) (_Feraise)
/x86/lib/libc.a(xfreeloc.o)   /x86/lib/libc.a(xgetloc.o) (_Freeloc)
/x86/lib/libc.a(xfvalues.o)   /x86/lib/libc.a(xstof.o) (_FInf)
/x86/lib/libc.a(xldscale.o)   /x86/lib/libc.a(xstold.o) (_LDscale)
/x86/lib/libc.a(xldtento.o)   /x86/lib/libc.a(xstold.o) (_LDtento)
/x86/lib/libc.a(xldunsca.o)   /x86/lib/libc.a(xldtento.o) (_LDunscale)
/x86/lib/libc.a(xloctab.o)    /x86/lib/libc.a(xreadloc.o) (_Loctab)
/x86/lib/libc.a(xlocterm.o)   /x86/lib/libc.a(xmakeloc.o) (_Locvar)
/x86/lib/libc.a(xlvalues.o)   /x86/lib/libc.a(xstold.o) (_LInf)
/x86/lib/libc.a(xstoint.o)    /x86/lib/libc.a(strtol.o) (_Stoint)
/x86/lib/libc.a(xwctob.o)     /x86/lib/libc.a(xscanf.o) (_Wctob)
/x86/lib/libc.a(ClockTime_r.o)
                              /x86/lib/libc.a(time.o) (ClockTime_r)
/x86/lib/libc.a(ConnectDetach_r.o)
                              /x86/lib/libc.a(close.o) (ConnectDetach_r)
/x86/lib/libc.a(MsgSendnc_r.o)
                              /x86/lib/libc.a(sysconf.o) (MsgSendnc_r)
/x86/lib/libc.a(MsgSendv.o)   /x86/lib/libc.a(slog.o) (MsgSendv)
/x86/lib/libc.a(MsgSendvnc_r.o)
                              /x86/lib/libc.a(confstr.o) (MsgSendvnc_r)
/x86/lib/libc.a(SignalAction.o)
                              /x86/lib/libc.a(sigaction.o) (SignalAction)
/x86/lib/libc.a(SignalProcmask_r.o)
                              /x86/lib/libc.a(pthread_sigmask.o) (SignalProcmask_r)
/x86/lib/libc.a(SyncCondvarSignal_r.o)
                              /x86/lib/libc.a(pthread_cond_broadcast.o) (SyncCondvarSignal_r)
/x86/lib/libc.a(SyncCondvarWait_r.o)
                              /x86/lib/libc.a(pthread_cond_wait.o) (SyncCondvarWait_r)
/x86/lib/libc.a(ThreadDestroy.o)
                              /x86/lib/libc.a(__exit.o) (ThreadDestroy)
/x86/lib/libc.a(ThreadDestroy_r.o)
                              /x86/lib/libc.a(pthread_exit.o) (ThreadDestroy_r)
/x86/lib/libc.a(__SysCpupageGet.o)
                              /x86/lib/libc.a(_init_libc.o) (__SysCpupageGet)
/x86/lib/libc.a(__SysCpupageSet.o)
                              /x86/lib/libc.a(_init_libc.o) (__SysCpupageSet)
/x86/lib/libc.a(sysmgr_confstr_set.o)
                              /x86/lib/libc.a(confstr.o) (sysmgr_confstr_set)
/x86/lib/libc.a(_fsopen.o)    /x86/lib/libc.a(fopen.o) (_fsopen)
/x86/lib/libc.a(fdopen.o)     /x86/lib/libc.a(_fsopen.o) (fdopen)
/x86/lib/libc.a(fprintf.o)    /x86/lib/libc.a(random.o) (fprintf)
/x86/lib/libc.a(xfbuf.o)      /x86/lib/libc.a(xfrprep.o) (_Fbuf)
/x86/lib/libc.a(xfprout.o)    /x86/lib/libc.a(fprintf.o) (_Fprout)
/x86/lib/libc.a(xgetfld.o)    /x86/lib/libc.a(xscanf.o) (_Getfld)
/x86/lib/libc.a(xgetfloa.o)   /x86/lib/libc.a(xgetfld.o) (_Getfloat)
/x86/lib/libc.a(xgetint.o)    /x86/lib/libc.a(xgetfld.o) (_Getint)
/x86/lib/libc.a(xgetstr.o)    /x86/lib/libc.a(xgetfld.o) (_Getstr)
/x86/lib/libc.a(xldtob.o)     /x86/lib/libc.a(xputfld.o) (_Ldtob)
/x86/lib/libc.a(xlitob.o)     /x86/lib/libc.a(xputfld.o) (_Litob)
/x86/lib/libc.a(_conf_get.o)  /x86/lib/libc.a(sysconf.o) (_conf_get)
/x86/lib/libc.a(_math_emu_load.o)
                              /x86/lib/libc.a(_math_emu_callout.o) (_math_emulator)
/x86/lib/libc.a(_vopen.o)     /x86/lib/libc.a(open.o) (_vopen)
/x86/lib/libc.a(localtim.o)   /x86/lib/libc.a(xtzset.o) (_Tzoff)
/x86/lib/libc.a(xgentime.o)   /x86/lib/libc.a(xstrftim.o) (_Gentime)
/x86/lib/libc.a(xgetdst.o)    /x86/lib/libc.a(xtzset.o) (__getsecs)
/x86/lib/libc.a(xgetrules.o)  /x86/lib/libc.a(xtzset.o) (_Getrules)
/x86/lib/libc.a(xgettime.o)   /x86/lib/libc.a(xtzset.o) (_Gettime)
/x86/lib/libc.a(xgetzone.o)   /x86/lib/libc.a(localtim.o) (_Getzone)
/x86/lib/libc.a(xttotm.o)     /x86/lib/libc.a(localtim.o) (_Ttotm)
/x86/lib/libc.a(fork.o)       /x86/lib/libc.a(getenv.o) (pthread_atfork_mutex)
/x86/lib/libc.a(isatty.o)     /x86/lib/libc.a(xfbuf.o) (isatty)
/x86/lib/libc.a(core.o)       /x86/lib/libc.a(dlist.o) (morecore)
/x86/lib/libc.a(_findenv.o)   /x86/lib/libc.a(getenv.o) (_findenv)
/x86/lib/libc.a(ldiv.o)       /x86/lib/libc.a(xldtob.o) (ldiv)
/x86/lib/libc.a(xdnorm.o)     /x86/lib/libc.a(xdscale.o) (_Dnorm)
/x86/lib/libc.a(xfdnorm.o)    /x86/lib/libc.a(xfdscale.o) (_FDnorm)
/x86/lib/libc.a(xldnorm.o)    /x86/lib/libc.a(xldscale.o) (_LDnorm)
/x86/lib/libc.a(MsgSendnc.o)  /x86/lib/libc.a(fork.o) (MsgSendnc)
/x86/lib/libc.a(MsgSendvnc.o)
                              /x86/lib/libc.a(sysmgr_confstr_set.o) (MsgSendvnc)
/x86/lib/libc.a(sopen.o)      /x86/lib/libc.a(_fsopen.o) (sopen)
/x86/lib/libc.a(__fpinit.o)   /x86/lib/libc.a(fdopen.o) (__fpinit)
/x86/lib/libc.a(__parse_oflag.o)
                              /x86/lib/libc.a(_fsopen.o) (__parse_oflag)
/x86/lib/libc.a(xgenld.o)     /x86/lib/libc.a(xldtob.o) (_Genld)
/x86/lib/libc.a(strncpy.o)    /x86/lib/libc.a(_conf_get.o) (strncpy)
/x86/lib/libc.a(_connect.o)   /x86/lib/libc.a(_vopen.o) (_connect)
/x86/lib/libc.a(_connect_entry.o)
                              /x86/lib/libc.a(_connect.o) (_connect_entry)
/x86/lib/libc.a(_connect_ctrl.o)
                              /x86/lib/libc.a(_connect_entry.o) (_connect_ctrl)
/x86/lib/libc.a(_devctl.o)    /x86/lib/libc.a(isatty.o) (_devctl)
/x86/lib/libc.a(xisdst.o)     /x86/lib/libc.a(xttotm.o) (_Isdst)
/x86/lib/libc.a(mmap.o)       /x86/lib/libc.a(core.o) (mmap)
/x86/lib/libc.a(munmap.o)     /x86/lib/libc.a(core.o) (munmap)
/x86/lib/libc.a(div.o)        /x86/lib/libc.a(xgenld.o) (div)
/x86/lib/libc.a(ConnectFlags_r.o)
                              /x86/lib/libc.a(_connect_ctrl.o) (ConnectFlags_r)
/x86/lib/libc.a(procmgr_session.o)
                              /x86/lib/libc.a(_connect_ctrl.o) (procmgr_session)
/x86/lib/libc.a(__fpbufinit.o)
                              /x86/lib/libc.a(__fpinit.o) (__fpbufinit)
/usr/lib/gcc-lib/ntox86/2.95.3/exceptions/libgcc.a(_divdi3.o)
                              /x86/lib/libc.a(xlitob.o) (__divdi3)
/usr/lib/gcc-lib/ntox86/2.95.3/exceptions/libgcc.a(_moddi3.o)
                              /x86/lib/libc.a(xlitob.o) (__moddi3)
/usr/lib/gcc-lib/ntox86/2.95.3/exceptions/libgcc.a(_udivdi3.o)
                              /x86/lib/libc.a(time.o) (__udivdi3)
/usr/lib/gcc-lib/ntox86/2.95.3/exceptions/libgcc.a(_umoddi3.o)
                              /x86/lib/libc.a(xstoint.o) (__umoddi3)

Allocating common symbols
Common symbol       size              file

std::time_get<wchar_t, std::istreambuf_iterator<wchar_t, std::char_traits<wchar_t> > >::id
                    0x4               /x86/lib/libcpp.a(wlocale.o)
_argv               0x4               /x86/lib/libc.a(_init_libc.o)
__sn_Q23stdt10moneypunct2Zcb1.id
                    0x4               /x86/lib/libcpp.a(xlocale.o)
__func_type_info type_info node
                    0xc               /usr/lib/gcc-lib/ntox86/2.95.3/exceptions/libgcc.a(tinfo2.o)
__sn_Q23stdt10moneypunct2Zwb1.id
                    0x4               /x86/lib/libcpp.a(wlocale.o)
pri_data_manager type_info node
                    0xc               pri_data_manager.o
__attr_type_info type_info node
                    0xc               /usr/lib/gcc-lib/ntox86/2.95.3/exceptions/libgcc.a(tinfo2.o)
daylight            0x4               /x86/lib/libc.a(xtzset.o)
std::money_put<char, std::ostreambuf_iterator<char, std::char_traits<char> > > type_info node
                    0xc               /x86/lib/libcpp.a(xlocale.o)
std::basic_istream<char, std::char_traits<char> > type_info node
                    0x10              /x86/lib/libcpp.a(iostream.o)
std::collate<wchar_t>::id
                    0x4               /x86/lib/libcpp.a(wlocale.o)
_sysconf_list       0x4               /x86/lib/libc.a(sysconf.o)
_Wcstate            0x40              /x86/lib/libc.a(xstate.o)
_connect_malloc     0x1               /x86/lib/libc.a(_connect_ctrl.o)
__sn_Q23stdt8time_put2ZcZQ23stdt19ostreambuf_iterator2ZcZQ23stdt11char_traits1Zc.id
                    0x4               /x86/lib/libcpp.a(xlocale.o)
__sn_Q23stdt5ctype1Zw.id
                    0x4               /x86/lib/libcpp.a(wlocale.o)
__sn_Q23stdt8time_get2ZwZQ23stdt19istreambuf_iterator2ZwZQ23stdt11char_traits1Zw.id
                    0x4               /x86/lib/libcpp.a(wlocale.o)
errno               0x4               /x86/lib/libc.a(_init_libc.o)
std::codecvt_base type_info node
                    0xc               /x86/lib/libcpp.a(locale.o)
std::moneypunct<wchar_t, false> type_info node
                    0xc               /x86/lib/libcpp.a(wlocale.o)
bad_typeid type_info node
                    0xc               /usr/lib/gcc-lib/ntox86/2.95.3/exceptions/libgcc.a(tinfo.o)
std::ctype<char> type_info node
                    0xc               main.o
_Mbstate            0x40              /x86/lib/libc.a(xstate.o)
std::locale::_Locimp type_info node
                    0xc               /x86/lib/libcpp.a(locale0.o)
std::money_get<wchar_t, std::istreambuf_iterator<wchar_t, std::char_traits<wchar_t> > >::id
                    0x4               /x86/lib/libcpp.a(wlocale.o)
std::bad_cast type_info node
                    0xc               manager_of_data_storage.o
__sn_Q23stdt8time_put2ZwZQ23stdt19ostreambuf_iterator2ZwZQ23stdt11char_traits1Zw.id
                    0x4               /x86/lib/libcpp.a(wlocale.o)
_syspage_ptr        0x4               /x86/lib/libc.a(_init_libc.o)
std::messages<wchar_t>::id
                    0x4               /x86/lib/libcpp.a(wlocale.o)
_auxv               0x4               /x86/lib/libc.a(_init_libc.o)
std::collate<wchar_t> type_info node
                    0xc               /x86/lib/libcpp.a(wlocale.o)
std::codecvt<wchar_t, char, _Mbstatet> type_info node
                    0xc               /x86/lib/libcpp.a(wlocale.o)
_WCostate           0x40              /x86/lib/libc.a(xstate.o)
__sn_Q23stdt7codecvt3ZcZcZ9_Mbstatet.id
                    0x4               /x86/lib/libcpp.a(locale.o)
optarg              0x4               /x86/lib/libc.a(getopt.o)
std::_Mpunct<char> type_info node
                    0xc               /x86/lib/libcpp.a(xlocale.o)
std::moneypunct<char, false>::id
                    0x4               /x86/lib/libcpp.a(xlocale.o)
bad_cast type_info node
                    0xc               /usr/lib/gcc-lib/ntox86/2.95.3/exceptions/libgcc.a(tinfo.o)
std::locale::facet type_info node
                    0x8               manager_of_data_storage.o
__sn_Q23stdt8time_get2ZcZQ23stdt19istreambuf_iterator2ZcZQ23stdt11char_traits1Zc.id
                    0x4               /x86/lib/libcpp.a(xlocale.o)
std::messages<char>::id
                    0x4               /x86/lib/libcpp.a(xlocale.o)
std::time_get<char, std::istreambuf_iterator<char, std::char_traits<char> > >::id
                    0x4               /x86/lib/libcpp.a(xlocale.o)
std::numpunct<char> type_info node
                    0xc               manager_of_data_storage.o
__sn_Q23stdt7collate1Zw.id
                    0x4               /x86/lib/libcpp.a(wlocale.o)
_malloc_fill_area   0x4               /x86/lib/libc.a(malloc.o)
_pthread_atfork_parent
                    0x4               /x86/lib/libc.a(fork.o)
tzname              0x8               /x86/lib/libc.a(xtzset.o)
std::basic_stringbuf<char, std::char_traits<char>, std::allocator<char> > type_info node
                    0xc               manager_of_data_storage.o
_confstr_list       0x4               /x86/lib/libc.a(confstr.o)
_Multi_threaded     0x4               /x86/lib/libc.a(_init_libc.o)
std::_Iosb<int> type_info node
                    0x8               /x86/lib/libcpp.a(ios.o)
std::exception type_info node
                    0x8               /x86/lib/libcpp.a(gccex.o)
std::numpunct<wchar_t>::id
                    0x4               /x86/lib/libcpp.a(wlocale.o)
std::runtime_error type_info node
                    0xc               /x86/lib/libcpp.a(ios.o)
std::ctype_base type_info node
                    0xc               main.o
std::collate<char>::id
                    0x4               /x86/lib/libcpp.a(xlocale.o)
std::num_get<wchar_t, std::istreambuf_iterator<wchar_t, std::char_traits<wchar_t> > > type_info node
                    0xc               /x86/lib/libcpp.a(wlocale.o)
environ             0x4               /x86/lib/libc.a(_init_libc.o)
_malloc_stats       0x3c              /x86/lib/libc.a(malloc.o)
std::messages_base type_info node
                    0xc               /x86/lib/libcpp.a(wlocale.o)
__ptmf_type_info type_info node
                    0xc               /usr/lib/gcc-lib/ntox86/2.95.3/exceptions/libgcc.a(tinfo2.o)
__sn_Q23stdt7num_get2ZcZQ23stdt19istreambuf_iterator2ZcZQ23stdt11char_traits1Zc.id
                    0x4               /x86/lib/libcpp.a(locale.o)
std::length_error type_info node
                    0xc               manager_of_data_storage.o
std::fpos<_Mbstatet>::_Stz
                    0x8               manager_of_data_storage.o
__sn_Q23stdt8numpunct1Zc.id
                    0x4               manager_of_data_storage.o
std::numpunct<wchar_t> type_info node
                    0xc               /x86/lib/libcpp.a(wlocale.o)
__array_type_info type_info node
                    0xc               /usr/lib/gcc-lib/ntox86/2.95.3/exceptions/libgcc.a(tinfo2.o)
std::money_base type_info node
                    0xc               /x86/lib/libcpp.a(wlocale.o)
type_info type_info node
                    0x8               /usr/lib/gcc-lib/ntox86/2.95.3/exceptions/libgcc.a(tinfo.o)
__sn_Q23stdt10moneypunct2Zcb0.id
                    0x4               /x86/lib/libcpp.a(xlocale.o)
__progname          0x4               /x86/lib/libc.a(_init_libc.o)
timezone            0x4               /x86/lib/libc.a(xtzset.o)
__sn_Q23stdt9money_put2ZwZQ23stdt19ostreambuf_iterator2ZwZQ23stdt11char_traits1Zw.id
                    0x4               /x86/lib/libcpp.a(wlocale.o)
std::numpunct<char>::id
                    0x4               manager_of_data_storage.o
__sn_Q23stdt9money_get2ZwZQ23stdt19istreambuf_iterator2ZwZQ23stdt11char_traits1Zw.id
                    0x4               /x86/lib/libcpp.a(wlocale.o)
__sn_Q23stdt8numpunct1Zw.id
                    0x4               /x86/lib/libcpp.a(wlocale.o)
__sn_Q23stdt7num_put2ZwZQ23stdt19ostreambuf_iterator2ZwZQ23stdt11char_traits1Zw.id
                    0x4               /x86/lib/libcpp.a(wlocale.o)
std::money_get<wchar_t, std::istreambuf_iterator<wchar_t, std::char_traits<wchar_t> > > type_info node
                    0xc               /x86/lib/libcpp.a(wlocale.o)
std::num_get<wchar_t, std::istreambuf_iterator<wchar_t, std::char_traits<wchar_t> > >::id
                    0x4               /x86/lib/libcpp.a(wlocale.o)
__cpu_flags         0x4               /x86/lib/libc.a(_init_libc.o)
std::messages<char> type_info node
                    0xc               /x86/lib/libcpp.a(xlocale.o)
std::time_put<wchar_t, std::ostreambuf_iterator<wchar_t, std::char_traits<wchar_t> > >::id
                    0x4               /x86/lib/libcpp.a(wlocale.o)
std::moneypunct<wchar_t, false>::id
                    0x4               /x86/lib/libcpp.a(wlocale.o)
std::num_get<char, std::istreambuf_iterator<char, std::char_traits<char> > > type_info node
                    0xc               /x86/lib/libcpp.a(locale.o)
_Costate            0x40              /x86/lib/libc.a(xstate.o)
std::ios_base type_info node
                    0xc               /x86/lib/libcpp.a(ios.o)
std::basic_filebuf<char, std::char_traits<char> > type_info node
                    0xc               /x86/lib/libcpp.a(iostream.o)
__pointer_type_info type_info node
                    0xc               /usr/lib/gcc-lib/ntox86/2.95.3/exceptions/libgcc.a(tinfo2.o)
std::time_get<wchar_t, std::istreambuf_iterator<wchar_t, std::char_traits<wchar_t> > > type_info node
                    0xc               /x86/lib/libcpp.a(wlocale.o)
abstract_job_data_manager type_info node
                    0x8               pri_data_manager.o
std::num_get<char, std::istreambuf_iterator<char, std::char_traits<char> > >::id
                    0x4               /x86/lib/libcpp.a(locale.o)
std::ctype<wchar_t>::id
                    0x4               /x86/lib/libcpp.a(wlocale.o)
bad_exception type_info node
                    0xc               /usr/lib/gcc-lib/ntox86/2.95.3/exceptions/libgcc.a(exception.o)
std::_Mutex type_info node
                    0x8               manager_of_data_storage.o
exception type_info node
                    0x8               /usr/lib/gcc-lib/ntox86/2.95.3/exceptions/libgcc.a(exception.o)
std::basic_ios<char, std::char_traits<char> > type_info node
                    0xc               manager_of_data_storage.o
_pthread_atfork_prepare
                    0x4               /x86/lib/libc.a(fork.o)
__sn_Q23stdt9money_get2ZcZQ23stdt19istreambuf_iterator2ZcZQ23stdt11char_traits1Zc.id
                    0x4               /x86/lib/libcpp.a(xlocale.o)
std::codecvt<char, char, _Mbstatet>::id
                    0x4               /x86/lib/libcpp.a(locale.o)
std::collate<char> type_info node
                    0xc               /x86/lib/libcpp.a(xlocale.o)
__user_type_info type_info node
                    0xc               /usr/lib/gcc-lib/ntox86/2.95.3/exceptions/libgcc.a(tinfo.o)
_pthread_atfork_child
                    0x4               /x86/lib/libc.a(fork.o)
std::time_put<char, std::ostreambuf_iterator<char, std::char_traits<char> > >::id
                    0x4               /x86/lib/libcpp.a(xlocale.o)
std::num_put<wchar_t, std::ostreambuf_iterator<wchar_t, std::char_traits<wchar_t> > > type_info node
                    0xc               /x86/lib/libcpp.a(wlocale.o)
std::time_get<char, std::istreambuf_iterator<char, std::char_traits<char> > > type_info node
                    0xc               /x86/lib/libcpp.a(xlocale.o)
std::money_get<char, std::istreambuf_iterator<char, std::char_traits<char> > >::id
                    0x4               /x86/lib/libcpp.a(xlocale.o)
std::money_put<wchar_t, std::ostreambuf_iterator<wchar_t, std::char_traits<wchar_t> > >::id
                    0x4               /x86/lib/libcpp.a(wlocale.o)
__sn_Q23stdt7collate1Zc.id
                    0x4               /x86/lib/libcpp.a(xlocale.o)
std::out_of_range type_info node
                    0xc               manager_of_data_storage.o
std::money_get<char, std::istreambuf_iterator<char, std::char_traits<char> > > type_info node
                    0xc               /x86/lib/libcpp.a(xlocale.o)
std::moneypunct<char, true>::id
                    0x4               /x86/lib/libcpp.a(xlocale.o)
std::codecvt<char, char, _Mbstatet> type_info node
                    0xc               /x86/lib/libcpp.a(locale.o)
std::money_put<char, std::ostreambuf_iterator<char, std::char_traits<char> > >::id
                    0x4               /x86/lib/libcpp.a(xlocale.o)
std::moneypunct<char, true> type_info node
                    0xc               /x86/lib/libcpp.a(xlocale.o)
__ptmd_type_info type_info node
                    0xc               /usr/lib/gcc-lib/ntox86/2.95.3/exceptions/libgcc.a(tinfo2.o)
std::num_put<char, std::ostreambuf_iterator<char, std::char_traits<char> > >::id
                    0x4               manager_of_data_storage.o
__sn_Q23stdt7num_put2ZcZQ23stdt19ostreambuf_iterator2ZcZQ23stdt11char_traits1Zc.id
                    0x4               manager_of_data_storage.o
std::_Mpunct<wchar_t> type_info node
                    0xc               /x86/lib/libcpp.a(wlocale.o)
std::moneypunct<wchar_t, true>::id
                    0x4               /x86/lib/libcpp.a(wlocale.o)
optopt              0x4               /x86/lib/libc.a(getopt.o)
std::moneypunct<char, false> type_info node
                    0xc               /x86/lib/libcpp.a(xlocale.o)
std::bad_alloc type_info node
                    0xc               /x86/lib/libcpp.a(newaop.o)
std::num_put<wchar_t, std::ostreambuf_iterator<wchar_t, std::char_traits<wchar_t> > >::id
                    0x4               /x86/lib/libcpp.a(wlocale.o)
std::time_base type_info node
                    0xc               /x86/lib/libcpp.a(wlocale.o)
std::money_put<wchar_t, std::ostreambuf_iterator<wchar_t, std::char_traits<wchar_t> > > type_info node
                    0xc               /x86/lib/libcpp.a(wlocale.o)
std::moneypunct<wchar_t, true> type_info node
                    0xc               /x86/lib/libcpp.a(wlocale.o)
_pls                0x28              /x86/lib/libc.a(_init_libc.o)
std::logic_error type_info node
                    0xc               manager_of_data_storage.o
__si_type_info type_info node
                    0xc               /usr/lib/gcc-lib/ntox86/2.95.3/exceptions/libgcc.a(tinfo.o)
__sn_Q23stdt9money_put2ZcZQ23stdt19ostreambuf_iterator2ZcZQ23stdt11char_traits1Zc.id
                    0x4               /x86/lib/libcpp.a(xlocale.o)
std::basic_ostringstream<char, std::char_traits<char>, std::allocator<char> > type_info node
                    0x10              manager_of_data_storage.o
__sn_Q23stdt8messages1Zc.id
                    0x4               /x86/lib/libcpp.a(xlocale.o)
std::num_put<char, std::ostreambuf_iterator<char, std::char_traits<char> > > type_info node
                    0xc               manager_of_data_storage.o
__sn_Q23stdt8messages1Zw.id
                    0x4               /x86/lib/libcpp.a(wlocale.o)
std::basic_ostream<char, std::char_traits<char> > type_info node
                    0x10              manager_of_data_storage.o
_argc               0x4               /x86/lib/libc.a(_init_libc.o)
std::ios_base::failure type_info node
                    0xc               /x86/lib/libcpp.a(ios.o)
std::time_put<wchar_t, std::ostreambuf_iterator<wchar_t, std::char_traits<wchar_t> > > type_info node
                    0xc               /x86/lib/libcpp.a(wlocale.o)
__class_type_info type_info node
                    0xc               /usr/lib/gcc-lib/ntox86/2.95.3/exceptions/libgcc.a(tinfo.o)
__sn_Q23stdt7num_get2ZwZQ23stdt19istreambuf_iterator2ZwZQ23stdt11char_traits1Zw.id
                    0x4               /x86/lib/libcpp.a(wlocale.o)
std::basic_streambuf<char, std::char_traits<char> > type_info node
                    0xc               manager_of_data_storage.o
std::ctype<wchar_t> type_info node
                    0xc               /x86/lib/libcpp.a(wlocale.o)
objects_storage_exception type_info node
                    0x8               manager_of_data_storage.o
__builtin_type_info type_info node
                    0xc               /usr/lib/gcc-lib/ntox86/2.95.3/exceptions/libgcc.a(tinfo2.o)
__sn_Q23stdt10moneypunct2Zwb0.id
                    0x4               /x86/lib/libcpp.a(wlocale.o)
std::messages<wchar_t> type_info node
                    0xc               /x86/lib/libcpp.a(wlocale.o)
_atexit_list        0x4               /x86/lib/libc.a(_atexit.o)
std::time_put<char, std::ostreambuf_iterator<char, std::char_traits<char> > > type_info node
                    0xc               /x86/lib/libcpp.a(xlocale.o)

Memory Configuration

Name             Origin             Length             Attributes
*default*        0x00000000         0xffffffff

Linker script and memory map

TARGET(elf32-i386)
LOAD /x86/lib/crt1.o
LOAD /x86/lib/crti.o
LOAD /usr/lib/gcc-lib/ntox86/2.95.3/crtbeginC++.o
LOAD objects_storage_logger.o
LOAD manager_of_data_storage.o
LOAD jobs_data_managers_container.o
LOAD pri_data_manager.o
LOAD mock_database_wrapper.o
LOAD main.o
LOAD /x86/lib/libm.a
LOAD /x86/lib/libcpp.a
LOAD /x86/lib/libcpp.a
LOAD /x86/lib/libm.a
LOAD /usr/lib/gcc-lib/ntox86/2.95.3/exceptions/libgcc.a
LOAD /x86/lib/libc.a
LOAD /x86/lib/libc.a
LOAD /usr/lib/gcc-lib/ntox86/2.95.3/exceptions/libgcc.a
LOAD /usr/lib/gcc-lib/ntox86/2.95.3/crtendC++.o
LOAD /x86/lib/crtn.o
                0x08048094                .=(0x8048000+SIZEOF_HEADERS)

.interp
 *(.interp)

.note0          0x08048094        0x0

.hash
 *(.hash)

.dynsym
 *(.dynsym)

.dynstr
 *(.dynstr)

.gnu.version
 *(.gnu.version)

.gnu.version_d
 *(.gnu.version_d)

.gnu.version_r
 *(.gnu.version_r)

.rel.init
 *(.rel.init)

.rela.init
 *(.rela.init)

.rel.text
 *(.rel.text)
 *(.rel.text.*)
 *(.rel.gnu.linkonce.t*)

.rela.text
 *(.rela.text)
 *(.rela.text.*)
 *(.rela.gnu.linkonce.t*)

.rel.fini
 *(.rel.fini)

.rela.fini
 *(.rela.fini)

.rel.rodata
 *(.rel.rodata)
 *(.rel.rodata.*)
 *(.rel.gnu.linkonce.r*)

.rela.rodata
 *(.rela.rodata)
 *(.rela.rodata.*)
 *(.rela.gnu.linkonce.r*)

.rel.data
 *(.rel.data)
 *(.rel.data.*)
 *(.rel.gnu.linkonce.d*)

.rela.data
 *(.rela.data)
 *(.rela.data.*)
 *(.rela.gnu.linkonce.d*)

.rel.ctors
 *(.rel.ctors)

.rela.ctors
 *(.rela.ctors)

.rel.dtors
 *(.rel.dtors)

.rela.dtors
 *(.rela.dtors)

.rel.got        0x08048094        0x0
 *(.rel.got)

.rela.got
 *(.rela.got)

.rel.sdata
 *(.rel.sdata)
 *(.rel.sdata.*)
 *(.rel.gnu.linkonce.s*)

.rela.sdata
 *(.rela.sdata)
 *(.rela.sdata.*)
 *(.rela.gnu.linkonce.s*)

.rel.sbss
 *(.rel.sbss)

.rela.sbss
 *(.rela.sbss)

.rel.bss
 *(.rel.bss)

.rela.bss
 *(.rela.bss)

.rel.plt
 *(.rel.plt)

.rela.plt
 *(.rela.plt)

.init           0x08048094        0xd
 *(.init)
 .init          0x08048094        0x5 /usr/lib/gcc-lib/ntox86/2.95.3/crtbeginC++.o
 .init          0x08048099        0x5 /usr/lib/gcc-lib/ntox86/2.95.3/crtendC++.o
 .init          0x0804809e        0x3 /x86/lib/crtn.o

.plt
 *(.plt)

.text           0x080480a4    0x4276f
                0x080480a4                _btext=.
 *(.text)
 .text          0x080480a4       0x5f /x86/lib/crt1.o
                0x080480ac                _start
 *fill*         0x08048103        0x1 37008
 .text          0x08048104       0xce /usr/lib/gcc-lib/ntox86/2.95.3/crtbeginC++.o
 *fill*         0x080481d2        0x2 37008
 .text          0x080481d4      0x2a7 objects_storage_logger.o
                0x080483e4                objects_storage_logger::get_instance(void)
                0x080481d4                objects_storage_logger::log_message(objects_storage_logger::message_type, std::basic_string<char, std::char_traits<char>, std::allocator<char> >)
 *fill*         0x0804847b        0x1 37008
 .text          0x0804847c     0x136e manager_of_data_storage.o
                0x080485d8                manager_of_data_storage::run(void)
                0x08048514                manager_of_data_storage::initialize(void)
                0x0804847c                manager_of_data_storage::get_instance(void)
 *fill*         0x080497ea        0x2 37008
 .text          0x080497ec      0x178 jobs_data_managers_container.o
                0x080497ec                jobs_data_managers_container::erase(std::_Tree<std::_Tmap_traits<int, abstract_job_data_manager *, std::less<int>, std::allocator<std::pair<int const, abstract_job_data_manager *> >, false> >::iterator)
                0x08049888                jobs_data_managers_container::~jobs_data_managers_container(void)
 .text          0x08049964      0xe93 pri_data_manager.o
                0x08049964                pri_data_manager::process_command_to_occupate(std::vector<unsigned char, std::allocator<unsigned char> >)
                0x08049fe8                pri_data_manager::process_command_to_free(std::vector<unsigned char, std::allocator<unsigned char> >)
                0x0804a760                pri_data_manager::get_instance(void)
                0x0804a548                pri_data_manager::process_command(std::vector<unsigned char, std::allocator<unsigned char> >)
 *fill*         0x0804a7f7        0x1 37008
 .text          0x0804a7f8      0x954 mock_database_wrapper.o
                0x0804ae1c                database_wrapper::pri_occupate_channel_any(unsigned char, unsigned char, unsigned char, unsigned char, unsigned short, int)
                0x0804aa44                database_wrapper::database_wrapper(void)
                0x0804ab6c                database_wrapper::pri_occupate_channel_only(unsigned char, unsigned char, unsigned char, unsigned char, unsigned short, int)
                0x0804a7f8                database_wrapper::get_instance(void)
                0x0804b0f8                database_wrapper::pri_free_channel(unsigned char, unsigned char, unsigned char, unsigned char, unsigned short, int)
 .text          0x0804b14c      0x572 main.o
                0x0804b258                main
                0x0804b14c                usage(std::basic_string<char, std::char_traits<char>, std::allocator<char> >)
 *fill*         0x0804b6be        0x2 37008
 .text          0x0804b6c0       0x59 /x86/lib/libcpp.a(delaop.o)
                0x0804b6c0                __builtin_vec_delete
 *fill*         0x0804b719        0x3 37008
 .text          0x0804b71c       0x61 /x86/lib/libcpp.a(delop.o)
                0x0804b71c                __builtin_delete
 *fill*         0x0804b77d        0x3 37008
 .text          0x0804b780        0x5 /x86/lib/libcpp.a(delop3.o)
                0x0804b780                operator delete(void *, void *)
 *fill*         0x0804b785        0x3 37008
 .text          0x0804b788       0x6a /x86/lib/libcpp.a(exceptio.o)
                0x0804b7c4                std::set_unexpected(void (*)(void))
                0x0804b7dc                std::unexpected(void)
                0x0804b794                std::set_terminate(void (*)(void))
                0x0804b7ac                std::terminate(void)
                0x0804b788                std::do_abort(void)
 *fill*         0x0804b7f2        0x2 37008
 .text          0x0804b7f4       0xbd /x86/lib/libcpp.a(gccex.o)
                0x0804b7f4                std::exception::_Set_raise_handler(void (*)(std::exception const &))
                0x0804b81c                std::exception::~exception(void)
                0x0804b80c                std::exception::exception(void)
                0x0804b84c                std::exception::_Raise(void) const
                0x0804b8ac                std::exception::_Doraise(void) const
                0x0804b840                std::exception::what(void) const
 *fill*         0x0804b8b1        0x3 37008
 .text          0x0804b8b4      0x832 /x86/lib/libcpp.a(ios.o)
                0x0804bfdc                std::ios_base::_Init(void)
                0x0804bdd4                std::ios_base::~ios_base(void)
                0x0804b8b4                std::ios_base::clear(std::_Iosb<int>::_Iostate, bool)
                0x0804be3c                std::ios_base::_Callfns(std::ios_base::event)
                0x0804bc00                std::ios_base::copyfmt(std::ios_base const &)
                0x0804c080                std::ios_base::_Tidy(void)
                0x0804bcd4                std::ios_base::imbue(std::locale const &)
                0x0804bd5c                std::ios_base::register_callback(void (*)(std::ios_base::event, std::ios_base &, int), int)
                0x0804be74                std::ios_base::_Findarr(int)
                0x0804bf70                std::ios_base::_Addstd(void)
 *fill*         0x0804c0e6        0x2 37008
 .text          0x0804c0e8      0x5eb /x86/lib/libcpp.a(iostream.o)
                0x0804c0e8                std::ios_base::Init::Init(void)
                0x0804c4fc                std::ios_base::Init::~Init(void)
 *fill*         0x0804c6d3        0x1 37008
 .text          0x0804c6d4     0x11c7 /x86/lib/libcpp.a(locale.o)
                0x0804cd44                std::locale::global(std::locale const &)
                0x0804c6d4                std::locale::locale(std::locale const &, std::locale const &, int)
                0x0804d510                std::locale::_Locimp::_Addfac(std::locale::facet *, unsigned int)
                0x0804d378                std::locale::_Locimp::_Locimp(std::locale::_Locimp const &)
                0x0804d618                std::_Locinfo::_Locinfo(int, char const *)
                0x0804cea0                std::locale::_Locimp::_Makeloc(std::_Locinfo const &, int, std::locale::_Locimp *, std::locale const *)
                0x0804d6f0                std::_Locinfo::_Addcats(int, char const *)
                0x0804c7f8                std::locale::locale(char const *, int)
                0x0804ca60                std::locale::locale(std::locale const &, char const *, int)
 *fill*         0x0804d89b        0x1 37008
 .text          0x0804d89c      0x76f /x86/lib/libcpp.a(locale0.o)
                0x0804d89c                std::locale::classic(void)
                0x0804dadc                std::locale::_Init(void)
                0x0804dc5c                std::locale::_Tidy(void)
                0x0804dcf0                std::locale::_Locimp::_Locimp(bool)
                0x0804de30                std::_Locinfo::_Locinfo(char const *)
                0x0804d968                std::locale::operator==(std::locale const &) const
                0x0804d8b0                std::locale::empty(void)
                0x0804dd68                std::locale::_Locimp::~_Locimp(void)
                0x0804d91c                std::locale::_Getfacet(unsigned int) const
                0x0804df24                std::_Locinfo::~_Locinfo(void)
 *fill*         0x0804e00b        0x1 37008
 .text          0x0804e00c       0x65 /x86/lib/libcpp.a(newaop.o)
                0x0804e00c                __builtin_vec_new
 *fill*         0x0804e071        0x3 37008
 .text          0x0804e074       0x81 /x86/lib/libcpp.a(newop.o)
                0x0804e074                __builtin_new
 *fill*         0x0804e0f5        0x3 37008
 .text          0x0804e0f8       0x8f /x86/lib/libcpp.a(nomemory.o)
                0x0804e110                std::_Nomemory(void)
 *fill*         0x0804e187        0x1 37008
 .text          0x0804e188      0x205 /x86/lib/libcpp.a(string.o)
                0x0804e188                std::_String_base::_Xlen(void) const
                0x0804e28c                std::_String_base::_Xran(void) const
 *fill*         0x0804e38d        0x3 37008
 .text          0x0804e390        0x7 /x86/lib/libcpp.a(uncaught.o)
                0x0804e390                std::uncaught_exception(void)
 *fill*         0x0804e397        0x1 37008
 .text          0x0804e398     0x10aa /x86/lib/libcpp.a(wlocale.o)
                0x0804e398                std::locale::_Locimp::_Makewloc(std::_Locinfo const &, int, std::locale::_Locimp *, std::locale const *)
 *fill*         0x0804f442        0x2 37008
 .text          0x0804f444      0xa0e /x86/lib/libcpp.a(xlocale.o)
                0x0804f444                std::locale::_Locimp::_Makexloc(std::_Locinfo const &, int, std::locale::_Locimp *, std::locale const *)
 *fill*         0x0804fe52        0x2 37008
 .text          0x0804fe54       0xe5 /x86/lib/libcpp.a(xlock.o)
                0x0804fec0                std::_Lockit::_Lockit(int)
                0x0804ff00                std::_Lockit::~_Lockit(void)
 *fill*         0x0804ff39        0x3 37008
 .text          0x0804ff3c       0x3f /x86/lib/libcpp.a(xmtx.o)
                0x0804ff3c                _Mtxinit
 *fill*         0x0804ff7b        0x1 37008
 .text          0x0804ff7c       0x95 /x86/lib/libcpp.a(xmutex.o)
                0x0804ffa8                std::_Mutex::~_Mutex(void)
                0x0804fffc                std::_Mutex::_Unlock(void)
                0x0804ffe4                std::_Mutex::_Lock(void)
                0x0804ff7c                std::_Mutex::_Mutex(void)
 *fill*         0x08050011        0x3 37008
 .text          0x08050014       0x15 /x86/lib/libcpp.a(new.o)
                0x08050014                std::set_new_handler(void (*)(void))
 *fill*         0x08050029        0x3 37008
 .text          0x0805002c      0xcbb /usr/lib/gcc-lib/ntox86/2.95.3/exceptions/libgcc.a(_eh.o)
                0x08050064                __throw_type_match
                0x0805014c                __get_eh_info
                0x08050c28                __rethrow
                0x0805012c                __get_eh_context
                0x080502f8                __sjthrow
                0x08050b70                __throw
                0x08050098                __empty
                0x080507fc                __unwinding_cleanup
                0x0805055c                __get_eh_table_language
                0x08050418                __sjpopnthrow
                0x08050510                __eh_rtime_match
                0x080502d4                __get_dynamic_handler_chain
                0x0805002c                __default_terminate
                0x08050044                __terminate
                0x08050550                __get_eh_table_version
 *fill*         0x08050ce7        0x1 37008
 .text          0x08050ce8       0x1b /usr/lib/gcc-lib/ntox86/2.95.3/exceptions/libgcc.a(_pure.o)
                0x08050ce8                __pure_virtual
 *fill*         0x08050d03        0x1 37008
 .text          0x08050d04      0x67c /usr/lib/gcc-lib/ntox86/2.95.3/exceptions/libgcc.a(exception.o)
                0x08051350                exception::what(void) const
                0x08050eb8                __cp_push_exception
                0x08050d84                unexpected(void)
                0x08050da0                __cp_exception_info
                0x08050d3c                set_terminate(void (*)(void))
                0x08050fd4                __uncatch_exception
                0x08050d24                __default_unexpected(void)
                0x08051004                __check_eh_spec
                0x080511d8                __throw_bad_cast
                0x08050d04                terminate(void)
                0x08050d60                set_unexpected(void (*)(void))
                0x08050de0                __start_cp_handler
                0x08050e60                __cplus_type_matcher
                0x08050e3c                __eh_free
                0x08050f2c                __cp_pop_exception
                0x0805127c                __throw_bad_typeid
                0x08050dc0                __cp_eh_info
                0x08051320                uncaught_exception(void)
                0x08050e08                __eh_alloc
 .text          0x08051380      0xf0b /usr/lib/gcc-lib/ntox86/2.95.3/exceptions/libgcc.a(frame.o)
                0x08051e60                __register_frame
                0x0805201c                __frame_state_for
                0x08051f10                __register_frame_table
                0x08051f44                __deregister_frame_info
                0x08051ff0                __deregister_frame
                0x08051e94                __register_frame_info_table
                0x08051de0                __register_frame_info
 *fill*         0x0805228b        0x1 37008
 .text          0x0805228c      0x31d /usr/lib/gcc-lib/ntox86/2.95.3/exceptions/libgcc.a(tinfo.o)
                0x08052454                __class_type_info::dcast(type_info const &, int, void *, type_info const *, void *) const
                0x0805228c                type_info::~type_info(void)
                0x0805238c                __rtti_user
                0x0805234c                __rtti_si
                0x080523c0                __user_type_info::dcast(type_info const &, int, void *, type_info const *, void *) const
                0x080523f4                __si_type_info::dcast(type_info const &, int, void *, type_info const *, void *) const
                0x080522c4                type_info::operator==(type_info const &) const
                0x08052304                __rtti_class
 *fill*         0x080525a9        0x3 37008
 .text          0x080525ac      0xaec /usr/lib/gcc-lib/ntox86/2.95.3/exceptions/libgcc.a(tinfo2.o)
                0x08052f18                unsigned int type_info function
                0x08052c98                long long type_info function
                0x080525ac                type_info::before(type_info const &) const
                0x08052b98                __rtti_ptmd
                0x08052bcc                __rtti_array
                0x08053058                signed char type_info function
                0x08052af0                __rtti_attr
                0x08052dd8                char type_info function
                0x08052d58                short type_info function
                0x08052c58                void type_info function
                0x08052d18                int type_info function
                0x08052d98                bool type_info function
                0x080525dc                __throw_type_match_rtti
                0x08052a64                __is_pointer(void *)
                0x08053018                unsigned char type_info function
                0x08052f98                unsigned long long type_info function
                0x08052e98                double type_info function
                0x08052e18                wchar_t type_info function
                0x08052b30                __rtti_func
                0x08052ab8                __rtti_ptr
                0x08052e58                long double type_info function
                0x08052ed8                float type_info function
                0x08052f58                unsigned long type_info function
                0x08052b64                __rtti_ptmf
                0x08052fd8                unsigned short type_info function
                0x08052cd8                long type_info function
                0x08052c00                __dynamic_cast
 .text          0x08053098      0x277 /x86/lib/libc.a(getopt.o)
                0x08053098                getopt
 *fill*         0x0805330f        0x1 37008
 .text          0x08053310       0x7e /x86/lib/libc.a(pthread_mutex_lock.o)
                0x08053310                pthread_mutex_lock
 *fill*         0x0805338e        0x2 37008
 .text          0x08053390       0x18 /x86/lib/libc.a(pthread_mutex_init.o)
                0x08053390                pthread_mutex_init
 .text          0x080533a8       0x13 /x86/lib/libc.a(pthread_mutex_destroy.o)
                0x080533a8                pthread_mutex_destroy
 *fill*         0x080533bb        0x1 37008
 .text          0x080533bc       0x53 /x86/lib/libc.a(pthread_mutex_unlock.o)
                0x080533bc                pthread_mutex_unlock
 *fill*         0x0805340f        0x1 37008
 .text          0x08053410        0x7 /x86/lib/libc.a(pthread_mutexattr_destroy.o)
                0x08053410                pthread_mutexattr_destroy
 *fill*         0x08053417        0x1 37008
 .text          0x08053418       0x1e /x86/lib/libc.a(pthread_mutexattr_init.o)
                0x08053418                pthread_mutexattr_init
 *fill*         0x08053436        0x2 37008
 .text          0x08053438       0x6d /x86/lib/libc.a(pthread_mutexattr_settype.o)
                0x08053438                pthread_mutexattr_settype
 *fill*         0x080534a5        0x3 37008
 .text          0x080534a8       0xba /x86/lib/libc.a(pthread_once.o)
                0x080534bc                __pthread_once
                0x08053540                pthread_once
 *fill*         0x08053562        0x2 37008
 .text          0x08053564      0x58a /x86/lib/libc.a(malloc.o)
                0x08053618                malloc
                0x08053ab8                calloc
                0x0805383c                _posix_memalign
                0x08053904                realloc
                0x08053774                memalign
                0x080538bc                valloc
                0x0805383c                posix_memalign
                0x08053564                free
 *fill*         0x08053aee        0x2 37008
 .text          0x08053af0       0xfa /x86/lib/libc.a(util.o)
                0x08053af0                _malloc_log
                0x08053bac                malloc_abort
                0x08053b7c                _malloc_error
 *fill*         0x08053bea        0x2 37008
 .text          0x08053bec       0x11 /x86/lib/libc.a(_exit.o)
                0x08053bec                _exit
 *fill*         0x08053bfd        0x3 37008
 .text          0x08053c00       0xc4 /x86/lib/libc.a(abort.o)
                0x08053c00                abort
 .text          0x08053cc4       0x37 /x86/lib/libc.a(atexit.o)
                0x08053cc4                atexit
 *fill*         0x08053cfb        0x1 37008
 .text          0x08053cfc       0x18 /x86/lib/libc.a(exit.o)
                0x08053cfc                exit
 .text          0x08053d14        0xa /x86/lib/libc.a(localeco.o)
                0x08053d14                localeconv
 *fill*         0x08053d1e        0x2 37008
 .text          0x08053d20       0x45 /x86/lib/libc.a(mbrtowc.o)
                0x08053d20                mbrtowc
 *fill*         0x08053d65        0x3 37008
 .text          0x08053d68       0x25 /x86/lib/libc.a(raise.o)
                0x08053d68                raise
 *fill*         0x08053d8d        0x3 37008
 .text          0x08053d90      0x48b /x86/lib/libc.a(setlocal.o)
                0x08053d90                _Getcloc
                0x08053fbc                _Getlname
                0x08054178                setlocale
                0x08053f08                _Getnloc
 *fill*         0x0805421b        0x1 37008
 .text          0x0805421c       0x42 /x86/lib/libc.a(wcrtomb.o)
                0x0805421c                wcrtomb
 *fill*         0x0805425e        0x2 37008
 .text          0x08054260       0x42 /x86/lib/libc.a(xbtowc.o)
                0x08054260                _Btowc
 *fill*         0x080542a2        0x2 37008
 .text          0x080542a4      0x210 /x86/lib/libc.a(xdefloc.o)
                0x080542a4                _Defloc
 .text          0x080544b4      0x398 /x86/lib/libc.a(xgetloc.o)
                0x080544b4                _Skip
                0x080544e0                _Getloc
 .text          0x0805484c      0x42f /x86/lib/libc.a(xmakeloc.o)
                0x080548d0                _Makeloc
                0x08054878                _Locsum
 *fill*         0x08054c7b        0x1 37008
 .text          0x08054c7c      0x248 /x86/lib/libc.a(xmakesta.o)
                0x08054c7c                _Makestab
 .text          0x08054ec4      0x2ea /x86/lib/libc.a(xmakewct.o)
                0x08054ec4                _Makewct
 *fill*         0x080551ae        0x2 37008
 .text          0x080551b0      0x1eb /x86/lib/libc.a(xmbtowc.o)
                0x080551b0                _Mbtowc
 *fill*         0x0805539b        0x1 37008
 .text          0x0805539c      0x102 /x86/lib/libc.a(xreadloc.o)
                0x0805539c                _Readloc
 *fill*         0x0805549e        0x2 37008
 .text          0x080554a0      0x1f8 /x86/lib/libc.a(xsetloc.o)
                0x080554a0                _Setloc
 .text          0x08055698      0x189 /x86/lib/libc.a(xstod.o)
                0x08055698                _Stod
 *fill*         0x08055821        0x3 37008
 .text          0x08055824      0x106 /x86/lib/libc.a(xstof.o)
                0x08055824                _Stof
 *fill*         0x0805592a        0x2 37008
 .text          0x0805592c      0x256 /x86/lib/libc.a(xstoflt.o)
                0x0805592c                _Stoflt
 *fill*         0x08055b82        0x2 37008
 .text          0x08055b84      0x1b4 /x86/lib/libc.a(xstold.o)
                0x08055b84                _Stold
 .text          0x08055d38      0x11b /x86/lib/libc.a(xstopfx.o)
                0x08055d38                _Stopfx
 *fill*         0x08055e53        0x1 37008
 .text          0x08055e54      0x28b /x86/lib/libc.a(xstoxflt.o)
                0x08055e54                _Stoxflt
 *fill*         0x080560df        0x1 37008
 .text          0x080560e0      0x1f7 /x86/lib/libc.a(xwctomb.o)
                0x080560e0                _Wctomb
 *fill*         0x080562d7        0x1 37008
 .text          0x080562d8       0x28 /x86/lib/libc.a(ConnectAttach.o)
                0x080562d8                ConnectAttach
 .text          0x08056300       0x30 /x86/lib/libc.a(MsgSend.o)
                0x08056300                MsgSend
 .text          0x08056330       0x28 /x86/lib/libc.a(SignalKill.o)
                0x08056330                SignalKill
 .text          0x08056358       0x20 /x86/lib/libc.a(SyncDestroy_r.o)
                0x08056358                SyncDestroy_r
 .text          0x08056378       0x20 /x86/lib/libc.a(SyncMutexUnlock_r.o)
                0x08056378                SyncMutexUnlock_r
 .text          0x08056398       0x20 /x86/lib/libc.a(SyncMutexLock_r.o)
                0x08056398                SyncMutexLock_r
 .text          0x080563b8       0x20 /x86/lib/libc.a(SyncTypeCreate_r.o)
                0x080563b8                SyncTypeCreate_r
 .text          0x080563d8       0x18 /x86/lib/libc.a(__ker_err.o)
                0x080563d8                __ker_err
 .text          0x080563f0        0xe /x86/lib/libc.a(gettid.o)
                0x080563f0                gettid
 *fill*         0x080563fe        0x2 37008
 .text          0x08056400      0x2d2 /x86/lib/libc.a(slog.o)
                0x080565b8                vslogf
                0x08056510                slogi
                0x080564cc                slogb
                0x080566b8                slogf
 *fill*         0x080566d2        0x2 37008
 .text          0x080566d4      0x186 /x86/lib/libc.a(fclose.o)
                0x080566d4                fclose
 *fill*         0x0805685a        0x2 37008
 .text          0x0805685c       0xbc /x86/lib/libc.a(fflush.o)
                0x08056870                fflush
                0x0805685c                flushall
 .text          0x08056918       0x9e /x86/lib/libc.a(fgetc.o)
                0x08056918                fgetc
 *fill*         0x080569b6        0x2 37008
 .text          0x080569b8       0x16 /x86/lib/libc.a(fgetpos.o)
                0x080569b8                fgetpos
 *fill*         0x080569ce        0x2 37008
 .text          0x080569d0      0x154 /x86/lib/libc.a(fgets.o)
                0x080569d0                fgets
 .text          0x08056b24        0xb /x86/lib/libc.a(fileno.o)
                0x08056b24                fileno
 *fill*         0x08056b2f        0x1 37008
 .text          0x08056b30       0x86 /x86/lib/libc.a(flockfile.o)
                0x08056b30                flockfile
 *fill*         0x08056bb6        0x2 37008
 .text          0x08056bb8       0x18 /x86/lib/libc.a(fopen.o)
                0x08056bb8                fopen
 .text          0x08056bd0       0xa3 /x86/lib/libc.a(fputc.o)
                0x08056bd0                fputc
 *fill*         0x08056c73        0x1 37008
 .text          0x08056c74      0x11c /x86/lib/libc.a(fputs.o)
                0x08056c74                fputs
 .text          0x08056d90       0x1e /x86/lib/libc.a(fseek.o)
                0x08056d90                fseek
 *fill*         0x08056dae        0x2 37008
 .text          0x08056db0       0x1c /x86/lib/libc.a(fsetpos.o)
                0x08056db0                fsetpos
 .text          0x08056dcc       0x65 /x86/lib/libc.a(funlockfile.o)
                0x08056dcc                funlockfile
 *fill*         0x08056e31        0x3 37008
 .text          0x08056e34      0x126 /x86/lib/libc.a(fwrite.o)
                0x08056e34                fwrite
 *fill*         0x08056f5a        0x2 37008
 .text          0x08056f5c       0xcf /x86/lib/libc.a(setvbuf.o)
                0x08056f5c                setvbuf
 *fill*         0x0805702b        0x1 37008
 .text          0x0805702c       0x29 /x86/lib/libc.a(sprintf.o)
                0x0805702c                sprintf
 *fill*         0x08057055        0x3 37008
 .text          0x08057058       0x4d /x86/lib/libc.a(sscanf.o)
                0x08057088                sscanf
 *fill*         0x080570a5        0x3 37008
 .text          0x080570a8       0x23 /x86/lib/libc.a(strerror.o)
                0x080570a8                strerror
 *fill*         0x080570cb        0x1 37008
 .text          0x080570cc       0x93 /x86/lib/libc.a(ungetc.o)
                0x080570cc                ungetc
 *fill*         0x0805715f        0x1 37008
 .text          0x08057160       0x49 /x86/lib/libc.a(vsnprintf.o)
                0x08057160                vsnprintf
 *fill*         0x080571a9        0x3 37008
 .text          0x080571ac       0x28 /x86/lib/libc.a(vsprintf.o)
                0x080571ac                vsprintf
 .text          0x080571d4      0x12a /x86/lib/libc.a(xfgpos.o)
                0x080571d4                _Fgpos
 *fill*         0x080572fe        0x2 37008
 .text          0x08057300      0x10f /x86/lib/libc.a(xfrprep.o)
                0x08057300                _Frprep
 *fill*         0x0805740f        0x1 37008
 .text          0x08057410      0x170 /x86/lib/libc.a(xfspos.o)
                0x08057410                _Fspos
 .text          0x08057580       0xa2 /x86/lib/libc.a(xfwprep.o)
                0x08057580                _Fwprep
 *fill*         0x08057622        0x2 37008
 .text          0x08057624      0x297 /x86/lib/libc.a(xprintf.o)
                0x08057624                _Printf
 *fill*         0x080578bb        0x1 37008
 .text          0x080578bc      0x391 /x86/lib/libc.a(xputfld.o)
                0x080578bc                _Putfld
 *fill*         0x08057c4d        0x3 37008
 .text          0x08057c50      0x173 /x86/lib/libc.a(xputstr.o)
                0x08057c50                _Putstr
 *fill*         0x08057dc3        0x1 37008
 .text          0x08057dc4      0x20a /x86/lib/libc.a(xputtxt.o)
                0x08057dc4                _Puttxt
 *fill*         0x08057fce        0x2 37008
 .text          0x08057fd0      0x2d0 /x86/lib/libc.a(xscanf.o)
                0x08057fd0                _Scanf
 .text          0x080582a0       0x52 /x86/lib/libc.a(xsnprout.o)
                0x080582a0                _Snprout
 *fill*         0x080582f2        0x2 37008
 .text          0x080582f4       0x20 /x86/lib/libc.a(xsprout.o)
                0x080582f4                _Sprout
 .text          0x08058314       0x1c /x86/lib/libc.a(memchr.o)
                0x08058314                memchr
 .text          0x08058330       0x37 /x86/lib/libc.a(memcmp.o)
                0x08058330                memcmp
 *fill*         0x08058367        0x1 37008
 .text          0x08058368       0x29 /x86/lib/libc.a(memcpy.o)
                0x08058368                memcpy
 *fill*         0x08058391        0x3 37008
 .text          0x08058394       0x43 /x86/lib/libc.a(memmove.o)
                0x08058394                memmove
 *fill*         0x080583d7        0x1 37008
 .text          0x080583d8       0x77 /x86/lib/libc.a(memset.o)
                0x080583d8                memset
 *fill*         0x0805844f        0x1 37008
 .text          0x08058450       0x2b /x86/lib/libc.a(strcat.o)
                0x08058450                strcat
 *fill*         0x0805847b        0x1 37008
 .text          0x0805847c       0x23 /x86/lib/libc.a(strchr.o)
                0x0805847c                strchr
 *fill*         0x0805849f        0x1 37008
 .text          0x080584a0       0x30 /x86/lib/libc.a(strcmp.o)
                0x080584a0                strcmp
 .text          0x080584d0      0x117 /x86/lib/libc.a(strcoll.o)
                0x080584f0                strcoll
 *fill*         0x080585e7        0x1 37008
 .text          0x080585e8       0x27 /x86/lib/libc.a(strcpy.o)
                0x080585e8                strcpy
 *fill*         0x0805860f        0x1 37008
 .text          0x08058610       0x3d /x86/lib/libc.a(strcspn.o)
                0x08058610                strcspn
 *fill*         0x0805864d        0x3 37008
 .text          0x08058650       0x57 /x86/lib/libc.a(strdup.o)
                0x08058650                _strdup
                0x08058664                strdup
 *fill*         0x080586a7        0x1 37008
 .text          0x080586a8       0x1a /x86/lib/libc.a(strlen.o)
                0x080586a8                strlen
 *fill*         0x080586c2        0x2 37008
 .text          0x080586c4       0x3b /x86/lib/libc.a(strncmp.o)
                0x080586c4                strncmp
 *fill*         0x080586ff        0x1 37008
 .text          0x08058700       0x21 /x86/lib/libc.a(strrchr.o)
                0x08058700                strrchr
 *fill*         0x08058721        0x3 37008
 .text          0x08058724       0x36 /x86/lib/libc.a(strspn.o)
                0x08058724                strspn
 *fill*         0x0805875a        0x2 37008
 .text          0x0805875c       0x18 /x86/lib/libc.a(strtol.o)
                0x0805875c                strtol
 .text          0x08058774       0x18 /x86/lib/libc.a(strtoll.o)
                0x08058774                strtoll
 .text          0x0805878c       0x18 /x86/lib/libc.a(strtoul.o)
                0x0805878c                strtoul
 .text          0x080587a4       0x18 /x86/lib/libc.a(strtoull.o)
                0x080587a4                strtoull
 .text          0x080587bc       0x7b /x86/lib/libc.a(strxfrm.o)
                0x080587bc                strxfrm
 *fill*         0x08058837        0x1 37008
 .text          0x08058838      0x147 /x86/lib/libc.a(wcscoll.o)
                0x08058894                wcscoll
 *fill*         0x0805897f        0x1 37008
 .text          0x08058980       0x1f /x86/lib/libc.a(wcslen.o)
                0x08058980                wcslen
 *fill*         0x0805899f        0x1 37008
 .text          0x080589a0       0xc2 /x86/lib/libc.a(wcsxfrm.o)
                0x080589a0                wcsxfrm
 *fill*         0x08058a62        0x2 37008
 .text          0x08058a64       0x3b /x86/lib/libc.a(wmemcmp.o)
                0x08058a64                wmemcmp
 *fill*         0x08058a9f        0x1 37008
 .text          0x08058aa0       0x27 /x86/lib/libc.a(wmemcpy.o)
                0x08058aa0                wmemcpy
 *fill*         0x08058ac7        0x1 37008
 .text          0x08058ac8       0x54 /x86/lib/libc.a(wmemmove.o)
                0x08058ac8                wmemmove
 .text          0x08058b1c       0x21 /x86/lib/libc.a(wmemset.o)
                0x08058b1c                wmemset
 *fill*         0x08058b3d        0x3 37008
 .text          0x08058b40      0x3c6 /x86/lib/libc.a(xstrxfrm.o)
                0x08058b40                _CStrxfrm
 *fill*         0x08058f06        0x2 37008
 .text          0x08058f08      0x180 /x86/lib/libc.a(xwcsxfrm.o)
                0x08058f08                _CWcsxfrm
 .text          0x08059088       0x52 /x86/lib/libc.a(__cleanup.o)
                0x08059088                __cleanup_push
                0x080590ac                __cleanup_pop
 *fill*         0x080590da        0x2 37008
 .text          0x080590dc        0xe /x86/lib/libc.a(__get_errno_ptr.o)
                0x080590dc                __get_errno_ptr
 *fill*         0x080590ea        0x2 37008
 .text          0x080590ec       0x12 /x86/lib/libc.a(__stackavail.o)
                0x080590ec                __stackavail
 *fill*         0x080590fe        0x2 37008
 .text          0x08059100        0xb /x86/lib/libc.a(__tls.o)
                0x08059100                __tls
 *fill*         0x0805910b        0x1 37008
 .text          0x0805910c       0xd3 /x86/lib/libc.a(_init_libc.o)
                0x0805910c                _init_libc
 *fill*         0x080591df        0x1 37008
 .text          0x080591e0       0x1b /x86/lib/libc.a(_math_emu_stub.o)
                0x080591e0                _math_emu_stub
 *fill*         0x080591fb        0x1 37008
 .text          0x080591fc       0x55 /x86/lib/libc.a(asctime.o)
                0x080591fc                asctime
                0x08059228                asctime_r
 *fill*         0x08059251        0x3 37008
 .text          0x08059254       0xbd /x86/lib/libc.a(time.o)
                0x08059254                time
 *fill*         0x08059311        0x3 37008
 .text          0x08059314      0x18a /x86/lib/libc.a(xstrftim.o)
                0x08059314                _CStrftime
 *fill*         0x0805949e        0x2 37008
 .text          0x080594a0      0x5b3 /x86/lib/libc.a(xtzset.o)
                0x0805990c                _Tzset
 *fill*         0x08059a53        0x1 37008
 .text          0x08059a54      0x37f /x86/lib/libc.a(random.o)
                0x08059d40                random
                0x08059c54                setstate
                0x08059ae0                initstate
                0x08059a54                srandom
 *fill*         0x08059dd3        0x1 37008
 .text          0x08059dd4       0x74 /x86/lib/libc.a(close.o)
                0x08059dd4                close
 .text          0x08059e48        0xe /x86/lib/libc.a(getpid.o)
                0x08059e48                getpid
 *fill*         0x08059e56        0x2 37008
 .text          0x08059e58       0xa6 /x86/lib/libc.a(lseek.o)
                0x08059ecc                lseek
                0x08059ee8                tell
                0x08059eb4                tell64
                0x08059e58                lseek64
 *fill*         0x08059efe        0x2 37008
 .text          0x08059f00       0x19 /x86/lib/libc.a(open.o)
                0x08059f00                open
 *fill*         0x08059f19        0x3 37008
 .text          0x08059f1c       0x3d /x86/lib/libc.a(read.o)
                0x08059f1c                read
 *fill*         0x08059f59        0x3 37008
 .text          0x08059f5c       0x20 /x86/lib/libc.a(sigaction.o)
                0x08059f5c                sigaction
 .text          0x08059f7c       0x3f /x86/lib/libc.a(sigdelset.o)
                0x08059f7c                sigdelset
 *fill*         0x08059fbb        0x1 37008
 .text          0x08059fbc       0x17 /x86/lib/libc.a(sigfillset.o)
                0x08059fbc                sigfillset
 *fill*         0x08059fd3        0x1 37008
 .text          0x08059fd4       0x43 /x86/lib/libc.a(sigstub.o)
                0x08059fd4                __signalstub
 *fill*         0x0805a017        0x1 37008
 .text          0x0805a018       0x9b /x86/lib/libc.a(sysconf.o)
                0x0805a0a0                sysconf
                0x0805a078                _sysconf
 *fill*         0x0805a0b3        0x1 37008
 .text          0x0805a0b4       0x53 /x86/lib/libc.a(write.o)
                0x0805a0b4                write
 *fill*         0x0805a107        0x1 37008
 .text          0x0805a108       0x55 /x86/lib/libc.a(basename.o)
                0x0805a108                basename
 *fill*         0x0805a15d        0x3 37008
 .text          0x0805a160       0xf4 /x86/lib/libc.a(confstr.o)
                0x0805a1d4                confstr
 .text          0x0805a254       0x11 /x86/lib/libc.a(__my_thread_exit.o)
                0x0805a254                __my_thread_exit
 *fill*         0x0805a265        0x3 37008
 .text          0x0805a268       0x15 /x86/lib/libc.a(pthread_cond_broadcast.o)
                0x0805a268                pthread_cond_broadcast
 *fill*         0x0805a27d        0x3 37008
 .text          0x0805a280       0x39 /x86/lib/libc.a(pthread_cond_wait.o)
                0x0805a280                pthread_cond_wait
 *fill*         0x0805a2b9        0x3 37008
 .text          0x0805a2bc       0xbb /x86/lib/libc.a(pthread_exit.o)
                0x0805a2bc                pthread_exit
 *fill*         0x0805a377        0x1 37008
 .text          0x0805a378        0xe /x86/lib/libc.a(pthread_self.o)
                0x0805a378                pthread_self
 *fill*         0x0805a386        0x2 37008
 .text          0x0805a388       0x2b /x86/lib/libc.a(pthread_sigmask.o)
                0x0805a388                pthread_sigmask
 *fill*         0x0805a3b3        0x1 37008
 .text          0x0805a3b4      0x476 /x86/lib/libc.a(band.o)
                0x0805a434                _check_bands
                0x0805a610                _band_get_aligned
                0x0805a6fc                _band_rlse
                0x0805a6e4                _band_get
 *fill*         0x0805a82a        0x2 37008
 .text          0x0805a82c      0x1a6 /x86/lib/libc.a(compat.o)
                0x0805a914                mprobe
                0x0805a984                mallopt
                0x0805a82c                mallinfo
                0x0805a8bc                mcheck
 *fill*         0x0805a9d2        0x2 37008
 .text          0x0805a9d4      0xa9a /x86/lib/libc.a(dlist.o)
                0x0805b3c8                malloc_opts
                0x0805ad60                _list_memalign
                0x0805b274                _list_resize
                0x0805b090                _list_alloc
                0x0805a9d4                _check_arena
                0x0805ab1c                _check_list
                0x0805b0a8                _list_release
                0x0805b3c0                _list_gc
 *fill*         0x0805b46e        0x2 37008
 .text          0x0805b470       0x1a /x86/lib/libc.a(__exit.o)
                0x0805b470                __exit
 *fill*         0x0805b48a        0x2 37008
 .text          0x0805b48c       0x81 /x86/lib/libc.a(_cleanup.o)
                0x0805b48c                _cleanup
 *fill*         0x0805b50d        0x3 37008
 .text          0x0805b510       0x3f /x86/lib/libc.a(getenv.o)
                0x0805b510                getenv
 *fill*         0x0805b54f        0x1 37008
 .text          0x0805b550      0x199 /x86/lib/libc.a(xdscale.o)
                0x0805b550                _Dscale
 *fill*         0x0805b6e9        0x3 37008
 .text          0x0805b6ec      0x1c0 /x86/lib/libc.a(xdtento.o)
                0x0805b754                _Dtento
 .text          0x0805b8ac       0x9a /x86/lib/libc.a(xdunscal.o)
                0x0805b8ac                _Dunscale
 *fill*         0x0805b946        0x2 37008
 .text          0x0805b948      0x126 /x86/lib/libc.a(xfdscale.o)
                0x0805b948                _FDscale
 *fill*         0x0805ba6e        0x2 37008
 .text          0x0805ba70      0x190 /x86/lib/libc.a(xfdtento.o)
                0x0805baa4                _FDtento
 .text          0x0805bc00       0x86 /x86/lib/libc.a(xfdunsca.o)
                0x0805bc00                _FDunscale
 *fill*         0x0805bc86        0x2 37008
 .text          0x0805bc88       0x2d /x86/lib/libc.a(xferaise.o)
                0x0805bc88                _Feraise
 *fill*         0x0805bcb5        0x3 37008
 .text          0x0805bcb8      0x12e /x86/lib/libc.a(xfreeloc.o)
                0x0805bcb8                _Freeloc
 *fill*         0x0805bde6        0x2 37008
 .text          0x0805bde8      0x195 /x86/lib/libc.a(xldscale.o)
                0x0805bde8                _LDscale
 *fill*         0x0805bf7d        0x3 37008
 .text          0x0805bf80      0x190 /x86/lib/libc.a(xldtento.o)
                0x0805bfb4                _LDtento
 .text          0x0805c110       0xab /x86/lib/libc.a(xldunsca.o)
                0x0805c110                _LDunscale
 *fill*         0x0805c1bb        0x1 37008
 .text          0x0805c1bc      0x162 /x86/lib/libc.a(xlocterm.o)
                0x0805c1bc                _Locvar
                0x0805c1f8                _Locterm
 *fill*         0x0805c31e        0x2 37008
 .text          0x0805c320      0x3dd /x86/lib/libc.a(xstoint.o)
                0x0805c320                _Stoint
 *fill*         0x0805c6fd        0x3 37008
 .text          0x0805c700       0x3f /x86/lib/libc.a(xwctob.o)
                0x0805c700                _Wctob
 *fill*         0x0805c73f        0x1 37008
 .text          0x0805c740       0x20 /x86/lib/libc.a(ClockTime_r.o)
                0x0805c740                ClockTime_r
 .text          0x0805c760       0x20 /x86/lib/libc.a(ConnectDetach_r.o)
                0x0805c760                ConnectDetach_r
 .text          0x0805c780       0x2c /x86/lib/libc.a(MsgSendnc_r.o)
                0x0805c780                MsgSendnc_r
 .text          0x0805c7ac       0x28 /x86/lib/libc.a(MsgSendv.o)
                0x0805c7ac                MsgSendv
 .text          0x0805c7d4       0x24 /x86/lib/libc.a(MsgSendvnc_r.o)
                0x0805c7d4                MsgSendvnc_r
 .text          0x0805c7f8       0x28 /x86/lib/libc.a(SignalAction.o)
                0x0805c7f8                SignalAction
 .text          0x0805c820       0x20 /x86/lib/libc.a(SignalProcmask_r.o)
                0x0805c820                SignalProcmask_r
 .text          0x0805c840       0x20 /x86/lib/libc.a(SyncCondvarSignal_r.o)
                0x0805c840                SyncCondvarSignal_r
 .text          0x0805c860       0x20 /x86/lib/libc.a(SyncCondvarWait_r.o)
                0x0805c860                SyncCondvarWait_r
 .text          0x0805c880       0x28 /x86/lib/libc.a(ThreadDestroy.o)
                0x0805c880                ThreadDestroy
 .text          0x0805c8a8       0x20 /x86/lib/libc.a(ThreadDestroy_r.o)
                0x0805c8a8                ThreadDestroy_r
 .text          0x0805c8c8       0x28 /x86/lib/libc.a(__SysCpupageGet.o)
                0x0805c8c8                __SysCpupageGet
 .text          0x0805c8f0       0x28 /x86/lib/libc.a(__SysCpupageSet.o)
                0x0805c8f0                __SysCpupageSet
 .text          0x0805c918       0x84 /x86/lib/libc.a(sysmgr_confstr_set.o)
                0x0805c918                sysmgr_confstr_set
 .text          0x0805c99c       0x6a /x86/lib/libc.a(_fsopen.o)
                0x0805c99c                _fsopen
 *fill*         0x0805ca06        0x2 37008
 .text          0x0805ca08      0x112 /x86/lib/libc.a(fdopen.o)
                0x0805ca08                fdopen
 *fill*         0x0805cb1a        0x2 37008
 .text          0x0805cb1c       0x50 /x86/lib/libc.a(fprintf.o)
                0x0805cb1c                fprintf
 .text          0x0805cb6c       0x81 /x86/lib/libc.a(xfbuf.o)
                0x0805cb6c                _Fbuf
 *fill*         0x0805cbed        0x3 37008
 .text          0x0805cbf0       0x2b /x86/lib/libc.a(xfprout.o)
                0x0805cbf0                _Fprout
 *fill*         0x0805cc1b        0x1 37008
 .text          0x0805cc1c      0x141 /x86/lib/libc.a(xgetfld.o)
                0x0805cc1c                _Getfld
 *fill*         0x0805cd5d        0x3 37008
 .text          0x0805cd60      0x511 /x86/lib/libc.a(xgetfloa.o)
                0x0805cd60                _Getfloat
 *fill*         0x0805d271        0x3 37008
 .text          0x0805d274      0x33b /x86/lib/libc.a(xgetint.o)
                0x0805d274                _Getint
 *fill*         0x0805d5af        0x1 37008
 .text          0x0805d5b0      0x363 /x86/lib/libc.a(xgetstr.o)
                0x0805d5f8                _Getstr
 *fill*         0x0805d913        0x1 37008
 .text          0x0805d914      0x532 /x86/lib/libc.a(xldtob.o)
                0x0805d914                _Ldtob
 *fill*         0x0805de46        0x2 37008
 .text          0x0805de48      0x1dd /x86/lib/libc.a(xlitob.o)
                0x0805de48                _Litob
 *fill*         0x0805e025        0x3 37008
 .text          0x0805e028      0x279 /x86/lib/libc.a(_conf_get.o)
                0x0805e028                _conf_get
 *fill*         0x0805e2a1        0x3 37008
 .text          0x0805e2a4        0x8 /x86/lib/libc.a(_math_emu_load.o)
                0x0805e2a4                _math_emulator
 .text          0x0805e2ac       0x40 /x86/lib/libc.a(_vopen.o)
                0x0805e2ac                _vopen
 .text          0x0805e2ec      0x122 /x86/lib/libc.a(localtim.o)
                0x0805e2ec                _Tzoff
                0x0805e3e4                localtime
                0x0805e368                _Tzoff_dst
 *fill*         0x0805e40e        0x2 37008
 .text          0x0805e410      0xb57 /x86/lib/libc.a(xgentime.o)
                0x0805e7c8                _Gentime
 *fill*         0x0805ef67        0x1 37008
 .text          0x0805ef68      0x259 /x86/lib/libc.a(xgetdst.o)
                0x0805f04c                _Getdst
                0x0805efbc                __getsecs
 *fill*         0x0805f1c1        0x3 37008
 .text          0x0805f1c4       0x98 /x86/lib/libc.a(xgetrules.o)
                0x0805f1c4                _Getrules
 .text          0x0805f25c       0x75 /x86/lib/libc.a(xgettime.o)
                0x0805f25c                _Gettime
 *fill*         0x0805f2d1        0x3 37008
 .text          0x0805f2d4        0xd /x86/lib/libc.a(xgetzone.o)
                0x0805f2d4                _Getzone
 *fill*         0x0805f2e1        0x3 37008
 .text          0x0805f2e4      0x41a /x86/lib/libc.a(xttotm.o)
                0x0805f550                _Ttotm
                0x0805f2e4                _Daysto
 *fill*         0x0805f6fe        0x2 37008
 .text          0x0805f700      0x112 /x86/lib/libc.a(fork.o)
                0x0805f7e0                fork
                0x0805f700                _fork
 *fill*         0x0805f812        0x2 37008
 .text          0x0805f814       0x2c /x86/lib/libc.a(isatty.o)
                0x0805f814                isatty
 .text          0x0805f840      0x1c2 /x86/lib/libc.a(core.o)
                0x0805f9ec                core_enable
                0x0805f9b0                donecore
                0x0805f954                morecore
 *fill*         0x0805fa02        0x2 37008
 .text          0x0805fa04      0x14c /x86/lib/libc.a(_findenv.o)
                0x0805fa04                _findenv
 .text          0x0805fb50       0x38 /x86/lib/libc.a(ldiv.o)
                0x0805fb50                ldiv
 .text          0x0805fb88      0x137 /x86/lib/libc.a(xdnorm.o)
                0x0805fb88                _Dnorm
 *fill*         0x0805fcbf        0x1 37008
 .text          0x0805fcc0       0xae /x86/lib/libc.a(xfdnorm.o)
                0x0805fcc0                _FDnorm
 *fill*         0x0805fd6e        0x2 37008
 .text          0x0805fd70      0x13d /x86/lib/libc.a(xldnorm.o)
                0x0805fd70                _LDnorm
 *fill*         0x0805fead        0x3 37008
 .text          0x0805feb0       0x30 /x86/lib/libc.a(MsgSendnc.o)
                0x0805feb0                MsgSendnc
 .text          0x0805fee0       0x28 /x86/lib/libc.a(MsgSendvnc.o)
                0x0805fee0                MsgSendvnc
 .text          0x0805ff08       0x1a /x86/lib/libc.a(sopen.o)
                0x0805ff08                sopen
 *fill*         0x0805ff22        0x2 37008
 .text          0x0805ff24       0x5d /x86/lib/libc.a(__fpinit.o)
                0x0805ff24                __fpinit
 *fill*         0x0805ff81        0x3 37008
 .text          0x0805ff84       0x9e /x86/lib/libc.a(__parse_oflag.o)
                0x0805ff84                __parse_oflag
 *fill*         0x08060022        0x2 37008
 .text          0x08060024      0x3ab /x86/lib/libc.a(xgenld.o)
                0x08060024                _Genld
 *fill*         0x080603cf        0x1 37008
 .text          0x080603d0       0x39 /x86/lib/libc.a(strncpy.o)
                0x080603d0                strncpy
 *fill*         0x08060409        0x3 37008
 .text          0x0806040c       0x41 /x86/lib/libc.a(_connect.o)
                0x0806040c                _connect
 *fill*         0x0806044d        0x3 37008
 .text          0x08060450       0xb6 /x86/lib/libc.a(_connect_entry.o)
                0x08060450                _connect_entry
 *fill*         0x08060506        0x2 37008
 .text          0x08060508      0xe3e /x86/lib/libc.a(_connect_ctrl.o)
                0x0806105c                _connect_ctrl
 *fill*         0x08061346        0x2 37008
 .text          0x08061348       0xcd /x86/lib/libc.a(_devctl.o)
                0x08061348                _devctl
 *fill*         0x08061415        0x3 37008
 .text          0x08061418      0x3c7 /x86/lib/libc.a(xisdst.o)
                0x08061418                _Isdst
 *fill*         0x080617df        0x1 37008
 .text          0x080617e0       0xfe /x86/lib/libc.a(mmap.o)
                0x080618b8                mmap
                0x08061888                mmap64
                0x080617e0                _mmap
 *fill*         0x080618de        0x2 37008
 .text          0x080618e0       0x4c /x86/lib/libc.a(munmap.o)
                0x080618e0                munmap
 .text          0x0806192c       0x38 /x86/lib/libc.a(div.o)
                0x0806192c                div
 .text          0x08061964       0x24 /x86/lib/libc.a(ConnectFlags_r.o)
                0x08061964                ConnectFlags_r
 .text          0x08061988       0x56 /x86/lib/libc.a(procmgr_session.o)
                0x08061988                procmgr_session
 *fill*         0x080619de        0x2 37008
 .text          0x080619e0       0x69 /x86/lib/libc.a(__fpbufinit.o)
                0x080619e0                __fpbufinit
 *fill*         0x08061a49        0x3 37008
 .text          0x08061a4c      0x19e /usr/lib/gcc-lib/ntox86/2.95.3/exceptions/libgcc.a(_divdi3.o)
                0x08061a4c                __divdi3
 *fill*         0x08061bea        0x2 37008
 .text          0x08061bec      0x216 /usr/lib/gcc-lib/ntox86/2.95.3/exceptions/libgcc.a(_moddi3.o)
                0x08061bec                __moddi3
 *fill*         0x08061e02        0x2 37008
 .text          0x08061e04      0x112 /usr/lib/gcc-lib/ntox86/2.95.3/exceptions/libgcc.a(_udivdi3.o)
                0x08061e04                __udivdi3
 *fill*         0x08061f16        0x2 37008
 .text          0x08061f18      0x17e /usr/lib/gcc-lib/ntox86/2.95.3/exceptions/libgcc.a(_umoddi3.o)
                0x08061f18                __umoddi3
 *fill*         0x08062096        0x2 37008
 .text          0x08062098       0x4a /usr/lib/gcc-lib/ntox86/2.95.3/crtendC++.o
 *fill*         0x080620e2        0x2 37008
 *(.text.*)
 *(.stub)
 *(.gnu.warning)
 *(.gnu.linkonce.t*)
 .gnu.linkonce.t.__Q23stdt9allocator1ZcRCQ23stdt9allocator1Zc
                0x080620e4        0xa objects_storage_logger.o
                0x080620e4                std::allocator<char>::allocator(std::allocator<char> const &)
 *fill*         0x080620ee        0x2 37008
 .gnu.linkonce.t.__Q23stdt11_String_val2ZcZQ23stdt9allocator1ZcGQ23stdt9allocator1Zc
                0x080620f0       0x29 objects_storage_logger.o
                0x080620f0                std::_String_val<char, std::allocator<char> >::_String_val(std::allocator<char>)
 *fill*         0x08062119        0x3 37008
 .gnu.linkonce.t._Myptr__Q23stdt12basic_string3ZcZQ23stdt11char_traits1ZcZQ23stdt9allocator1Zc
                0x0806211c       0x1d objects_storage_logger.o
                0x0806211c                std::basic_string<char, std::char_traits<char>, std::allocator<char> >::_Myptr(void)
 *fill*         0x08062139        0x3 37008
 .gnu.linkonce.t.deallocate__Q23stdt9allocator1ZcPcUi
                0x0806213c       0x1e objects_storage_logger.o
                0x0806213c                std::allocator<char>::deallocate(char *, unsigned int)
 *fill*         0x0806215a        0x2 37008
 .gnu.linkonce.t._Eos__Q23stdt12basic_string3ZcZQ23stdt11char_traits1ZcZQ23stdt9allocator1ZcUi
                0x0806215c       0x39 objects_storage_logger.o
                0x0806215c                std::basic_string<char, std::char_traits<char>, std::allocator<char> >::_Eos(unsigned int)
 *fill*         0x08062195        0x3 37008
 .gnu.linkonce.t._Tidy__Q23stdt12basic_string3ZcZQ23stdt11char_traits1ZcZQ23stdt9allocator1Zcb
                0x08062198       0x57 objects_storage_logger.o
                0x08062198                std::basic_string<char, std::char_traits<char>, std::allocator<char> >::_Tidy(bool)
 *fill*         0x080621ef        0x1 37008
 .gnu.linkonce.t.size__CQ23stdt12basic_string3ZcZQ23stdt11char_traits1ZcZQ23stdt9allocator1Zc
                0x080621f0        0xf objects_storage_logger.o
                0x080621f0                std::basic_string<char, std::char_traits<char>, std::allocator<char> >::size(void) const
 *fill*         0x080621ff        0x1 37008
 .gnu.linkonce.t.max_size__CQ23stdt9allocator1Zc
                0x08062200       0x24 objects_storage_logger.o
                0x08062200                std::allocator<char>::max_size(void) const
 .gnu.linkonce.t.max_size__CQ23stdt12basic_string3ZcZQ23stdt11char_traits1ZcZQ23stdt9allocator1Zc
                0x08062224       0x3a objects_storage_logger.o
                0x08062224                std::basic_string<char, std::char_traits<char>, std::allocator<char> >::max_size(void) const
 *fill*         0x0806225e        0x2 37008
 .gnu.linkonce.t._Allocate__H1Zc_3stdUiPX01_PX01
                0x08062260       0x29 objects_storage_logger.o
                0x08062260                char * std::_Allocate<char>(unsigned int, char *)
 *fill*         0x08062289        0x3 37008
 .gnu.linkonce.t.allocate__Q23stdt9allocator1ZcUi
                0x0806228c       0x26 objects_storage_logger.o
                0x0806228c                std::allocator<char>::allocate(unsigned int)
 *fill*         0x080622b2        0x2 37008
 .gnu.linkonce.t.allocate__H1Zv_Q23stdt9allocator1ZcUiPCX00_Pc
                0x080622b4       0x25 objects_storage_logger.o
                0x080622b4                char * std::allocator<char>::allocate<void>(unsigned int, void const *)
 *fill*         0x080622d9        0x3 37008
 .gnu.linkonce.t._Copy__Q23stdt12basic_string3ZcZQ23stdt11char_traits1ZcZQ23stdt9allocator1ZcUiUi
                0x080622dc      0x12d objects_storage_logger.o
                0x080622dc                std::basic_string<char, std::char_traits<char>, std::allocator<char> >::_Copy(unsigned int, unsigned int)
 *fill*         0x08062409        0x3 37008
 .gnu.linkonce.t._Grow__Q23stdt12basic_string3ZcZQ23stdt11char_traits1ZcZQ23stdt9allocator1ZcUib
                0x0806240c       0x97 objects_storage_logger.o
                0x0806240c                std::basic_string<char, std::char_traits<char>, std::allocator<char> >::_Grow(unsigned int, bool)
 *fill*         0x080624a3        0x1 37008
 .gnu.linkonce.t.erase__Q23stdt12basic_string3ZcZQ23stdt11char_traits1ZcZQ23stdt9allocator1ZcUiUi
                0x080624a4       0xc2 objects_storage_logger.o
                0x080624a4                std::basic_string<char, std::char_traits<char>, std::allocator<char> >::erase(unsigned int, unsigned int)
 *fill*         0x08062566        0x2 37008
 .gnu.linkonce.t._Myptr__CQ23stdt12basic_string3ZcZQ23stdt11char_traits1ZcZQ23stdt9allocator1Zc
                0x08062568       0x1d objects_storage_logger.o
                0x08062568                std::basic_string<char, std::char_traits<char>, std::allocator<char> >::_Myptr(void) const
 *fill*         0x08062585        0x3 37008
 .gnu.linkonce.t.assign__Q23stdt12basic_string3ZcZQ23stdt11char_traits1ZcZQ23stdt9allocator1ZcRCQ23stdt12basic_string3ZcZQ23stdt11char_traits1ZcZQ23stdt9allocator1ZcUiUi
                0x08062588       0xee objects_storage_logger.o
                0x08062588                std::basic_string<char, std::char_traits<char>, std::allocator<char> >::assign(std::basic_string<char, std::char_traits<char>, std::allocator<char> > const &, unsigned int, unsigned int)
 *fill*         0x08062676        0x2 37008
 .gnu.linkonce.t.__Q23stdt12basic_string3ZcZQ23stdt11char_traits1ZcZQ23stdt9allocator1ZcRCQ23stdt12basic_string3ZcZQ23stdt11char_traits1ZcZQ23stdt9allocator1Zc
                0x08062678       0x5a objects_storage_logger.o
                0x08062678                std::basic_string<char, std::char_traits<char>, std::allocator<char> >::basic_string(std::basic_string<char, std::char_traits<char>, std::allocator<char> > const &)
 *fill*         0x080626d2        0x2 37008
 .gnu.linkonce.t._._Q23stdt12basic_string3ZcZQ23stdt11char_traits1ZcZQ23stdt9allocator1Zc
                0x080626d4       0x35 objects_storage_logger.o
                0x080626d4                std::basic_string<char, std::char_traits<char>, std::allocator<char> >::~basic_string(void)
 *fill*         0x08062709        0x3 37008
 .gnu.linkonce.t.c_str__CQ23stdt12basic_string3ZcZQ23stdt11char_traits1ZcZQ23stdt9allocator1Zc
                0x0806270c       0x21 objects_storage_logger.o
                0x0806270c                std::basic_string<char, std::char_traits<char>, std::allocator<char> >::c_str(void) const
 *fill*         0x0806272d        0x3 37008
 .gnu.linkonce.t.__Q23stdt9allocator1Zc
                0x08062730        0xa objects_storage_logger.o
                0x08062730                std::allocator<char>::allocator(void)
 *fill*         0x0806273a        0x2 37008
 .gnu.linkonce.t.__Q23stdt12basic_string3ZcZQ23stdt11char_traits1ZcZQ23stdt9allocator1Zc
                0x0806273c       0x42 objects_storage_logger.o
                0x0806273c                std::basic_string<char, std::char_traits<char>, std::allocator<char> >::basic_string(void)
 *fill*         0x0806277e        0x2 37008
 .gnu.linkonce.t.__Q23stdt6_Ptrit6ZcZiZPcZRcZPcZRcPc
                0x08062780       0x12 objects_storage_logger.o
                0x08062780                std::_Ptrit<char, int, char *, char &, char *, char &>::_Ptrit(char *)
 *fill*         0x08062792        0x2 37008
 .gnu.linkonce.t.base__CQ23stdt6_Ptrit6ZcZiZPcZRcZPcZRc
                0x08062794        0xf objects_storage_logger.o
                0x08062794                std::_Ptrit<char, int, char *, char &, char *, char &>::base(void) const
 *fill*         0x080627a3        0x1 37008
 .gnu.linkonce.t.__Q23stdt6_Ptrit6ZcZiZPcZRcZPcZRcRCQ23stdt6_Ptrit6ZcZiZPcZRcZPcZRc
                0x080627a4       0x25 objects_storage_logger.o
                0x080627a4                std::_Ptrit<char, int, char *, char &, char *, char &>::_Ptrit(std::_Ptrit<char, int, char *, char &, char *, char &> const &)
 *fill*         0x080627c9        0x3 37008
 .gnu.linkonce.t.begin__Q23stdt12basic_string3ZcZQ23stdt11char_traits1ZcZQ23stdt9allocator1Zc
                0x080627cc       0x38 objects_storage_logger.o
                0x080627cc                std::basic_string<char, std::char_traits<char>, std::allocator<char> >::begin(void)
 .gnu.linkonce.t.end__Q23stdt12basic_string3ZcZQ23stdt11char_traits1ZcZQ23stdt9allocator1Zc
                0x08062804       0x3d objects_storage_logger.o
                0x08062804                std::basic_string<char, std::char_traits<char>, std::allocator<char> >::end(void)
 *fill*         0x08062841        0x3 37008
 .gnu.linkonce.t.__mi__CQ23stdt6_Ptrit6ZcZiZPCcZRCcZPcZRcRCQ23stdt6_Ptrit6ZcZiZPCcZRCcZPcZRc
                0x08062844       0x17 objects_storage_logger.o
                0x08062844                std::_Ptrit<char, int, char const *, char const &, char *, char &>::operator-(std::_Ptrit<char, int, char const *, char const &, char *, char &> const &) const
 *fill*         0x0806285b        0x1 37008
 .gnu.linkonce.t.base__CQ23stdt6_Ptrit6ZcZiZPCcZRCcZPcZRc
                0x0806285c        0xf objects_storage_logger.o
                0x0806285c                std::_Ptrit<char, int, char const *, char const &, char *, char &>::base(void) const
 *fill*         0x0806286b        0x1 37008
 .gnu.linkonce.t._Pdif__Q23stdt12basic_string3ZcZQ23stdt11char_traits1ZcZQ23stdt9allocator1ZcGQ23stdt6_Ptrit6ZcZiZPCcZRCcZPcZRcT1
                0x0806286c       0x3e objects_storage_logger.o
                0x0806286c                std::basic_string<char, std::char_traits<char>, std::allocator<char> >::_Pdif(std::_Ptrit<char, int, char const *, char const &, char *, char &>, std::_Ptrit<char, int, char const *, char const &, char *, char &>)
 *fill*         0x080628aa        0x2 37008
 .gnu.linkonce.t.__Q23stdt6_Ptrit6ZcZiZPCcZRCcZPcZRcRCQ23stdt6_Ptrit6ZcZiZPcZRcZPcZRc
                0x080628ac       0x25 objects_storage_logger.o
                0x080628ac                std::_Ptrit<char, int, char const *, char const &, char *, char &>::_Ptrit(std::_Ptrit<char, int, char *, char &, char *, char &> const &)
 *fill*         0x080628d1        0x3 37008
 .gnu.linkonce.t._Inside__Q23stdt12basic_string3ZcZQ23stdt11char_traits1ZcZQ23stdt9allocator1ZcPCc
                0x080628d4       0x48 objects_storage_logger.o
                0x080628d4                std::basic_string<char, std::char_traits<char>, std::allocator<char> >::_Inside(char const *)
 .gnu.linkonce.t.replace__Q23stdt12basic_string3ZcZQ23stdt11char_traits1ZcZQ23stdt9allocator1ZcUiUiRCQ23stdt12basic_string3ZcZQ23stdt11char_traits1ZcZQ23stdt9allocator1ZcUiUi
                0x0806291c      0x409 objects_storage_logger.o
                0x0806291c                std::basic_string<char, std::char_traits<char>, std::allocator<char> >::replace(unsigned int, unsigned int, std::basic_string<char, std::char_traits<char>, std::allocator<char> > const &, unsigned int, unsigned int)
 *fill*         0x08062d25        0x3 37008
 .gnu.linkonce.t.replace__Q23stdt12basic_string3ZcZQ23stdt11char_traits1ZcZQ23stdt9allocator1ZcUiUiPCcUi
                0x08062d28      0x1c8 objects_storage_logger.o
                0x08062d28                std::basic_string<char, std::char_traits<char>, std::allocator<char> >::replace(unsigned int, unsigned int, char const *, unsigned int)
 .gnu.linkonce.t.replace__Q23stdt12basic_string3ZcZQ23stdt11char_traits1ZcZQ23stdt9allocator1ZcGQ23stdt6_Ptrit6ZcZiZPcZRcZPcZRcT1PCcT3
                0x08062ef0      0x176 objects_storage_logger.o
                0x08062ef0                std::basic_string<char, std::char_traits<char>, std::allocator<char> >::replace(std::_Ptrit<char, int, char *, char &, char *, char &>, std::_Ptrit<char, int, char *, char &, char *, char &>, char const *, char const *)
 *fill*         0x08063066        0x2 37008
 .gnu.linkonce.t.assign__Q23stdt12basic_string3ZcZQ23stdt11char_traits1ZcZQ23stdt9allocator1ZcPCcT1
                0x08063068       0x51 objects_storage_logger.o
                0x08063068                std::basic_string<char, std::char_traits<char>, std::allocator<char> >::assign(char const *, char const *)
 *fill*         0x080630b9        0x3 37008
 .gnu.linkonce.t._Myptr__Q23stdt12basic_string3ZwZQ23stdt11char_traits1ZwZQ23stdt9allocator1Zw
                0x080630bc       0x1d objects_storage_logger.o
                0x080630bc                std::basic_string<wchar_t, std::char_traits<wchar_t>, std::allocator<wchar_t> >::_Myptr(void)
 *fill*         0x080630d9        0x3 37008
 .gnu.linkonce.t.deallocate__Q23stdt9allocator1ZwPwUi
                0x080630dc       0x1e objects_storage_logger.o
                0x080630dc                std::allocator<wchar_t>::deallocate(wchar_t *, unsigned int)
 *fill*         0x080630fa        0x2 37008
 .gnu.linkonce.t._Eos__Q23stdt12basic_string3ZwZQ23stdt11char_traits1ZwZQ23stdt9allocator1ZwUi
                0x080630fc       0x43 objects_storage_logger.o
                0x080630fc                std::basic_string<wchar_t, std::char_traits<wchar_t>, std::allocator<wchar_t> >::_Eos(unsigned int)
 *fill*         0x0806313f        0x1 37008
 .gnu.linkonce.t._Tidy__Q23stdt12basic_string3ZwZQ23stdt11char_traits1ZwZQ23stdt9allocator1Zwb
                0x08063140       0x57 objects_storage_logger.o
                0x08063140                std::basic_string<wchar_t, std::char_traits<wchar_t>, std::allocator<wchar_t> >::_Tidy(bool)
 *fill*         0x08063197        0x1 37008
 .gnu.linkonce.t._._Q23stdt12basic_string3ZwZQ23stdt11char_traits1ZwZQ23stdt9allocator1Zw
                0x08063198       0x35 objects_storage_logger.o
                0x08063198                std::basic_string<wchar_t, std::char_traits<wchar_t>, std::allocator<wchar_t> >::~basic_string(void)
 *fill*         0x080631cd        0x3 37008
 .gnu.linkonce.t.__Q23stdt9allocator1Zw
                0x080631d0        0xa objects_storage_logger.o
                0x080631d0                std::allocator<wchar_t>::allocator(void)
 *fill*         0x080631da        0x2 37008
 .gnu.linkonce.t.__Q23stdt9allocator1ZwRCQ23stdt9allocator1Zw
                0x080631dc        0xa objects_storage_logger.o
                0x080631dc                std::allocator<wchar_t>::allocator(std::allocator<wchar_t> const &)
 *fill*         0x080631e6        0x2 37008
 .gnu.linkonce.t.__Q23stdt11_String_val2ZwZQ23stdt9allocator1ZwGQ23stdt9allocator1Zw
                0x080631e8       0x29 objects_storage_logger.o
                0x080631e8                std::_String_val<wchar_t, std::allocator<wchar_t> >::_String_val(std::allocator<wchar_t>)
 *fill*         0x08063211        0x3 37008
 .gnu.linkonce.t.__Q23stdt12basic_string3ZwZQ23stdt11char_traits1ZwZQ23stdt9allocator1Zw
                0x08063214       0x42 objects_storage_logger.o
                0x08063214                std::basic_string<wchar_t, std::char_traits<wchar_t>, std::allocator<wchar_t> >::basic_string(void)
 *fill*         0x08063256        0x2 37008
 .gnu.linkonce.t.__Q23stdt6_Ptrit6ZwZiZPwZRwZPwZRwPw
                0x08063258       0x12 objects_storage_logger.o
                0x08063258                std::_Ptrit<wchar_t, int, wchar_t *, wchar_t &, wchar_t *, wchar_t &>::_Ptrit(wchar_t *)
 *fill*         0x0806326a        0x2 37008
 .gnu.linkonce.t.base__CQ23stdt6_Ptrit6ZwZiZPwZRwZPwZRw
                0x0806326c        0xf objects_storage_logger.o
                0x0806326c                std::_Ptrit<wchar_t, int, wchar_t *, wchar_t &, wchar_t *, wchar_t &>::base(void) const
 *fill*         0x0806327b        0x1 37008
 .gnu.linkonce.t.__Q23stdt6_Ptrit6ZwZiZPwZRwZPwZRwRCQ23stdt6_Ptrit6ZwZiZPwZRwZPwZRw
                0x0806327c       0x25 objects_storage_logger.o
                0x0806327c                std::_Ptrit<wchar_t, int, wchar_t *, wchar_t &, wchar_t *, wchar_t &>::_Ptrit(std::_Ptrit<wchar_t, int, wchar_t *, wchar_t &, wchar_t *, wchar_t &> const &)
 *fill*         0x080632a1        0x3 37008
 .gnu.linkonce.t.begin__Q23stdt12basic_string3ZwZQ23stdt11char_traits1ZwZQ23stdt9allocator1Zw
                0x080632a4       0x38 objects_storage_logger.o
                0x080632a4                std::basic_string<wchar_t, std::char_traits<wchar_t>, std::allocator<wchar_t> >::begin(void)
 .gnu.linkonce.t.end__Q23stdt12basic_string3ZwZQ23stdt11char_traits1ZwZQ23stdt9allocator1Zw
                0x080632dc       0x46 objects_storage_logger.o
                0x080632dc                std::basic_string<wchar_t, std::char_traits<wchar_t>, std::allocator<wchar_t> >::end(void)
 *fill*         0x08063322        0x2 37008
 .gnu.linkonce.t.__mi__CQ23stdt6_Ptrit6ZwZiZPCwZRCwZPwZRwRCQ23stdt6_Ptrit6ZwZiZPCwZRCwZPwZRw
                0x08063324       0x24 objects_storage_logger.o
                0x08063324                std::_Ptrit<wchar_t, int, wchar_t const *, wchar_t const &, wchar_t *, wchar_t &>::operator-(std::_Ptrit<wchar_t, int, wchar_t const *, wchar_t const &, wchar_t *, wchar_t &> const &) const
 .gnu.linkonce.t.base__CQ23stdt6_Ptrit6ZwZiZPCwZRCwZPwZRw
                0x08063348        0xf objects_storage_logger.o
                0x08063348                std::_Ptrit<wchar_t, int, wchar_t const *, wchar_t const &, wchar_t *, wchar_t &>::base(void) const
 *fill*         0x08063357        0x1 37008
 .gnu.linkonce.t._Pdif__Q23stdt12basic_string3ZwZQ23stdt11char_traits1ZwZQ23stdt9allocator1ZwGQ23stdt6_Ptrit6ZwZiZPCwZRCwZPwZRwT1
                0x08063358       0x3e objects_storage_logger.o
                0x08063358                std::basic_string<wchar_t, std::char_traits<wchar_t>, std::allocator<wchar_t> >::_Pdif(std::_Ptrit<wchar_t, int, wchar_t const *, wchar_t const &, wchar_t *, wchar_t &>, std::_Ptrit<wchar_t, int, wchar_t const *, wchar_t const &, wchar_t *, wchar_t &>)
 *fill*         0x08063396        0x2 37008
 .gnu.linkonce.t.__Q23stdt6_Ptrit6ZwZiZPCwZRCwZPwZRwRCQ23stdt6_Ptrit6ZwZiZPwZRwZPwZRw
                0x08063398       0x25 objects_storage_logger.o
                0x08063398                std::_Ptrit<wchar_t, int, wchar_t const *, wchar_t const &, wchar_t *, wchar_t &>::_Ptrit(std::_Ptrit<wchar_t, int, wchar_t *, wchar_t &, wchar_t *, wchar_t &> const &)
 *fill*         0x080633bd        0x3 37008
 .gnu.linkonce.t.max_size__CQ23stdt9allocator1Zw
                0x080633c0       0x24 objects_storage_logger.o
                0x080633c0                std::allocator<wchar_t>::max_size(void) const
 .gnu.linkonce.t.max_size__CQ23stdt12basic_string3ZwZQ23stdt11char_traits1ZwZQ23stdt9allocator1Zw
                0x080633e4       0x3a objects_storage_logger.o
                0x080633e4                std::basic_string<wchar_t, std::char_traits<wchar_t>, std::allocator<wchar_t> >::max_size(void) const
 *fill*         0x0806341e        0x2 37008
 .gnu.linkonce.t._Allocate__H1Zw_3stdUiPX01_PX01
                0x08063420       0x30 objects_storage_logger.o
                0x08063420                wchar_t * std::_Allocate<wchar_t>(unsigned int, wchar_t *)
 .gnu.linkonce.t.allocate__Q23stdt9allocator1ZwUi
                0x08063450       0x26 objects_storage_logger.o
                0x08063450                std::allocator<wchar_t>::allocate(unsigned int)
 *fill*         0x08063476        0x2 37008
 .gnu.linkonce.t.allocate__H1Zv_Q23stdt9allocator1ZwUiPCX00_Pw
                0x08063478       0x25 objects_storage_logger.o
                0x08063478                wchar_t * std::allocator<wchar_t>::allocate<void>(unsigned int, void const *)
 *fill*         0x0806349d        0x3 37008
 .gnu.linkonce.t._Copy__Q23stdt12basic_string3ZwZQ23stdt11char_traits1ZwZQ23stdt9allocator1ZwUiUi
                0x080634a0      0x12d objects_storage_logger.o
                0x080634a0                std::basic_string<wchar_t, std::char_traits<wchar_t>, std::allocator<wchar_t> >::_Copy(unsigned int, unsigned int)
 *fill*         0x080635cd        0x3 37008
 .gnu.linkonce.t._Grow__Q23stdt12basic_string3ZwZQ23stdt11char_traits1ZwZQ23stdt9allocator1ZwUib
                0x080635d0       0x97 objects_storage_logger.o
                0x080635d0                std::basic_string<wchar_t, std::char_traits<wchar_t>, std::allocator<wchar_t> >::_Grow(unsigned int, bool)
 *fill*         0x08063667        0x1 37008
 .gnu.linkonce.t.erase__Q23stdt12basic_string3ZwZQ23stdt11char_traits1ZwZQ23stdt9allocator1ZwUiUi
                0x08063668       0xe1 objects_storage_logger.o
                0x08063668                std::basic_string<wchar_t, std::char_traits<wchar_t>, std::allocator<wchar_t> >::erase(unsigned int, unsigned int)
 *fill*         0x08063749        0x3 37008
 .gnu.linkonce.t._Inside__Q23stdt12basic_string3ZwZQ23stdt11char_traits1ZwZQ23stdt9allocator1ZwPCw
                0x0806374c       0x51 objects_storage_logger.o
                0x0806374c                std::basic_string<wchar_t, std::char_traits<wchar_t>, std::allocator<wchar_t> >::_Inside(wchar_t const *)
 *fill*         0x0806379d        0x3 37008
 .gnu.linkonce.t.size__CQ23stdt12basic_string3ZwZQ23stdt11char_traits1ZwZQ23stdt9allocator1Zw
                0x080637a0        0xf objects_storage_logger.o
                0x080637a0                std::basic_string<wchar_t, std::char_traits<wchar_t>, std::allocator<wchar_t> >::size(void) const
 *fill*         0x080637af        0x1 37008
 .gnu.linkonce.t._Myptr__CQ23stdt12basic_string3ZwZQ23stdt11char_traits1ZwZQ23stdt9allocator1Zw
                0x080637b0       0x1d objects_storage_logger.o
                0x080637b0                std::basic_string<wchar_t, std::char_traits<wchar_t>, std::allocator<wchar_t> >::_Myptr(void) const
 *fill*         0x080637cd        0x3 37008
 .gnu.linkonce.t.replace__Q23stdt12basic_string3ZwZQ23stdt11char_traits1ZwZQ23stdt9allocator1ZwUiUiRCQ23stdt12basic_string3ZwZQ23stdt11char_traits1ZwZQ23stdt9allocator1ZwUiUi
                0x080637d0      0x535 objects_storage_logger.o
                0x080637d0                std::basic_string<wchar_t, std::char_traits<wchar_t>, std::allocator<wchar_t> >::replace(unsigned int, unsigned int, std::basic_string<wchar_t, std::char_traits<wchar_t>, std::allocator<wchar_t> > const &, unsigned int, unsigned int)
 *fill*         0x08063d05        0x3 37008
 .gnu.linkonce.t.replace__Q23stdt12basic_string3ZwZQ23stdt11char_traits1ZwZQ23stdt9allocator1ZwUiUiPCwUi
                0x08063d08      0x221 objects_storage_logger.o
                0x08063d08                std::basic_string<wchar_t, std::char_traits<wchar_t>, std::allocator<wchar_t> >::replace(unsigned int, unsigned int, wchar_t const *, unsigned int)
 *fill*         0x08063f29        0x3 37008
 .gnu.linkonce.t.replace__Q23stdt12basic_string3ZwZQ23stdt11char_traits1ZwZQ23stdt9allocator1ZwGQ23stdt6_Ptrit6ZwZiZPwZRwZPwZRwT1PCwT3
                0x08063f2c      0x17d objects_storage_logger.o
                0x08063f2c                std::basic_string<wchar_t, std::char_traits<wchar_t>, std::allocator<wchar_t> >::replace(std::_Ptrit<wchar_t, int, wchar_t *, wchar_t &, wchar_t *, wchar_t &>, std::_Ptrit<wchar_t, int, wchar_t *, wchar_t &, wchar_t *, wchar_t &>, wchar_t const *, wchar_t const *)
 *fill*         0x080640a9        0x3 37008
 .gnu.linkonce.t.assign__Q23stdt12basic_string3ZwZQ23stdt11char_traits1ZwZQ23stdt9allocator1ZwPCwT1
                0x080640ac       0x51 objects_storage_logger.o
                0x080640ac                std::basic_string<wchar_t, std::char_traits<wchar_t>, std::allocator<wchar_t> >::assign(wchar_t const *, wchar_t const *)
 *fill*         0x080640fd        0x3 37008
 .gnu.linkonce.t.c_str__CQ23stdt12basic_string3ZwZQ23stdt11char_traits1ZwZQ23stdt9allocator1Zw
                0x08064100       0x21 objects_storage_logger.o
                0x08064100                std::basic_string<wchar_t, std::char_traits<wchar_t>, std::allocator<wchar_t> >::c_str(void) const
 *fill*         0x08064121        0x3 37008
 .gnu.linkonce.t._Tidy__Q23stdt8_Tidyfac1ZQ23stdt5ctype1Zc
                0x08064124       0xb0 objects_storage_logger.o
                0x08064124                std::_Tidyfac<std::ctype<char> >::_Tidy(void)
 .gnu.linkonce.t._Save__Q23stdt8_Tidyfac1ZQ23stdt5ctype1ZcPQ23stdt5ctype1Zc
                0x080641d4       0x3a objects_storage_logger.o
                0x080641d4                std::_Tidyfac<std::ctype<char> >::_Save(std::ctype<char> *)
 *fill*         0x0806420e        0x2 37008
 .gnu.linkonce.t.reserve__Q23stdt12basic_string3ZcZQ23stdt11char_traits1ZcZQ23stdt9allocator1ZcUi
                0x08064210       0x29 objects_storage_logger.o
                0x08064210                std::basic_string<char, std::char_traits<char>, std::allocator<char> >::reserve(unsigned int)
 *fill*         0x08064239        0x3 37008
 .gnu.linkonce.t.assign__Q23stdt12basic_string3ZcZQ23stdt11char_traits1ZcZQ23stdt9allocator1ZcPCcUi
                0x0806423c       0x9b objects_storage_logger.o
                0x0806423c                std::basic_string<char, std::char_traits<char>, std::allocator<char> >::assign(char const *, unsigned int)
 *fill*         0x080642d7        0x1 37008
 .gnu.linkonce.t.assign__Q23stdt12basic_string3ZcZQ23stdt11char_traits1ZcZQ23stdt9allocator1ZcPCc
                0x080642d8       0x37 objects_storage_logger.o
                0x080642d8                std::basic_string<char, std::char_traits<char>, std::allocator<char> >::assign(char const *)
 *fill*         0x0806430f        0x1 37008
 .gnu.linkonce.t.__as__Q23stdt12basic_string3ZcZQ23stdt11char_traits1ZcZQ23stdt9allocator1ZcPCc
                0x08064310       0x25 objects_storage_logger.o
                0x08064310                std::basic_string<char, std::char_traits<char>, std::allocator<char> >::operator=(char const *)
 *fill*         0x08064335        0x3 37008
 .gnu.linkonce.t.append__Q23stdt12basic_string3ZcZQ23stdt11char_traits1ZcZQ23stdt9allocator1ZcRCQ23stdt12basic_string3ZcZQ23stdt11char_traits1ZcZQ23stdt9allocator1ZcUiUi
                0x08064338       0xe9 objects_storage_logger.o
                0x08064338                std::basic_string<char, std::char_traits<char>, std::allocator<char> >::append(std::basic_string<char, std::char_traits<char>, std::allocator<char> > const &, unsigned int, unsigned int)
 *fill*         0x08064421        0x3 37008
 .gnu.linkonce.t.append__Q23stdt12basic_string3ZcZQ23stdt11char_traits1ZcZQ23stdt9allocator1ZcRCQ23stdt12basic_string3ZcZQ23stdt11char_traits1ZcZQ23stdt9allocator1Zc
                0x08064424       0x26 objects_storage_logger.o
                0x08064424                std::basic_string<char, std::char_traits<char>, std::allocator<char> >::append(std::basic_string<char, std::char_traits<char>, std::allocator<char> > const &)
 *fill*         0x0806444a        0x2 37008
 .gnu.linkonce.t.__apl__Q23stdt12basic_string3ZcZQ23stdt11char_traits1ZcZQ23stdt9allocator1ZcRCQ23stdt12basic_string3ZcZQ23stdt11char_traits1ZcZQ23stdt9allocator1Zc
                0x0806444c       0x25 objects_storage_logger.o
                0x0806444c                std::basic_string<char, std::char_traits<char>, std::allocator<char> >::operator+=(std::basic_string<char, std::char_traits<char>, std::allocator<char> > const &)
 *fill*         0x08064471        0x3 37008
 .gnu.linkonce.t.assign__Q23stdt11char_traits1ZwRwRCw
                0x08064474        0xf objects_storage_logger.o
                0x08064474                std::char_traits<wchar_t>::assign(wchar_t &, wchar_t const &)
 *fill*         0x08064483        0x1 37008
 .gnu.linkonce.t.copy__Q23stdt11char_traits1ZwPwPCwUi
                0x08064484       0x26 objects_storage_logger.o
                0x08064484                std::char_traits<wchar_t>::copy(wchar_t *, wchar_t const *, unsigned int)
 *fill*         0x080644aa        0x2 37008
 .gnu.linkonce.t.move__Q23stdt11char_traits1ZwPwPCwUi
                0x080644ac       0x26 objects_storage_logger.o
                0x080644ac                std::char_traits<wchar_t>::move(wchar_t *, wchar_t const *, unsigned int)
 *fill*         0x080644d2        0x2 37008
 .gnu.linkonce.t.assign__Q23stdt11char_traits1ZcRcRCc
                0x080644d4        0xf objects_storage_logger.o
                0x080644d4                std::char_traits<char>::assign(char &, char const &)
 *fill*         0x080644e3        0x1 37008
 .gnu.linkonce.t.length__Q23stdt11char_traits1ZcPCc
                0x080644e4       0x1e objects_storage_logger.o
                0x080644e4                std::char_traits<char>::length(char const *)
 *fill*         0x08064502        0x2 37008
 .gnu.linkonce.t.copy__Q23stdt11char_traits1ZcPcPCcUi
                0x08064504       0x26 objects_storage_logger.o
                0x08064504                std::char_traits<char>::copy(char *, char const *, unsigned int)
 *fill*         0x0806452a        0x2 37008
 .gnu.linkonce.t.move__Q23stdt11char_traits1ZcPcPCcUi
                0x0806452c       0x26 objects_storage_logger.o
                0x0806452c                std::char_traits<char>::move(char *, char const *, unsigned int)
 *fill*         0x08064552        0x2 37008
 .gnu.linkonce.t._Incref__Q33std6locale5facet
                0x08064554       0x6d objects_storage_logger.o
                0x08064554                std::locale::facet::_Incref(void)
 *fill*         0x080645c1        0x3 37008
 .gnu.linkonce.t._Decref__Q33std6locale5facet
                0x080645c4       0x8b objects_storage_logger.o
                0x080645c4                std::locale::facet::_Decref(void)
 *fill*         0x0806464f        0x1 37008
 .gnu.linkonce.t.__22objects_storage_logger
                0x08064650        0xa objects_storage_logger.o
                0x08064650                objects_storage_logger::objects_storage_logger(void)
 *fill*         0x0806465a        0x2 37008
 .gnu.linkonce.t._Left__Q23stdt5_Tree1ZQ23stdt12_Tmap_traits5ZiZP25abstract_job_data_managerZQ23stdt4less1ZiZQ23stdt9allocator1ZQ23stdt4pair2ZCiZP25abstract_job_data_managerb0PQ33stdt9_Tree_nod1ZQ23stdt12_Tmap_traits5ZiZP25abstract_job_data_managerZQ23stdt4less1ZiZQ23stdt9allocator1ZQ23stdt4pair2ZCiZP25abstract_job_data_managerb0_5_Node
                0x0806465c        0xe manager_of_data_storage.o
                0x0806465c                std::_Tree<std::_Tmap_traits<int, abstract_job_data_manager *, std::less<int>, std::allocator<std::pair<int const, abstract_job_data_manager *> >, false> >::_Left(std::_Tree_nod<std::_Tmap_traits<int, abstract_job_data_manager *, std::less<int>, std::allocator<std::pair<int const, abstract_job_data_manager *> >, false> >::_Node *)
 *fill*         0x0806466a        0x2 37008
 .gnu.linkonce.t._Lmost__Q23stdt5_Tree1ZQ23stdt12_Tmap_traits5ZiZP25abstract_job_data_managerZQ23stdt4less1ZiZQ23stdt9allocator1ZQ23stdt4pair2ZCiZP25abstract_job_data_managerb0
                0x0806466c       0x24 manager_of_data_storage.o
                0x0806466c                std::_Tree<std::_Tmap_traits<int, abstract_job_data_manager *, std::less<int>, std::allocator<std::pair<int const, abstract_job_data_manager *> >, false> >::_Lmost(void)
 .gnu.linkonce.t.__Q33stdt5_Tree1ZQ23stdt12_Tmap_traits5ZiZP25abstract_job_data_managerZQ23stdt4less1ZiZQ23stdt9allocator1ZQ23stdt4pair2ZCiZP25abstract_job_data_managerb0_14const_iteratorPQ33stdt9_Tree_nod1ZQ23stdt12_Tmap_traits5ZiZP25abstract_job_data_managerZQ23stdt4less1ZiZQ23stdt9allocator1ZQ23stdt4pair2ZCiZP25abstract_job_data_managerb0_5_Node
                0x08064690       0x12 manager_of_data_storage.o
                0x08064690                std::_Tree<std::_Tmap_traits<int, abstract_job_data_manager *, std::less<int>, std::allocator<std::pair<int const, abstract_job_data_manager *> >, false> >::const_iterator::const_iterator(std::_Tree_nod<std::_Tmap_traits<int, abstract_job_data_manager *, std::less<int>, std::allocator<std::pair<int const, abstract_job_data_manager *> >, false> >::_Node *)
 *fill*         0x080646a2        0x2 37008
 .gnu.linkonce.t.__Q33stdt5_Tree1ZQ23stdt12_Tmap_traits5ZiZP25abstract_job_data_managerZQ23stdt4less1ZiZQ23stdt9allocator1ZQ23stdt4pair2ZCiZP25abstract_job_data_managerb0_8iteratorPQ33stdt9_Tree_nod1ZQ23stdt12_Tmap_traits5ZiZP25abstract_job_data_managerZQ23stdt4less1ZiZQ23stdt9allocator1ZQ23stdt4pair2ZCiZP25abstract_job_data_managerb0_5_Node
                0x080646a4       0x23 manager_of_data_storage.o
                0x080646a4                std::_Tree<std::_Tmap_traits<int, abstract_job_data_manager *, std::less<int>, std::allocator<std::pair<int const, abstract_job_data_manager *> >, false> >::iterator::iterator(std::_Tree_nod<std::_Tmap_traits<int, abstract_job_data_manager *, std::less<int>, std::allocator<std::pair<int const, abstract_job_data_manager *> >, false> >::_Node *)
 *fill*         0x080646c7        0x1 37008
 .gnu.linkonce.t.begin__Q23stdt5_Tree1ZQ23stdt12_Tmap_traits5ZiZP25abstract_job_data_managerZQ23stdt4less1ZiZQ23stdt9allocator1ZQ23stdt4pair2ZCiZP25abstract_job_data_managerb0
                0x080646c8       0x3a manager_of_data_storage.o
                0x080646c8                std::_Tree<std::_Tmap_traits<int, abstract_job_data_manager *, std::less<int>, std::allocator<std::pair<int const, abstract_job_data_manager *> >, false> >::begin(void)
 *fill*         0x08064702        0x2 37008
 .gnu.linkonce.t.end__Q23stdt5_Tree1ZQ23stdt12_Tmap_traits5ZiZP25abstract_job_data_managerZQ23stdt4less1ZiZQ23stdt9allocator1ZQ23stdt4pair2ZCiZP25abstract_job_data_managerb0
                0x08064704       0x2d manager_of_data_storage.o
                0x08064704                std::_Tree<std::_Tmap_traits<int, abstract_job_data_manager *, std::less<int>, std::allocator<std::pair<int const, abstract_job_data_manager *> >, false> >::end(void)
 *fill*         0x08064731        0x3 37008
 .gnu.linkonce.t._Parent__Q23stdt5_Tree1ZQ23stdt12_Tmap_traits5ZiZP25abstract_job_data_managerZQ23stdt4less1ZiZQ23stdt9allocator1ZQ23stdt4pair2ZCiZP25abstract_job_data_managerb0PQ33stdt9_Tree_nod1ZQ23stdt12_Tmap_traits5ZiZP25abstract_job_data_managerZQ23stdt4less1ZiZQ23stdt9allocator1ZQ23stdt4pair2ZCiZP25abstract_job_data_managerb0_5_Node
                0x08064734       0x12 manager_of_data_storage.o
                0x08064734                std::_Tree<std::_Tmap_traits<int, abstract_job_data_manager *, std::less<int>, std::allocator<std::pair<int const, abstract_job_data_manager *> >, false> >::_Parent(std::_Tree_nod<std::_Tmap_traits<int, abstract_job_data_manager *, std::less<int>, std::allocator<std::pair<int const, abstract_job_data_manager *> >, false> >::_Node *)
 *fill*         0x08064746        0x2 37008
 .gnu.linkonce.t._Root__Q23stdt5_Tree1ZQ23stdt12_Tmap_traits5ZiZP25abstract_job_data_managerZQ23stdt4less1ZiZQ23stdt9allocator1ZQ23stdt4pair2ZCiZP25abstract_job_data_managerb0
                0x08064748       0x24 manager_of_data_storage.o
                0x08064748                std::_Tree<std::_Tmap_traits<int, abstract_job_data_manager *, std::less<int>, std::allocator<std::pair<int const, abstract_job_data_manager *> >, false> >::_Root(void)
 .gnu.linkonce.t._Isnil__Q23stdt5_Tree1ZQ23stdt12_Tmap_traits5ZiZP25abstract_job_data_managerZQ23stdt4less1ZiZQ23stdt9allocator1ZQ23stdt4pair2ZCiZP25abstract_job_data_managerb0PQ33stdt9_Tree_nod1ZQ23stdt12_Tmap_traits5ZiZP25abstract_job_data_managerZQ23stdt4less1ZiZQ23stdt9allocator1ZQ23stdt4pair2ZCiZP25abstract_job_data_managerb0_5_Node
                0x0806476c       0x12 manager_of_data_storage.o
                0x0806476c                std::_Tree<std::_Tmap_traits<int, abstract_job_data_manager *, std::less<int>, std::allocator<std::pair<int const, abstract_job_data_manager *> >, false> >::_Isnil(std::_Tree_nod<std::_Tmap_traits<int, abstract_job_data_manager *, std::less<int>, std::allocator<std::pair<int const, abstract_job_data_manager *> >, false> >::_Node *)
 *fill*         0x0806477e        0x2 37008
 .gnu.linkonce.t._Kfn__Q23stdt12_Tmap_traits5ZiZP25abstract_job_data_managerZQ23stdt4less1ZiZQ23stdt9allocator1ZQ23stdt4pair2ZCiZP25abstract_job_data_managerb0RCQ23stdt4pair2ZCiZP25abstract_job_data_manager
                0x08064780        0xe manager_of_data_storage.o
                0x08064780                std::_Tmap_traits<int, abstract_job_data_manager *, std::less<int>, std::allocator<std::pair<int const, abstract_job_data_manager *> >, false>::_Kfn(std::pair<int const, abstract_job_data_manager *> const &)
 *fill*         0x0806478e        0x2 37008
 .gnu.linkonce.t._Myval__Q23stdt5_Tree1ZQ23stdt12_Tmap_traits5ZiZP25abstract_job_data_managerZQ23stdt4less1ZiZQ23stdt9allocator1ZQ23stdt4pair2ZCiZP25abstract_job_data_managerb0PQ33stdt9_Tree_nod1ZQ23stdt12_Tmap_traits5ZiZP25abstract_job_data_managerZQ23stdt4less1ZiZQ23stdt9allocator1ZQ23stdt4pair2ZCiZP25abstract_job_data_managerb0_5_Node
                0x08064790       0x12 manager_of_data_storage.o
                0x08064790                std::_Tree<std::_Tmap_traits<int, abstract_job_data_manager *, std::less<int>, std::allocator<std::pair<int const, abstract_job_data_manager *> >, false> >::_Myval(std::_Tree_nod<std::_Tmap_traits<int, abstract_job_data_manager *, std::less<int>, std::allocator<std::pair<int const, abstract_job_data_manager *> >, false> >::_Node *)
 *fill*         0x080647a2        0x2 37008
 .gnu.linkonce.t._Key__Q23stdt5_Tree1ZQ23stdt12_Tmap_traits5ZiZP25abstract_job_data_managerZQ23stdt4less1ZiZQ23stdt9allocator1ZQ23stdt4pair2ZCiZP25abstract_job_data_managerb0PQ33stdt9_Tree_nod1ZQ23stdt12_Tmap_traits5ZiZP25abstract_job_data_managerZQ23stdt4less1ZiZQ23stdt9allocator1ZQ23stdt4pair2ZCiZP25abstract_job_data_managerb0_5_Node
                0x080647a4       0x2e manager_of_data_storage.o
                0x080647a4                std::_Tree<std::_Tmap_traits<int, abstract_job_data_manager *, std::less<int>, std::allocator<std::pair<int const, abstract_job_data_manager *> >, false> >::_Key(std::_Tree_nod<std::_Tmap_traits<int, abstract_job_data_manager *, std::less<int>, std::allocator<std::pair<int const, abstract_job_data_manager *> >, false> >::_Node *)
 *fill*         0x080647d2        0x2 37008
 .gnu.linkonce.t.__cl__CQ23stdt4less1ZiRCiT1
                0x080647d4       0x1c manager_of_data_storage.o
                0x080647d4                std::less<int>::operator()(int const &, int const &) const
 .gnu.linkonce.t._Right__Q23stdt5_Tree1ZQ23stdt12_Tmap_traits5ZiZP25abstract_job_data_managerZQ23stdt4less1ZiZQ23stdt9allocator1ZQ23stdt4pair2ZCiZP25abstract_job_data_managerb0PQ33stdt9_Tree_nod1ZQ23stdt12_Tmap_traits5ZiZP25abstract_job_data_managerZQ23stdt4less1ZiZQ23stdt9allocator1ZQ23stdt4pair2ZCiZP25abstract_job_data_managerb0_5_Node
                0x080647f0       0x12 manager_of_data_storage.o
                0x080647f0                std::_Tree<std::_Tmap_traits<int, abstract_job_data_manager *, std::less<int>, std::allocator<std::pair<int const, abstract_job_data_manager *> >, false> >::_Right(std::_Tree_nod<std::_Tmap_traits<int, abstract_job_data_manager *, std::less<int>, std::allocator<std::pair<int const, abstract_job_data_manager *> >, false> >::_Node *)
 *fill*         0x08064802        0x2 37008
 .gnu.linkonce.t.max_size__CQ23stdt9allocator1ZQ23stdt4pair2ZCiZP25abstract_job_data_manager
                0x08064804       0x24 manager_of_data_storage.o
                0x08064804                std::allocator<std::pair<int const, abstract_job_data_manager *> >::max_size(void) const
 .gnu.linkonce.t.max_size__CQ23stdt5_Tree1ZQ23stdt12_Tmap_traits5ZiZP25abstract_job_data_managerZQ23stdt4less1ZiZQ23stdt9allocator1ZQ23stdt4pair2ZCiZP25abstract_job_data_managerb0
                0x08064828       0x24 manager_of_data_storage.o
                0x08064828                std::_Tree<std::_Tmap_traits<int, abstract_job_data_manager *, std::less<int>, std::allocator<std::pair<int const, abstract_job_data_manager *> >, false> >::max_size(void) const
 .gnu.linkonce.t.__Q23stdt12basic_string3ZcZQ23stdt11char_traits1ZcZQ23stdt9allocator1ZcPCc
                0x0806484c       0x54 manager_of_data_storage.o
                0x0806484c                std::basic_string<char, std::char_traits<char>, std::allocator<char> >::basic_string(char const *)
 .gnu.linkonce.t._Allocate__H1ZQ33stdt9_Tree_nod1ZQ23stdt12_Tmap_traits5ZiZP25abstract_job_data_managerZQ23stdt4less1ZiZQ23stdt9allocator1ZQ23stdt4pair2ZCiZP25abstract_job_data_managerb0_5_Node_3stdUiPX01_PX01
                0x080648a0       0x36 manager_of_data_storage.o
                0x080648a0                std::_Tree_nod<std::_Tmap_traits<int, abstract_job_data_manager *, std::less<int>, std::allocator<std::pair<int const, abstract_job_data_manager *> >, false> >::_Node * std::_Allocate<std::_Tree_nod<std::_Tmap_traits<int, abstract_job_data_manager *, std::less<int>, std::allocator<std::pair<int const, abstract_job_data_manager *> >, false> >::_Node>(unsigned int, std::_Tree_nod<std::_Tmap_traits<int, abstract_job_data_manager *, std::less<int>, std::allocator<std::pair<int const, abstract_job_data_manager *> >, false> >::_Node *)
 *fill*         0x080648d6        0x2 37008
 .gnu.linkonce.t.allocate__Q23stdt9allocator1ZQ33stdt9_Tree_nod1ZQ23stdt12_Tmap_traits5ZiZP25abstract_job_data_managerZQ23stdt4less1ZiZQ23stdt9allocator1ZQ23stdt4pair2ZCiZP25abstract_job_data_managerb0_5_NodeUi
                0x080648d8       0x26 manager_of_data_storage.o
                0x080648d8                std::allocator<std::_Tree_nod<std::_Tmap_traits<int, abstract_job_data_manager *, std::less<int>, std::allocator<std::pair<int const, abstract_job_data_manager *> >, false> >::_Node>::allocate(unsigned int)
 *fill*         0x080648fe        0x2 37008
 .gnu.linkonce.t.allocate__H1Zv_Q23stdt9allocator1ZQ33stdt9_Tree_nod1ZQ23stdt12_Tmap_traits5ZiZP25abstract_job_data_managerZQ23stdt4less1ZiZQ23stdt9allocator1ZQ23stdt4pair2ZCiZP25abstract_job_data_managerb0_5_NodeUiPCX00_PQ33stdt9_Tree_nod1ZQ23stdt12_Tmap_traits5ZiZP25abstract_job_data_managerZQ23stdt4less1ZiZQ23stdt9allocator1ZQ23stdt4pair2ZCiZP25abstract_job_data_managerb0_5_Node
                0x08064900       0x25 manager_of_data_storage.o
                0x08064900                std::_Tree_nod<std::_Tmap_traits<int, abstract_job_data_manager *, std::less<int>, std::allocator<std::pair<int const, abstract_job_data_manager *> >, false> >::_Node * std::allocator<std::_Tree_nod<std::_Tmap_traits<int, abstract_job_data_manager *, std::less<int>, std::allocator<std::pair<int const, abstract_job_data_manager *> >, false> >::_Node>::allocate<void>(unsigned int, void const *)
 *fill*         0x08064925        0x3 37008
 .gnu.linkonce.t.__Q33stdt9_Tree_nod1ZQ23stdt12_Tmap_traits5ZiZP25abstract_job_data_managerZQ23stdt4less1ZiZQ23stdt9allocator1ZQ23stdt4pair2ZCiZP25abstract_job_data_managerb0_5_NodePvN21RCQ23stdt4pair2ZCiZP25abstract_job_data_managerc
                0x08064928       0x42 manager_of_data_storage.o
                0x08064928                std::_Tree_nod<std::_Tmap_traits<int, abstract_job_data_manager *, std::less<int>, std::allocator<std::pair<int const, abstract_job_data_manager *> >, false> >::_Node::_Node(void *, void *, void *, std::pair<int const, abstract_job_data_manager *> const &, char)
 *fill*         0x0806496a        0x2 37008
 .gnu.linkonce.t.deallocate__Q23stdt9allocator1ZQ33stdt9_Tree_nod1ZQ23stdt12_Tmap_traits5ZiZP25abstract_job_data_managerZQ23stdt4less1ZiZQ23stdt9allocator1ZQ23stdt4pair2ZCiZP25abstract_job_data_managerb0_5_NodePQ33stdt9_Tree_nod1ZQ23stdt12_Tmap_traits5ZiZP25abstract_job_data_managerZQ23stdt4less1ZiZQ23stdt9allocator1ZQ23stdt4pair2ZCiZP25abstract_job_data_managerb0_5_NodeUi
                0x0806496c       0x1e manager_of_data_storage.o
                0x0806496c                std::allocator<std::_Tree_nod<std::_Tmap_traits<int, abstract_job_data_manager *, std::less<int>, std::allocator<std::pair<int const, abstract_job_data_manager *> >, false> >::_Node>::deallocate(std::_Tree_nod<std::_Tmap_traits<int, abstract_job_data_manager *, std::less<int>, std::allocator<std::pair<int const, abstract_job_data_manager *> >, false> >::_Node *, unsigned int)
 *fill*         0x0806498a        0x2 37008
 .gnu.linkonce.t._Buynode__Q23stdt5_Tree1ZQ23stdt12_Tmap_traits5ZiZP25abstract_job_data_managerZQ23stdt4less1ZiZQ23stdt9allocator1ZQ23stdt4pair2ZCiZP25abstract_job_data_managerb0PQ33stdt9_Tree_nod1ZQ23stdt12_Tmap_traits5ZiZP25abstract_job_data_managerZQ23stdt4less1ZiZQ23stdt9allocator1ZQ23stdt4pair2ZCiZP25abstract_job_data_managerb0_5_NodeN21RCQ23stdt4pair2ZCiZP25abstract_job_data_managerc
                0x0806498c      0x158 manager_of_data_storage.o
                0x0806498c                std::_Tree<std::_Tmap_traits<int, abstract_job_data_manager *, std::less<int>, std::allocator<std::pair<int const, abstract_job_data_manager *> >, false> >::_Buynode(std::_Tree_nod<std::_Tmap_traits<int, abstract_job_data_manager *, std::less<int>, std::allocator<std::pair<int const, abstract_job_data_manager *> >, false> >::_Node *, std::_Tree_nod<std::_Tmap_traits<int, abstract_job_data_manager *, std::less<int>, std::allocator<std::pair<int const, abstract_job_data_manager *> >, false> >::_Node *, std::_Tree_nod<std::_Tmap_traits<int, abstract_job_data_manager *, std::less<int>, std::allocator<std::pair<int const, abstract_job_data_manager *> >, false> >::_Node *, std::pair<int const, abstract_job_data_manager *> const &, char)
 .gnu.linkonce.t._Rmost__Q23stdt5_Tree1ZQ23stdt12_Tmap_traits5ZiZP25abstract_job_data_managerZQ23stdt4less1ZiZQ23stdt9allocator1ZQ23stdt4pair2ZCiZP25abstract_job_data_managerb0
                0x08064ae4       0x24 manager_of_data_storage.o
                0x08064ae4                std::_Tree<std::_Tmap_traits<int, abstract_job_data_manager *, std::less<int>, std::allocator<std::pair<int const, abstract_job_data_manager *> >, false> >::_Rmost(void)
 .gnu.linkonce.t._Color__Q23stdt5_Tree1ZQ23stdt12_Tmap_traits5ZiZP25abstract_job_data_managerZQ23stdt4less1ZiZQ23stdt9allocator1ZQ23stdt4pair2ZCiZP25abstract_job_data_managerb0PQ33stdt9_Tree_nod1ZQ23stdt12_Tmap_traits5ZiZP25abstract_job_data_managerZQ23stdt4less1ZiZQ23stdt9allocator1ZQ23stdt4pair2ZCiZP25abstract_job_data_managerb0_5_Node
                0x08064b08       0x12 manager_of_data_storage.o
                0x08064b08                std::_Tree<std::_Tmap_traits<int, abstract_job_data_manager *, std::less<int>, std::allocator<std::pair<int const, abstract_job_data_manager *> >, false> >::_Color(std::_Tree_nod<std::_Tmap_traits<int, abstract_job_data_manager *, std::less<int>, std::allocator<std::pair<int const, abstract_job_data_manager *> >, false> >::_Node *)
 *fill*         0x08064b1a        0x2 37008
 .gnu.linkonce.t._Lrotate__Q23stdt5_Tree1ZQ23stdt12_Tmap_traits5ZiZP25abstract_job_data_managerZQ23stdt4less1ZiZQ23stdt9allocator1ZQ23stdt4pair2ZCiZP25abstract_job_data_managerb0PQ33stdt9_Tree_nod1ZQ23stdt12_Tmap_traits5ZiZP25abstract_job_data_managerZQ23stdt4less1ZiZQ23stdt9allocator1ZQ23stdt4pair2ZCiZP25abstract_job_data_managerb0_5_Node
                0x08064b1c      0x1cc manager_of_data_storage.o
                0x08064b1c                std::_Tree<std::_Tmap_traits<int, abstract_job_data_manager *, std::less<int>, std::allocator<std::pair<int const, abstract_job_data_manager *> >, false> >::_Lrotate(std::_Tree_nod<std::_Tmap_traits<int, abstract_job_data_manager *, std::less<int>, std::allocator<std::pair<int const, abstract_job_data_manager *> >, false> >::_Node *)
 .gnu.linkonce.t._Rrotate__Q23stdt5_Tree1ZQ23stdt12_Tmap_traits5ZiZP25abstract_job_data_managerZQ23stdt4less1ZiZQ23stdt9allocator1ZQ23stdt4pair2ZCiZP25abstract_job_data_managerb0PQ33stdt9_Tree_nod1ZQ23stdt12_Tmap_traits5ZiZP25abstract_job_data_managerZQ23stdt4less1ZiZQ23stdt9allocator1ZQ23stdt4pair2ZCiZP25abstract_job_data_managerb0_5_Node
                0x08064ce8      0x1cc manager_of_data_storage.o
                0x08064ce8                std::_Tree<std::_Tmap_traits<int, abstract_job_data_manager *, std::less<int>, std::allocator<std::pair<int const, abstract_job_data_manager *> >, false> >::_Rrotate(std::_Tree_nod<std::_Tmap_traits<int, abstract_job_data_manager *, std::less<int>, std::allocator<std::pair<int const, abstract_job_data_manager *> >, false> >::_Node *)
 .gnu.linkonce.t._Insert__Q23stdt5_Tree1ZQ23stdt12_Tmap_traits5ZiZP25abstract_job_data_managerZQ23stdt4less1ZiZQ23stdt9allocator1ZQ23stdt4pair2ZCiZP25abstract_job_data_managerb0bPQ33stdt9_Tree_nod1ZQ23stdt12_Tmap_traits5ZiZP25abstract_job_data_managerZQ23stdt4less1ZiZQ23stdt9allocator1ZQ23stdt4pair2ZCiZP25abstract_job_data_managerb0_5_NodeRCQ23stdt4pair2ZCiZP25abstract_job_data_manager
                0x08064eb4      0x763 manager_of_data_storage.o
                0x08064eb4                std::_Tree<std::_Tmap_traits<int, abstract_job_data_manager *, std::less<int>, std::allocator<std::pair<int const, abstract_job_data_manager *> >, false> >::_Insert(bool, std::_Tree_nod<std::_Tmap_traits<int, abstract_job_data_manager *, std::less<int>, std::allocator<std::pair<int const, abstract_job_data_manager *> >, false> >::_Node *, std::pair<int const, abstract_job_data_manager *> const &)
 *fill*         0x08065617        0x1 37008
 .gnu.linkonce.t.__Q23stdt4pair2ZQ33stdt5_Tree1ZQ23stdt12_Tmap_traits5ZiZP25abstract_job_data_managerZQ23stdt4less1ZiZQ23stdt9allocator1ZQ23stdt4pair2ZCiZP25abstract_job_data_managerb0_8iteratorZbRCQ33stdt5_Tree1ZQ23stdt12_Tmap_traits5ZiZP25abstract_job_data_managerZQ23stdt4less1ZiZQ23stdt9allocator1ZQ23stdt4pair2ZCiZP25abstract_job_data_managerb0_8iteratorRCb
                0x08065618       0x25 manager_of_data_storage.o
                0x08065618                std::pair<std::_Tree<std::_Tmap_traits<int, abstract_job_data_manager *, std::less<int>, std::allocator<std::pair<int const, abstract_job_data_manager *> >, false> >::iterator, bool>::pair(std::_Tree<std::_Tmap_traits<int, abstract_job_data_manager *, std::less<int>, std::allocator<std::pair<int const, abstract_job_data_manager *> >, false> >::iterator const &, bool const &)
 *fill*         0x0806563d        0x3 37008
 .gnu.linkonce.t.__eq__CQ33stdt5_Tree1ZQ23stdt12_Tmap_traits5ZiZP25abstract_job_data_managerZQ23stdt4less1ZiZQ23stdt9allocator1ZQ23stdt4pair2ZCiZP25abstract_job_data_managerb0_14const_iteratorRCQ33stdt5_Tree1ZQ23stdt12_Tmap_traits5ZiZP25abstract_job_data_managerZQ23stdt4less1ZiZQ23stdt9allocator1ZQ23stdt4pair2ZCiZP25abstract_job_data_managerb0_14const_iterator
                0x08065640       0x1b manager_of_data_storage.o
                0x08065640                std::_Tree<std::_Tmap_traits<int, abstract_job_data_manager *, std::less<int>, std::allocator<std::pair<int const, abstract_job_data_manager *> >, false> >::const_iterator::operator==(std::_Tree<std::_Tmap_traits<int, abstract_job_data_manager *, std::less<int>, std::allocator<std::pair<int const, abstract_job_data_manager *> >, false> >::const_iterator const &) const
 *fill*         0x0806565b        0x1 37008
 .gnu.linkonce.t._Max__Q23stdt5_Tree1ZQ23stdt12_Tmap_traits5ZiZP25abstract_job_data_managerZQ23stdt4less1ZiZQ23stdt9allocator1ZQ23stdt4pair2ZCiZP25abstract_job_data_managerb0PQ33stdt9_Tree_nod1ZQ23stdt12_Tmap_traits5ZiZP25abstract_job_data_managerZQ23stdt4less1ZiZQ23stdt9allocator1ZQ23stdt4pair2ZCiZP25abstract_job_data_managerb0_5_Node
                0x0806565c       0x54 manager_of_data_storage.o
                0x0806565c                std::_Tree<std::_Tmap_traits<int, abstract_job_data_manager *, std::less<int>, std::allocator<std::pair<int const, abstract_job_data_manager *> >, false> >::_Max(std::_Tree_nod<std::_Tmap_traits<int, abstract_job_data_manager *, std::less<int>, std::allocator<std::pair<int const, abstract_job_data_manager *> >, false> >::_Node *)
 .gnu.linkonce.t._Dec__Q33stdt5_Tree1ZQ23stdt12_Tmap_traits5ZiZP25abstract_job_data_managerZQ23stdt4less1ZiZQ23stdt9allocator1ZQ23stdt4pair2ZCiZP25abstract_job_data_managerb0_14const_iterator
                0x080656b0      0x100 manager_of_data_storage.o
                0x080656b0                std::_Tree<std::_Tmap_traits<int, abstract_job_data_manager *, std::less<int>, std::allocator<std::pair<int const, abstract_job_data_manager *> >, false> >::const_iterator::_Dec(void)
 .gnu.linkonce.t.__mm__Q33stdt5_Tree1ZQ23stdt12_Tmap_traits5ZiZP25abstract_job_data_managerZQ23stdt4less1ZiZQ23stdt9allocator1ZQ23stdt4pair2ZCiZP25abstract_job_data_managerb0_8iterator
                0x080657b0       0x1f manager_of_data_storage.o
                0x080657b0                std::_Tree<std::_Tmap_traits<int, abstract_job_data_manager *, std::less<int>, std::allocator<std::pair<int const, abstract_job_data_manager *> >, false> >::iterator::operator--(void)
 *fill*         0x080657cf        0x1 37008
 .gnu.linkonce.t._Mynode__CQ33stdt5_Tree1ZQ23stdt12_Tmap_traits5ZiZP25abstract_job_data_managerZQ23stdt4less1ZiZQ23stdt9allocator1ZQ23stdt4pair2ZCiZP25abstract_job_data_managerb0_14const_iterator
                0x080657d0        0xf manager_of_data_storage.o
                0x080657d0                std::_Tree<std::_Tmap_traits<int, abstract_job_data_manager *, std::less<int>, std::allocator<std::pair<int const, abstract_job_data_manager *> >, false> >::const_iterator::_Mynode(void) const
 *fill*         0x080657df        0x1 37008
 .gnu.linkonce.t.insert__Q23stdt5_Tree1ZQ23stdt12_Tmap_traits5ZiZP25abstract_job_data_managerZQ23stdt4less1ZiZQ23stdt9allocator1ZQ23stdt4pair2ZCiZP25abstract_job_data_managerb0RCQ23stdt4pair2ZCiZP25abstract_job_data_manager
                0x080657e0      0x248 manager_of_data_storage.o
                0x080657e0                std::_Tree<std::_Tmap_traits<int, abstract_job_data_manager *, std::less<int>, std::allocator<std::pair<int const, abstract_job_data_manager *> >, false> >::insert(std::pair<int const, abstract_job_data_manager *> const &)
 .gnu.linkonce.t._Root__CQ23stdt5_Tree1ZQ23stdt12_Tmap_traits5ZiZP25abstract_job_data_managerZQ23stdt4less1ZiZQ23stdt9allocator1ZQ23stdt4pair2ZCiZP25abstract_job_data_managerb0
                0x08065a28       0x24 manager_of_data_storage.o
                0x08065a28                std::_Tree<std::_Tmap_traits<int, abstract_job_data_manager *, std::less<int>, std::allocator<std::pair<int const, abstract_job_data_manager *> >, false> >::_Root(void) const
 .gnu.linkonce.t._Lbound__CQ23stdt5_Tree1ZQ23stdt12_Tmap_traits5ZiZP25abstract_job_data_managerZQ23stdt4less1ZiZQ23stdt9allocator1ZQ23stdt4pair2ZCiZP25abstract_job_data_managerb0RCi
                0x08065a4c       0xaf manager_of_data_storage.o
                0x08065a4c                std::_Tree<std::_Tmap_traits<int, abstract_job_data_manager *, std::less<int>, std::allocator<std::pair<int const, abstract_job_data_manager *> >, false> >::_Lbound(int const &) const
 *fill*         0x08065afb        0x1 37008
 .gnu.linkonce.t.lower_bound__Q23stdt5_Tree1ZQ23stdt12_Tmap_traits5ZiZP25abstract_job_data_managerZQ23stdt4less1ZiZQ23stdt9allocator1ZQ23stdt4pair2ZCiZP25abstract_job_data_managerb0RCi
                0x08065afc       0x3c manager_of_data_storage.o
                0x08065afc                std::_Tree<std::_Tmap_traits<int, abstract_job_data_manager *, std::less<int>, std::allocator<std::pair<int const, abstract_job_data_manager *> >, false> >::lower_bound(int const &)
 .gnu.linkonce.t.find__Q23stdt5_Tree1ZQ23stdt12_Tmap_traits5ZiZP25abstract_job_data_managerZQ23stdt4less1ZiZQ23stdt9allocator1ZQ23stdt4pair2ZCiZP25abstract_job_data_managerb0RCi
                0x08065b38       0xb4 manager_of_data_storage.o
                0x08065b38                std::_Tree<std::_Tmap_traits<int, abstract_job_data_manager *, std::less<int>, std::allocator<std::pair<int const, abstract_job_data_manager *> >, false> >::find(int const &)
 .gnu.linkonce.t.__Q23stdt9allocator1ZQ23stdt4pair2ZCiZP25abstract_job_data_manager
                0x08065bec        0xa manager_of_data_storage.o
                0x08065bec                std::allocator<std::pair<int const, abstract_job_data_manager *> >::allocator(void)
 *fill*         0x08065bf6        0x2 37008
 .gnu.linkonce.t.__Q23stdt9allocator1ZQ23stdt4pair2ZCiZP25abstract_job_data_managerRCQ23stdt9allocator1ZQ23stdt4pair2ZCiZP25abstract_job_data_manager
                0x08065bf8        0xa manager_of_data_storage.o
                0x08065bf8                std::allocator<std::pair<int const, abstract_job_data_manager *> >::allocator(std::allocator<std::pair<int const, abstract_job_data_manager *> > const &)
 *fill*         0x08065c02        0x2 37008
 .gnu.linkonce.t.__Q23stdt12_Tmap_traits5ZiZP25abstract_job_data_managerZQ23stdt4less1ZiZQ23stdt9allocator1ZQ23stdt4pair2ZCiZP25abstract_job_data_managerb0GQ23stdt4less1Zi
                0x08065c04       0x11 manager_of_data_storage.o
                0x08065c04                std::_Tmap_traits<int, abstract_job_data_manager *, std::less<int>, std::allocator<std::pair<int const, abstract_job_data_manager *> >, false>::_Tmap_traits(std::less<int>)
 *fill*         0x08065c15        0x3 37008
 .gnu.linkonce.t.__H1ZQ23stdt4pair2ZCiZP25abstract_job_data_manager_Q23stdt9allocator1ZQ33stdt9_Tree_nod1ZQ23stdt12_Tmap_traits5ZiZP25abstract_job_data_managerZQ23stdt4less1ZiZQ23stdt9allocator1ZQ23stdt4pair2ZCiZP25abstract_job_data_managerb0_5_NodeRCQ23stdt9allocator1ZX00
                0x08065c18        0xa manager_of_data_storage.o
                0x08065c18                std::allocator<std::_Tree_nod<std::_Tmap_traits<int, abstract_job_data_manager *, std::less<int>, std::allocator<std::pair<int const, abstract_job_data_manager *> >, false> >::_Node>::allocator::<std::pair<int const, abstract_job_data_manager *> >(std::allocator<std::pair<int const, abstract_job_data_manager *> > const &)
 *fill*         0x08065c22        0x2 37008
 .gnu.linkonce.t.__Q23stdt9_Tree_nod1ZQ23stdt12_Tmap_traits5ZiZP25abstract_job_data_managerZQ23stdt4less1ZiZQ23stdt9allocator1ZQ23stdt4pair2ZCiZP25abstract_job_data_managerb0RCQ23stdt4less1ZiGQ23stdt9allocator1ZQ23stdt4pair2ZCiZP25abstract_job_data_manager
                0x08065c24       0x3f manager_of_data_storage.o
                0x08065c24                std::_Tree_nod<std::_Tmap_traits<int, abstract_job_data_manager *, std::less<int>, std::allocator<std::pair<int const, abstract_job_data_manager *> >, false> >::_Tree_nod(std::less<int> const &, std::allocator<std::pair<int const, abstract_job_data_manager *> >)
 *fill*         0x08065c63        0x1 37008
 .gnu.linkonce.t.__H1ZQ23stdt4pair2ZCiZP25abstract_job_data_manager_Q23stdt9allocator1ZPQ33stdt9_Tree_nod1ZQ23stdt12_Tmap_traits5ZiZP25abstract_job_data_managerZQ23stdt4less1ZiZQ23stdt9allocator1ZQ23stdt4pair2ZCiZP25abstract_job_data_managerb0_5_NodeRCQ23stdt9allocator1ZX00
                0x08065c64        0xa manager_of_data_storage.o
                0x08065c64                std::allocator<std::_Tree_nod<std::_Tmap_traits<int, abstract_job_data_manager *, std::less<int>, std::allocator<std::pair<int const, abstract_job_data_manager *> >, false> >::_Node *>::allocator::<std::pair<int const, abstract_job_data_manager *> >(std::allocator<std::pair<int const, abstract_job_data_manager *> > const &)
 *fill*         0x08065c6e        0x2 37008
 .gnu.linkonce.t.__Q23stdt9_Tree_ptr1ZQ23stdt12_Tmap_traits5ZiZP25abstract_job_data_managerZQ23stdt4less1ZiZQ23stdt9allocator1ZQ23stdt4pair2ZCiZP25abstract_job_data_managerb0RCQ23stdt4less1ZiGQ23stdt9allocator1ZQ23stdt4pair2ZCiZP25abstract_job_data_manager
                0x08065c70       0x4f manager_of_data_storage.o
                0x08065c70                std::_Tree_ptr<std::_Tmap_traits<int, abstract_job_data_manager *, std::less<int>, std::allocator<std::pair<int const, abstract_job_data_manager *> >, false> >::_Tree_ptr(std::less<int> const &, std::allocator<std::pair<int const, abstract_job_data_manager *> >)
 *fill*         0x08065cbf        0x1 37008
 .gnu.linkonce.t.__Q23stdt9_Tree_val1ZQ23stdt12_Tmap_traits5ZiZP25abstract_job_data_managerZQ23stdt4less1ZiZQ23stdt9allocator1ZQ23stdt4pair2ZCiZP25abstract_job_data_managerb0RCQ23stdt4less1ZiGQ23stdt9allocator1ZQ23stdt4pair2ZCiZP25abstract_job_data_manager
                0x08065cc0       0x4f manager_of_data_storage.o
                0x08065cc0                std::_Tree_val<std::_Tmap_traits<int, abstract_job_data_manager *, std::less<int>, std::allocator<std::pair<int const, abstract_job_data_manager *> >, false> >::_Tree_val(std::less<int> const &, std::allocator<std::pair<int const, abstract_job_data_manager *> >)
 *fill*         0x08065d0f        0x1 37008
 .gnu.linkonce.t._Construct__H2ZPQ33stdt9_Tree_nod1ZQ23stdt12_Tmap_traits5ZiZP25abstract_job_data_managerZQ23stdt4less1ZiZQ23stdt9allocator1ZQ23stdt4pair2ZCiZP25abstract_job_data_managerb0_5_NodeZPQ33stdt9_Tree_nod1ZQ23stdt12_Tmap_traits5ZiZP25abstract_job_data_managerZQ23stdt4less1ZiZQ23stdt9allocator1ZQ23stdt4pair2ZCiZP25abstract_job_data_managerb0_5_Node_3stdPX01RCX11_v
                0x08065d10       0xc4 manager_of_data_storage.o
                0x08065d10                void std::_Construct<std::_Tree_nod<std::_Tmap_traits<int, abstract_job_data_manager *, std::less<int>, std::allocator<std::pair<int const, abstract_job_data_manager *> >, false> >::_Node *, std::_Tree_nod<std::_Tmap_traits<int, abstract_job_data_manager *, std::less<int>, std::allocator<std::pair<int const, abstract_job_data_manager *> >, false> >::_Node *>(std::_Tree_nod<std::_Tmap_traits<int, abstract_job_data_manager *, std::less<int>, std::allocator<std::pair<int const, abstract_job_data_manager *> >, false> >::_Node * *, std::_Tree_nod<std::_Tmap_traits<int, abstract_job_data_manager *, std::less<int>, std::allocator<std::pair<int const, abstract_job_data_manager *> >, false> >::_Node * const &)
 .gnu.linkonce.t.construct__Q23stdt9allocator1ZPQ33stdt9_Tree_nod1ZQ23stdt12_Tmap_traits5ZiZP25abstract_job_data_managerZQ23stdt4less1ZiZQ23stdt9allocator1ZQ23stdt4pair2ZCiZP25abstract_job_data_managerb0_5_NodePPQ33stdt9_Tree_nod1ZQ23stdt12_Tmap_traits5ZiZP25abstract_job_data_managerZQ23stdt4less1ZiZQ23stdt9allocator1ZQ23stdt4pair2ZCiZP25abstract_job_data_managerb0_5_NodeRCPQ33stdt9_Tree_nod1ZQ23stdt12_Tmap_traits5ZiZP25abstract_job_data_managerZQ23stdt4less1ZiZQ23stdt9allocator1ZQ23stdt4pair2ZCiZP25abstract_job_data_managerb0_5_Node
                0x08065dd4       0x22 manager_of_data_storage.o
                0x08065dd4                std::allocator<std::_Tree_nod<std::_Tmap_traits<int, abstract_job_data_manager *, std::less<int>, std::allocator<std::pair<int const, abstract_job_data_manager *> >, false> >::_Node *>::construct(std::_Tree_nod<std::_Tmap_traits<int, abstract_job_data_manager *, std::less<int>, std::allocator<std::pair<int const, abstract_job_data_manager *> >, false> >::_Node **, std::_Tree_nod<std::_Tmap_traits<int, abstract_job_data_manager *, std::less<int>, std::allocator<std::pair<int const, abstract_job_data_manager *> >, false> >::_Node *const &)
 *fill*         0x08065df6        0x2 37008
 .gnu.linkonce.t._Destroy__H1ZPQ33stdt9_Tree_nod1ZQ23stdt12_Tmap_traits5ZiZP25abstract_job_data_managerZQ23stdt4less1ZiZQ23stdt9allocator1ZQ23stdt4pair2ZCiZP25abstract_job_data_managerb0_5_Node_3stdPX01_v
                0x08065df8        0x8 manager_of_data_storage.o
                0x08065df8                void std::_Destroy<std::_Tree_nod<std::_Tmap_traits<int, abstract_job_data_manager *, std::less<int>, std::allocator<std::pair<int const, abstract_job_data_manager *> >, false> >::_Node *>(std::_Tree_nod<std::_Tmap_traits<int, abstract_job_data_manager *, std::less<int>, std::allocator<std::pair<int const, abstract_job_data_manager *> >, false> >::_Node * *)
 .gnu.linkonce.t.destroy__Q23stdt9allocator1ZPQ33stdt9_Tree_nod1ZQ23stdt12_Tmap_traits5ZiZP25abstract_job_data_managerZQ23stdt4less1ZiZQ23stdt9allocator1ZQ23stdt4pair2ZCiZP25abstract_job_data_managerb0_5_NodePPQ33stdt9_Tree_nod1ZQ23stdt12_Tmap_traits5ZiZP25abstract_job_data_managerZQ23stdt4less1ZiZQ23stdt9allocator1ZQ23stdt4pair2ZCiZP25abstract_job_data_managerb0_5_Node
                0x08065e00       0x1e manager_of_data_storage.o
                0x08065e00                std::allocator<std::_Tree_nod<std::_Tmap_traits<int, abstract_job_data_manager *, std::less<int>, std::allocator<std::pair<int const, abstract_job_data_manager *> >, false> >::_Node *>::destroy(std::_Tree_nod<std::_Tmap_traits<int, abstract_job_data_manager *, std::less<int>, std::allocator<std::pair<int const, abstract_job_data_manager *> >, false> >::_Node **)
 *fill*         0x08065e1e        0x2 37008
 .gnu.linkonce.t._Buynode__Q23stdt5_Tree1ZQ23stdt12_Tmap_traits5ZiZP25abstract_job_data_managerZQ23stdt4less1ZiZQ23stdt9allocator1ZQ23stdt4pair2ZCiZP25abstract_job_data_managerb0
                0x08065e20      0x1c0 manager_of_data_storage.o
                0x08065e20                std::_Tree<std::_Tmap_traits<int, abstract_job_data_manager *, std::less<int>, std::allocator<std::pair<int const, abstract_job_data_manager *> >, false> >::_Buynode(void)
 .gnu.linkonce.t._Init__Q23stdt5_Tree1ZQ23stdt12_Tmap_traits5ZiZP25abstract_job_data_managerZQ23stdt4less1ZiZQ23stdt9allocator1ZQ23stdt4pair2ZCiZP25abstract_job_data_managerb0
                0x08065fe0       0x89 manager_of_data_storage.o
                0x08065fe0                std::_Tree<std::_Tmap_traits<int, abstract_job_data_manager *, std::less<int>, std::allocator<std::pair<int const, abstract_job_data_manager *> >, false> >::_Init(void)
 *fill*         0x08066069        0x3 37008
 .gnu.linkonce.t.__Q23stdt5_Tree1ZQ23stdt12_Tmap_traits5ZiZP25abstract_job_data_managerZQ23stdt4less1ZiZQ23stdt9allocator1ZQ23stdt4pair2ZCiZP25abstract_job_data_managerb0RCQ23stdt4less1ZiRCQ23stdt9allocator1ZQ23stdt4pair2ZCiZP25abstract_job_data_manager
                0x0806606c       0x48 manager_of_data_storage.o
                0x0806606c                std::_Tree<std::_Tmap_traits<int, abstract_job_data_manager *, std::less<int>, std::allocator<std::pair<int const, abstract_job_data_manager *> >, false> >::_Tree(std::less<int> const &, std::allocator<std::pair<int const, abstract_job_data_manager *> > const &)
 .gnu.linkonce.t._Destroy__H1ZQ33stdt9_Tree_nod1ZQ23stdt12_Tmap_traits5ZiZP25abstract_job_data_managerZQ23stdt4less1ZiZQ23stdt9allocator1ZQ23stdt4pair2ZCiZP25abstract_job_data_managerb0_5_Node_3stdPX01_v
                0x080660b4        0x8 manager_of_data_storage.o
                0x080660b4                void std::_Destroy<std::_Tree_nod<std::_Tmap_traits<int, abstract_job_data_manager *, std::less<int>, std::allocator<std::pair<int const, abstract_job_data_manager *> >, false> >::_Node>(std::_Tree_nod<std::_Tmap_traits<int, abstract_job_data_manager *, std::less<int>, std::allocator<std::pair<int const, abstract_job_data_manager *> >, false> >::_Node *)
 .gnu.linkonce.t.destroy__Q23stdt9allocator1ZQ33stdt9_Tree_nod1ZQ23stdt12_Tmap_traits5ZiZP25abstract_job_data_managerZQ23stdt4less1ZiZQ23stdt9allocator1ZQ23stdt4pair2ZCiZP25abstract_job_data_managerb0_5_NodePQ33stdt9_Tree_nod1ZQ23stdt12_Tmap_traits5ZiZP25abstract_job_data_managerZQ23stdt4less1ZiZQ23stdt9allocator1ZQ23stdt4pair2ZCiZP25abstract_job_data_managerb0_5_Node
                0x080660bc       0x1e manager_of_data_storage.o
                0x080660bc                std::allocator<std::_Tree_nod<std::_Tmap_traits<int, abstract_job_data_manager *, std::less<int>, std::allocator<std::pair<int const, abstract_job_data_manager *> >, false> >::_Node>::destroy(std::_Tree_nod<std::_Tmap_traits<int, abstract_job_data_manager *, std::less<int>, std::allocator<std::pair<int const, abstract_job_data_manager *> >, false> >::_Node *)
 *fill*         0x080660da        0x2 37008
 .gnu.linkonce.t._Erase__Q23stdt5_Tree1ZQ23stdt12_Tmap_traits5ZiZP25abstract_job_data_managerZQ23stdt4less1ZiZQ23stdt9allocator1ZQ23stdt4pair2ZCiZP25abstract_job_data_managerb0PQ33stdt9_Tree_nod1ZQ23stdt12_Tmap_traits5ZiZP25abstract_job_data_managerZQ23stdt4less1ZiZQ23stdt9allocator1ZQ23stdt4pair2ZCiZP25abstract_job_data_managerb0_5_Node
                0x080660dc       0x9b manager_of_data_storage.o
                0x080660dc                std::_Tree<std::_Tmap_traits<int, abstract_job_data_manager *, std::less<int>, std::allocator<std::pair<int const, abstract_job_data_manager *> >, false> >::_Erase(std::_Tree_nod<std::_Tmap_traits<int, abstract_job_data_manager *, std::less<int>, std::allocator<std::pair<int const, abstract_job_data_manager *> >, false> >::_Node *)
 *fill*         0x08066177        0x1 37008
 .gnu.linkonce.t.clear__Q23stdt5_Tree1ZQ23stdt12_Tmap_traits5ZiZP25abstract_job_data_managerZQ23stdt4less1ZiZQ23stdt9allocator1ZQ23stdt4pair2ZCiZP25abstract_job_data_managerb0
                0x08066178       0x7b manager_of_data_storage.o
                0x08066178                std::_Tree<std::_Tmap_traits<int, abstract_job_data_manager *, std::less<int>, std::allocator<std::pair<int const, abstract_job_data_manager *> >, false> >::clear(void)
 *fill*         0x080661f3        0x1 37008
 .gnu.linkonce.t.__ne__CQ33stdt5_Tree1ZQ23stdt12_Tmap_traits5ZiZP25abstract_job_data_managerZQ23stdt4less1ZiZQ23stdt9allocator1ZQ23stdt4pair2ZCiZP25abstract_job_data_managerb0_14const_iteratorRCQ33stdt5_Tree1ZQ23stdt12_Tmap_traits5ZiZP25abstract_job_data_managerZQ23stdt4less1ZiZQ23stdt9allocator1ZQ23stdt4pair2ZCiZP25abstract_job_data_managerb0_14const_iterator
                0x080661f4       0x28 manager_of_data_storage.o
                0x080661f4                std::_Tree<std::_Tmap_traits<int, abstract_job_data_manager *, std::less<int>, std::allocator<std::pair<int const, abstract_job_data_manager *> >, false> >::const_iterator::operator!=(std::_Tree<std::_Tmap_traits<int, abstract_job_data_manager *, std::less<int>, std::allocator<std::pair<int const, abstract_job_data_manager *> >, false> >::const_iterator const &) const
 .gnu.linkonce.t._Min__Q23stdt5_Tree1ZQ23stdt12_Tmap_traits5ZiZP25abstract_job_data_managerZQ23stdt4less1ZiZQ23stdt9allocator1ZQ23stdt4pair2ZCiZP25abstract_job_data_managerb0PQ33stdt9_Tree_nod1ZQ23stdt12_Tmap_traits5ZiZP25abstract_job_data_managerZQ23stdt4less1ZiZQ23stdt9allocator1ZQ23stdt4pair2ZCiZP25abstract_job_data_managerb0_5_Node
                0x0806621c       0x54 manager_of_data_storage.o
                0x0806621c                std::_Tree<std::_Tmap_traits<int, abstract_job_data_manager *, std::less<int>, std::allocator<std::pair<int const, abstract_job_data_manager *> >, false> >::_Min(std::_Tree_nod<std::_Tmap_traits<int, abstract_job_data_manager *, std::less<int>, std::allocator<std::pair<int const, abstract_job_data_manager *> >, false> >::_Node *)
 .gnu.linkonce.t._Inc__Q33stdt5_Tree1ZQ23stdt12_Tmap_traits5ZiZP25abstract_job_data_managerZQ23stdt4less1ZiZQ23stdt9allocator1ZQ23stdt4pair2ZCiZP25abstract_job_data_managerb0_14const_iterator
                0x08066270       0xd1 manager_of_data_storage.o
                0x08066270                std::_Tree<std::_Tmap_traits<int, abstract_job_data_manager *, std::less<int>, std::allocator<std::pair<int const, abstract_job_data_manager *> >, false> >::const_iterator::_Inc(void)
 *fill*         0x08066341        0x3 37008
 .gnu.linkonce.t.__pp__Q33stdt5_Tree1ZQ23stdt12_Tmap_traits5ZiZP25abstract_job_data_managerZQ23stdt4less1ZiZQ23stdt9allocator1ZQ23stdt4pair2ZCiZP25abstract_job_data_managerb0_8iterator
                0x08066344       0x1f manager_of_data_storage.o
                0x08066344                std::_Tree<std::_Tmap_traits<int, abstract_job_data_manager *, std::less<int>, std::allocator<std::pair<int const, abstract_job_data_manager *> >, false> >::iterator::operator++(void)
 *fill*         0x08066363        0x1 37008
 .gnu.linkonce.t.__pp__Q33stdt5_Tree1ZQ23stdt12_Tmap_traits5ZiZP25abstract_job_data_managerZQ23stdt4less1ZiZQ23stdt9allocator1ZQ23stdt4pair2ZCiZP25abstract_job_data_managerb0_8iteratori
                0x08066364       0x3d manager_of_data_storage.o
                0x08066364                std::_Tree<std::_Tmap_traits<int, abstract_job_data_manager *, std::less<int>, std::allocator<std::pair<int const, abstract_job_data_manager *> >, false> >::iterator::operator++(int)
 *fill*         0x080663a1        0x3 37008
 .gnu.linkonce.t.swap__H1Zc_3stdRX01T1_v
                0x080663a4       0x1c manager_of_data_storage.o
                0x080663a4                void std::swap<char>(char &, char &)
 .gnu.linkonce.t.erase__Q23stdt5_Tree1ZQ23stdt12_Tmap_traits5ZiZP25abstract_job_data_managerZQ23stdt4less1ZiZQ23stdt9allocator1ZQ23stdt4pair2ZCiZP25abstract_job_data_managerb0GQ33stdt5_Tree1ZQ23stdt12_Tmap_traits5ZiZP25abstract_job_data_managerZQ23stdt4less1ZiZQ23stdt9allocator1ZQ23stdt4pair2ZCiZP25abstract_job_data_managerb0_8iterator
                0x080663c0      0xcd7 manager_of_data_storage.o
                0x080663c0                std::_Tree<std::_Tmap_traits<int, abstract_job_data_manager *, std::less<int>, std::allocator<std::pair<int const, abstract_job_data_manager *> >, false> >::erase(std::_Tree<std::_Tmap_traits<int, abstract_job_data_manager *, std::less<int>, std::allocator<std::pair<int const, abstract_job_data_manager *> >, false> >::iterator)
 *fill*         0x08067097        0x1 37008
 .gnu.linkonce.t.erase__Q23stdt5_Tree1ZQ23stdt12_Tmap_traits5ZiZP25abstract_job_data_managerZQ23stdt4less1ZiZQ23stdt9allocator1ZQ23stdt4pair2ZCiZP25abstract_job_data_managerb0GQ33stdt5_Tree1ZQ23stdt12_Tmap_traits5ZiZP25abstract_job_data_managerZQ23stdt4less1ZiZQ23stdt9allocator1ZQ23stdt4pair2ZCiZP25abstract_job_data_managerb0_8iteratorT1
                0x08067098       0xf8 manager_of_data_storage.o
                0x08067098                std::_Tree<std::_Tmap_traits<int, abstract_job_data_manager *, std::less<int>, std::allocator<std::pair<int const, abstract_job_data_manager *> >, false> >::erase(std::_Tree<std::_Tmap_traits<int, abstract_job_data_manager *, std::less<int>, std::allocator<std::pair<int const, abstract_job_data_manager *> >, false> >::iterator, std::_Tree<std::_Tmap_traits<int, abstract_job_data_manager *, std::less<int>, std::allocator<std::pair<int const, abstract_job_data_manager *> >, false> >::iterator)
 .gnu.linkonce.t._._Q23stdt5_Tree1ZQ23stdt12_Tmap_traits5ZiZP25abstract_job_data_managerZQ23stdt4less1ZiZQ23stdt9allocator1ZQ23stdt4pair2ZCiZP25abstract_job_data_managerb0
                0x08067190      0x10f manager_of_data_storage.o
                0x08067190                std::_Tree<std::_Tmap_traits<int, abstract_job_data_manager *, std::less<int>, std::allocator<std::pair<int const, abstract_job_data_manager *> >, false> >::~_Tree(void)
 *fill*         0x0806729f        0x1 37008
 .gnu.linkonce.t.__Q23stdt3map4ZiZP25abstract_job_data_managerZQ23stdt4less1ZiZQ23stdt9allocator1ZQ23stdt4pair2ZCiZP25abstract_job_data_manager
                0x080672a0       0x71 manager_of_data_storage.o
                0x080672a0                std::map<int, abstract_job_data_manager *, std::less<int>, std::allocator<std::pair<int const, abstract_job_data_manager *> > >::map(void)
 *fill*         0x08067311        0x3 37008
 .gnu.linkonce.t.__Q23stdt4pair2ZCiZP25abstract_job_data_managerRCiRCP25abstract_job_data_manager
                0x08067314       0x1b manager_of_data_storage.o
                0x08067314                std::pair<int const, abstract_job_data_manager *>::pair(int const &, abstract_job_data_manager *const &)
 *fill*         0x0806732f        0x1 37008
 .gnu.linkonce.t.__Q33stdt5_Tree1ZQ23stdt12_Tmap_traits5ZiZP25abstract_job_data_managerZQ23stdt4less1ZiZQ23stdt9allocator1ZQ23stdt4pair2ZCiZP25abstract_job_data_managerb0_8iterator
                0x08067330       0x21 manager_of_data_storage.o
                0x08067330                std::_Tree<std::_Tmap_traits<int, abstract_job_data_manager *, std::less<int>, std::allocator<std::pair<int const, abstract_job_data_manager *> >, false> >::iterator::iterator(void)
 *fill*         0x08067351        0x3 37008
 .gnu.linkonce.t._Ptr_cat__H2ZPUcZPUc_3stdRCX01RX11_Q23std27_Nonscalar_ptr_iterator_tag
                0x08067354       0x20 manager_of_data_storage.o
                0x08067354                std::_Nonscalar_ptr_iterator_tag std::_Ptr_cat<unsigned char *, unsigned char *>(unsigned char * const &, unsigned char * &)
 .gnu.linkonce.t._Destroy__H1ZUc_3stdPX01_v
                0x08067374        0x8 manager_of_data_storage.o
                0x08067374                void std::_Destroy<unsigned char>(unsigned char *)
 .gnu.linkonce.t.destroy__Q23stdt9allocator1ZUcPUc
                0x0806737c       0x1e manager_of_data_storage.o
                0x0806737c                std::allocator<unsigned char>::destroy(unsigned char *)
 *fill*         0x0806739a        0x2 37008
 .gnu.linkonce.t._Destroy_range__H2ZUcZQ23stdt9allocator1ZUc_3stdPX01T1RX11GQ23std27_Nonscalar_ptr_iterator_tag_v
                0x0806739c       0x3c manager_of_data_storage.o
                0x0806739c                void std::_Destroy_range<unsigned char, std::allocator<unsigned char> >(unsigned char *, unsigned char *, std::allocator<unsigned char> &, std::_Nonscalar_ptr_iterator_tag)
 .gnu.linkonce.t._Destroy_range__H2ZUcZQ23stdt9allocator1ZUc_3stdPX01T1RX11_v
                0x080673d8       0x46 manager_of_data_storage.o
                0x080673d8                void std::_Destroy_range<unsigned char, std::allocator<unsigned char> >(unsigned char *, unsigned char *, std::allocator<unsigned char> &)
 *fill*         0x0806741e        0x2 37008
 .gnu.linkonce.t._Destroy__Q23stdt6vector2ZUcZQ23stdt9allocator1ZUcPUcT1
                0x08067420       0x23 manager_of_data_storage.o
                0x08067420                std::vector<unsigned char, std::allocator<unsigned char> >::_Destroy(unsigned char *, unsigned char *)
 *fill*         0x08067443        0x1 37008
 .gnu.linkonce.t.deallocate__Q23stdt9allocator1ZUcPUcUi
                0x08067444       0x1e manager_of_data_storage.o
                0x08067444                std::allocator<unsigned char>::deallocate(unsigned char *, unsigned int)
 *fill*         0x08067462        0x2 37008
 .gnu.linkonce.t._._Q23stdt6vector2ZUcZQ23stdt9allocator1ZUc
                0x08067464       0x71 manager_of_data_storage.o
                0x08067464                std::vector<unsigned char, std::allocator<unsigned char> >::~vector(void)
 *fill*         0x080674d5        0x3 37008
 .gnu.linkonce.t.__Q23stdt9allocator1ZUc
                0x080674d8        0xa manager_of_data_storage.o
                0x080674d8                std::allocator<unsigned char>::allocator(void)
 *fill*         0x080674e2        0x2 37008
 .gnu.linkonce.t.__Q23stdt9allocator1ZUcRCQ23stdt9allocator1ZUc
                0x080674e4        0xa manager_of_data_storage.o
                0x080674e4                std::allocator<unsigned char>::allocator(std::allocator<unsigned char> const &)
 *fill*         0x080674ee        0x2 37008
 .gnu.linkonce.t.__Q23stdt11_Vector_val2ZUcZQ23stdt9allocator1ZUcGQ23stdt9allocator1ZUc
                0x080674f0       0x26 manager_of_data_storage.o
                0x080674f0                std::_Vector_val<unsigned char, std::allocator<unsigned char> >::_Vector_val(std::allocator<unsigned char>)
 *fill*         0x08067516        0x2 37008
 .gnu.linkonce.t.max_size__CQ23stdt9allocator1ZUc
                0x08067518       0x24 manager_of_data_storage.o
                0x08067518                std::allocator<unsigned char>::max_size(void) const
 .gnu.linkonce.t.max_size__CQ23stdt6vector2ZUcZQ23stdt9allocator1ZUc
                0x0806753c       0x21 manager_of_data_storage.o
                0x0806753c                std::vector<unsigned char, std::allocator<unsigned char> >::max_size(void) const
 *fill*         0x0806755d        0x3 37008
 .gnu.linkonce.t._Xlen__CQ23stdt6vector2ZUcZQ23stdt9allocator1ZUc
                0x08067560      0x110 manager_of_data_storage.o
                0x08067560                std::vector<unsigned char, std::allocator<unsigned char> >::_Xlen(void) const
 .gnu.linkonce.t._Allocate__H1ZUc_3stdUiPX01_PX01
                0x08067670       0x29 manager_of_data_storage.o
                0x08067670                unsigned char * std::_Allocate<unsigned char>(unsigned int, unsigned char *)
 *fill*         0x08067699        0x3 37008
 .gnu.linkonce.t.allocate__Q23stdt9allocator1ZUcUi
                0x0806769c       0x26 manager_of_data_storage.o
                0x0806769c                std::allocator<unsigned char>::allocate(unsigned int)
 *fill*         0x080676c2        0x2 37008
 .gnu.linkonce.t.allocate__H1Zv_Q23stdt9allocator1ZUcUiPCX00_PUc
                0x080676c4       0x25 manager_of_data_storage.o
                0x080676c4                unsigned char * std::allocator<unsigned char>::allocate<void>(unsigned int, void const *)
 *fill*         0x080676e9        0x3 37008
 .gnu.linkonce.t._Buy__Q23stdt6vector2ZUcZQ23stdt9allocator1ZUcUi
                0x080676ec       0x85 manager_of_data_storage.o
                0x080676ec                std::vector<unsigned char, std::allocator<unsigned char> >::_Buy(unsigned int)
 *fill*         0x08067771        0x3 37008
 .gnu.linkonce.t.__Q23stdt6vector2ZUcZQ23stdt9allocator1ZUc
                0x08067774       0x42 manager_of_data_storage.o
                0x08067774                std::vector<unsigned char, std::allocator<unsigned char> >::vector(void)
 *fill*         0x080677b6        0x2 37008
 .gnu.linkonce.t._._Q23stdt9basic_ios2ZcZQ23stdt11char_traits1Zc
                0x080677b8       0x26 manager_of_data_storage.o
                0x080677b8                std::basic_ios<char, std::char_traits<char> >::~basic_ios(void)
 *fill*         0x080677de        0x2 37008
 .gnu.linkonce.t._._Q23stdt13basic_ostream2ZcZQ23stdt11char_traits1Zc
                0x080677e0       0x81 manager_of_data_storage.o
                0x080677e0                std::basic_ostream<char, std::char_traits<char> >::~basic_ostream(void)
 *fill*         0x08067861        0x3 37008
 .gnu.linkonce.t.eback__CQ23stdt15basic_streambuf2ZcZQ23stdt11char_traits1Zc
                0x08067864       0x11 manager_of_data_storage.o
                0x08067864                std::basic_streambuf<char, std::char_traits<char> >::eback(void) const
 *fill*         0x08067875        0x3 37008
 .gnu.linkonce.t.egptr__CQ23stdt15basic_streambuf2ZcZQ23stdt11char_traits1Zc
                0x08067878       0x11 manager_of_data_storage.o
                0x08067878                std::basic_streambuf<char, std::char_traits<char> >::egptr(void) const
 *fill*         0x08067889        0x3 37008
 .gnu.linkonce.t.epptr__CQ23stdt15basic_streambuf2ZcZQ23stdt11char_traits1Zc
                0x0806788c       0x11 manager_of_data_storage.o
                0x0806788c                std::basic_streambuf<char, std::char_traits<char> >::epptr(void) const
 *fill*         0x0806789d        0x3 37008
 .gnu.linkonce.t.pptr__CQ23stdt15basic_streambuf2ZcZQ23stdt11char_traits1Zc
                0x080678a0       0x11 manager_of_data_storage.o
                0x080678a0                std::basic_streambuf<char, std::char_traits<char> >::pptr(void) const
 *fill*         0x080678b1        0x3 37008
 .gnu.linkonce.t.setg__Q23stdt15basic_streambuf2ZcZQ23stdt11char_traits1ZcPcN21
                0x080678b4       0x20 manager_of_data_storage.o
                0x080678b4                std::basic_streambuf<char, std::char_traits<char> >::setg(char *, char *, char *)
 .gnu.linkonce.t.setp__Q23stdt15basic_streambuf2ZcZQ23stdt11char_traits1ZcPcT1
                0x080678d4       0x20 manager_of_data_storage.o
                0x080678d4                std::basic_streambuf<char, std::char_traits<char> >::setp(char *, char *)
 .gnu.linkonce.t._Tidy__Q23stdt15basic_stringbuf3ZcZQ23stdt11char_traits1ZcZQ23stdt9allocator1Zc
                0x080678f4       0xb0 manager_of_data_storage.o
                0x080678f4                std::basic_stringbuf<char, std::char_traits<char>, std::allocator<char> >::_Tidy(void)
 .gnu.linkonce.t._._Q23stdt15basic_streambuf2ZcZQ23stdt11char_traits1Zc
                0x080679a4       0x41 manager_of_data_storage.o
                0x080679a4                std::basic_streambuf<char, std::char_traits<char> >::~basic_streambuf(void)
 *fill*         0x080679e5        0x3 37008
 .gnu.linkonce.t._._Q23stdt15basic_stringbuf3ZcZQ23stdt11char_traits1ZcZQ23stdt9allocator1Zc
                0x080679e8       0x32 manager_of_data_storage.o
                0x080679e8                std::basic_stringbuf<char, std::char_traits<char>, std::allocator<char> >::~basic_stringbuf(void)
 *fill*         0x08067a1a        0x2 37008
 .gnu.linkonce.t._._Q23stdt19basic_ostringstream3ZcZQ23stdt11char_traits1ZcZQ23stdt9allocator1Zc
                0x08067a1c       0xa0 manager_of_data_storage.o
                0x08067a1c                std::basic_ostringstream<char, std::char_traits<char>, std::allocator<char> >::~basic_ostringstream(void)
 .gnu.linkonce.t.__Q23stdt9basic_ios2ZcZQ23stdt11char_traits1Zc
                0x08067abc       0x59 manager_of_data_storage.o
                0x08067abc                std::basic_ios<char, std::char_traits<char> >::basic_ios(void)
 *fill*         0x08067b15        0x3 37008
 .gnu.linkonce.t._Widen__H1Zc_3stdcPX01_X01
                0x08067b18       0x1b manager_of_data_storage.o
                0x08067b18                char std::_Widen<char>(char, char *)
 *fill*         0x08067b33        0x1 37008
 .gnu.linkonce.t.clear__Q23stdt9basic_ios2ZcZQ23stdt11char_traits1ZcQ33stdt5_Iosb1Zi8_Iostateb
                0x08067b34       0x32 manager_of_data_storage.o
                0x08067b34                std::basic_ios<char, std::char_traits<char> >::clear(std::_Iosb<int>::_Iostate, bool)
 *fill*         0x08067b66        0x2 37008
 .gnu.linkonce.t.setstate__Q23stdt9basic_ios2ZcZQ23stdt11char_traits1ZcQ33stdt5_Iosb1Zi8_Iostateb
                0x08067b68       0x39 manager_of_data_storage.o
                0x08067b68                std::basic_ios<char, std::char_traits<char> >::setstate(std::_Iosb<int>::_Iostate, bool)
 *fill*         0x08067ba1        0x3 37008
 .gnu.linkonce.t.init__Q23stdt9basic_ios2ZcZQ23stdt11char_traits1ZcPQ23stdt15basic_streambuf2ZcZQ23stdt11char_traits1Zcb
                0x08067ba4       0x64 manager_of_data_storage.o
                0x08067ba4                std::basic_ios<char, std::char_traits<char> >::init(std::basic_streambuf<char, std::char_traits<char> > *, bool)
 .gnu.linkonce.t.__Q23stdt13basic_ostream2ZcZQ23stdt11char_traits1ZciPQ23stdt15basic_streambuf2ZcZQ23stdt11char_traits1Zcb
                0x08067c08       0xcc manager_of_data_storage.o
                0x08067c08                std::basic_ostream<char, std::char_traits<char> >::basic_ostream(int, std::basic_streambuf<char, std::char_traits<char> > *, bool)
 .gnu.linkonce.t._Init__Q23stdt15basic_streambuf2ZcZQ23stdt11char_traits1Zc
                0x08067cd4       0x52 manager_of_data_storage.o
                0x08067cd4                std::basic_streambuf<char, std::char_traits<char> >::_Init(void)
 *fill*         0x08067d26        0x2 37008
 .gnu.linkonce.t.__Q23stdt15basic_streambuf2ZcZQ23stdt11char_traits1Zc
                0x08067d28       0xcc manager_of_data_storage.o
                0x08067d28                std::basic_streambuf<char, std::char_traits<char> >::basic_streambuf(void)
 .gnu.linkonce.t._Getstate__Q23stdt15basic_stringbuf3ZcZQ23stdt11char_traits1ZcZQ23stdt9allocator1ZcQ33stdt5_Iosb1Zi9_Openmode
                0x08067df4       0x53 manager_of_data_storage.o
                0x08067df4                std::basic_stringbuf<char, std::char_traits<char>, std::allocator<char> >::_Getstate(std::_Iosb<int>::_Openmode)
 *fill*         0x08067e47        0x1 37008
 .gnu.linkonce.t.gptr__CQ23stdt15basic_streambuf2ZcZQ23stdt11char_traits1Zc
                0x08067e48       0x11 manager_of_data_storage.o
                0x08067e48                std::basic_streambuf<char, std::char_traits<char> >::gptr(void) const
 *fill*         0x08067e59        0x3 37008
 .gnu.linkonce.t._Init__Q23stdt15basic_stringbuf3ZcZQ23stdt11char_traits1ZcZQ23stdt9allocator1ZcPCcUii
                0x08067e5c       0xe2 manager_of_data_storage.o
                0x08067e5c                std::basic_stringbuf<char, std::char_traits<char>, std::allocator<char> >::_Init(char const *, unsigned int, int)
 *fill*         0x08067f3e        0x2 37008
 .gnu.linkonce.t.__Q23stdt15basic_stringbuf3ZcZQ23stdt11char_traits1ZcZQ23stdt9allocator1ZcQ33stdt5_Iosb1Zi9_Openmode
                0x08067f40       0x89 manager_of_data_storage.o
                0x08067f40                std::basic_stringbuf<char, std::char_traits<char>, std::allocator<char> >::basic_stringbuf(std::_Iosb<int>::_Openmode)
 *fill*         0x08067fc9        0x3 37008
 .gnu.linkonce.t.__Q23stdt19basic_ostringstream3ZcZQ23stdt11char_traits1ZcZQ23stdt9allocator1ZciQ33stdt5_Iosb1Zi9_Openmode
                0x08067fcc      0x124 manager_of_data_storage.o
                0x08067fcc                std::basic_ostringstream<char, std::char_traits<char>, std::allocator<char> >::basic_ostringstream(int, std::_Iosb<int>::_Openmode)
 .gnu.linkonce.t.rdbuf__CQ23stdt9basic_ios2ZcZQ23stdt11char_traits1Zc
                0x080680f0        0xf manager_of_data_storage.o
                0x080680f0                std::basic_ios<char, std::char_traits<char> >::rdbuf(void) const
 *fill*         0x080680ff        0x1 37008
 .gnu.linkonce.t.sync__Q23stdt15basic_streambuf2ZcZQ23stdt11char_traits1Zc
                0x08068100        0xc manager_of_data_storage.o
                0x08068100                std::basic_streambuf<char, std::char_traits<char> >::sync(void)
 .gnu.linkonce.t.pubsync__Q23stdt15basic_streambuf2ZcZQ23stdt11char_traits1Zc
                0x0806810c       0x32 manager_of_data_storage.o
                0x0806810c                std::basic_streambuf<char, std::char_traits<char> >::pubsync(void)
 *fill*         0x0806813e        0x2 37008
 .gnu.linkonce.t.flush__Q23stdt13basic_ostream2ZcZQ23stdt11char_traits1Zc
                0x08068140       0x76 manager_of_data_storage.o
                0x08068140                std::basic_ostream<char, std::char_traits<char> >::flush(void)
 *fill*         0x080681b6        0x2 37008
 .gnu.linkonce.t._Osfx__Q23stdt13basic_ostream2ZcZQ23stdt11char_traits1Zc
                0x080681b8       0x3f manager_of_data_storage.o
                0x080681b8                std::basic_ostream<char, std::char_traits<char> >::_Osfx(void)
 *fill*         0x080681f7        0x1 37008
 .gnu.linkonce.t._._Q33stdt13basic_ostream2ZcZQ23stdt11char_traits1Zc6sentry
                0x080681f8       0x7b manager_of_data_storage.o
                0x080681f8                std::basic_ostream<char, std::char_traits<char> >::sentry::~sentry(void)
 *fill*         0x08068273        0x1 37008
 .gnu.linkonce.t.tie__CQ23stdt9basic_ios2ZcZQ23stdt11char_traits1Zc
                0x08068274        0xf manager_of_data_storage.o
                0x08068274                std::basic_ios<char, std::char_traits<char> >::tie(void) const
 *fill*         0x08068283        0x1 37008
 .gnu.linkonce.t.__Q33stdt13basic_ostream2ZcZQ23stdt11char_traits1Zc6sentryRQ23stdt13basic_ostream2ZcZQ23stdt11char_traits1Zc
                0x08068284       0xb4 manager_of_data_storage.o
                0x08068284                std::basic_ostream<char, std::char_traits<char> >::sentry::sentry(std::basic_ostream<char, std::char_traits<char> > &)
 .gnu.linkonce.t.__opb__CQ33stdt13basic_ostream2ZcZQ23stdt11char_traits1Zc6sentry
                0x08068338        0xe manager_of_data_storage.o
                0x08068338                std::basic_ostream<char, std::char_traits<char> >::sentry::operator bool(void) const
 *fill*         0x08068346        0x2 37008
 .gnu.linkonce.t.fill__CQ23stdt9basic_ios2ZcZQ23stdt11char_traits1Zc
                0x08068348       0x10 manager_of_data_storage.o
                0x08068348                std::basic_ios<char, std::char_traits<char> >::fill(void) const
 .gnu.linkonce.t.overflow__Q23stdt15basic_streambuf2ZcZQ23stdt11char_traits1Zci
                0x08068358       0x1a manager_of_data_storage.o
                0x08068358                std::basic_streambuf<char, std::char_traits<char> >::overflow(int)
 *fill*         0x08068372        0x2 37008
 .gnu.linkonce.t._Pninc__Q23stdt15basic_streambuf2ZcZQ23stdt11char_traits1Zc
                0x08068374       0x13 manager_of_data_storage.o
                0x08068374                std::basic_streambuf<char, std::char_traits<char> >::_Pninc(void)
 *fill*         0x08068387        0x1 37008
 .gnu.linkonce.t.sputc__Q23stdt15basic_streambuf2ZcZQ23stdt11char_traits1Zcc
                0x08068388       0xac manager_of_data_storage.o
                0x08068388                std::basic_streambuf<char, std::char_traits<char> >::sputc(char)
 .gnu.linkonce.t.pbump__Q23stdt15basic_streambuf2ZcZQ23stdt11char_traits1Zci
                0x08068434       0x1f manager_of_data_storage.o
                0x08068434                std::basic_streambuf<char, std::char_traits<char> >::pbump(int)
 *fill*         0x08068453        0x1 37008
 .gnu.linkonce.t.xsputn__Q23stdt15basic_streambuf2ZcZQ23stdt11char_traits1ZcPCci
                0x08068454      0x123 manager_of_data_storage.o
                0x08068454                std::basic_streambuf<char, std::char_traits<char> >::xsputn(char const *, int)
 *fill*         0x08068577        0x1 37008
 .gnu.linkonce.t.sputn__Q23stdt15basic_streambuf2ZcZQ23stdt11char_traits1ZcPCci
                0x08068578       0x3a manager_of_data_storage.o
                0x08068578                std::basic_streambuf<char, std::char_traits<char> >::sputn(char const *, int)
 *fill*         0x080685b2        0x2 37008
 .gnu.linkonce.t._Init__Q23stdt7num_put2ZcZQ23stdt19ostreambuf_iterator2ZcZQ23stdt11char_traits1ZcRCQ23std8_Locinfo
                0x080685b4        0x8 manager_of_data_storage.o
                0x080685b4                std::num_put<char, std::ostreambuf_iterator<char, std::char_traits<char> > >::_Init(std::_Locinfo const &)
 .gnu.linkonce.t.__Q23stdt7num_put2ZcZQ23stdt19ostreambuf_iterator2ZcZQ23stdt11char_traits1ZcUi
                0x080685bc       0xc8 manager_of_data_storage.o
                0x080685bc                std::num_put<char, std::ostreambuf_iterator<char, std::char_traits<char> > >::num_put(unsigned int)
 .gnu.linkonce.t._Getcat__Q23stdt7num_put2ZcZQ23stdt19ostreambuf_iterator2ZcZQ23stdt11char_traits1ZcPPCQ33std6locale5facet
                0x08068684       0xa0 manager_of_data_storage.o
                0x08068684                std::num_put<char, std::ostreambuf_iterator<char, std::char_traits<char> > >::_Getcat(std::locale::facet const **)
 .gnu.linkonce.t._Tidy__Q23stdt8_Tidyfac1ZQ23stdt7num_put2ZcZQ23stdt19ostreambuf_iterator2ZcZQ23stdt11char_traits1Zc
                0x08068724       0xb0 manager_of_data_storage.o
                0x08068724                std::_Tidyfac<std::num_put<char, std::ostreambuf_iterator<char, std::char_traits<char> > > >::_Tidy(void)
 .gnu.linkonce.t._Save__Q23stdt8_Tidyfac1ZQ23stdt7num_put2ZcZQ23stdt19ostreambuf_iterator2ZcZQ23stdt11char_traits1ZcPQ23stdt7num_put2ZcZQ23stdt19ostreambuf_iterator2ZcZQ23stdt11char_traits1Zc
                0x080687d4       0x3a manager_of_data_storage.o
                0x080687d4                std::_Tidyfac<std::num_put<char, std::ostreambuf_iterator<char, std::char_traits<char> > > >::_Save(std::num_put<char, std::ostreambuf_iterator<char, std::char_traits<char> > > *)
 *fill*         0x0806880e        0x2 37008
 .gnu.linkonce.t.use_facet__H1ZQ23stdt7num_put2ZcZQ23stdt19ostreambuf_iterator2ZcZQ23stdt11char_traits1Zc_3stdRCQ23std6locale_RCX01
                0x08068810      0x18c manager_of_data_storage.o
                0x08068810                std::num_put<char, std::ostreambuf_iterator<char, std::char_traits<char> > > const & std::use_facet<std::num_put<char, std::ostreambuf_iterator<char, std::char_traits<char> > > >(std::locale const &)
 .gnu.linkonce.t.__Q23stdt19ostreambuf_iterator2ZcZQ23stdt11char_traits1ZcPQ23stdt15basic_streambuf2ZcZQ23stdt11char_traits1Zc
                0x0806899c       0x85 manager_of_data_storage.o
                0x0806899c                std::ostreambuf_iterator<char, std::char_traits<char> >::ostreambuf_iterator(std::basic_streambuf<char, std::char_traits<char> > *)
 *fill*         0x08068a21        0x3 37008
 .gnu.linkonce.t._Ifmt__Q23stdt7num_put2ZcZQ23stdt19ostreambuf_iterator2ZcZQ23stdt11char_traits1ZcPcPCcQ33stdt5_Iosb1Zi9_Fmtflags
                0x08068a24      0x121 manager_of_data_storage.o
                0x08068a24                std::num_put<char, std::ostreambuf_iterator<char, std::char_traits<char> > >::_Ifmt(char *, char const *, std::_Iosb<int>::_Fmtflags)
 *fill*         0x08068b45        0x3 37008
 .gnu.linkonce.t._Maklocstr__H1Zc_3stdPCcPX01_PX01
                0x08068b48       0x7b manager_of_data_storage.o
                0x08068b48                char * std::_Maklocstr<char>(char const *, char *)
 *fill*         0x08068bc3        0x1 37008
 .gnu.linkonce.t._Init__Q23stdt8numpunct1ZcRCQ23std8_Locinfo
                0x08068bc4       0xbc manager_of_data_storage.o
                0x08068bc4                std::numpunct<char>::_Init(std::_Locinfo const &)
 .gnu.linkonce.t.__Q23stdt8numpunct1ZcUi
                0x08068c80       0xc8 manager_of_data_storage.o
                0x08068c80                std::numpunct<char>::numpunct(unsigned int)
 .gnu.linkonce.t._Getcat__Q23stdt8numpunct1ZcPPCQ33std6locale5facet
                0x08068d48       0xa0 manager_of_data_storage.o
                0x08068d48                std::numpunct<char>::_Getcat(std::locale::facet const **)
 .gnu.linkonce.t._Tidy__Q23stdt8_Tidyfac1ZQ23stdt8numpunct1Zc
                0x08068de8       0xb0 manager_of_data_storage.o
                0x08068de8                std::_Tidyfac<std::numpunct<char> >::_Tidy(void)
 .gnu.linkonce.t._Save__Q23stdt8_Tidyfac1ZQ23stdt8numpunct1ZcPQ23stdt8numpunct1Zc
                0x08068e98       0x3a manager_of_data_storage.o
                0x08068e98                std::_Tidyfac<std::numpunct<char> >::_Save(std::numpunct<char> *)
 *fill*         0x08068ed2        0x2 37008
 .gnu.linkonce.t.use_facet__H1ZQ23stdt8numpunct1Zc_3stdRCQ23std6locale_RCX01
                0x08068ed4      0x18c manager_of_data_storage.o
                0x08068ed4                std::numpunct<char> const & std::use_facet<std::numpunct<char> >(std::locale const &)
 .gnu.linkonce.t.do_grouping__CQ23stdt8numpunct1Zc
                0x08069060       0x2d manager_of_data_storage.o
                0x08069060                std::numpunct<char>::do_grouping(void) const
 *fill*         0x0806908d        0x3 37008
 .gnu.linkonce.t.grouping__CQ23stdt8numpunct1Zc
                0x08069090       0x3c manager_of_data_storage.o
                0x08069090                std::numpunct<char>::grouping(void) const
 .gnu.linkonce.t.do_thousands_sep__CQ23stdt8numpunct1Zc
                0x080690cc       0x10 manager_of_data_storage.o
                0x080690cc                std::numpunct<char>::do_thousands_sep(void) const
 .gnu.linkonce.t.thousands_sep__CQ23stdt8numpunct1Zc
                0x080690dc       0x35 manager_of_data_storage.o
                0x080690dc                std::numpunct<char>::thousands_sep(void) const
 *fill*         0x08069111        0x3 37008
 .gnu.linkonce.t.__pp__Q23stdt19ostreambuf_iterator2ZcZQ23stdt11char_traits1Zc
                0x08069114        0xa manager_of_data_storage.o
                0x08069114                std::ostreambuf_iterator<char, std::char_traits<char> >::operator++(void)
 *fill*         0x0806911e        0x2 37008
 .gnu.linkonce.t.__ml__Q23stdt19ostreambuf_iterator2ZcZQ23stdt11char_traits1Zc
                0x08069120        0xa manager_of_data_storage.o
                0x08069120                std::ostreambuf_iterator<char, std::char_traits<char> >::operator*(void)
 *fill*         0x0806912a        0x2 37008
 .gnu.linkonce.t.__as__Q23stdt19ostreambuf_iterator2ZcZQ23stdt11char_traits1Zcc
                0x0806912c       0x60 manager_of_data_storage.o
                0x0806912c                std::ostreambuf_iterator<char, std::char_traits<char> >::operator=(char)
 .gnu.linkonce.t._Rep__Q23stdt7num_put2ZcZQ23stdt19ostreambuf_iterator2ZcZQ23stdt11char_traits1ZcGQ23stdt19ostreambuf_iterator2ZcZQ23stdt11char_traits1ZccUi
                0x0806918c       0x6c manager_of_data_storage.o
                0x0806918c                std::num_put<char, std::ostreambuf_iterator<char, std::char_traits<char> > >::_Rep(std::ostreambuf_iterator<char, std::char_traits<char> >, char, unsigned int)
 .gnu.linkonce.t._Putc__Q23stdt7num_put2ZcZQ23stdt19ostreambuf_iterator2ZcZQ23stdt11char_traits1ZcGQ23stdt19ostreambuf_iterator2ZcZQ23stdt11char_traits1ZcPCcUi
                0x080691f8       0x80 manager_of_data_storage.o
                0x080691f8                std::num_put<char, std::ostreambuf_iterator<char, std::char_traits<char> > >::_Putc(std::ostreambuf_iterator<char, std::char_traits<char> >, char const *, unsigned int)
 .gnu.linkonce.t._Iput__Q23stdt7num_put2ZcZQ23stdt19ostreambuf_iterator2ZcZQ23stdt11char_traits1ZcGQ23stdt19ostreambuf_iterator2ZcZQ23stdt11char_traits1ZcRQ23std8ios_basecPcUi
                0x08069278      0x4e0 manager_of_data_storage.o
                0x08069278                std::num_put<char, std::ostreambuf_iterator<char, std::char_traits<char> > >::_Iput(std::ostreambuf_iterator<char, std::char_traits<char> >, std::ios_base &, char, char *, unsigned int)
 .gnu.linkonce.t.do_put__CQ23stdt7num_put2ZcZQ23stdt19ostreambuf_iterator2ZcZQ23stdt11char_traits1ZcGQ23stdt19ostreambuf_iterator2ZcZQ23stdt11char_traits1ZcRQ23std8ios_basecUl
                0x08069758       0x94 manager_of_data_storage.o
                0x08069758                std::num_put<char, std::ostreambuf_iterator<char, std::char_traits<char> > >::do_put(std::ostreambuf_iterator<char, std::char_traits<char> >, std::ios_base &, char, unsigned long) const
 .gnu.linkonce.t.put__CQ23stdt7num_put2ZcZQ23stdt19ostreambuf_iterator2ZcZQ23stdt11char_traits1ZcGQ23stdt19ostreambuf_iterator2ZcZQ23stdt11char_traits1ZcRQ23std8ios_basecUl
                0x080697ec       0x6a manager_of_data_storage.o
                0x080697ec                std::num_put<char, std::ostreambuf_iterator<char, std::char_traits<char> > >::put(std::ostreambuf_iterator<char, std::char_traits<char> >, std::ios_base &, char, unsigned long) const
 *fill*         0x08069856        0x2 37008
 .gnu.linkonce.t.failed__CQ23stdt19ostreambuf_iterator2ZcZQ23stdt11char_traits1Zc
                0x08069858       0x79 manager_of_data_storage.o
                0x08069858                std::ostreambuf_iterator<char, std::char_traits<char> >::failed(void) const
 *fill*         0x080698d1        0x3 37008
 .gnu.linkonce.t.__ls__Q23stdt13basic_ostream2ZcZQ23stdt11char_traits1ZcUi
                0x080698d4      0x1f8 manager_of_data_storage.o
                0x080698d4                std::basic_ostream<char, std::char_traits<char> >::operator<<(unsigned int)
 .gnu.linkonce.t.do_put__CQ23stdt7num_put2ZcZQ23stdt19ostreambuf_iterator2ZcZQ23stdt11char_traits1ZcGQ23stdt19ostreambuf_iterator2ZcZQ23stdt11char_traits1ZcRQ23std8ios_basecl
                0x08069acc       0x94 manager_of_data_storage.o
                0x08069acc                std::num_put<char, std::ostreambuf_iterator<char, std::char_traits<char> > >::do_put(std::ostreambuf_iterator<char, std::char_traits<char> >, std::ios_base &, char, long) const
 .gnu.linkonce.t.put__CQ23stdt7num_put2ZcZQ23stdt19ostreambuf_iterator2ZcZQ23stdt11char_traits1ZcGQ23stdt19ostreambuf_iterator2ZcZQ23stdt11char_traits1ZcRQ23std8ios_basecl
                0x08069b60       0x6a manager_of_data_storage.o
                0x08069b60                std::num_put<char, std::ostreambuf_iterator<char, std::char_traits<char> > >::put(std::ostreambuf_iterator<char, std::char_traits<char> >, std::ios_base &, char, long) const
 *fill*         0x08069bca        0x2 37008
 .gnu.linkonce.t.__ls__Q23stdt13basic_ostream2ZcZQ23stdt11char_traits1Zci
                0x08069bcc      0x224 manager_of_data_storage.o
                0x08069bcc                std::basic_ostream<char, std::char_traits<char> >::operator<<(int)
 .gnu.linkonce.t.pbase__CQ23stdt15basic_streambuf2ZcZQ23stdt11char_traits1Zc
                0x08069df0       0x11 manager_of_data_storage.o
                0x08069df0                std::basic_streambuf<char, std::char_traits<char> >::pbase(void) const
 *fill*         0x08069e01        0x3 37008
 .gnu.linkonce.t.__Q23stdt12basic_string3ZcZQ23stdt11char_traits1ZcZQ23stdt9allocator1ZcPCcUi
                0x08069e04       0x58 manager_of_data_storage.o
                0x08069e04                std::basic_string<char, std::char_traits<char>, std::allocator<char> >::basic_string(char const *, unsigned int)
 .gnu.linkonce.t.str__CQ23stdt15basic_stringbuf3ZcZQ23stdt11char_traits1ZcZQ23stdt9allocator1Zc
                0x08069e5c      0x224 manager_of_data_storage.o
                0x08069e5c                std::basic_stringbuf<char, std::char_traits<char>, std::allocator<char> >::str(void) const
 .gnu.linkonce.t.str__CQ23stdt19basic_ostringstream3ZcZQ23stdt11char_traits1ZcZQ23stdt9allocator1Zc
                0x0806a080       0x2b manager_of_data_storage.o
                0x0806a080                std::basic_ostringstream<char, std::char_traits<char>, std::allocator<char> >::str(void) const
 *fill*         0x0806a0ab        0x1 37008
 .gnu.linkonce.t.size__CQ23stdt6vector2ZUcZQ23stdt9allocator1ZUc
                0x0806a0ac       0x20 manager_of_data_storage.o
                0x0806a0ac                std::vector<unsigned char, std::allocator<unsigned char> >::size(void) const
 .gnu.linkonce.t.__Q23stdt6_Ptrit6ZUcZiZPUcZRUcZPUcZRUcPUc
                0x0806a0cc       0x12 manager_of_data_storage.o
                0x0806a0cc                std::_Ptrit<unsigned char, int, unsigned char *, unsigned char &, unsigned char *, unsigned char &>::_Ptrit(unsigned char *)
 *fill*         0x0806a0de        0x2 37008
 .gnu.linkonce.t.base__CQ23stdt6_Ptrit6ZUcZiZPUcZRUcZPUcZRUc
                0x0806a0e0        0xf manager_of_data_storage.o
                0x0806a0e0                std::_Ptrit<unsigned char, int, unsigned char *, unsigned char &, unsigned char *, unsigned char &>::base(void) const
 *fill*         0x0806a0ef        0x1 37008
 .gnu.linkonce.t.__Q23stdt6_Ptrit6ZUcZiZPUcZRUcZPUcZRUcRCQ23stdt6_Ptrit6ZUcZiZPUcZRUcZPUcZRUc
                0x0806a0f0       0x25 manager_of_data_storage.o
                0x0806a0f0                std::_Ptrit<unsigned char, int, unsigned char *, unsigned char &, unsigned char *, unsigned char &>::_Ptrit(std::_Ptrit<unsigned char, int, unsigned char *, unsigned char &, unsigned char *, unsigned char &> const &)
 *fill*         0x0806a115        0x3 37008
 .gnu.linkonce.t.end__Q23stdt6vector2ZUcZQ23stdt9allocator1ZUc
                0x0806a118       0x2d manager_of_data_storage.o
                0x0806a118                std::vector<unsigned char, std::allocator<unsigned char> >::end(void)
 *fill*         0x0806a145        0x3 37008
 .gnu.linkonce.t.capacity__CQ23stdt6vector2ZUcZQ23stdt9allocator1ZUc
                0x0806a148       0x20 manager_of_data_storage.o
                0x0806a148                std::vector<unsigned char, std::allocator<unsigned char> >::capacity(void) const
 .gnu.linkonce.t.begin__Q23stdt6vector2ZUcZQ23stdt9allocator1ZUc
                0x0806a168       0x2d manager_of_data_storage.o
                0x0806a168                std::vector<unsigned char, std::allocator<unsigned char> >::begin(void)
 *fill*         0x0806a195        0x3 37008
 .gnu.linkonce.t._Ptr_cat__H2ZQ23stdt6_Ptrit6ZUcZiZPUcZRUcZPUcZRUcZPUc_3stdRCX01RX11_Q23std27_Nonscalar_ptr_iterator_tag
                0x0806a198       0x20 manager_of_data_storage.o
                0x0806a198                std::_Nonscalar_ptr_iterator_tag std::_Ptr_cat<std::_Ptrit<unsigned char, int, unsigned char *, unsigned char &, unsigned char *, unsigned char &>, unsigned char *>(std::_Ptrit<unsigned char, int, unsigned char *, unsigned char &, unsigned char *, unsigned char &> const &, unsigned char * &)
 .gnu.linkonce.t.__eq__CQ23stdt6_Ptrit6ZUcZiZPUcZRUcZPUcZRUcRCQ23stdt6_Ptrit6ZUcZiZPUcZRUcZPUcZRUc
                0x0806a1b8       0x1b manager_of_data_storage.o
                0x0806a1b8                std::_Ptrit<unsigned char, int, unsigned char *, unsigned char &, unsigned char *, unsigned char &>::operator==(std::_Ptrit<unsigned char, int, unsigned char *, unsigned char &, unsigned char *, unsigned char &> const &) const
 *fill*         0x0806a1d3        0x1 37008
 .gnu.linkonce.t.__ne__CQ23stdt6_Ptrit6ZUcZiZPUcZRUcZPUcZRUcRCQ23stdt6_Ptrit6ZUcZiZPUcZRUcZPUcZRUc
                0x0806a1d4       0x28 manager_of_data_storage.o
                0x0806a1d4                std::_Ptrit<unsigned char, int, unsigned char *, unsigned char &, unsigned char *, unsigned char &>::operator!=(std::_Ptrit<unsigned char, int, unsigned char *, unsigned char &, unsigned char *, unsigned char &> const &) const
 .gnu.linkonce.t.__pp__Q23stdt6_Ptrit6ZUcZiZPUcZRUcZPUcZRUc
                0x0806a1fc        0xf manager_of_data_storage.o
                0x0806a1fc                std::_Ptrit<unsigned char, int, unsigned char *, unsigned char &, unsigned char *, unsigned char &>::operator++(void)
 *fill*         0x0806a20b        0x1 37008
 .gnu.linkonce.t.__ml__CQ23stdt6_Ptrit6ZUcZiZPUcZRUcZPUcZRUc
                0x0806a20c        0xf manager_of_data_storage.o
                0x0806a20c                std::_Ptrit<unsigned char, int, unsigned char *, unsigned char &, unsigned char *, unsigned char &>::operator*(void) const
 *fill*         0x0806a21b        0x1 37008
 .gnu.linkonce.t._Construct__H2ZUcZUc_3stdPX01RCX11_v
                0x0806a21c       0xc4 manager_of_data_storage.o
                0x0806a21c                void std::_Construct<unsigned char, unsigned char>(unsigned char *, unsigned char const &)
 .gnu.linkonce.t.construct__Q23stdt9allocator1ZUcPUcRCUc
                0x0806a2e0       0x22 manager_of_data_storage.o
                0x0806a2e0                std::allocator<unsigned char>::construct(unsigned char *, unsigned char const &)
 *fill*         0x0806a302        0x2 37008
 .gnu.linkonce.t._Uninit_copy__H3ZQ23stdt6_Ptrit6ZUcZiZPUcZRUcZPUcZRUcZPUcZQ23stdt9allocator1ZUc_3stdX01X01X11RX21GQ23std27_Nonscalar_ptr_iterator_tag_X11
                0x0806a304       0xf4 manager_of_data_storage.o
                0x0806a304                unsigned char * std::_Uninit_copy<std::_Ptrit<unsigned char, int, unsigned char *, unsigned char &, unsigned char *, unsigned char &>, unsigned char *, std::allocator<unsigned char> >(std::_Ptrit<unsigned char, int, unsigned char *, unsigned char &, unsigned char *, unsigned char &>, std::_Ptrit<unsigned char, int, unsigned char *, unsigned char &, unsigned char *, unsigned char &>, unsigned char *, std::allocator<unsigned char> &, std::_Nonscalar_ptr_iterator_tag)
 .gnu.linkonce.t._Uninitialized_copy__H3ZQ23stdt6_Ptrit6ZUcZiZPUcZRUcZPUcZRUcZPUcZQ23stdt9allocator1ZUc_3stdX01X01X11RX21_X11
                0x0806a3f8       0x7c manager_of_data_storage.o
                0x0806a3f8                unsigned char * std::_Uninitialized_copy<std::_Ptrit<unsigned char, int, unsigned char *, unsigned char &, unsigned char *, unsigned char &>, unsigned char *, std::allocator<unsigned char> >(std::_Ptrit<unsigned char, int, unsigned char *, unsigned char &, unsigned char *, unsigned char &>, std::_Ptrit<unsigned char, int, unsigned char *, unsigned char &, unsigned char *, unsigned char &>, unsigned char *, std::allocator<unsigned char> &)
 .gnu.linkonce.t._Ucopy__H1ZQ23stdt6_Ptrit6ZUcZiZPUcZRUcZPUcZRUc_Q23stdt6vector2ZUcZQ23stdt9allocator1ZUcX00X00PUc_PUc
                0x0806a474       0x59 manager_of_data_storage.o
                0x0806a474                unsigned char * std::vector<unsigned char, std::allocator<unsigned char> >::_Ucopy<std::_Ptrit<unsigned char, int, unsigned char *, unsigned char &, unsigned char *, unsigned char &> >(std::_Ptrit<unsigned char, int, unsigned char *, unsigned char &, unsigned char *, unsigned char &>, std::_Ptrit<unsigned char, int, unsigned char *, unsigned char &, unsigned char *, unsigned char &>, unsigned char *)
 *fill*         0x0806a4cd        0x3 37008
 .gnu.linkonce.t._Uninit_fill_n__H4ZPUcZUiZUcZQ23stdt9allocator1ZUc_3stdX01X11RCX21RX31GQ23std27_Nonscalar_ptr_iterator_tag_v
                0x0806a4d0       0xc4 manager_of_data_storage.o
                0x0806a4d0                void std::_Uninit_fill_n<unsigned char *, unsigned int, unsigned char, std::allocator<unsigned char> >(unsigned char *, unsigned int, unsigned char const &, std::allocator<unsigned char> &, std::_Nonscalar_ptr_iterator_tag)
 .gnu.linkonce.t._Uninitialized_fill_n__H4ZPUcZUiZUcZQ23stdt9allocator1ZUc_3stdX01X11RCX21RX31_v
                0x0806a594       0x4f manager_of_data_storage.o
                0x0806a594                void std::_Uninitialized_fill_n<unsigned char *, unsigned int, unsigned char, std::allocator<unsigned char> >(unsigned char *, unsigned int, unsigned char const &, std::allocator<unsigned char> &)
 *fill*         0x0806a5e3        0x1 37008
 .gnu.linkonce.t._Ufill__Q23stdt6vector2ZUcZQ23stdt9allocator1ZUcPUcUiRCUc
                0x0806a5e4       0x31 manager_of_data_storage.o
                0x0806a5e4                std::vector<unsigned char, std::allocator<unsigned char> >::_Ufill(unsigned char *, unsigned int, unsigned char const &)
 *fill*         0x0806a615        0x3 37008
 .gnu.linkonce.t.__mi__CQ23stdt6_Ptrit6ZUcZiZPUcZRUcZPUcZRUcRCQ23stdt6_Ptrit6ZUcZiZPUcZRUcZPUcZRUc
                0x0806a618       0x17 manager_of_data_storage.o
                0x0806a618                std::_Ptrit<unsigned char, int, unsigned char *, unsigned char &, unsigned char *, unsigned char &>::operator-(std::_Ptrit<unsigned char, int, unsigned char *, unsigned char &, unsigned char *, unsigned char &> const &) const
 *fill*         0x0806a62f        0x1 37008
 .gnu.linkonce.t.__mi__CQ23stdt6_Ptrit6ZUcZiZPUcZRUcZPUcZRUci
                0x0806a630       0x32 manager_of_data_storage.o
                0x0806a630                std::_Ptrit<unsigned char, int, unsigned char *, unsigned char &, unsigned char *, unsigned char &>::operator-(int) const
 *fill*         0x0806a662        0x2 37008
 .gnu.linkonce.t.fill__H2ZQ23stdt6_Ptrit6ZUcZiZPUcZRUcZPUcZRUcZUc_3stdX01X01RCX11_v
                0x0806a664       0x5c manager_of_data_storage.o
                0x0806a664                void std::fill<std::_Ptrit<unsigned char, int, unsigned char *, unsigned char &, unsigned char *, unsigned char &>, unsigned char>(std::_Ptrit<unsigned char, int, unsigned char *, unsigned char &, unsigned char *, unsigned char &>, std::_Ptrit<unsigned char, int, unsigned char *, unsigned char &, unsigned char *, unsigned char &>, unsigned char const &)
 .gnu.linkonce.t._Ptr_cat__H2ZQ23stdt6_Ptrit6ZUcZiZPUcZRUcZPUcZRUcZQ23stdt6_Ptrit6ZUcZiZPUcZRUcZPUcZRUc_3stdRCX01RX11_Q23std27_Nonscalar_ptr_iterator_tag
                0x0806a6c0       0x20 manager_of_data_storage.o
                0x0806a6c0                std::_Nonscalar_ptr_iterator_tag std::_Ptr_cat<std::_Ptrit<unsigned char, int, unsigned char *, unsigned char &, unsigned char *, unsigned char &>, std::_Ptrit<unsigned char, int, unsigned char *, unsigned char &, unsigned char *, unsigned char &> >(std::_Ptrit<unsigned char, int, unsigned char *, unsigned char &, unsigned char *, unsigned char &> const &, std::_Ptrit<unsigned char, int, unsigned char *, unsigned char &, unsigned char *, unsigned char &> &)
 .gnu.linkonce.t.__mm__Q23stdt6_Ptrit6ZUcZiZPUcZRUcZPUcZRUc
                0x0806a6e0        0xf manager_of_data_storage.o
                0x0806a6e0                std::_Ptrit<unsigned char, int, unsigned char *, unsigned char &, unsigned char *, unsigned char &>::operator--(void)
 *fill*         0x0806a6ef        0x1 37008
 .gnu.linkonce.t._Copy_backward_opt__H2ZQ23stdt6_Ptrit6ZUcZiZPUcZRUcZPUcZRUcZQ23stdt6_Ptrit6ZUcZiZPUcZRUcZPUcZRUc_3stdX01X01X11GQ23std27_Nonscalar_ptr_iterator_tag_X11
                0x0806a6f0       0x98 manager_of_data_storage.o
                0x0806a6f0                std::_Ptrit<unsigned char, int, unsigned char *, unsigned char &, unsigned char *, unsigned char &> std::_Copy_backward_opt<std::_Ptrit<unsigned char, int, unsigned char *, unsigned char &, unsigned char *, unsigned char &>, std::_Ptrit<unsigned char, int, unsigned char *, unsigned char &, unsigned char *, unsigned char &> >(std::_Ptrit<unsigned char, int, unsigned char *, unsigned char &, unsigned char *, unsigned char &>, std::_Ptrit<unsigned char, int, unsigned char *, unsigned char &, unsigned char *, unsigned char &>, std::_Ptrit<unsigned char, int, unsigned char *, unsigned char &, unsigned char *, unsigned char &>, std::_Nonscalar_ptr_iterator_tag)
 .gnu.linkonce.t.copy_backward__H2ZQ23stdt6_Ptrit6ZUcZiZPUcZRUcZPUcZRUcZQ23stdt6_Ptrit6ZUcZiZPUcZRUcZPUcZRUc_3stdX01X01X11_X11
                0x0806a788       0x8e manager_of_data_storage.o
                0x0806a788                std::_Ptrit<unsigned char, int, unsigned char *, unsigned char &, unsigned char *, unsigned char &> std::copy_backward<std::_Ptrit<unsigned char, int, unsigned char *, unsigned char &, unsigned char *, unsigned char &>, std::_Ptrit<unsigned char, int, unsigned char *, unsigned char &, unsigned char *, unsigned char &> >(std::_Ptrit<unsigned char, int, unsigned char *, unsigned char &, unsigned char *, unsigned char &>, std::_Ptrit<unsigned char, int, unsigned char *, unsigned char &, unsigned char *, unsigned char &>, std::_Ptrit<unsigned char, int, unsigned char *, unsigned char &, unsigned char *, unsigned char &>)
 *fill*         0x0806a816        0x2 37008
 .gnu.linkonce.t.__pl__CQ23stdt6_Ptrit6ZUcZiZPUcZRUcZPUcZRUci
                0x0806a818       0x32 manager_of_data_storage.o
                0x0806a818                std::_Ptrit<unsigned char, int, unsigned char *, unsigned char &, unsigned char *, unsigned char &>::operator+(int) const
 *fill*         0x0806a84a        0x2 37008
 .gnu.linkonce.t._Insert_n__Q23stdt6vector2ZUcZQ23stdt9allocator1ZUcGQ23stdt6_Ptrit6ZUcZiZPUcZRUcZPUcZRUcUiRCUc
                0x0806a84c      0x508 manager_of_data_storage.o
                0x0806a84c                std::vector<unsigned char, std::allocator<unsigned char> >::_Insert_n(std::_Ptrit<unsigned char, int, unsigned char *, unsigned char &, unsigned char *, unsigned char &>, unsigned int, unsigned char const &)
 .gnu.linkonce.t._Copy_opt__H2ZQ23stdt6_Ptrit6ZUcZiZPUcZRUcZPUcZRUcZPUc_3stdX01X01X11GQ23std27_Nonscalar_ptr_iterator_tag_X11
                0x0806ad54       0x69 manager_of_data_storage.o
                0x0806ad54                unsigned char * std::_Copy_opt<std::_Ptrit<unsigned char, int, unsigned char *, unsigned char &, unsigned char *, unsigned char &>, unsigned char *>(std::_Ptrit<unsigned char, int, unsigned char *, unsigned char &, unsigned char *, unsigned char &>, std::_Ptrit<unsigned char, int, unsigned char *, unsigned char &, unsigned char *, unsigned char &>, unsigned char *, std::_Nonscalar_ptr_iterator_tag)
 *fill*         0x0806adbd        0x3 37008
 .gnu.linkonce.t.copy__H2ZQ23stdt6_Ptrit6ZUcZiZPUcZRUcZPUcZRUcZPUc_3stdX01X01X11_X11
                0x0806adc0       0x73 manager_of_data_storage.o
                0x0806adc0                unsigned char * std::copy<std::_Ptrit<unsigned char, int, unsigned char *, unsigned char &, unsigned char *, unsigned char &>, unsigned char *>(std::_Ptrit<unsigned char, int, unsigned char *, unsigned char &, unsigned char *, unsigned char &>, std::_Ptrit<unsigned char, int, unsigned char *, unsigned char &, unsigned char *, unsigned char &>, unsigned char *)
 *fill*         0x0806ae33        0x1 37008
 .gnu.linkonce.t.erase__Q23stdt6vector2ZUcZQ23stdt9allocator1ZUcGQ23stdt6_Ptrit6ZUcZiZPUcZRUcZPUcZRUcT1
                0x0806ae34       0xb1 manager_of_data_storage.o
                0x0806ae34                std::vector<unsigned char, std::allocator<unsigned char> >::erase(std::_Ptrit<unsigned char, int, unsigned char *, unsigned char &, unsigned char *, unsigned char &>, std::_Ptrit<unsigned char, int, unsigned char *, unsigned char &, unsigned char *, unsigned char &>)
 *fill*         0x0806aee5        0x3 37008
 .gnu.linkonce.t.resize__Q23stdt6vector2ZUcZQ23stdt9allocator1ZUcUiUc
                0x0806aee8       0xc3 manager_of_data_storage.o
                0x0806aee8                std::vector<unsigned char, std::allocator<unsigned char> >::resize(unsigned int, unsigned char)
 *fill*         0x0806afab        0x1 37008
 .gnu.linkonce.t.resize__Q23stdt6vector2ZUcZQ23stdt9allocator1ZUcUi
                0x0806afac       0x21 manager_of_data_storage.o
                0x0806afac                std::vector<unsigned char, std::allocator<unsigned char> >::resize(unsigned int)
 *fill*         0x0806afcd        0x3 37008
 .gnu.linkonce.t.insert__Q23stdt6vector2ZUcZQ23stdt9allocator1ZUcGQ23stdt6_Ptrit6ZUcZiZPUcZRUcZPUcZRUcUiRCUc
                0x0806afd0       0x3c manager_of_data_storage.o
                0x0806afd0                std::vector<unsigned char, std::allocator<unsigned char> >::insert(std::_Ptrit<unsigned char, int, unsigned char *, unsigned char &, unsigned char *, unsigned char &>, unsigned int, unsigned char const &)
 .gnu.linkonce.t._Assign_n__Q23stdt6vector2ZUcZQ23stdt9allocator1ZUcUiRCUc
                0x0806b00c       0x74 manager_of_data_storage.o
                0x0806b00c                std::vector<unsigned char, std::allocator<unsigned char> >::_Assign_n(unsigned int, unsigned char const &)
 .gnu.linkonce.t.assign__Q23stdt6vector2ZUcZQ23stdt9allocator1ZUcUiRCUc
                0x0806b080       0x23 manager_of_data_storage.o
                0x0806b080                std::vector<unsigned char, std::allocator<unsigned char> >::assign(unsigned int, unsigned char const &)
 *fill*         0x0806b0a3        0x1 37008
 .gnu.linkonce.t.__vc__Q23stdt6vector2ZUcZQ23stdt9allocator1ZUcUi
                0x0806b0a4       0x4e manager_of_data_storage.o
                0x0806b0a4                std::vector<unsigned char, std::allocator<unsigned char> >::operator[](unsigned int)
 *fill*         0x0806b0f2        0x2 37008
 .gnu.linkonce.t.clear__Q23stdt6vector2ZUcZQ23stdt9allocator1ZUc
                0x0806b0f4       0x47 manager_of_data_storage.o
                0x0806b0f4                std::vector<unsigned char, std::allocator<unsigned char> >::clear(void)
 *fill*         0x0806b13b        0x1 37008
 .gnu.linkonce.t.append__Q23stdt12basic_string3ZcZQ23stdt11char_traits1ZcZQ23stdt9allocator1ZcPCcUi
                0x0806b13c       0xcb manager_of_data_storage.o
                0x0806b13c                std::basic_string<char, std::char_traits<char>, std::allocator<char> >::append(char const *, unsigned int)
 *fill*         0x0806b207        0x1 37008
 .gnu.linkonce.t.append__Q23stdt12basic_string3ZcZQ23stdt11char_traits1ZcZQ23stdt9allocator1ZcPCc
                0x0806b208       0x37 manager_of_data_storage.o
                0x0806b208                std::basic_string<char, std::char_traits<char>, std::allocator<char> >::append(char const *)
 *fill*         0x0806b23f        0x1 37008
 .gnu.linkonce.t.__apl__Q23stdt12basic_string3ZcZQ23stdt11char_traits1ZcZQ23stdt9allocator1ZcPCc
                0x0806b240       0x25 manager_of_data_storage.o
                0x0806b240                std::basic_string<char, std::char_traits<char>, std::allocator<char> >::operator+=(char const *)
 *fill*         0x0806b265        0x3 37008
 .gnu.linkonce.t.empty__CQ23stdt6vector2ZUcZQ23stdt9allocator1ZUc
                0x0806b268       0x29 manager_of_data_storage.o
                0x0806b268                std::vector<unsigned char, std::allocator<unsigned char> >::empty(void) const
 *fill*         0x0806b291        0x3 37008
 .gnu.linkonce.t.__apl__Q23stdt6_Ptrit6ZUcZiZPUcZRUcZPUcZRUci
                0x0806b294       0x12 manager_of_data_storage.o
                0x0806b294                std::_Ptrit<unsigned char, int, unsigned char *, unsigned char &, unsigned char *, unsigned char &>::operator+=(int)
 *fill*         0x0806b2a6        0x2 37008
 .gnu.linkonce.t.__Q23stdt6_Ptrit6ZUcZiZPCUcZRCUcZPUcZRUcPCUc
                0x0806b2a8       0x12 manager_of_data_storage.o
                0x0806b2a8                std::_Ptrit<unsigned char, int, unsigned char const *, unsigned char const &, unsigned char *, unsigned char &>::_Ptrit(unsigned char const *)
 *fill*         0x0806b2ba        0x2 37008
 .gnu.linkonce.t.begin__CQ23stdt6vector2ZUcZQ23stdt9allocator1ZUc
                0x0806b2bc       0x2d manager_of_data_storage.o
                0x0806b2bc                std::vector<unsigned char, std::allocator<unsigned char> >::begin(void) const
 *fill*         0x0806b2e9        0x3 37008
 .gnu.linkonce.t.end__CQ23stdt6vector2ZUcZQ23stdt9allocator1ZUc
                0x0806b2ec       0x2d manager_of_data_storage.o
                0x0806b2ec                std::vector<unsigned char, std::allocator<unsigned char> >::end(void) const
 *fill*         0x0806b319        0x3 37008
 .gnu.linkonce.t._Ptr_cat__H2ZQ23stdt6_Ptrit6ZUcZiZPCUcZRCUcZPUcZRUcZPUc_3stdRCX01RX11_Q23std27_Nonscalar_ptr_iterator_tag
                0x0806b31c       0x20 manager_of_data_storage.o
                0x0806b31c                std::_Nonscalar_ptr_iterator_tag std::_Ptr_cat<std::_Ptrit<unsigned char, int, unsigned char const *, unsigned char const &, unsigned char *, unsigned char &>, unsigned char *>(std::_Ptrit<unsigned char, int, unsigned char const *, unsigned char const &, unsigned char *, unsigned char &> const &, unsigned char * &)
 .gnu.linkonce.t.__eq__CQ23stdt6_Ptrit6ZUcZiZPCUcZRCUcZPUcZRUcRCQ23stdt6_Ptrit6ZUcZiZPCUcZRCUcZPUcZRUc
                0x0806b33c       0x1b manager_of_data_storage.o
                0x0806b33c                std::_Ptrit<unsigned char, int, unsigned char const *, unsigned char const &, unsigned char *, unsigned char &>::operator==(std::_Ptrit<unsigned char, int, unsigned char const *, unsigned char const &, unsigned char *, unsigned char &> const &) const
 *fill*         0x0806b357        0x1 37008
 .gnu.linkonce.t.__ne__CQ23stdt6_Ptrit6ZUcZiZPCUcZRCUcZPUcZRUcRCQ23stdt6_Ptrit6ZUcZiZPCUcZRCUcZPUcZRUc
                0x0806b358       0x28 manager_of_data_storage.o
                0x0806b358                std::_Ptrit<unsigned char, int, unsigned char const *, unsigned char const &, unsigned char *, unsigned char &>::operator!=(std::_Ptrit<unsigned char, int, unsigned char const *, unsigned char const &, unsigned char *, unsigned char &> const &) const
 .gnu.linkonce.t.__pp__Q23stdt6_Ptrit6ZUcZiZPCUcZRCUcZPUcZRUc
                0x0806b380        0xf manager_of_data_storage.o
                0x0806b380                std::_Ptrit<unsigned char, int, unsigned char const *, unsigned char const &, unsigned char *, unsigned char &>::operator++(void)
 *fill*         0x0806b38f        0x1 37008
 .gnu.linkonce.t.__ml__CQ23stdt6_Ptrit6ZUcZiZPCUcZRCUcZPUcZRUc
                0x0806b390        0xf manager_of_data_storage.o
                0x0806b390                std::_Ptrit<unsigned char, int, unsigned char const *, unsigned char const &, unsigned char *, unsigned char &>::operator*(void) const
 *fill*         0x0806b39f        0x1 37008
 .gnu.linkonce.t._Copy_opt__H2ZQ23stdt6_Ptrit6ZUcZiZPCUcZRCUcZPUcZRUcZPUc_3stdX01X01X11GQ23std27_Nonscalar_ptr_iterator_tag_X11
                0x0806b3a0       0x70 manager_of_data_storage.o
                0x0806b3a0                unsigned char * std::_Copy_opt<std::_Ptrit<unsigned char, int, unsigned char const *, unsigned char const &, unsigned char *, unsigned char &>, unsigned char *>(std::_Ptrit<unsigned char, int, unsigned char const *, unsigned char const &, unsigned char *, unsigned char &>, std::_Ptrit<unsigned char, int, unsigned char const *, unsigned char const &, unsigned char *, unsigned char &>, unsigned char *, std::_Nonscalar_ptr_iterator_tag)
 .gnu.linkonce.t.copy__H2ZQ23stdt6_Ptrit6ZUcZiZPCUcZRCUcZPUcZRUcZPUc_3stdX01X01X11_X11
                0x0806b410       0x5e manager_of_data_storage.o
                0x0806b410                unsigned char * std::copy<std::_Ptrit<unsigned char, int, unsigned char const *, unsigned char const &, unsigned char *, unsigned char &>, unsigned char *>(std::_Ptrit<unsigned char, int, unsigned char const *, unsigned char const &, unsigned char *, unsigned char &>, std::_Ptrit<unsigned char, int, unsigned char const *, unsigned char const &, unsigned char *, unsigned char &>, unsigned char *)
 *fill*         0x0806b46e        0x2 37008
 .gnu.linkonce.t.__pl__CQ23stdt6_Ptrit6ZUcZiZPCUcZRCUcZPUcZRUci
                0x0806b470       0x32 manager_of_data_storage.o
                0x0806b470                std::_Ptrit<unsigned char, int, unsigned char const *, unsigned char const &, unsigned char *, unsigned char &>::operator+(int) const
 *fill*         0x0806b4a2        0x2 37008
 .gnu.linkonce.t._Uninit_copy__H3ZQ23stdt6_Ptrit6ZUcZiZPCUcZRCUcZPUcZRUcZPUcZQ23stdt9allocator1ZUc_3stdX01X01X11RX21GQ23std27_Nonscalar_ptr_iterator_tag_X11
                0x0806b4a4       0xfc manager_of_data_storage.o
                0x0806b4a4                unsigned char * std::_Uninit_copy<std::_Ptrit<unsigned char, int, unsigned char const *, unsigned char const &, unsigned char *, unsigned char &>, unsigned char *, std::allocator<unsigned char> >(std::_Ptrit<unsigned char, int, unsigned char const *, unsigned char const &, unsigned char *, unsigned char &>, std::_Ptrit<unsigned char, int, unsigned char const *, unsigned char const &, unsigned char *, unsigned char &>, unsigned char *, std::allocator<unsigned char> &, std::_Nonscalar_ptr_iterator_tag)
 .gnu.linkonce.t._Uninitialized_copy__H3ZQ23stdt6_Ptrit6ZUcZiZPCUcZRCUcZPUcZRUcZPUcZQ23stdt9allocator1ZUc_3stdX01X01X11RX21_X11
                0x0806b5a0       0x64 manager_of_data_storage.o
                0x0806b5a0                unsigned char * std::_Uninitialized_copy<std::_Ptrit<unsigned char, int, unsigned char const *, unsigned char const &, unsigned char *, unsigned char &>, unsigned char *, std::allocator<unsigned char> >(std::_Ptrit<unsigned char, int, unsigned char const *, unsigned char const &, unsigned char *, unsigned char &>, std::_Ptrit<unsigned char, int, unsigned char const *, unsigned char const &, unsigned char *, unsigned char &>, unsigned char *, std::allocator<unsigned char> &)
 .gnu.linkonce.t._Ucopy__H1ZQ23stdt6_Ptrit6ZUcZiZPCUcZRCUcZPUcZRUc_Q23stdt6vector2ZUcZQ23stdt9allocator1ZUcX00X00PUc_PUc
                0x0806b604       0x35 manager_of_data_storage.o
                0x0806b604                unsigned char * std::vector<unsigned char, std::allocator<unsigned char> >::_Ucopy<std::_Ptrit<unsigned char, int, unsigned char const *, unsigned char const &, unsigned char *, unsigned char &> >(std::_Ptrit<unsigned char, int, unsigned char const *, unsigned char const &, unsigned char *, unsigned char &>, std::_Ptrit<unsigned char, int, unsigned char const *, unsigned char const &, unsigned char *, unsigned char &>, unsigned char *)
 *fill*         0x0806b639        0x3 37008
 .gnu.linkonce.t.__as__Q23stdt6vector2ZUcZQ23stdt9allocator1ZUcRCQ23stdt6vector2ZUcZQ23stdt9allocator1ZUc
                0x0806b63c      0x254 manager_of_data_storage.o
                0x0806b63c                std::vector<unsigned char, std::allocator<unsigned char> >::operator=(std::vector<unsigned char, std::allocator<unsigned char> > const &)
 .gnu.linkonce.t.__ml__CQ33stdt5_Tree1ZQ23stdt12_Tmap_traits5ZiZP25abstract_job_data_managerZQ23stdt4less1ZiZQ23stdt9allocator1ZQ23stdt4pair2ZCiZP25abstract_job_data_managerb0_8iterator
                0x0806b890       0x24 manager_of_data_storage.o
                0x0806b890                std::_Tree<std::_Tmap_traits<int, abstract_job_data_manager *, std::less<int>, std::allocator<std::pair<int const, abstract_job_data_manager *> >, false> >::iterator::operator*(void) const
 .gnu.linkonce.t.__rf__CQ33stdt5_Tree1ZQ23stdt12_Tmap_traits5ZiZP25abstract_job_data_managerZQ23stdt4less1ZiZQ23stdt9allocator1ZQ23stdt4pair2ZCiZP25abstract_job_data_managerb0_8iterator
                0x0806b8b4       0x21 manager_of_data_storage.o
                0x0806b8b4                std::_Tree<std::_Tmap_traits<int, abstract_job_data_manager *, std::less<int>, std::allocator<std::pair<int const, abstract_job_data_manager *> >, false> >::iterator::operator->(void) const
 *fill*         0x0806b8d5        0x3 37008
 .gnu.linkonce.t.__Q23stdt6vector2ZUcZQ23stdt9allocator1ZUcRCQ23stdt6vector2ZUcZQ23stdt9allocator1ZUc
                0x0806b8d8       0xac manager_of_data_storage.o
                0x0806b8d8                std::vector<unsigned char, std::allocator<unsigned char> >::vector(std::vector<unsigned char, std::allocator<unsigned char> > const &)
 .gnu.linkonce.t._._Q23stdt8numpunct1Zc
                0x0806b984       0x6d manager_of_data_storage.o
                0x0806b984                std::numpunct<char>::~numpunct(void)
 *fill*         0x0806b9f1        0x3 37008
 .gnu.linkonce.t.do_decimal_point__CQ23stdt8numpunct1Zc
                0x0806b9f4       0x10 manager_of_data_storage.o
                0x0806b9f4                std::numpunct<char>::do_decimal_point(void) const
 .gnu.linkonce.t.do_falsename__CQ23stdt8numpunct1Zc
                0x0806ba04       0x2d manager_of_data_storage.o
                0x0806ba04                std::numpunct<char>::do_falsename(void) const
 *fill*         0x0806ba31        0x3 37008
 .gnu.linkonce.t.do_truename__CQ23stdt8numpunct1Zc
                0x0806ba34       0x2d manager_of_data_storage.o
                0x0806ba34                std::numpunct<char>::do_truename(void) const
 *fill*         0x0806ba61        0x3 37008
 .gnu.linkonce.t._._Q23stdt7num_put2ZcZQ23stdt19ostreambuf_iterator2ZcZQ23stdt11char_traits1Zc
                0x0806ba64       0x26 manager_of_data_storage.o
                0x0806ba64                std::num_put<char, std::ostreambuf_iterator<char, std::char_traits<char> > >::~num_put(void)
 *fill*         0x0806ba8a        0x2 37008
 .gnu.linkonce.t.falsename__CQ23stdt8numpunct1Zc
                0x0806ba8c       0x3c manager_of_data_storage.o
                0x0806ba8c                std::numpunct<char>::falsename(void) const
 .gnu.linkonce.t.truename__CQ23stdt8numpunct1Zc
                0x0806bac8       0x3c manager_of_data_storage.o
                0x0806bac8                std::numpunct<char>::truename(void) const
 .gnu.linkonce.t._Put__Q23stdt7num_put2ZcZQ23stdt19ostreambuf_iterator2ZcZQ23stdt11char_traits1ZcGQ23stdt19ostreambuf_iterator2ZcZQ23stdt11char_traits1ZcPCcUi
                0x0806bb04       0x70 manager_of_data_storage.o
                0x0806bb04                std::num_put<char, std::ostreambuf_iterator<char, std::char_traits<char> > >::_Put(std::ostreambuf_iterator<char, std::char_traits<char> >, char const *, unsigned int)
 .gnu.linkonce.t.do_put__CQ23stdt7num_put2ZcZQ23stdt19ostreambuf_iterator2ZcZQ23stdt11char_traits1ZcGQ23stdt19ostreambuf_iterator2ZcZQ23stdt11char_traits1ZcRQ23std8ios_basecb
                0x0806bb74      0x308 manager_of_data_storage.o
                0x0806bb74                std::num_put<char, std::ostreambuf_iterator<char, std::char_traits<char> > >::do_put(std::ostreambuf_iterator<char, std::char_traits<char> >, std::ios_base &, char, bool) const
 .gnu.linkonce.t.do_put__CQ23stdt7num_put2ZcZQ23stdt19ostreambuf_iterator2ZcZQ23stdt11char_traits1ZcGQ23stdt19ostreambuf_iterator2ZcZQ23stdt11char_traits1ZcRQ23std8ios_basecx
                0x0806be7c       0x95 manager_of_data_storage.o
                0x0806be7c                std::num_put<char, std::ostreambuf_iterator<char, std::char_traits<char> > >::do_put(std::ostreambuf_iterator<char, std::char_traits<char> >, std::ios_base &, char, long long) const
 *fill*         0x0806bf11        0x3 37008
 .gnu.linkonce.t.do_put__CQ23stdt7num_put2ZcZQ23stdt19ostreambuf_iterator2ZcZQ23stdt11char_traits1ZcGQ23stdt19ostreambuf_iterator2ZcZQ23stdt11char_traits1ZcRQ23std8ios_basecUx
                0x0806bf14       0x95 manager_of_data_storage.o
                0x0806bf14                std::num_put<char, std::ostreambuf_iterator<char, std::char_traits<char> > >::do_put(std::ostreambuf_iterator<char, std::char_traits<char> >, std::ios_base &, char, unsigned long long) const
 *fill*         0x0806bfa9        0x3 37008
 .gnu.linkonce.t._Ffmt__Q23stdt7num_put2ZcZQ23stdt19ostreambuf_iterator2ZcZQ23stdt11char_traits1ZcPccQ33stdt5_Iosb1Zi9_Fmtflags
                0x0806bfac       0xec manager_of_data_storage.o
                0x0806bfac                std::num_put<char, std::ostreambuf_iterator<char, std::char_traits<char> > >::_Ffmt(char *, char, std::_Iosb<int>::_Fmtflags)
 .gnu.linkonce.t.decimal_point__CQ23stdt8numpunct1Zc
                0x0806c098       0x35 manager_of_data_storage.o
                0x0806c098                std::numpunct<char>::decimal_point(void) const
 *fill*         0x0806c0cd        0x3 37008
 .gnu.linkonce.t._Fput__Q23stdt7num_put2ZcZQ23stdt19ostreambuf_iterator2ZcZQ23stdt11char_traits1ZcGQ23stdt19ostreambuf_iterator2ZcZQ23stdt11char_traits1ZcRQ23std8ios_basecPCcUiUiUiUi
                0x0806c0d0      0x5e4 manager_of_data_storage.o
                0x0806c0d0                std::num_put<char, std::ostreambuf_iterator<char, std::char_traits<char> > >::_Fput(std::ostreambuf_iterator<char, std::char_traits<char> >, std::ios_base &, char, char const *, unsigned int, unsigned int, unsigned int, unsigned int)
 .gnu.linkonce.t.do_put__CQ23stdt7num_put2ZcZQ23stdt19ostreambuf_iterator2ZcZQ23stdt11char_traits1ZcGQ23stdt19ostreambuf_iterator2ZcZQ23stdt11char_traits1ZcRQ23std8ios_basecd
                0x0806c6b4      0x259 manager_of_data_storage.o
                0x0806c6b4                std::num_put<char, std::ostreambuf_iterator<char, std::char_traits<char> > >::do_put(std::ostreambuf_iterator<char, std::char_traits<char> >, std::ios_base &, char, double) const
 *fill*         0x0806c90d        0x3 37008
 .gnu.linkonce.t.do_put__CQ23stdt7num_put2ZcZQ23stdt19ostreambuf_iterator2ZcZQ23stdt11char_traits1ZcGQ23stdt19ostreambuf_iterator2ZcZQ23stdt11char_traits1ZcRQ23std8ios_basecr
                0x0806c910      0x259 manager_of_data_storage.o
                0x0806c910                std::num_put<char, std::ostreambuf_iterator<char, std::char_traits<char> > >::do_put(std::ostreambuf_iterator<char, std::char_traits<char> >, std::ios_base &, char, long double) const
 *fill*         0x0806cb69        0x3 37008
 .gnu.linkonce.t.do_put__CQ23stdt7num_put2ZcZQ23stdt19ostreambuf_iterator2ZcZQ23stdt11char_traits1ZcGQ23stdt19ostreambuf_iterator2ZcZQ23stdt11char_traits1ZcRQ23std8ios_basecPCv
                0x0806cb6c      0x198 manager_of_data_storage.o
                0x0806cb6c                std::num_put<char, std::ostreambuf_iterator<char, std::char_traits<char> > >::do_put(std::ostreambuf_iterator<char, std::char_traits<char> >, std::ios_base &, char, void const *) const
 .gnu.linkonce.t.setp__Q23stdt15basic_streambuf2ZcZQ23stdt11char_traits1ZcPcN21
                0x0806cd04       0x20 manager_of_data_storage.o
                0x0806cd04                std::basic_streambuf<char, std::char_traits<char> >::setp(char *, char *, char *)
 .gnu.linkonce.t.overflow__Q23stdt15basic_stringbuf3ZcZQ23stdt11char_traits1ZcZQ23stdt9allocator1Zci
                0x0806cd24      0x368 manager_of_data_storage.o
                0x0806cd24                std::basic_stringbuf<char, std::char_traits<char>, std::allocator<char> >::overflow(int)
 .gnu.linkonce.t.gbump__Q23stdt15basic_streambuf2ZcZQ23stdt11char_traits1Zci
                0x0806d08c       0x1f manager_of_data_storage.o
                0x0806d08c                std::basic_streambuf<char, std::char_traits<char> >::gbump(int)
 *fill*         0x0806d0ab        0x1 37008
 .gnu.linkonce.t.pbackfail__Q23stdt15basic_stringbuf3ZcZQ23stdt11char_traits1ZcZQ23stdt9allocator1Zci
                0x0806d0ac      0x138 manager_of_data_storage.o
                0x0806d0ac                std::basic_stringbuf<char, std::char_traits<char>, std::allocator<char> >::pbackfail(int)
 .gnu.linkonce.t.showmanyc__Q23stdt15basic_streambuf2ZcZQ23stdt11char_traits1Zc
                0x0806d1e4        0xc manager_of_data_storage.o
                0x0806d1e4                std::basic_streambuf<char, std::char_traits<char> >::showmanyc(void)
 .gnu.linkonce.t.underflow__Q23stdt15basic_stringbuf3ZcZQ23stdt11char_traits1ZcZQ23stdt9allocator1Zc
                0x0806d1f0      0x153 manager_of_data_storage.o
                0x0806d1f0                std::basic_stringbuf<char, std::char_traits<char>, std::allocator<char> >::underflow(void)
 *fill*         0x0806d343        0x1 37008
 .gnu.linkonce.t._Gninc__Q23stdt15basic_streambuf2ZcZQ23stdt11char_traits1Zc
                0x0806d344       0x13 manager_of_data_storage.o
                0x0806d344                std::basic_streambuf<char, std::char_traits<char> >::_Gninc(void)
 *fill*         0x0806d357        0x1 37008
 .gnu.linkonce.t.underflow__Q23stdt15basic_streambuf2ZcZQ23stdt11char_traits1Zc
                0x0806d358       0x1a manager_of_data_storage.o
                0x0806d358                std::basic_streambuf<char, std::char_traits<char> >::underflow(void)
 *fill*         0x0806d372        0x2 37008
 .gnu.linkonce.t.uflow__Q23stdt15basic_streambuf2ZcZQ23stdt11char_traits1Zc
                0x0806d374       0x7c manager_of_data_storage.o
                0x0806d374                std::basic_streambuf<char, std::char_traits<char> >::uflow(void)
 .gnu.linkonce.t.xsgetn__Q23stdt15basic_streambuf2ZcZQ23stdt11char_traits1ZcPci
                0x0806d3f0      0x133 manager_of_data_storage.o
                0x0806d3f0                std::basic_streambuf<char, std::char_traits<char> >::xsgetn(char *, int)
 *fill*         0x0806d523        0x1 37008
 .gnu.linkonce.t.__Q23stdt4fpos1Z9_Mbstatetl
                0x0806d524       0x3d manager_of_data_storage.o
                0x0806d524                std::fpos<_Mbstatet>::fpos(long)
 *fill*         0x0806d561        0x3 37008
 .gnu.linkonce.t.seekoff__Q23stdt15basic_stringbuf3ZcZQ23stdt11char_traits1ZcZQ23stdt9allocator1ZclQ33stdt5_Iosb1Zi8_SeekdirQ33stdt5_Iosb1Zi9_Openmode
                0x0806d564      0x2c0 manager_of_data_storage.o
                0x0806d564                std::basic_stringbuf<char, std::char_traits<char>, std::allocator<char> >::seekoff(long, std::_Iosb<int>::_Seekdir, std::_Iosb<int>::_Openmode)
 .gnu.linkonce.t.__opl__CQ23stdt4fpos1Z9_Mbstatet
                0x0806d824       0x18 manager_of_data_storage.o
                0x0806d824                std::fpos<_Mbstatet>::operator long(void) const
 .gnu.linkonce.t.seekpos__Q23stdt15basic_stringbuf3ZcZQ23stdt11char_traits1ZcZQ23stdt9allocator1ZcGQ23stdt4fpos1Z9_MbstatetQ33stdt5_Iosb1Zi9_Openmode
                0x0806d83c      0x218 manager_of_data_storage.o
                0x0806d83c                std::basic_stringbuf<char, std::char_traits<char>, std::allocator<char> >::seekpos(std::fpos<_Mbstatet>, std::_Iosb<int>::_Openmode)
 .gnu.linkonce.t.setbuf__Q23stdt15basic_streambuf2ZcZQ23stdt11char_traits1ZcPci
                0x0806da54        0xa manager_of_data_storage.o
                0x0806da54                std::basic_streambuf<char, std::char_traits<char> >::setbuf(char *, int)
 *fill*         0x0806da5e        0x2 37008
 .gnu.linkonce.t.imbue__Q23stdt15basic_streambuf2ZcZQ23stdt11char_traits1ZcRCQ23std6locale
                0x0806da60        0x8 manager_of_data_storage.o
                0x0806da60                std::basic_streambuf<char, std::char_traits<char> >::imbue(std::locale const &)
 .gnu.linkonce.t.pbackfail__Q23stdt15basic_streambuf2ZcZQ23stdt11char_traits1Zci
                0x0806da68       0x1a manager_of_data_storage.o
                0x0806da68                std::basic_streambuf<char, std::char_traits<char> >::pbackfail(int)
 *fill*         0x0806da82        0x2 37008
 .gnu.linkonce.t.seekoff__Q23stdt15basic_streambuf2ZcZQ23stdt11char_traits1ZclQ33stdt5_Iosb1Zi8_SeekdirQ33stdt5_Iosb1Zi9_Openmode
                0x0806da84       0x2f manager_of_data_storage.o
                0x0806da84                std::basic_streambuf<char, std::char_traits<char> >::seekoff(long, std::_Iosb<int>::_Seekdir, std::_Iosb<int>::_Openmode)
 *fill*         0x0806dab3        0x1 37008
 .gnu.linkonce.t.seekpos__Q23stdt15basic_streambuf2ZcZQ23stdt11char_traits1ZcGQ23stdt4fpos1Z9_MbstatetQ33stdt5_Iosb1Zi9_Openmode
                0x0806dab4       0x2f manager_of_data_storage.o
                0x0806dab4                std::basic_streambuf<char, std::char_traits<char> >::seekpos(std::fpos<_Mbstatet>, std::_Iosb<int>::_Openmode)
 *fill*         0x0806dae3        0x1 37008
 .gnu.linkonce.t.__tfQ23stdt9basic_ios2ZcZQ23stdt11char_traits1Zc
                0x0806dae4       0x3a manager_of_data_storage.o
                0x0806dae4                std::basic_ios<char, std::char_traits<char> > type_info function
 *fill*         0x0806db1e        0x2 37008
 .gnu.linkonce.t.__tfQ23stdt13basic_ostream2ZcZQ23stdt11char_traits1Zc
                0x0806db20       0x3a manager_of_data_storage.o
                0x0806db20                std::basic_ostream<char, std::char_traits<char> > type_info function
 *fill*         0x0806db5a        0x2 37008
 .gnu.linkonce.t.__tf25objects_storage_exception
                0x0806db5c       0x2e manager_of_data_storage.o
                0x0806db5c                objects_storage_exception type_info function
 *fill*         0x0806db8a        0x2 37008
 .gnu.linkonce.t.__tfQ23stdt15basic_streambuf2ZcZQ23stdt11char_traits1Zc
                0x0806db8c       0x3a manager_of_data_storage.o
                0x0806db8c                std::basic_streambuf<char, std::char_traits<char> > type_info function
 *fill*         0x0806dbc6        0x2 37008
 .gnu.linkonce.t.__tfQ23stdt15basic_stringbuf3ZcZQ23stdt11char_traits1ZcZQ23stdt9allocator1Zc
                0x0806dbc8       0x3a manager_of_data_storage.o
                0x0806dbc8                std::basic_stringbuf<char, std::char_traits<char>, std::allocator<char> > type_info function
 *fill*         0x0806dc02        0x2 37008
 .gnu.linkonce.t.__tfQ23stdt19basic_ostringstream3ZcZQ23stdt11char_traits1ZcZQ23stdt9allocator1Zc
                0x0806dc04       0x3a manager_of_data_storage.o
                0x0806dc04                std::basic_ostringstream<char, std::char_traits<char>, std::allocator<char> > type_info function
 *fill*         0x0806dc3e        0x2 37008
 .gnu.linkonce.t.__tfQ23stdt7num_put2ZcZQ23stdt19ostreambuf_iterator2ZcZQ23stdt11char_traits1Zc
                0x0806dc40       0x3a manager_of_data_storage.o
                0x0806dc40                std::num_put<char, std::ostreambuf_iterator<char, std::char_traits<char> > > type_info function
 *fill*         0x0806dc7a        0x2 37008
 .gnu.linkonce.t.__tfQ23stdt8numpunct1Zc
                0x0806dc7c       0x3a manager_of_data_storage.o
                0x0806dc7c                std::numpunct<char> type_info function
 *fill*         0x0806dcb6        0x2 37008
 .gnu.linkonce.t.__tfQ23std6_Mutex
                0x0806dcb8       0x2e manager_of_data_storage.o
                0x0806dcb8                std::_Mutex type_info function
 *fill*         0x0806dce6        0x2 37008
 .gnu.linkonce.t.eq__Q23stdt11char_traits1ZcRCcT1
                0x0806dce8       0x1e manager_of_data_storage.o
                0x0806dce8                std::char_traits<char>::eq(char const &, char const &)
 *fill*         0x0806dd06        0x2 37008
 .gnu.linkonce.t.to_char_type__Q23stdt11char_traits1ZcRCi
                0x0806dd08       0x16 manager_of_data_storage.o
                0x0806dd08                std::char_traits<char>::to_char_type(int const &)
 *fill*         0x0806dd1e        0x2 37008
 .gnu.linkonce.t.to_int_type__Q23stdt11char_traits1ZcRCc
                0x0806dd20       0x16 manager_of_data_storage.o
                0x0806dd20                std::char_traits<char>::to_int_type(char const &)
 *fill*         0x0806dd36        0x2 37008
 .gnu.linkonce.t.eq_int_type__Q23stdt11char_traits1ZcRCiT1
                0x0806dd38       0x1e manager_of_data_storage.o
                0x0806dd38                std::char_traits<char>::eq_int_type(int const &, int const &)
 *fill*         0x0806dd56        0x2 37008
 .gnu.linkonce.t.eof__Q23stdt11char_traits1Zc
                0x0806dd58       0x12 manager_of_data_storage.o
                0x0806dd58                std::char_traits<char>::eof(void)
 *fill*         0x0806dd6a        0x2 37008
 .gnu.linkonce.t.not_eof__Q23stdt11char_traits1ZcRCi
                0x0806dd6c       0x39 manager_of_data_storage.o
                0x0806dd6c                std::char_traits<char>::not_eof(int const &)
 *fill*         0x0806dda5        0x3 37008
 .gnu.linkonce.t.__nw__FUiPv
                0x0806dda8       0x79 manager_of_data_storage.o
                0x0806dda8                operator new(unsigned int, void *)
 *fill*         0x0806de21        0x3 37008
 .gnu.linkonce.t.__Q23std12length_errorRCQ23std12length_error
                0x0806de24       0x5f manager_of_data_storage.o
                0x0806de24                std::length_error::length_error(std::length_error const &)
 *fill*         0x0806de83        0x1 37008
 .gnu.linkonce.t.__Q23std12length_errorRCQ23stdt12basic_string3ZcZQ23stdt11char_traits1ZcZQ23stdt9allocator1Zc
                0x0806de84       0x5d manager_of_data_storage.o
                0x0806de84                std::length_error::length_error(std::basic_string<char, std::char_traits<char>, std::allocator<char> > const &)
 *fill*         0x0806dee1        0x3 37008
 .gnu.linkonce.t._._Q23std12length_error
                0x0806dee4       0x25 manager_of_data_storage.o
                0x0806dee4                std::length_error::~length_error(void)
 *fill*         0x0806df09        0x3 37008
 .gnu.linkonce.t.__Q23std12out_of_rangeRCQ23std12out_of_range
                0x0806df0c       0x5f manager_of_data_storage.o
                0x0806df0c                std::out_of_range::out_of_range(std::out_of_range const &)
 *fill*         0x0806df6b        0x1 37008
 .gnu.linkonce.t.__Q23std12out_of_rangeRCQ23stdt12basic_string3ZcZQ23stdt11char_traits1ZcZQ23stdt9allocator1Zc
                0x0806df6c       0x5d manager_of_data_storage.o
                0x0806df6c                std::out_of_range::out_of_range(std::basic_string<char, std::char_traits<char>, std::allocator<char> > const &)
 *fill*         0x0806dfc9        0x3 37008
 .gnu.linkonce.t._._Q23std12out_of_range
                0x0806dfcc       0x25 manager_of_data_storage.o
                0x0806dfcc                std::out_of_range::~out_of_range(void)
 *fill*         0x0806dff1        0x3 37008
 .gnu.linkonce.t.__Q23std8bad_castRCQ23std8bad_cast
                0x0806dff4       0x5f manager_of_data_storage.o
                0x0806dff4                std::bad_cast::bad_cast(std::bad_cast const &)
 *fill*         0x0806e053        0x1 37008
 .gnu.linkonce.t.__Q23std8bad_cast
                0x0806e054       0xa5 manager_of_data_storage.o
                0x0806e054                std::bad_cast::bad_cast(void)
 *fill*         0x0806e0f9        0x3 37008
 .gnu.linkonce.t._._Q23std8bad_cast
                0x0806e0fc       0x89 manager_of_data_storage.o
                0x0806e0fc                std::bad_cast::~bad_cast(void)
 *fill*         0x0806e185        0x3 37008
 .gnu.linkonce.t.localeconv
                0x0806e188        0xe manager_of_data_storage.o
 *fill*         0x0806e196        0x2 37008
 .gnu.linkonce.t._Getlconv__CQ23std8_Locinfo
                0x0806e198       0x1a manager_of_data_storage.o
                0x0806e198                std::_Locinfo::_Getlconv(void) const
 *fill*         0x0806e1b2        0x2 37008
 .gnu.linkonce.t._Getfalse__CQ23std8_Locinfo
                0x0806e1b4        0xf manager_of_data_storage.o
                0x0806e1b4                std::_Locinfo::_Getfalse(void) const
 *fill*         0x0806e1c3        0x1 37008
 .gnu.linkonce.t._Gettrue__CQ23std8_Locinfo
                0x0806e1c4        0xf manager_of_data_storage.o
                0x0806e1c4                std::_Locinfo::_Gettrue(void) const
 *fill*         0x0806e1d3        0x1 37008
 .gnu.linkonce.t.__Q33std6locale2idUi
                0x0806e1d4       0x11 manager_of_data_storage.o
                0x0806e1d4                std::locale::id::id(unsigned int)
 *fill*         0x0806e1e5        0x3 37008
 .gnu.linkonce.t.__opUi__Q33std6locale2id
                0x0806e1e8       0x83 manager_of_data_storage.o
                0x0806e1e8                std::locale::id::operator unsigned int(void)
 *fill*         0x0806e26b        0x1 37008
 .gnu.linkonce.t._._Q33std6locale5facet
                0x0806e26c       0x31 manager_of_data_storage.o
                0x0806e26c                std::locale::facet::~facet(void)
 *fill*         0x0806e29d        0x3 37008
 .gnu.linkonce.t.__Q33std6locale5facetUi
                0x0806e2a0       0x18 manager_of_data_storage.o
                0x0806e2a0                std::locale::facet::facet(unsigned int)
 .gnu.linkonce.t.__Q23std6locale
                0x0806e2b8       0x91 manager_of_data_storage.o
                0x0806e2b8                std::locale::locale(void)
 *fill*         0x0806e349        0x3 37008
 .gnu.linkonce.t._._Q23std6locale
                0x0806e34c       0xd0 manager_of_data_storage.o
                0x0806e34c                std::locale::~locale(void)
 .gnu.linkonce.t.__ad__3stdQ33stdt5_Iosb1Zi9_FmtflagsT1
                0x0806e41c       0x17 manager_of_data_storage.o
                0x0806e41c                std::operator&(std::_Iosb<int>::_Fmtflags, std::_Iosb<int>::_Fmtflags)
 *fill*         0x0806e433        0x1 37008
 .gnu.linkonce.t.__aor__3stdRQ33stdt5_Iosb1Zi8_IostateQ33stdt5_Iosb1Zi8_Iostate
                0x0806e434       0x11 manager_of_data_storage.o
                0x0806e434                std::operator|=(std::_Iosb<int>::_Iostate &, std::_Iosb<int>::_Iostate)
 *fill*         0x0806e445        0x3 37008
 .gnu.linkonce.t.__ad__3stdQ33stdt5_Iosb1Zi9_OpenmodeT1
                0x0806e448       0x17 manager_of_data_storage.o
                0x0806e448                std::operator&(std::_Iosb<int>::_Openmode, std::_Iosb<int>::_Openmode)
 *fill*         0x0806e45f        0x1 37008
 .gnu.linkonce.t.__or__3stdQ33stdt5_Iosb1Zi9_OpenmodeT1
                0x0806e460       0x17 manager_of_data_storage.o
                0x0806e460                std::operator|(std::_Iosb<int>::_Openmode, std::_Iosb<int>::_Openmode)
 *fill*         0x0806e477        0x1 37008
 .gnu.linkonce.t._._25objects_storage_exception
                0x0806e478       0x3b manager_of_data_storage.o
                0x0806e478                objects_storage_exception::~objects_storage_exception(void)
 *fill*         0x0806e4b3        0x1 37008
 .gnu.linkonce.t.__25objects_storage_exceptionRC25objects_storage_exception
                0x0806e4b4       0x5b manager_of_data_storage.o
                0x0806e4b4                objects_storage_exception::objects_storage_exception(objects_storage_exception const &)
 *fill*         0x0806e50f        0x1 37008
 .gnu.linkonce.t.__25objects_storage_exceptionGQ23stdt12basic_string3ZcZQ23stdt11char_traits1ZcZQ23stdt9allocator1Zc
                0x0806e510       0x8a manager_of_data_storage.o
                0x0806e510                objects_storage_exception::objects_storage_exception(std::basic_string<char, std::char_traits<char>, std::allocator<char> >)
 *fill*         0x0806e59a        0x2 37008
 .gnu.linkonce.t.get_description__25objects_storage_exception
                0x0806e59c       0x2a manager_of_data_storage.o
                0x0806e59c                objects_storage_exception::get_description(void)
 *fill*         0x0806e5c6        0x2 37008
 .gnu.linkonce.t.end__28jobs_data_managers_container
                0x0806e5c8       0x28 manager_of_data_storage.o
                0x0806e5c8                jobs_data_managers_container::end(void)
 .gnu.linkonce.t.insert__28jobs_data_managers_containerRCQ23stdt4pair2ZCiZP25abstract_job_data_manager
                0x0806e5f0       0x2a manager_of_data_storage.o
                0x0806e5f0                jobs_data_managers_container::insert(std::pair<int const, abstract_job_data_manager *> const &)
 *fill*         0x0806e61a        0x2 37008
 .gnu.linkonce.t.find__28jobs_data_managers_containerRCi
                0x0806e61c       0x2c manager_of_data_storage.o
                0x0806e61c                jobs_data_managers_container::find(int const &)
 .gnu.linkonce.t.__23manager_of_data_storage
                0x0806e648       0x51 manager_of_data_storage.o
                0x0806e648                manager_of_data_storage::manager_of_data_storage(void)
 *fill*         0x0806e699        0x3 37008
 .gnu.linkonce.t.__ls__H1ZQ23stdt11char_traits1Zc_3stdRQ23stdt13basic_ostream2ZcZX01PCc_RQ23stdt13basic_ostream2ZcZX01
                0x0806e69c      0x2ef manager_of_data_storage.o
                0x0806e69c                std::basic_ostream<char, std::char_traits<char> > & std::operator<<<std::char_traits<char> >(std::basic_ostream<char, std::char_traits<char> > &, char const *)
 *fill*         0x0806e98b        0x1 37008
 .gnu.linkonce.t.advance__H2ZQ23stdt6_Ptrit6ZUcZiZPUcZRUcZPUcZRUcZQ217descriptor_header4._41__3stdRX01X11_v
                0x0806e98c       0x3a manager_of_data_storage.o
                0x0806e98c                void std advance<std::_Ptrit<unsigned char, int, unsigned char *, unsigned char &, unsigned char *, unsigned char &>, descriptor_header::._41>(std::_Ptrit<unsigned char, int, unsigned char *, unsigned char &, unsigned char *, unsigned char &> &, descriptor_header::._41)
 *fill*         0x0806e9c6        0x2 37008
 .gnu.linkonce.t.__tfQ23std12length_error
                0x0806e9c8       0x3a manager_of_data_storage.o
                0x0806e9c8                std::length_error type_info function
 *fill*         0x0806ea02        0x2 37008
 .gnu.linkonce.t.__tfQ23std12out_of_range
                0x0806ea04       0x3a manager_of_data_storage.o
                0x0806ea04                std::out_of_range type_info function
 *fill*         0x0806ea3e        0x2 37008
 .gnu.linkonce.t.__tfQ23std8bad_cast
                0x0806ea40       0x3a manager_of_data_storage.o
                0x0806ea40                std::bad_cast type_info function
 *fill*         0x0806ea7a        0x2 37008
 .gnu.linkonce.t.__tfQ33std6locale5facet
                0x0806ea7c       0x2e manager_of_data_storage.o
                0x0806ea7c                std::locale::facet type_info function
 *fill*         0x0806eaaa        0x2 37008
 .gnu.linkonce.t.__Q23std9exceptionRCQ23std9exception
                0x0806eaac       0x15 manager_of_data_storage.o
                0x0806eaac                std::exception::exception(std::exception const &)
 *fill*         0x0806eac1        0x3 37008
 .gnu.linkonce.t.__Q23std11logic_errorRCQ23std11logic_error
                0x0806eac4       0x93 manager_of_data_storage.o
                0x0806eac4                std::logic_error::logic_error(std::logic_error const &)
 *fill*         0x0806eb57        0x1 37008
 .gnu.linkonce.t.__Q23std11logic_errorRCQ23stdt12basic_string3ZcZQ23stdt11char_traits1ZcZQ23stdt9allocator1Zc
                0x0806eb58       0x8d manager_of_data_storage.o
                0x0806eb58                std::logic_error::logic_error(std::basic_string<char, std::char_traits<char>, std::allocator<char> > const &)
 *fill*         0x0806ebe5        0x3 37008
 .gnu.linkonce.t._._Q23std11logic_error
                0x0806ebe8       0x36 manager_of_data_storage.o
                0x0806ebe8                std::logic_error::~logic_error(void)
 *fill*         0x0806ec1e        0x2 37008
 .gnu.linkonce.t.what__CQ23std11logic_error
                0x0806ec20       0x89 manager_of_data_storage.o
                0x0806ec20                std::logic_error::what(void) const
 *fill*         0x0806eca9        0x3 37008
 .gnu.linkonce.t._Doraise__CQ23std12length_error
                0x0806ecac       0x78 manager_of_data_storage.o
                0x0806ecac                std::length_error::_Doraise(void) const
 .gnu.linkonce.t._Doraise__CQ23std12out_of_range
                0x0806ed24       0x78 manager_of_data_storage.o
                0x0806ed24                std::out_of_range::_Doraise(void) const
 .gnu.linkonce.t._Doraise__CQ23std8bad_cast
                0x0806ed9c       0x78 manager_of_data_storage.o
                0x0806ed9c                std::bad_cast::_Doraise(void) const
 .gnu.linkonce.t.__28jobs_data_managers_container
                0x0806ee14       0x51 manager_of_data_storage.o
                0x0806ee14                jobs_data_managers_container::jobs_data_managers_container(void)
 *fill*         0x0806ee65        0x3 37008
 .gnu.linkonce.t._Iter_cat__H1ZQ23stdt6_Ptrit6ZUcZiZPUcZRUcZPUcZRUc_3stdRCX01_Q33stdt15iterator_traits1ZX0117iterator_category
                0x0806ee68       0x19 manager_of_data_storage.o
                0x0806ee68                std::iterator_traits<std::_Ptrit<unsigned char, int, unsigned char *, unsigned char &, unsigned char *, unsigned char &> >::iterator_category std::_Iter_cat<std::_Ptrit<unsigned char, int, unsigned char *, unsigned char &, unsigned char *, unsigned char &> >(std::_Ptrit<unsigned char, int, unsigned char *, unsigned char &, unsigned char *, unsigned char &> const &)
 *fill*         0x0806ee81        0x3 37008
 .gnu.linkonce.t._Advance__H2ZQ23stdt6_Ptrit6ZUcZiZPUcZRUcZPUcZRUcZQ217descriptor_header4._41__3stdRX01X11GQ23std26random_access_iterator_tag_v
                0x0806ee84       0x27 manager_of_data_storage.o
                0x0806ee84                void std _Advance<std::_Ptrit<unsigned char, int, unsigned char *, unsigned char &, unsigned char *, unsigned char &>, descriptor_header::._41>(std::_Ptrit<unsigned char, int, unsigned char *, unsigned char &, unsigned char *, unsigned char &> &, descriptor_header::._41, std::random_access_iterator_tag)
 *fill*         0x0806eeab        0x1 37008
 .gnu.linkonce.t.__tfQ23std11logic_error
                0x0806eeac       0x3a manager_of_data_storage.o
                0x0806eeac                std::logic_error type_info function
 *fill*         0x0806eee6        0x2 37008
 .gnu.linkonce.t._Doraise__CQ23std11logic_error
                0x0806eee8       0x78 manager_of_data_storage.o
                0x0806eee8                std::logic_error::_Doraise(void) const
 .gnu.linkonce.t._._Q23stdt3map4ZiZP25abstract_job_data_managerZQ23stdt4less1ZiZQ23stdt9allocator1ZQ23stdt4pair2ZCiZP25abstract_job_data_manager
                0x0806ef60       0x22 manager_of_data_storage.o
                0x0806ef60                std::map<int, abstract_job_data_manager *, std::less<int>, std::allocator<std::pair<int const, abstract_job_data_manager *> > >::~map(void)
 *fill*         0x0806ef82        0x2 37008
 .gnu.linkonce.t.__Q23stdt6vector2ZUcZQ23stdt9allocator1ZUcUi
                0x0806ef84       0x68 pri_data_manager.o
                0x0806ef84                std::vector<unsigned char, std::allocator<unsigned char> >::vector(unsigned int)
 .gnu.linkonce.t._Distance2__H2ZQ23stdt6_Ptrit6ZUcZiZPUcZRUcZPUcZRUcZUi_3stdX01X01RX11GQ23std26random_access_iterator_tag_v
                0x0806efec       0x2e pri_data_manager.o
                0x0806efec                void std::_Distance2<std::_Ptrit<unsigned char, int, unsigned char *, unsigned char &, unsigned char *, unsigned char &>, unsigned int>(std::_Ptrit<unsigned char, int, unsigned char *, unsigned char &, unsigned char *, unsigned char &>, std::_Ptrit<unsigned char, int, unsigned char *, unsigned char &, unsigned char *, unsigned char &>, unsigned int &, std::random_access_iterator_tag)
 *fill*         0x0806f01a        0x2 37008
 .gnu.linkonce.t._Distance__H2ZQ23stdt6_Ptrit6ZUcZiZPUcZRUcZPUcZRUcZUi_3stdX01X01RX11_v
                0x0806f01c       0x67 pri_data_manager.o
                0x0806f01c                void std::_Distance<std::_Ptrit<unsigned char, int, unsigned char *, unsigned char &, unsigned char *, unsigned char &>, unsigned int>(std::_Ptrit<unsigned char, int, unsigned char *, unsigned char &, unsigned char *, unsigned char &>, std::_Ptrit<unsigned char, int, unsigned char *, unsigned char &, unsigned char *, unsigned char &>, unsigned int &)
 *fill*         0x0806f083        0x1 37008
 .gnu.linkonce.t._Advance__H2ZQ23stdt6_Ptrit6ZUcZiZPUcZRUcZPUcZRUcZi_3stdRX01X11GQ23std26random_access_iterator_tag_v
                0x0806f084       0x27 pri_data_manager.o
                0x0806f084                void std::_Advance<std::_Ptrit<unsigned char, int, unsigned char *, unsigned char &, unsigned char *, unsigned char &>, int>(std::_Ptrit<unsigned char, int, unsigned char *, unsigned char &, unsigned char *, unsigned char &> &, int, std::random_access_iterator_tag)
 *fill*         0x0806f0ab        0x1 37008
 .gnu.linkonce.t.advance__H2ZQ23stdt6_Ptrit6ZUcZiZPUcZRUcZPUcZRUcZi_3stdRX01X11_v
                0x0806f0ac       0x3a pri_data_manager.o
                0x0806f0ac                void std::advance<std::_Ptrit<unsigned char, int, unsigned char *, unsigned char &, unsigned char *, unsigned char &>, int>(std::_Ptrit<unsigned char, int, unsigned char *, unsigned char &, unsigned char *, unsigned char &> &, int)
 *fill*         0x0806f0e6        0x2 37008
 .gnu.linkonce.t._Copy_opt__H2ZQ23stdt6_Ptrit6ZUcZiZPUcZRUcZPUcZRUcZQ23stdt6_Ptrit6ZUcZiZPUcZRUcZPUcZRUc_3stdX01X01X11GQ23std27_Nonscalar_ptr_iterator_tag_X11
                0x0806f0e8       0x9c pri_data_manager.o
                0x0806f0e8                std::_Ptrit<unsigned char, int, unsigned char *, unsigned char &, unsigned char *, unsigned char &> std::_Copy_opt<std::_Ptrit<unsigned char, int, unsigned char *, unsigned char &, unsigned char *, unsigned char &>, std::_Ptrit<unsigned char, int, unsigned char *, unsigned char &, unsigned char *, unsigned char &> >(std::_Ptrit<unsigned char, int, unsigned char *, unsigned char &, unsigned char *, unsigned char &>, std::_Ptrit<unsigned char, int, unsigned char *, unsigned char &, unsigned char *, unsigned char &>, std::_Ptrit<unsigned char, int, unsigned char *, unsigned char &, unsigned char *, unsigned char &>, std::_Nonscalar_ptr_iterator_tag)
 .gnu.linkonce.t.copy__H2ZQ23stdt6_Ptrit6ZUcZiZPUcZRUcZPUcZRUcZQ23stdt6_Ptrit6ZUcZiZPUcZRUcZPUcZRUc_3stdX01X01X11_X11
                0x0806f184       0x8e pri_data_manager.o
                0x0806f184                std::_Ptrit<unsigned char, int, unsigned char *, unsigned char &, unsigned char *, unsigned char &> std::copy<std::_Ptrit<unsigned char, int, unsigned char *, unsigned char &, unsigned char *, unsigned char &>, std::_Ptrit<unsigned char, int, unsigned char *, unsigned char &, unsigned char *, unsigned char &> >(std::_Ptrit<unsigned char, int, unsigned char *, unsigned char &, unsigned char *, unsigned char &>, std::_Ptrit<unsigned char, int, unsigned char *, unsigned char &, unsigned char *, unsigned char &>, std::_Ptrit<unsigned char, int, unsigned char *, unsigned char &, unsigned char *, unsigned char &>)
 *fill*         0x0806f212        0x2 37008
 .gnu.linkonce.t._Insert__H1ZQ23stdt6_Ptrit6ZUcZiZPUcZRUcZPUcZRUc_Q23stdt6vector2ZUcZQ23stdt9allocator1ZUcGQ23stdt6_Ptrit6ZUcZiZPUcZRUcZPUcZRUcX00X00GQ23std20forward_iterator_tag_v
                0x0806f214      0x660 pri_data_manager.o
                0x0806f214                void std::vector<unsigned char, std::allocator<unsigned char> >::_Insert<std::_Ptrit<unsigned char, int, unsigned char *, unsigned char &, unsigned char *, unsigned char &> >(std::_Ptrit<unsigned char, int, unsigned char *, unsigned char &, unsigned char *, unsigned char &>, std::_Ptrit<unsigned char, int, unsigned char *, unsigned char &, unsigned char *, unsigned char &>, std::_Ptrit<unsigned char, int, unsigned char *, unsigned char &, unsigned char *, unsigned char &>, std::forward_iterator_tag)
 .gnu.linkonce.t.insert__H1ZQ23stdt6_Ptrit6ZUcZiZPUcZRUcZPUcZRUc_Q23stdt6vector2ZUcZQ23stdt9allocator1ZUcGQ23stdt6_Ptrit6ZUcZiZPUcZRUcZPUcZRUcX00X00_v
                0x0806f874       0x86 pri_data_manager.o
                0x0806f874                void std::vector<unsigned char, std::allocator<unsigned char> >::insert<std::_Ptrit<unsigned char, int, unsigned char *, unsigned char &, unsigned char *, unsigned char &> >(std::_Ptrit<unsigned char, int, unsigned char *, unsigned char &, unsigned char *, unsigned char &>, std::_Ptrit<unsigned char, int, unsigned char *, unsigned char &, unsigned char *, unsigned char &>, std::_Ptrit<unsigned char, int, unsigned char *, unsigned char &, unsigned char *, unsigned char &>)
 *fill*         0x0806f8fa        0x2 37008
 .gnu.linkonce.t.__Q23stdt16reverse_iterator1ZQ23stdt6_Ptrit6ZUcZiZPUcZRUcZPUcZRUcGQ23stdt6_Ptrit6ZUcZiZPUcZRUcZPUcZRUc
                0x0806f8fc       0x29 pri_data_manager.o
                0x0806f8fc                std::reverse_iterator<std::_Ptrit<unsigned char, int, unsigned char *, unsigned char &, unsigned char *, unsigned char &> >::reverse_iterator(std::_Ptrit<unsigned char, int, unsigned char *, unsigned char &, unsigned char *, unsigned char &>)
 *fill*         0x0806f925        0x3 37008
 .gnu.linkonce.t.rend__Q23stdt6vector2ZUcZQ23stdt9allocator1ZUc
                0x0806f928       0x3d pri_data_manager.o
                0x0806f928                std::vector<unsigned char, std::allocator<unsigned char> >::rend(void)
 *fill*         0x0806f965        0x3 37008
 .gnu.linkonce.t.__ami__Q23stdt6_Ptrit6ZUcZiZPUcZRUcZPUcZRUci
                0x0806f968       0x12 pri_data_manager.o
                0x0806f968                std::_Ptrit<unsigned char, int, unsigned char *, unsigned char &, unsigned char *, unsigned char &>::operator-=(int)
 *fill*         0x0806f97a        0x2 37008
 .gnu.linkonce.t.__apl__Q23stdt16reverse_iterator1ZQ23stdt6_Ptrit6ZUcZiZPUcZRUcZPUcZRUci
                0x0806f97c       0x26 pri_data_manager.o
                0x0806f97c                std::reverse_iterator<std::_Ptrit<unsigned char, int, unsigned char *, unsigned char &, unsigned char *, unsigned char &> >::operator+=(int)
 *fill*         0x0806f9a2        0x2 37008
 .gnu.linkonce.t._Minus__CQ23stdt16reverse_iterator1ZQ23stdt6_Ptrit6ZUcZiZPUcZRUcZPUcZRUcRCQ23stdt16reverse_iterator1ZQ23stdt6_Ptrit6ZUcZiZPUcZRUcZPUcZRUc
                0x0806f9a4       0x2b pri_data_manager.o
                0x0806f9a4                std::reverse_iterator<std::_Ptrit<unsigned char, int, unsigned char *, unsigned char &, unsigned char *, unsigned char &> >::_Minus(std::reverse_iterator<std::_Ptrit<unsigned char, int, unsigned char *, unsigned char &, unsigned char *, unsigned char &> > const &) const
 *fill*         0x0806f9cf        0x1 37008
 .gnu.linkonce.t.__mi__H1ZQ23stdt6_Ptrit6ZUcZiZPUcZRUcZPUcZRUc_3stdRCQ23stdt16reverse_iterator1ZX01T1_Q33stdt16reverse_iterator1ZX0115difference_type
                0x0806f9d0       0x28 pri_data_manager.o
                0x0806f9d0                std::reverse_iterator<std::_Ptrit<unsigned char, int, unsigned char *, unsigned char &, unsigned char *, unsigned char &> >::difference_type std::operator-<std::_Ptrit<unsigned char, int, unsigned char *, unsigned char &, unsigned char *, unsigned char &> >(std::reverse_iterator<std::_Ptrit<unsigned char, int, unsigned char *, unsigned char &, unsigned char *, unsigned char &> > const &, std::reverse_iterator<std::_Ptrit<unsigned char, int, unsigned char *, unsigned char &, unsigned char *, unsigned char &> > const &)
 .gnu.linkonce.t._Distance2__H2ZQ23stdt16reverse_iterator1ZQ23stdt6_Ptrit6ZUcZiZPUcZRUcZPUcZRUcZUi_3stdX01X01RX11GQ23std26random_access_iterator_tag_v
                0x0806f9f8       0x2e pri_data_manager.o
                0x0806f9f8                void std::_Distance2<std::reverse_iterator<std::_Ptrit<unsigned char, int, unsigned char *, unsigned char &, unsigned char *, unsigned char &> >, unsigned int>(std::reverse_iterator<std::_Ptrit<unsigned char, int, unsigned char *, unsigned char &, unsigned char *, unsigned char &> >, std::reverse_iterator<std::_Ptrit<unsigned char, int, unsigned char *, unsigned char &, unsigned char *, unsigned char &> >, unsigned int &, std::random_access_iterator_tag)
 *fill*         0x0806fa26        0x2 37008
 .gnu.linkonce.t._Distance__H2ZQ23stdt16reverse_iterator1ZQ23stdt6_Ptrit6ZUcZiZPUcZRUcZPUcZRUcZUi_3stdX01X01RX11_v
                0x0806fa28       0x67 pri_data_manager.o
                0x0806fa28                void std::_Distance<std::reverse_iterator<std::_Ptrit<unsigned char, int, unsigned char *, unsigned char &, unsigned char *, unsigned char &> >, unsigned int>(std::reverse_iterator<std::_Ptrit<unsigned char, int, unsigned char *, unsigned char &, unsigned char *, unsigned char &> >, std::reverse_iterator<std::_Ptrit<unsigned char, int, unsigned char *, unsigned char &, unsigned char *, unsigned char &> >, unsigned int &)
 *fill*         0x0806fa8f        0x1 37008
 .gnu.linkonce.t._Ptr_cat__H2ZQ23stdt16reverse_iterator1ZQ23stdt6_Ptrit6ZUcZiZPUcZRUcZPUcZRUcZPUc_3stdRCX01RX11_Q23std27_Nonscalar_ptr_iterator_tag
                0x0806fa90       0x20 pri_data_manager.o
                0x0806fa90                std::_Nonscalar_ptr_iterator_tag std::_Ptr_cat<std::reverse_iterator<std::_Ptrit<unsigned char, int, unsigned char *, unsigned char &, unsigned char *, unsigned char &> >, unsigned char *>(std::reverse_iterator<std::_Ptrit<unsigned char, int, unsigned char *, unsigned char &, unsigned char *, unsigned char &> > const &, unsigned char * &)
 .gnu.linkonce.t._Equal__CQ23stdt16reverse_iterator1ZQ23stdt6_Ptrit6ZUcZiZPUcZRUcZPUcZRUcRCQ23stdt16reverse_iterator1ZQ23stdt6_Ptrit6ZUcZiZPUcZRUcZPUcZRUc
                0x0806fab0       0x2b pri_data_manager.o
                0x0806fab0                std::reverse_iterator<std::_Ptrit<unsigned char, int, unsigned char *, unsigned char &, unsigned char *, unsigned char &> >::_Equal(std::reverse_iterator<std::_Ptrit<unsigned char, int, unsigned char *, unsigned char &, unsigned char *, unsigned char &> > const &) const
 *fill*         0x0806fadb        0x1 37008
 .gnu.linkonce.t.__eq__H1ZQ23stdt6_Ptrit6ZUcZiZPUcZRUcZPUcZRUc_3stdRCQ23stdt16reverse_iterator1ZX01T1_b
                0x0806fadc       0x28 pri_data_manager.o
                0x0806fadc                bool std::operator==<std::_Ptrit<unsigned char, int, unsigned char *, unsigned char &, unsigned char *, unsigned char &> >(std::reverse_iterator<std::_Ptrit<unsigned char, int, unsigned char *, unsigned char &, unsigned char *, unsigned char &> > const &, std::reverse_iterator<std::_Ptrit<unsigned char, int, unsigned char *, unsigned char &, unsigned char *, unsigned char &> > const &)
 .gnu.linkonce.t.__ne__H1ZQ23stdt6_Ptrit6ZUcZiZPUcZRUcZPUcZRUc_3stdRCQ23stdt16reverse_iterator1ZX01T1_b
                0x0806fb04       0x2b pri_data_manager.o
                0x0806fb04                bool std::operator!=<std::_Ptrit<unsigned char, int, unsigned char *, unsigned char &, unsigned char *, unsigned char &> >(std::reverse_iterator<std::_Ptrit<unsigned char, int, unsigned char *, unsigned char &, unsigned char *, unsigned char &> > const &, std::reverse_iterator<std::_Ptrit<unsigned char, int, unsigned char *, unsigned char &, unsigned char *, unsigned char &> > const &)
 *fill*         0x0806fb2f        0x1 37008
 .gnu.linkonce.t.__pp__Q23stdt16reverse_iterator1ZQ23stdt6_Ptrit6ZUcZiZPUcZRUcZPUcZRUc
                0x0806fb30       0x22 pri_data_manager.o
                0x0806fb30                std::reverse_iterator<std::_Ptrit<unsigned char, int, unsigned char *, unsigned char &, unsigned char *, unsigned char &> >::operator++(void)
 *fill*         0x0806fb52        0x2 37008
 .gnu.linkonce.t.__ml__CQ23stdt16reverse_iterator1ZQ23stdt6_Ptrit6ZUcZiZPUcZRUcZPUcZRUc
                0x0806fb54       0x47 pri_data_manager.o
                0x0806fb54                std::reverse_iterator<std::_Ptrit<unsigned char, int, unsigned char *, unsigned char &, unsigned char *, unsigned char &> >::operator*(void) const
 *fill*         0x0806fb9b        0x1 37008
 .gnu.linkonce.t._Uninit_copy__H3ZQ23stdt16reverse_iterator1ZQ23stdt6_Ptrit6ZUcZiZPUcZRUcZPUcZRUcZPUcZQ23stdt9allocator1ZUc_3stdX01X01X11RX21GQ23std27_Nonscalar_ptr_iterator_tag_X11
                0x0806fb9c       0xf4 pri_data_manager.o
                0x0806fb9c                unsigned char * std::_Uninit_copy<std::reverse_iterator<std::_Ptrit<unsigned char, int, unsigned char *, unsigned char &, unsigned char *, unsigned char &> >, unsigned char *, std::allocator<unsigned char> >(std::reverse_iterator<std::_Ptrit<unsigned char, int, unsigned char *, unsigned char &, unsigned char *, unsigned char &> >, std::reverse_iterator<std::_Ptrit<unsigned char, int, unsigned char *, unsigned char &, unsigned char *, unsigned char &> >, unsigned char *, std::allocator<unsigned char> &, std::_Nonscalar_ptr_iterator_tag)
 .gnu.linkonce.t._Uninitialized_copy__H3ZQ23stdt16reverse_iterator1ZQ23stdt6_Ptrit6ZUcZiZPUcZRUcZPUcZRUcZPUcZQ23stdt9allocator1ZUc_3stdX01X01X11RX21_X11
                0x0806fc90       0x7c pri_data_manager.o
                0x0806fc90                unsigned char * std::_Uninitialized_copy<std::reverse_iterator<std::_Ptrit<unsigned char, int, unsigned char *, unsigned char &, unsigned char *, unsigned char &> >, unsigned char *, std::allocator<unsigned char> >(std::reverse_iterator<std::_Ptrit<unsigned char, int, unsigned char *, unsigned char &, unsigned char *, unsigned char &> >, std::reverse_iterator<std::_Ptrit<unsigned char, int, unsigned char *, unsigned char &, unsigned char *, unsigned char &> >, unsigned char *, std::allocator<unsigned char> &)
 .gnu.linkonce.t._Ucopy__H1ZQ23stdt16reverse_iterator1ZQ23stdt6_Ptrit6ZUcZiZPUcZRUcZPUcZRUc_Q23stdt6vector2ZUcZQ23stdt9allocator1ZUcX00X00PUc_PUc
                0x0806fd0c       0x59 pri_data_manager.o
                0x0806fd0c                unsigned char * std::vector<unsigned char, std::allocator<unsigned char> >::_Ucopy<std::reverse_iterator<std::_Ptrit<unsigned char, int, unsigned char *, unsigned char &, unsigned char *, unsigned char &> > >(std::reverse_iterator<std::_Ptrit<unsigned char, int, unsigned char *, unsigned char &, unsigned char *, unsigned char &> >, std::reverse_iterator<std::_Ptrit<unsigned char, int, unsigned char *, unsigned char &, unsigned char *, unsigned char &> >, unsigned char *)
 *fill*         0x0806fd65        0x3 37008
 .gnu.linkonce.t._Ptr_cat__H2ZQ23stdt16reverse_iterator1ZQ23stdt6_Ptrit6ZUcZiZPUcZRUcZPUcZRUcZQ23stdt6_Ptrit6ZUcZiZPUcZRUcZPUcZRUc_3stdRCX01RX11_Q23std27_Nonscalar_ptr_iterator_tag
                0x0806fd68       0x20 pri_data_manager.o
                0x0806fd68                std::_Nonscalar_ptr_iterator_tag std::_Ptr_cat<std::reverse_iterator<std::_Ptrit<unsigned char, int, unsigned char *, unsigned char &, unsigned char *, unsigned char &> >, std::_Ptrit<unsigned char, int, unsigned char *, unsigned char &, unsigned char *, unsigned char &> >(std::reverse_iterator<std::_Ptrit<unsigned char, int, unsigned char *, unsigned char &, unsigned char *, unsigned char &> > const &, std::_Ptrit<unsigned char, int, unsigned char *, unsigned char &, unsigned char *, unsigned char &> &)
 .gnu.linkonce.t._Copy_opt__H2ZQ23stdt16reverse_iterator1ZQ23stdt6_Ptrit6ZUcZiZPUcZRUcZPUcZRUcZQ23stdt6_Ptrit6ZUcZiZPUcZRUcZPUcZRUc_3stdX01X01X11GQ23std27_Nonscalar_ptr_iterator_tag_X11
                0x0806fd88       0x9c pri_data_manager.o
                0x0806fd88                std::_Ptrit<unsigned char, int, unsigned char *, unsigned char &, unsigned char *, unsigned char &> std::_Copy_opt<std::reverse_iterator<std::_Ptrit<unsigned char, int, unsigned char *, unsigned char &, unsigned char *, unsigned char &> >, std::_Ptrit<unsigned char, int, unsigned char *, unsigned char &, unsigned char *, unsigned char &> >(std::reverse_iterator<std::_Ptrit<unsigned char, int, unsigned char *, unsigned char &, unsigned char *, unsigned char &> >, std::reverse_iterator<std::_Ptrit<unsigned char, int, unsigned char *, unsigned char &, unsigned char *, unsigned char &> >, std::_Ptrit<unsigned char, int, unsigned char *, unsigned char &, unsigned char *, unsigned char &>, std::_Nonscalar_ptr_iterator_tag)
 .gnu.linkonce.t.copy__H2ZQ23stdt16reverse_iterator1ZQ23stdt6_Ptrit6ZUcZiZPUcZRUcZPUcZRUcZQ23stdt6_Ptrit6ZUcZiZPUcZRUcZPUcZRUc_3stdX01X01X11_X11
                0x0806fe24       0x8e pri_data_manager.o
                0x0806fe24                std::_Ptrit<unsigned char, int, unsigned char *, unsigned char &, unsigned char *, unsigned char &> std::copy<std::reverse_iterator<std::_Ptrit<unsigned char, int, unsigned char *, unsigned char &, unsigned char *, unsigned char &> >, std::_Ptrit<unsigned char, int, unsigned char *, unsigned char &, unsigned char *, unsigned char &> >(std::reverse_iterator<std::_Ptrit<unsigned char, int, unsigned char *, unsigned char &, unsigned char *, unsigned char &> >, std::reverse_iterator<std::_Ptrit<unsigned char, int, unsigned char *, unsigned char &, unsigned char *, unsigned char &> >, std::_Ptrit<unsigned char, int, unsigned char *, unsigned char &, unsigned char *, unsigned char &>)
 *fill*         0x0806feb2        0x2 37008
 .gnu.linkonce.t._Insert__H1ZQ23stdt16reverse_iterator1ZQ23stdt6_Ptrit6ZUcZiZPUcZRUcZPUcZRUc_Q23stdt6vector2ZUcZQ23stdt9allocator1ZUcGQ23stdt6_Ptrit6ZUcZiZPUcZRUcZPUcZRUcX00X00GQ23std20forward_iterator_tag_v
                0x0806feb4      0x667 pri_data_manager.o
                0x0806feb4                void std::vector<unsigned char, std::allocator<unsigned char> >::_Insert<std::reverse_iterator<std::_Ptrit<unsigned char, int, unsigned char *, unsigned char &, unsigned char *, unsigned char &> > >(std::_Ptrit<unsigned char, int, unsigned char *, unsigned char &, unsigned char *, unsigned char &>, std::reverse_iterator<std::_Ptrit<unsigned char, int, unsigned char *, unsigned char &, unsigned char *, unsigned char &> >, std::reverse_iterator<std::_Ptrit<unsigned char, int, unsigned char *, unsigned char &, unsigned char *, unsigned char &> >, std::forward_iterator_tag)
 *fill*         0x0807051b        0x1 37008
 .gnu.linkonce.t.insert__H1ZQ23stdt16reverse_iterator1ZQ23stdt6_Ptrit6ZUcZiZPUcZRUcZPUcZRUc_Q23stdt6vector2ZUcZQ23stdt9allocator1ZUcGQ23stdt6_Ptrit6ZUcZiZPUcZRUcZPUcZRUcX00X00_v
                0x0807051c       0x86 pri_data_manager.o
                0x0807051c                void std::vector<unsigned char, std::allocator<unsigned char> >::insert<std::reverse_iterator<std::_Ptrit<unsigned char, int, unsigned char *, unsigned char &, unsigned char *, unsigned char &> > >(std::_Ptrit<unsigned char, int, unsigned char *, unsigned char &, unsigned char *, unsigned char &>, std::reverse_iterator<std::_Ptrit<unsigned char, int, unsigned char *, unsigned char &, unsigned char *, unsigned char &> >, std::reverse_iterator<std::_Ptrit<unsigned char, int, unsigned char *, unsigned char &, unsigned char *, unsigned char &> >)
 *fill*         0x080705a2        0x2 37008
 .gnu.linkonce.t._Construct__H1ZQ23stdt16reverse_iterator1ZQ23stdt6_Ptrit6ZUcZiZPUcZRUcZPUcZRUc_Q23stdt6vector2ZUcZQ23stdt9allocator1ZUcX00X00GQ23std18input_iterator_tag_v
                0x080705a4       0x71 pri_data_manager.o
                0x080705a4                void std::vector<unsigned char, std::allocator<unsigned char> >::_Construct<std::reverse_iterator<std::_Ptrit<unsigned char, int, unsigned char *, unsigned char &, unsigned char *, unsigned char &> > >(std::reverse_iterator<std::_Ptrit<unsigned char, int, unsigned char *, unsigned char &, unsigned char *, unsigned char &> >, std::reverse_iterator<std::_Ptrit<unsigned char, int, unsigned char *, unsigned char &, unsigned char *, unsigned char &> >, std::input_iterator_tag)
 *fill*         0x08070615        0x3 37008
 .gnu.linkonce.t.__H1ZQ23stdt16reverse_iterator1ZQ23stdt6_Ptrit6ZUcZiZPUcZRUcZPUcZRUc_Q23stdt6vector2ZUcZQ23stdt9allocator1ZUcX00X00
                0x08070618       0x8d pri_data_manager.o
                0x08070618                std::vector<unsigned char, std::allocator<unsigned char> >::vector::<std::reverse_iterator<std::_Ptrit<unsigned char, int, unsigned char *, unsigned char &, unsigned char *, unsigned char &> > >(std::reverse_iterator<std::_Ptrit<unsigned char, int, unsigned char *, unsigned char &, unsigned char *, unsigned char &> >, std::reverse_iterator<std::_Ptrit<unsigned char, int, unsigned char *, unsigned char &, unsigned char *, unsigned char &> >)
 *fill*         0x080706a5        0x3 37008
 .gnu.linkonce.t.type_from_bytes__H1Zi_GQ23stdt6vector2ZUcZQ23stdt9allocator1ZUc_X01
                0x080706a8       0xc1 pri_data_manager.o
                0x080706a8                int type_from_bytes<int>(std::vector<unsigned char, std::allocator<unsigned char> >)
 *fill*         0x08070769        0x3 37008
 .gnu.linkonce.t.type_from_bytes__H1ZUs_GQ23stdt6vector2ZUcZQ23stdt9allocator1ZUc_X01
                0x0807076c       0xbd pri_data_manager.o
                0x0807076c                unsigned short type_from_bytes<unsigned short>(std::vector<unsigned char, std::allocator<unsigned char> >)
 *fill*         0x08070829        0x3 37008
 .gnu.linkonce.t.insert__Q23stdt6vector2ZUcZQ23stdt9allocator1ZUcGQ23stdt6_Ptrit6ZUcZiZPUcZRUcZPUcZRUcRCUc
                0x0807082c       0xa4 pri_data_manager.o
                0x0807082c                std::vector<unsigned char, std::allocator<unsigned char> >::insert(std::_Ptrit<unsigned char, int, unsigned char *, unsigned char &, unsigned char *, unsigned char &>, unsigned char const &)
 .gnu.linkonce.t.push_back__Q23stdt6vector2ZUcZQ23stdt9allocator1ZUcRCUc
                0x080708d0       0x74 pri_data_manager.o
                0x080708d0                std::vector<unsigned char, std::allocator<unsigned char> >::push_back(unsigned char const &)
 .gnu.linkonce.t.__tf16pri_data_manager
                0x08070944       0x3a pri_data_manager.o
                0x08070944                pri_data_manager type_info function
 *fill*         0x0807097e        0x2 37008
 .gnu.linkonce.t.__16pri_data_manager
                0x08070980       0x59 pri_data_manager.o
                0x08070980                pri_data_manager::pri_data_manager(void)
 *fill*         0x080709d9        0x3 37008
 .gnu.linkonce.t._._16pri_data_manager
                0x080709dc       0x25 pri_data_manager.o
                0x080709dc                pri_data_manager::~pri_data_manager(void)
 *fill*         0x08070a01        0x3 37008
 .gnu.linkonce.t.advance__H2ZQ23stdt6_Ptrit6ZUcZiZPUcZRUcZPUcZRUcZQ218pri_commands_sizes4._48__3stdRX01X11_v
                0x08070a04       0x3a pri_data_manager.o
                0x08070a04                void std advance<std::_Ptrit<unsigned char, int, unsigned char *, unsigned char &, unsigned char *, unsigned char &>, pri_commands_sizes::._48>(std::_Ptrit<unsigned char, int, unsigned char *, unsigned char &, unsigned char *, unsigned char &> &, pri_commands_sizes::._48)
 *fill*         0x08070a3e        0x2 37008
 .gnu.linkonce.t.__Q23stdt16reverse_iterator1ZQ23stdt6_Ptrit6ZUcZiZPUcZRUcZPUcZRUcRCQ23stdt16reverse_iterator1ZQ23stdt6_Ptrit6ZUcZiZPUcZRUcZPUcZRUc
                0x08070a40       0x3a pri_data_manager.o
                0x08070a40                std::reverse_iterator<std::_Ptrit<unsigned char, int, unsigned char *, unsigned char &, unsigned char *, unsigned char &> >::reverse_iterator(std::reverse_iterator<std::_Ptrit<unsigned char, int, unsigned char *, unsigned char &, unsigned char *, unsigned char &> > const &)
 *fill*         0x08070a7a        0x2 37008
 .gnu.linkonce.t._Iter_cat__H1ZQ23stdt16reverse_iterator1ZQ23stdt6_Ptrit6ZUcZiZPUcZRUcZPUcZRUc_3stdRCX01_Q33stdt15iterator_traits1ZX0117iterator_category
                0x08070a7c       0x19 pri_data_manager.o
                0x08070a7c                std::iterator_traits<std::reverse_iterator<std::_Ptrit<unsigned char, int, unsigned char *, unsigned char &, unsigned char *, unsigned char &> > >::iterator_category std::_Iter_cat<std::reverse_iterator<std::_Ptrit<unsigned char, int, unsigned char *, unsigned char &, unsigned char *, unsigned char &> > >(std::reverse_iterator<std::_Ptrit<unsigned char, int, unsigned char *, unsigned char &, unsigned char *, unsigned char &> > const &)
 *fill*         0x08070a95        0x3 37008
 .gnu.linkonce.t.advance__H2ZQ23stdt16reverse_iterator1ZQ23stdt6_Ptrit6ZUcZiZPUcZRUcZPUcZRUcZi_3stdRX01X11_v
                0x08070a98       0x3a pri_data_manager.o
                0x08070a98                void std::advance<std::reverse_iterator<std::_Ptrit<unsigned char, int, unsigned char *, unsigned char &, unsigned char *, unsigned char &> >, int>(std::reverse_iterator<std::_Ptrit<unsigned char, int, unsigned char *, unsigned char &, unsigned char *, unsigned char &> > &, int)
 *fill*         0x08070ad2        0x2 37008
 .gnu.linkonce.t.advance__H2ZQ23stdt16reverse_iterator1ZQ23stdt6_Ptrit6ZUcZiZPUcZRUcZPUcZRUcZUi_3stdRX01X11_v
                0x08070ad4       0x3a pri_data_manager.o
                0x08070ad4                void std::advance<std::reverse_iterator<std::_Ptrit<unsigned char, int, unsigned char *, unsigned char &, unsigned char *, unsigned char &> >, unsigned int>(std::reverse_iterator<std::_Ptrit<unsigned char, int, unsigned char *, unsigned char &, unsigned char *, unsigned char &> > &, unsigned int)
 *fill*         0x08070b0e        0x2 37008
 .gnu.linkonce.t.__tf25abstract_job_data_manager
                0x08070b10       0x2e pri_data_manager.o
                0x08070b10                abstract_job_data_manager type_info function
 *fill*         0x08070b3e        0x2 37008
 .gnu.linkonce.t.__25abstract_job_data_manager
                0x08070b40       0x12 pri_data_manager.o
                0x08070b40                abstract_job_data_manager::abstract_job_data_manager(void)
 *fill*         0x08070b52        0x2 37008
 .gnu.linkonce.t._._25abstract_job_data_manager
                0x08070b54       0x2d pri_data_manager.o
                0x08070b54                abstract_job_data_manager::~abstract_job_data_manager(void)
 *fill*         0x08070b81        0x3 37008
 .gnu.linkonce.t._Advance__H2ZQ23stdt6_Ptrit6ZUcZiZPUcZRUcZPUcZRUcZQ218pri_commands_sizes4._48__3stdRX01X11GQ23std26random_access_iterator_tag_v
                0x08070b84       0x27 pri_data_manager.o
                0x08070b84                void std _Advance<std::_Ptrit<unsigned char, int, unsigned char *, unsigned char &, unsigned char *, unsigned char &>, pri_commands_sizes::._48>(std::_Ptrit<unsigned char, int, unsigned char *, unsigned char &, unsigned char *, unsigned char &> &, pri_commands_sizes::._48, std::random_access_iterator_tag)
 *fill*         0x08070bab        0x1 37008
 .gnu.linkonce.t._Advance__H2ZQ23stdt16reverse_iterator1ZQ23stdt6_Ptrit6ZUcZiZPUcZRUcZPUcZRUcZi_3stdRX01X11GQ23std26random_access_iterator_tag_v
                0x08070bac       0x27 pri_data_manager.o
                0x08070bac                void std::_Advance<std::reverse_iterator<std::_Ptrit<unsigned char, int, unsigned char *, unsigned char &, unsigned char *, unsigned char &> >, int>(std::reverse_iterator<std::_Ptrit<unsigned char, int, unsigned char *, unsigned char &, unsigned char *, unsigned char &> > &, int, std::random_access_iterator_tag)
 *fill*         0x08070bd3        0x1 37008
 .gnu.linkonce.t._Advance__H2ZQ23stdt16reverse_iterator1ZQ23stdt6_Ptrit6ZUcZiZPUcZRUcZPUcZRUcZUi_3stdRX01X11GQ23std26random_access_iterator_tag_v
                0x08070bd4       0x27 pri_data_manager.o
                0x08070bd4                void std::_Advance<std::reverse_iterator<std::_Ptrit<unsigned char, int, unsigned char *, unsigned char &, unsigned char *, unsigned char &> >, unsigned int>(std::reverse_iterator<std::_Ptrit<unsigned char, int, unsigned char *, unsigned char &, unsigned char *, unsigned char &> > &, unsigned int, std::random_access_iterator_tag)
 *fill*         0x08070bfb        0x1 37008
 .gnu.linkonce.t._Ptr_cat__H2ZPcZPc_3stdRCX01RX11_Q23std27_Nonscalar_ptr_iterator_tag
                0x08070bfc       0x20 mock_database_wrapper.o
                0x08070bfc                std::_Nonscalar_ptr_iterator_tag std::_Ptr_cat<char *, char *>(char * const &, char * &)
 .gnu.linkonce.t.destroy__Q23stdt9allocator1ZcPc
                0x08070c1c       0x1e mock_database_wrapper.o
                0x08070c1c                std::allocator<char>::destroy(char *)
 *fill*         0x08070c3a        0x2 37008
 .gnu.linkonce.t._Destroy_range__H2ZcZQ23stdt9allocator1Zc_3stdPX01T1RX11GQ23std27_Nonscalar_ptr_iterator_tag_v
                0x08070c3c       0x3c mock_database_wrapper.o
                0x08070c3c                void std::_Destroy_range<char, std::allocator<char> >(char *, char *, std::allocator<char> &, std::_Nonscalar_ptr_iterator_tag)
 .gnu.linkonce.t._Destroy_range__H2ZcZQ23stdt9allocator1Zc_3stdPX01T1RX11_v
                0x08070c78       0x46 mock_database_wrapper.o
                0x08070c78                void std::_Destroy_range<char, std::allocator<char> >(char *, char *, std::allocator<char> &)
 *fill*         0x08070cbe        0x2 37008
 .gnu.linkonce.t._Destroy__Q23stdt6vector2ZcZQ23stdt9allocator1ZcPcT1
                0x08070cc0       0x23 mock_database_wrapper.o
                0x08070cc0                std::vector<char, std::allocator<char> >::_Destroy(char *, char *)
 *fill*         0x08070ce3        0x1 37008
 .gnu.linkonce.t._._Q23stdt6vector2ZcZQ23stdt9allocator1Zc
                0x08070ce4       0x71 mock_database_wrapper.o
                0x08070ce4                std::vector<char, std::allocator<char> >::~vector(void)
 *fill*         0x08070d55        0x3 37008
 .gnu.linkonce.t.__Q23stdt11_Vector_val2ZcZQ23stdt9allocator1ZcGQ23stdt9allocator1Zc
                0x08070d58       0x26 mock_database_wrapper.o
                0x08070d58                std::_Vector_val<char, std::allocator<char> >::_Vector_val(std::allocator<char>)
 *fill*         0x08070d7e        0x2 37008
 .gnu.linkonce.t.max_size__CQ23stdt6vector2ZcZQ23stdt9allocator1Zc
                0x08070d80       0x21 mock_database_wrapper.o
                0x08070d80                std::vector<char, std::allocator<char> >::max_size(void) const
 *fill*         0x08070da1        0x3 37008
 .gnu.linkonce.t._Xlen__CQ23stdt6vector2ZcZQ23stdt9allocator1Zc
                0x08070da4      0x110 mock_database_wrapper.o
                0x08070da4                std::vector<char, std::allocator<char> >::_Xlen(void) const
 .gnu.linkonce.t._Buy__Q23stdt6vector2ZcZQ23stdt9allocator1ZcUi
                0x08070eb4       0x85 mock_database_wrapper.o
                0x08070eb4                std::vector<char, std::allocator<char> >::_Buy(unsigned int)
 *fill*         0x08070f39        0x3 37008
 .gnu.linkonce.t._Construct__H2ZcZc_3stdPX01RCX11_v
                0x08070f3c       0xc4 mock_database_wrapper.o
                0x08070f3c                void std::_Construct<char, char>(char *, char const &)
 .gnu.linkonce.t.construct__Q23stdt9allocator1ZcPcRCc
                0x08071000       0x22 mock_database_wrapper.o
                0x08071000                std::allocator<char>::construct(char *, char const &)
 *fill*         0x08071022        0x2 37008
 .gnu.linkonce.t._Uninit_fill_n__H4ZPcZUiZcZQ23stdt9allocator1Zc_3stdX01X11RCX21RX31GQ23std27_Nonscalar_ptr_iterator_tag_v
                0x08071024       0xc4 mock_database_wrapper.o
                0x08071024                void std::_Uninit_fill_n<char *, unsigned int, char, std::allocator<char> >(char *, unsigned int, char const &, std::allocator<char> &, std::_Nonscalar_ptr_iterator_tag)
 .gnu.linkonce.t._Uninitialized_fill_n__H4ZPcZUiZcZQ23stdt9allocator1Zc_3stdX01X11RCX21RX31_v
                0x080710e8       0x4f mock_database_wrapper.o
                0x080710e8                void std::_Uninitialized_fill_n<char *, unsigned int, char, std::allocator<char> >(char *, unsigned int, char const &, std::allocator<char> &)
 *fill*         0x08071137        0x1 37008
 .gnu.linkonce.t._Ufill__Q23stdt6vector2ZcZQ23stdt9allocator1ZcPcUiRCc
                0x08071138       0x31 mock_database_wrapper.o
                0x08071138                std::vector<char, std::allocator<char> >::_Ufill(char *, unsigned int, char const &)
 *fill*         0x08071169        0x3 37008
 .gnu.linkonce.t.__Q23stdt6vector2ZcZQ23stdt9allocator1ZcUi
                0x0807116c       0x68 mock_database_wrapper.o
                0x0807116c                std::vector<char, std::allocator<char> >::vector(unsigned int)
 .gnu.linkonce.t.begin__Q23stdt6vector2ZcZQ23stdt9allocator1Zc
                0x080711d4       0x2d mock_database_wrapper.o
                0x080711d4                std::vector<char, std::allocator<char> >::begin(void)
 *fill*         0x08071201        0x3 37008
 .gnu.linkonce.t.__pl__CQ23stdt6_Ptrit6ZcZiZPcZRcZPcZRci
                0x08071204       0x32 mock_database_wrapper.o
                0x08071204                std::_Ptrit<char, int, char *, char &, char *, char &>::operator+(int) const
 *fill*         0x08071236        0x2 37008
 .gnu.linkonce.t.__ml__CQ23stdt6_Ptrit6ZcZiZPcZRcZPcZRc
                0x08071238        0xf mock_database_wrapper.o
                0x08071238                std::_Ptrit<char, int, char *, char &, char *, char &>::operator*(void) const
 *fill*         0x08071247        0x1 37008
 .gnu.linkonce.t.__vc__Q23stdt6vector2ZcZQ23stdt9allocator1ZcUi
                0x08071248       0x4e mock_database_wrapper.o
                0x08071248                std::vector<char, std::allocator<char> >::operator[](unsigned int)
 *fill*         0x08071296        0x2 37008
 .gnu.linkonce.t.size__CQ23stdt6vector2ZcZQ23stdt9allocator1Zc
                0x08071298       0x20 mock_database_wrapper.o
                0x08071298                std::vector<char, std::allocator<char> >::size(void) const
 .gnu.linkonce.t.bytes_of_type__H1Zi_X01_Q23stdt6vector2ZUcZQ23stdt9allocator1ZUc
                0x080712b8       0xeb mock_database_wrapper.o
                0x080712b8                std::vector<unsigned char, std::allocator<unsigned char> > bytes_of_type<int>(int)
 *fill*         0x080713a3        0x1 37008
 .gnu.linkonce.t.rbegin__Q23stdt6vector2ZUcZQ23stdt9allocator1ZUc
                0x080713a4       0x3d mock_database_wrapper.o
                0x080713a4                std::vector<unsigned char, std::allocator<unsigned char> >::rbegin(void)
 *fill*         0x080713e1        0x3 37008
 .gnu.linkonce.t.bytes_of_type__H1ZUs_X01_Q23stdt6vector2ZUcZQ23stdt9allocator1ZUc
                0x080713e4       0xfc mock_database_wrapper.o
                0x080713e4                std::vector<unsigned char, std::allocator<unsigned char> > bytes_of_type<unsigned short>(unsigned short)
 .gnu.linkonce.t._Destroy__H1Zc_3stdPX01_v
                0x080714e0        0x8 mock_database_wrapper.o
                0x080714e0                void std::_Destroy<char>(char *)
 .gnu.linkonce.t.empty__CQ23stdt12basic_string3ZcZQ23stdt11char_traits1ZcZQ23stdt9allocator1Zc
                0x080714e8       0x16 main.o
                0x080714e8                std::basic_string<char, std::char_traits<char>, std::allocator<char> >::empty(void) const
 *fill*         0x080714fe        0x2 37008
 .gnu.linkonce.t.__vc__CQ23stdt12basic_string3ZcZQ23stdt11char_traits1ZcZQ23stdt9allocator1ZcUi
                0x08071500       0x26 main.o
                0x08071500                std::basic_string<char, std::char_traits<char>, std::allocator<char> >::operator[](unsigned int) const
 *fill*         0x08071526        0x2 37008
 .gnu.linkonce.t.widen__CQ23stdt9basic_ios2ZcZQ23stdt11char_traits1Zcc
                0x08071528       0x9f main.o
                0x08071528                std::basic_ios<char, std::char_traits<char> >::widen(char) const
 *fill*         0x080715c7        0x1 37008
 .gnu.linkonce.t.put__Q23stdt13basic_ostream2ZcZQ23stdt11char_traits1Zcc
                0x080715c8      0x17d main.o
                0x080715c8                std::basic_ostream<char, std::char_traits<char> >::put(char)
 *fill*         0x08071745        0x3 37008
 .gnu.linkonce.t.__ls__Q23stdt13basic_ostream2ZcZQ23stdt11char_traits1ZcPFRQ23stdt13basic_ostream2ZcZQ23stdt11char_traits1Zc_RQ23stdt13basic_ostream2ZcZQ23stdt11char_traits1Zc
                0x08071748       0x24 main.o
                0x08071748                std::basic_ostream<char, std::char_traits<char> >::operator<<(std::basic_ostream<char, std::char_traits<char> > &(*)(std::basic_ostream<char, std::char_traits<char> > &))
 .gnu.linkonce.t.widen__CQ23stdt5ctype1Zcc
                0x0807176c       0x40 main.o
                0x0807176c                std::ctype<char>::widen(char) const
 .gnu.linkonce.t.use_facet__H1ZQ23stdt5ctype1Zc_3stdRCQ23std6locale_RCX01
                0x080717ac      0x18c main.o
                0x080717ac                std::ctype<char> const & std::use_facet<std::ctype<char> >(std::locale const &)
 .gnu.linkonce.t.__ls__H3ZcZQ23stdt11char_traits1ZcZQ23stdt9allocator1Zc_3stdRQ23stdt13basic_ostream2ZX01ZX11RCQ23stdt12basic_string3ZX01ZX11ZX21_RQ23stdt13basic_ostream2ZX01ZX11
                0x08071938      0x347 main.o
                0x08071938                std::basic_ostream<char, std::char_traits<char> > & std::operator<<<char, std::char_traits<char>, std::allocator<char> >(std::basic_ostream<char, std::char_traits<char> > &, std::basic_string<char, std::char_traits<char>, std::allocator<char> > const &)
 *fill*         0x08071c7f        0x1 37008
 .gnu.linkonce.t.endl__H2ZcZQ23stdt11char_traits1Zc_3stdRQ23stdt13basic_ostream2ZX01ZX11_RQ23stdt13basic_ostream2ZX01ZX11
                0x08071c80       0x41 main.o
                0x08071c80                std::basic_ostream<char, std::char_traits<char> > & std::endl<char, std::char_traits<char> >(std::basic_ostream<char, std::char_traits<char> > &)
 *fill*         0x08071cc1        0x3 37008
 .gnu.linkonce.t._Getcat__Q23stdt5ctype1ZcPPCQ33std6locale5facet
                0x08071cc4       0xa0 main.o
                0x08071cc4                std::ctype<char>::_Getcat(std::locale::facet const **)
 .gnu.linkonce.t.__Q23stdt5ctype1ZcPCsbUi
                0x08071d64       0xf4 main.o
                0x08071d64                std::ctype<char>::ctype(short const *, bool, unsigned int)
 .gnu.linkonce.t.__tfQ23stdt5ctype1Zc
                0x08071e58       0x3a main.o
                0x08071e58                std::ctype<char> type_info function
 *fill*         0x08071e92        0x2 37008
 .gnu.linkonce.t.__Q23std10ctype_baseUi
                0x08071e94       0x5d main.o
                0x08071e94                std::ctype_base::ctype_base(unsigned int)
 *fill*         0x08071ef1        0x3 37008
 .gnu.linkonce.t._._Q23std10ctype_base
                0x08071ef4       0x26 main.o
                0x08071ef4                std::ctype_base::~ctype_base(void)
 *fill*         0x08071f1a        0x2 37008
 .gnu.linkonce.t._._Q23stdt5ctype1Zc
                0x08071f1c       0x32 main.o
                0x08071f1c                std::ctype<char>::~ctype(void)
 *fill*         0x08071f4e        0x2 37008
 .gnu.linkonce.t._Init__Q23stdt5ctype1ZcRCQ23std8_Locinfo
                0x08071f50       0x3a main.o
                0x08071f50                std::ctype<char>::_Init(std::_Locinfo const &)
 *fill*         0x08071f8a        0x2 37008
 .gnu.linkonce.t._Tidy__Q23stdt5ctype1Zc
                0x08071f8c       0x49 main.o
                0x08071f8c                std::ctype<char>::_Tidy(void)
 *fill*         0x08071fd5        0x3 37008
 .gnu.linkonce.t.do_tolower__CQ23stdt5ctype1Zcc
                0x08071fd8       0x32 main.o
                0x08071fd8                std::ctype<char>::do_tolower(char) const
 *fill*         0x0807200a        0x2 37008
 .gnu.linkonce.t.do_tolower__CQ23stdt5ctype1ZcPcPCc
                0x0807200c       0x48 main.o
                0x0807200c                std::ctype<char>::do_tolower(char *, char const *) const
 .gnu.linkonce.t.do_toupper__CQ23stdt5ctype1Zcc
                0x08072054       0x32 main.o
                0x08072054                std::ctype<char>::do_toupper(char) const
 *fill*         0x08072086        0x2 37008
 .gnu.linkonce.t.do_toupper__CQ23stdt5ctype1ZcPcPCc
                0x08072088       0x48 main.o
                0x08072088                std::ctype<char>::do_toupper(char *, char const *) const
 .gnu.linkonce.t.do_widen__CQ23stdt5ctype1Zcc
                0x080720d0       0x19 main.o
                0x080720d0                std::ctype<char>::do_widen(char) const
 *fill*         0x080720e9        0x3 37008
 .gnu.linkonce.t.do_widen__CQ23stdt5ctype1ZcPCcT1Pc
                0x080720ec       0x32 main.o
                0x080720ec                std::ctype<char>::do_widen(char const *, char const *, char *) const
 *fill*         0x0807211e        0x2 37008
 .gnu.linkonce.t.do_narrow__CQ23stdt5ctype1Zccc
                0x08072120       0x1f main.o
                0x08072120                std::ctype<char>::do_narrow(char, char) const
 *fill*         0x0807213f        0x1 37008
 .gnu.linkonce.t.do_narrow__CQ23stdt5ctype1ZcPCcT1cPc
                0x08072140       0x38 main.o
                0x08072140                std::ctype<char>::do_narrow(char const *, char const *, char, char *) const
 .gnu.linkonce.t.__tfQ23std10ctype_base
                0x08072178       0x3a main.o
                0x08072178                std::ctype_base type_info function
 *fill*         0x080721b2        0x2 37008
 .gnu.linkonce.t._Getctype__CQ23std8_Locinfo
                0x080721b4       0x62 main.o
                0x080721b4                std::_Locinfo::_Getctype(void) const
 *fill*         0x08072216        0x2 37008
 .gnu.linkonce.t._Tolower__3stdiPCQ23std9_Ctypevec
                0x08072218       0x24 main.o
                0x08072218                std::_Tolower(int, std::_Ctypevec const *)
 .gnu.linkonce.t._Toupper__3stdiPCQ23std9_Ctypevec
                0x0807223c       0x24 main.o
                0x0807223c                std::_Toupper(int, std::_Ctypevec const *)
 .gnu.linkonce.t.__tfQ23std9exception
                0x08072260       0x2a /x86/lib/libcpp.a(gccex.o)
                0x08072260                std::exception type_info function
 *fill*         0x0807228a        0x2 37008
 .gnu.linkonce.t.__tfQ23std13runtime_error
                0x0807228c       0x34 /x86/lib/libcpp.a(ios.o)
                0x0807228c                std::runtime_error type_info function
 .gnu.linkonce.t._._Q23std13runtime_error
                0x080722c0       0x33 /x86/lib/libcpp.a(ios.o)
                0x080722c0                std::runtime_error::~runtime_error(void)
 *fill*         0x080722f3        0x1 37008
 .gnu.linkonce.t.what__CQ23std13runtime_error
                0x080722f4       0x5d /x86/lib/libcpp.a(ios.o)
                0x080722f4                std::runtime_error::what(void) const
 *fill*         0x08072351        0x3 37008
 .gnu.linkonce.t._Doraise__CQ23std13runtime_error
                0x08072354       0x85 /x86/lib/libcpp.a(ios.o)
                0x08072354                std::runtime_error::_Doraise(void) const
 *fill*         0x080723d9        0x3 37008
 .gnu.linkonce.t.__Q23std6localeRCQ23std6locale
                0x080723dc       0x65 /x86/lib/libcpp.a(ios.o)
                0x080723dc                std::locale::locale(std::locale const &)
 *fill*         0x08072441        0x3 37008
 .gnu.linkonce.t.__as__Q23std6localeRCQ23std6locale
                0x08072444       0x9b /x86/lib/libcpp.a(ios.o)
                0x08072444                std::locale::operator=(std::locale const &)
 *fill*         0x080724df        0x1 37008
 .gnu.linkonce.t.__tfQ33std8ios_base7failure
                0x080724e0       0x55 /x86/lib/libcpp.a(ios.o)
                0x080724e0                std::ios_base::failure type_info function
 *fill*         0x08072535        0x3 37008
 .gnu.linkonce.t.__tfQ23std8ios_base
                0x08072538       0x34 /x86/lib/libcpp.a(ios.o)
                0x08072538                std::ios_base type_info function
 .gnu.linkonce.t.__Q33std8ios_base7failureRCQ23stdt12basic_string3ZcZQ23stdt11char_traits1ZcZQ23stdt9allocator1Zc
                0x0807256c       0x23 /x86/lib/libcpp.a(ios.o)
                0x0807256c                std::ios_base::failure::failure(std::basic_string<char, std::char_traits<char>, std::allocator<char> > const &)
 *fill*         0x0807258f        0x1 37008
 .gnu.linkonce.t._._Q33std8ios_base7failure
                0x08072590       0x1e /x86/lib/libcpp.a(ios.o)
                0x08072590                std::ios_base::failure::~failure(void)
 *fill*         0x080725ae        0x2 37008
 .gnu.linkonce.t._Doraise__CQ33std8ios_base7failure
                0x080725b0       0x89 /x86/lib/libcpp.a(ios.o)
                0x080725b0                std::ios_base::failure::_Doraise(void) const
 *fill*         0x08072639        0x3 37008
 .gnu.linkonce.t.__as__Q23std8ios_baseRCQ23std8ios_base
                0x0807263c       0x28 /x86/lib/libcpp.a(ios.o)
                0x0807263c                std::ios_base::operator=(std::ios_base const &)
 .gnu.linkonce.t.__opPv__CQ23std8ios_base
                0x08072664       0x22 /x86/lib/libcpp.a(ios.o)
                0x08072664                std::ios_base::operator void *(void) const
 *fill*         0x08072686        0x2 37008
 .gnu.linkonce.t.__nt__CQ23std8ios_base
                0x08072688       0x13 /x86/lib/libcpp.a(ios.o)
                0x08072688                std::ios_base::operator!(void) const
 *fill*         0x0807269b        0x1 37008
 .gnu.linkonce.t.clear__Q23std8ios_baseQ33stdt5_Iosb1Zi8_Iostate
                0x0807269c       0x18 /x86/lib/libcpp.a(ios.o)
                0x0807269c                std::ios_base::clear(std::_Iosb<int>::_Iostate)
 .gnu.linkonce.t.clear__Q23std8ios_baseUi
                0x080726b4       0x16 /x86/lib/libcpp.a(ios.o)
                0x080726b4                std::ios_base::clear(unsigned int)
 *fill*         0x080726ca        0x2 37008
 .gnu.linkonce.t.rdstate__CQ23std8ios_base
                0x080726cc        0xb /x86/lib/libcpp.a(ios.o)
                0x080726cc                std::ios_base::rdstate(void) const
 *fill*         0x080726d7        0x1 37008
 .gnu.linkonce.t.setstate__Q23std8ios_baseQ33stdt5_Iosb1Zi8_Iostateb
                0x080726d8       0x34 /x86/lib/libcpp.a(ios.o)
                0x080726d8                std::ios_base::setstate(std::_Iosb<int>::_Iostate, bool)
 .gnu.linkonce.t.setstate__Q23std8ios_baseQ33stdt5_Iosb1Zi8_Iostate
                0x0807270c       0x33 /x86/lib/libcpp.a(ios.o)
                0x0807270c                std::ios_base::setstate(std::_Iosb<int>::_Iostate)
 *fill*         0x0807273f        0x1 37008
 .gnu.linkonce.t.setstate__Q23std8ios_baseUi
                0x08072740       0x16 /x86/lib/libcpp.a(ios.o)
                0x08072740                std::ios_base::setstate(unsigned int)
 *fill*         0x08072756        0x2 37008
 .gnu.linkonce.t.good__CQ23std8ios_base
                0x08072758       0x1d /x86/lib/libcpp.a(ios.o)
                0x08072758                std::ios_base::good(void) const
 *fill*         0x08072775        0x3 37008
 .gnu.linkonce.t.eof__CQ23std8ios_base
                0x08072778       0x16 /x86/lib/libcpp.a(ios.o)
                0x08072778                std::ios_base::eof(void) const
 *fill*         0x0807278e        0x2 37008
 .gnu.linkonce.t.fail__CQ23std8ios_base
                0x08072790       0x1d /x86/lib/libcpp.a(ios.o)
                0x08072790                std::ios_base::fail(void) const
 *fill*         0x080727ad        0x3 37008
 .gnu.linkonce.t.bad__CQ23std8ios_base
                0x080727b0       0x19 /x86/lib/libcpp.a(ios.o)
                0x080727b0                std::ios_base::bad(void) const
 *fill*         0x080727c9        0x3 37008
 .gnu.linkonce.t.exceptions__CQ23std8ios_base
                0x080727cc        0xb /x86/lib/libcpp.a(ios.o)
                0x080727cc                std::ios_base::exceptions(void) const
 *fill*         0x080727d7        0x1 37008
 .gnu.linkonce.t.exceptions__Q23std8ios_baseQ33stdt5_Iosb1Zi8_Iostate
                0x080727d8       0x20 /x86/lib/libcpp.a(ios.o)
                0x080727d8                std::ios_base::exceptions(std::_Iosb<int>::_Iostate)
 .gnu.linkonce.t.exceptions__Q23std8ios_baseUi
                0x080727f8       0x16 /x86/lib/libcpp.a(ios.o)
                0x080727f8                std::ios_base::exceptions(unsigned int)
 *fill*         0x0807280e        0x2 37008
 .gnu.linkonce.t.flags__CQ23std8ios_base
                0x08072810        0xb /x86/lib/libcpp.a(ios.o)
                0x08072810                std::ios_base::flags(void) const
 *fill*         0x0807281b        0x1 37008
 .gnu.linkonce.t.flags__Q23std8ios_baseQ33stdt5_Iosb1Zi9_Fmtflags
                0x0807281c       0x19 /x86/lib/libcpp.a(ios.o)
                0x0807281c                std::ios_base::flags(std::_Iosb<int>::_Fmtflags)
 *fill*         0x08072835        0x3 37008
 .gnu.linkonce.t.setf__Q23std8ios_baseQ33stdt5_Iosb1Zi9_Fmtflags
                0x08072838       0x1a /x86/lib/libcpp.a(ios.o)
                0x08072838                std::ios_base::setf(std::_Iosb<int>::_Fmtflags)
 *fill*         0x08072852        0x2 37008
 .gnu.linkonce.t.setf__Q23std8ios_baseQ33stdt5_Iosb1Zi9_FmtflagsT1
                0x08072854       0x26 /x86/lib/libcpp.a(ios.o)
                0x08072854                std::ios_base::setf(std::_Iosb<int>::_Fmtflags, std::_Iosb<int>::_Fmtflags)
 *fill*         0x0807287a        0x2 37008
 .gnu.linkonce.t.unsetf__Q23std8ios_baseQ33stdt5_Iosb1Zi9_Fmtflags
                0x0807287c       0x10 /x86/lib/libcpp.a(ios.o)
                0x0807287c                std::ios_base::unsetf(std::_Iosb<int>::_Fmtflags)
 .gnu.linkonce.t.precision__CQ23std8ios_base
                0x0807288c        0xb /x86/lib/libcpp.a(ios.o)
                0x0807288c                std::ios_base::precision(void) const
 *fill*         0x08072897        0x1 37008
 .gnu.linkonce.t.precision__Q23std8ios_basei
                0x08072898       0x13 /x86/lib/libcpp.a(ios.o)
                0x08072898                std::ios_base::precision(int)
 *fill*         0x080728ab        0x1 37008
 .gnu.linkonce.t.width__CQ23std8ios_base
                0x080728ac        0xb /x86/lib/libcpp.a(ios.o)
                0x080728ac                std::ios_base::width(void) const
 *fill*         0x080728b7        0x1 37008
 .gnu.linkonce.t.width__Q23std8ios_basei
                0x080728b8       0x13 /x86/lib/libcpp.a(ios.o)
                0x080728b8                std::ios_base::width(int)
 *fill*         0x080728cb        0x1 37008
 .gnu.linkonce.t.getloc__CQ23std8ios_base
                0x080728cc       0x22 /x86/lib/libcpp.a(ios.o)
                0x080728cc                std::ios_base::getloc(void) const
 *fill*         0x080728ee        0x2 37008
 .gnu.linkonce.t.xalloc__Q23std8ios_base
                0x080728f0       0x5f /x86/lib/libcpp.a(ios.o)
                0x080728f0                std::ios_base::xalloc(void)
 *fill*         0x0807294f        0x1 37008
 .gnu.linkonce.t.iword__Q23std8ios_basei
                0x08072950       0x19 /x86/lib/libcpp.a(ios.o)
                0x08072950                std::ios_base::iword(int)
 *fill*         0x08072969        0x3 37008
 .gnu.linkonce.t.pword__Q23std8ios_basei
                0x0807296c       0x19 /x86/lib/libcpp.a(ios.o)
                0x0807296c                std::ios_base::pword(int)
 *fill*         0x08072985        0x3 37008
 .gnu.linkonce.t.sync_with_stdio__Q23std8ios_baseb
                0x08072988       0x64 /x86/lib/libcpp.a(ios.o)
                0x08072988                std::ios_base::sync_with_stdio(bool)
 .gnu.linkonce.t.__Q23std8ios_base
                0x080729ec       0x16 /x86/lib/libcpp.a(ios.o)
                0x080729ec                std::ios_base::ios_base(void)
 *fill*         0x08072a02        0x2 37008
 .gnu.linkonce.t.__Q33std8ios_base9_IosarrayiPQ33std8ios_base9_Iosarray
                0x08072a04       0x23 /x86/lib/libcpp.a(ios.o)
                0x08072a04                std::ios_base::_Iosarray::_Iosarray(int, std::ios_base::_Iosarray *)
 *fill*         0x08072a27        0x1 37008
 .gnu.linkonce.t.__Q33std8ios_base8_FnarrayiPFQ33std8ios_base5eventRQ23std8ios_basei_vPQ33std8ios_base8_Fnarray
                0x08072a28       0x1d /x86/lib/libcpp.a(ios.o)
                0x08072a28                std::ios_base::_Fnarray::_Fnarray(int, void (*)(std::ios_base::event, std::ios_base &, int), std::ios_base::_Fnarray *)
 *fill*         0x08072a45        0x3 37008
 .gnu.linkonce.t.__Q23std13runtime_errorRCQ23stdt12basic_string3ZcZQ23stdt11char_traits1ZcZQ23stdt9allocator1Zc
                0x08072a48       0x57 /x86/lib/libcpp.a(ios.o)
                0x08072a48                std::runtime_error::runtime_error(std::basic_string<char, std::char_traits<char>, std::allocator<char> > const &)
 *fill*         0x08072a9f        0x1 37008
 .gnu.linkonce.t.__tfQ23stdt5_Iosb1Zi
                0x08072aa0       0x2a /x86/lib/libcpp.a(ios.o)
                0x08072aa0                std::_Iosb<int> type_info function
 *fill*         0x08072aca        0x2 37008
 .gnu.linkonce.t._Init__Q23stdt15basic_streambuf2ZcZQ23stdt11char_traits1ZcPPcN51
                0x08072acc       0x32 /x86/lib/libcpp.a(iostream.o)
                0x08072acc                std::basic_streambuf<char, std::char_traits<char> >::_Init(char **, char **, char **, char **, char **, char **)
 *fill*         0x08072afe        0x2 37008
 .gnu.linkonce.t._Init__Q23stdt13basic_filebuf2ZcZQ23stdt11char_traits1ZcP6_FiletQ33stdt13basic_filebuf2ZcZQ23stdt11char_traits1Zc7_Initfl
                0x08072b00       0x80 /x86/lib/libcpp.a(iostream.o)
                0x08072b00                std::basic_filebuf<char, std::char_traits<char> >::_Init(_Filet *, std::basic_filebuf<char, std::char_traits<char> >::_Initfl)
 .gnu.linkonce.t.__Q23stdt13basic_filebuf2ZcZQ23stdt11char_traits1ZcP6_Filet
                0x08072b80       0x85 /x86/lib/libcpp.a(iostream.o)
                0x08072b80                std::basic_filebuf<char, std::char_traits<char> >::basic_filebuf(_Filet *)
 *fill*         0x08072c05        0x3 37008
 .gnu.linkonce.t.__Q23stdt13basic_istream2ZcZQ23stdt11char_traits1ZciPQ23stdt15basic_streambuf2ZcZQ23stdt11char_traits1ZcbT3
                0x08072c08       0xb4 /x86/lib/libcpp.a(iostream.o)
                0x08072c08                std::basic_istream<char, std::char_traits<char> >::basic_istream(int, std::basic_streambuf<char, std::char_traits<char> > *, bool, bool)
 .gnu.linkonce.t.tie__Q23stdt9basic_ios2ZcZQ23stdt11char_traits1ZcPQ23stdt13basic_ostream2ZcZQ23stdt11char_traits1Zc
                0x08072cbc       0x13 /x86/lib/libcpp.a(iostream.o)
                0x08072cbc                std::basic_ios<char, std::char_traits<char> >::tie(std::basic_ostream<char, std::char_traits<char> > *)
 *fill*         0x08072ccf        0x1 37008
 .gnu.linkonce.t._._Q23stdt13basic_istream2ZcZQ23stdt11char_traits1Zc
                0x08072cd0       0x78 /x86/lib/libcpp.a(iostream.o)
                0x08072cd0                std::basic_istream<char, std::char_traits<char> >::~basic_istream(void)
 .gnu.linkonce.t.assign__Q23stdt12basic_string3ZcZQ23stdt11char_traits1ZcZQ23stdt9allocator1ZcUic
                0x08072d48       0x66 /x86/lib/libcpp.a(iostream.o)
                0x08072d48                std::basic_string<char, std::char_traits<char>, std::allocator<char> >::assign(unsigned int, char)
 *fill*         0x08072dae        0x2 37008
 .gnu.linkonce.t.__Q23stdt12basic_string3ZcZQ23stdt11char_traits1ZcZQ23stdt9allocator1ZcUic
                0x08072db0       0x52 /x86/lib/libcpp.a(iostream.o)
                0x08072db0                std::basic_string<char, std::char_traits<char>, std::allocator<char> >::basic_string(unsigned int, char)
 *fill*         0x08072e02        0x2 37008
 .gnu.linkonce.t.do_out__CQ23stdt7codecvt3ZcZcZ9_MbstatetR9_MbstatetPCcT2RPCcPcT5RPc
                0x08072e04       0x1c /x86/lib/libcpp.a(iostream.o)
                0x08072e04                std::codecvt<char, char, _Mbstatet>::do_out(_Mbstatet &, char const *, char const *, char const *&, char *, char *, char *&) const
 .gnu.linkonce.t.out__CQ23stdt7codecvt3ZcZcZ9_MbstatetR9_MbstatetPCcT2RPCcPcT5RPc
                0x08072e20       0x2f /x86/lib/libcpp.a(iostream.o)
                0x08072e20                std::codecvt<char, char, _Mbstatet>::out(_Mbstatet &, char const *, char const *, char const *&, char *, char *, char *&) const
 *fill*         0x08072e4f        0x1 37008
 .gnu.linkonce.t.append__Q23stdt12basic_string3ZcZQ23stdt11char_traits1ZcZQ23stdt9allocator1ZcUic
                0x08072e50       0x78 /x86/lib/libcpp.a(iostream.o)
                0x08072e50                std::basic_string<char, std::char_traits<char>, std::allocator<char> >::append(unsigned int, char)
 .gnu.linkonce.t.overflow__Q23stdt13basic_filebuf2ZcZQ23stdt11char_traits1Zci
                0x08072ec8      0x2d8 /x86/lib/libcpp.a(iostream.o)
                0x08072ec8                std::basic_filebuf<char, std::char_traits<char> >::overflow(int)
 .gnu.linkonce.t.do_unshift__CQ23stdt7codecvt3ZcZcZ9_MbstatetR9_MbstatetPcT2RPc
                0x080731a0        0xa /x86/lib/libcpp.a(iostream.o)
                0x080731a0                std::codecvt<char, char, _Mbstatet>::do_unshift(_Mbstatet &, char *, char *, char *&) const
 *fill*         0x080731aa        0x2 37008
 .gnu.linkonce.t.unshift__CQ23stdt7codecvt3ZcZcZ9_MbstatetR9_MbstatetPcT2RPc
                0x080731ac       0x29 /x86/lib/libcpp.a(iostream.o)
                0x080731ac                std::codecvt<char, char, _Mbstatet>::unshift(_Mbstatet &, char *, char *, char *&) const
 *fill*         0x080731d5        0x3 37008
 .gnu.linkonce.t._Endwrite__Q23stdt13basic_filebuf2ZcZQ23stdt11char_traits1Zc
                0x080731d8      0x1c1 /x86/lib/libcpp.a(iostream.o)
                0x080731d8                std::basic_filebuf<char, std::char_traits<char> >::_Endwrite(void)
 *fill*         0x08073399        0x3 37008
 .gnu.linkonce.t.close__Q23stdt13basic_filebuf2ZcZQ23stdt11char_traits1Zc
                0x0807339c       0x4b /x86/lib/libcpp.a(iostream.o)
                0x0807339c                std::basic_filebuf<char, std::char_traits<char> >::close(void)
 *fill*         0x080733e7        0x1 37008
 .gnu.linkonce.t._._Q23stdt13basic_filebuf2ZcZQ23stdt11char_traits1Zc
                0x080733e8       0x57 /x86/lib/libcpp.a(iostream.o)
                0x080733e8                std::basic_filebuf<char, std::char_traits<char> >::~basic_filebuf(void)
 *fill*         0x0807343f        0x1 37008
 .gnu.linkonce.t._Gndec__Q23stdt15basic_streambuf2ZcZQ23stdt11char_traits1Zc
                0x08073440        0xf /x86/lib/libcpp.a(iostream.o)
                0x08073440                std::basic_streambuf<char, std::char_traits<char> >::_Gndec(void)
 *fill*         0x0807344f        0x1 37008
 .gnu.linkonce.t.pbackfail__Q23stdt13basic_filebuf2ZcZQ23stdt11char_traits1Zci
                0x08073450      0x129 /x86/lib/libcpp.a(iostream.o)
                0x08073450                std::basic_filebuf<char, std::char_traits<char> >::pbackfail(int)
 *fill*         0x08073579        0x3 37008
 .gnu.linkonce.t.do_in__CQ23stdt7codecvt3ZcZcZ9_MbstatetR9_MbstatetPCcT2RPCcPcT5RPc
                0x0807357c       0x1c /x86/lib/libcpp.a(iostream.o)
                0x0807357c                std::codecvt<char, char, _Mbstatet>::do_in(_Mbstatet &, char const *, char const *, char const *&, char *, char *, char *&) const
 .gnu.linkonce.t.in__CQ23stdt7codecvt3ZcZcZ9_MbstatetR9_MbstatetPCcT2RPCcPcT5RPc
                0x08073598       0x2f /x86/lib/libcpp.a(iostream.o)
                0x08073598                std::codecvt<char, char, _Mbstatet>::in(_Mbstatet &, char const *, char const *, char const *&, char *, char *, char *&) const
 *fill*         0x080735c7        0x1 37008
 .gnu.linkonce.t.uflow__Q23stdt13basic_filebuf2ZcZQ23stdt11char_traits1Zc
                0x080735c8      0x1b5 /x86/lib/libcpp.a(iostream.o)
                0x080735c8                std::basic_filebuf<char, std::char_traits<char> >::uflow(void)
 *fill*         0x0807377d        0x3 37008
 .gnu.linkonce.t.underflow__Q23stdt13basic_filebuf2ZcZQ23stdt11char_traits1Zc
                0x08073780       0x9f /x86/lib/libcpp.a(iostream.o)
                0x08073780                std::basic_filebuf<char, std::char_traits<char> >::underflow(void)
 *fill*         0x0807381f        0x1 37008
 .gnu.linkonce.t.__Q23stdt4fpos1Z9_MbstatetG9_MbstatetG6_Fpost
                0x08073820       0x34 /x86/lib/libcpp.a(iostream.o)
                0x08073820                std::fpos<_Mbstatet>::fpos(_Mbstatet, _Fpost)
 .gnu.linkonce.t.seekoff__Q23stdt13basic_filebuf2ZcZQ23stdt11char_traits1ZclQ33stdt5_Iosb1Zi8_SeekdirQ33stdt5_Iosb1Zi9_Openmode
                0x08073854       0xf9 /x86/lib/libcpp.a(iostream.o)
                0x08073854                std::basic_filebuf<char, std::char_traits<char> >::seekoff(long, std::_Iosb<int>::_Seekdir, std::_Iosb<int>::_Openmode)
 *fill*         0x0807394d        0x3 37008
 .gnu.linkonce.t.seekpos__CQ23stdt4fpos1Z9_Mbstatet
                0x08073950       0x26 /x86/lib/libcpp.a(iostream.o)
                0x08073950                std::fpos<_Mbstatet>::seekpos(void) const
 *fill*         0x08073976        0x2 37008
 .gnu.linkonce.t.state__CQ23stdt4fpos1Z9_Mbstatet
                0x08073978       0x1a /x86/lib/libcpp.a(iostream.o)
                0x08073978                std::fpos<_Mbstatet>::state(void) const
 *fill*         0x08073992        0x2 37008
 .gnu.linkonce.t.seekpos__Q23stdt13basic_filebuf2ZcZQ23stdt11char_traits1ZcGQ23stdt4fpos1Z9_MbstatetQ33stdt5_Iosb1Zi9_Openmode
                0x08073994      0x115 /x86/lib/libcpp.a(iostream.o)
                0x08073994                std::basic_filebuf<char, std::char_traits<char> >::seekpos(std::fpos<_Mbstatet>, std::_Iosb<int>::_Openmode)
 *fill*         0x08073aa9        0x3 37008
 .gnu.linkonce.t.setbuf__Q23stdt13basic_filebuf2ZcZQ23stdt11char_traits1ZcPci
                0x08073aac       0x44 /x86/lib/libcpp.a(iostream.o)
                0x08073aac                std::basic_filebuf<char, std::char_traits<char> >::setbuf(char *, int)
 .gnu.linkonce.t.sync__Q23stdt13basic_filebuf2ZcZQ23stdt11char_traits1Zc
                0x08073af0       0x72 /x86/lib/libcpp.a(iostream.o)
                0x08073af0                std::basic_filebuf<char, std::char_traits<char> >::sync(void)
 *fill*         0x08073b62        0x2 37008
 .gnu.linkonce.t.__Q23stdt15basic_streambuf2ZcZQ23stdt11char_traits1ZcQ23std14_Uninitialized
                0x08073b64       0x21 /x86/lib/libcpp.a(iostream.o)
                0x08073b64                std::basic_streambuf<char, std::char_traits<char> >::basic_streambuf(std::_Uninitialized)
 *fill*         0x08073b85        0x3 37008
 .gnu.linkonce.t.__Q23stdt13basic_filebuf2ZcZQ23stdt11char_traits1ZcQ23std14_Uninitialized
                0x08073b88       0x55 /x86/lib/libcpp.a(iostream.o)
                0x08073b88                std::basic_filebuf<char, std::char_traits<char> >::basic_filebuf(std::_Uninitialized)
 *fill*         0x08073bdd        0x3 37008
 .gnu.linkonce.t.__Q23stdt13basic_istream2ZcZQ23stdt11char_traits1ZciQ23std14_Uninitialized
                0x08073be0       0xa0 /x86/lib/libcpp.a(iostream.o)
                0x08073be0                std::basic_istream<char, std::char_traits<char> >::basic_istream(int, std::_Uninitialized)
 .gnu.linkonce.t.__Q23stdt13basic_ostream2ZcZQ23stdt11char_traits1ZciQ23std14_Uninitialized
                0x08073c80       0xa0 /x86/lib/libcpp.a(iostream.o)
                0x08073c80                std::basic_ostream<char, std::char_traits<char> >::basic_ostream(int, std::_Uninitialized)
 .gnu.linkonce.t.assign__Q23stdt11char_traits1ZcPcUic
                0x08073d20       0x1b /x86/lib/libcpp.a(iostream.o)
                0x08073d20                std::char_traits<char>::assign(char *, unsigned int, char)
 *fill*         0x08073d3b        0x1 37008
 .gnu.linkonce.t.__Q23std6localeQ23std14_Uninitialized
                0x08073d3c        0x8 /x86/lib/libcpp.a(iostream.o)
                0x08073d3c                std::locale::locale(std::_Uninitialized)
 .gnu.linkonce.t.__tfQ23stdt13basic_filebuf2ZcZQ23stdt11char_traits1Zc
                0x08073d44       0x55 /x86/lib/libcpp.a(iostream.o)
                0x08073d44                std::basic_filebuf<char, std::char_traits<char> > type_info function
 *fill*         0x08073d99        0x3 37008
 .gnu.linkonce.t.__tfQ23stdt13basic_istream2ZcZQ23stdt11char_traits1Zc
                0x08073d9c       0x54 /x86/lib/libcpp.a(iostream.o)
                0x08073d9c                std::basic_istream<char, std::char_traits<char> > type_info function
 .gnu.linkonce.t.compare__CQ23stdt12basic_string3ZcZQ23stdt11char_traits1ZcZQ23stdt9allocator1ZcUiUiPCcUi
                0x08073df0       0x7d /x86/lib/libcpp.a(locale.o)
                0x08073df0                std::basic_string<char, std::char_traits<char>, std::allocator<char> >::compare(unsigned int, unsigned int, char const *, unsigned int) const
 *fill*         0x08073e6d        0x3 37008
 .gnu.linkonce.t.compare__CQ23stdt12basic_string3ZcZQ23stdt11char_traits1ZcZQ23stdt9allocator1ZcPCc
                0x08073e70       0x2e /x86/lib/libcpp.a(locale.o)
                0x08073e70                std::basic_string<char, std::char_traits<char>, std::allocator<char> >::compare(char const *) const
 *fill*         0x08073e9e        0x2 37008
 .gnu.linkonce.t._Init__Q23stdt7num_get2ZcZQ23stdt19istreambuf_iterator2ZcZQ23stdt11char_traits1ZcRCQ23std8_Locinfo
                0x08073ea0        0x5 /x86/lib/libcpp.a(locale.o)
                0x08073ea0                std::num_get<char, std::istreambuf_iterator<char, std::char_traits<char> > >::_Init(std::_Locinfo const &)
 *fill*         0x08073ea5        0x3 37008
 .gnu.linkonce.t.__Q23stdt7num_get2ZcZQ23stdt19istreambuf_iterator2ZcZQ23stdt11char_traits1ZcUi
                0x08073ea8       0xaa /x86/lib/libcpp.a(locale.o)
                0x08073ea8                std::num_get<char, std::istreambuf_iterator<char, std::char_traits<char> > >::num_get(unsigned int)
 *fill*         0x08073f52        0x2 37008
 .gnu.linkonce.t._Getcat__Q23stdt7num_get2ZcZQ23stdt19istreambuf_iterator2ZcZQ23stdt11char_traits1ZcPPCQ33std6locale5facet
                0x08073f54       0x7c /x86/lib/libcpp.a(locale.o)
                0x08073f54                std::num_get<char, std::istreambuf_iterator<char, std::char_traits<char> > >::_Getcat(std::locale::facet const **)
 .gnu.linkonce.t.__Q23stdt7num_get2ZcZQ23stdt19istreambuf_iterator2ZcZQ23stdt11char_traits1ZcRCQ23std8_LocinfoUi
                0x08073fd0       0x5b /x86/lib/libcpp.a(locale.o)
                0x08073fd0                std::num_get<char, std::istreambuf_iterator<char, std::char_traits<char> > >::num_get(std::_Locinfo const &, unsigned int)
 *fill*         0x0807402b        0x1 37008
 .gnu.linkonce.t._Tidy__Q23stdt8_Tidyfac1ZQ23stdt7num_get2ZcZQ23stdt19istreambuf_iterator2ZcZQ23stdt11char_traits1Zc
                0x0807402c       0x91 /x86/lib/libcpp.a(locale.o)
                0x0807402c                std::_Tidyfac<std::num_get<char, std::istreambuf_iterator<char, std::char_traits<char> > > >::_Tidy(void)
 *fill*         0x080740bd        0x3 37008
 .gnu.linkonce.t._Save__Q23stdt8_Tidyfac1ZQ23stdt7num_get2ZcZQ23stdt19istreambuf_iterator2ZcZQ23stdt11char_traits1ZcPQ23stdt7num_get2ZcZQ23stdt19istreambuf_iterator2ZcZQ23stdt11char_traits1Zc
                0x080740c0       0x2d /x86/lib/libcpp.a(locale.o)
                0x080740c0                std::_Tidyfac<std::num_get<char, std::istreambuf_iterator<char, std::char_traits<char> > > >::_Save(std::num_get<char, std::istreambuf_iterator<char, std::char_traits<char> > > *)
 *fill*         0x080740ed        0x3 37008
 .gnu.linkonce.t.__Q23stdt7num_put2ZcZQ23stdt19ostreambuf_iterator2ZcZQ23stdt11char_traits1ZcRCQ23std8_LocinfoUi
                0x080740f0       0x5b /x86/lib/libcpp.a(locale.o)
                0x080740f0                std::num_put<char, std::ostreambuf_iterator<char, std::char_traits<char> > >::num_put(std::_Locinfo const &, unsigned int)
 *fill*         0x0807414b        0x1 37008
 .gnu.linkonce.t.__Q23stdt8numpunct1ZcRCQ23std8_LocinfoUi
                0x0807414c       0x5b /x86/lib/libcpp.a(locale.o)
                0x0807414c                std::numpunct<char>::numpunct(std::_Locinfo const &, unsigned int)
 *fill*         0x080741a7        0x1 37008
 .gnu.linkonce.t._Init__Q23stdt7codecvt3ZcZcZ9_MbstatetRCQ23std8_Locinfo
                0x080741a8       0x24 /x86/lib/libcpp.a(locale.o)
                0x080741a8                std::codecvt<char, char, _Mbstatet>::_Init(std::_Locinfo const &)
 .gnu.linkonce.t.__Q23stdt7codecvt3ZcZcZ9_MbstatetUi
                0x080741cc       0xaa /x86/lib/libcpp.a(locale.o)
                0x080741cc                std::codecvt<char, char, _Mbstatet>::codecvt(unsigned int)
 *fill*         0x08074276        0x2 37008
 .gnu.linkonce.t._Getcat__Q23stdt7codecvt3ZcZcZ9_MbstatetPPCQ33std6locale5facet
                0x08074278       0x7c /x86/lib/libcpp.a(locale.o)
                0x08074278                std::codecvt<char, char, _Mbstatet>::_Getcat(std::locale::facet const **)
 .gnu.linkonce.t.__Q23stdt7codecvt3ZcZcZ9_MbstatetRCQ23std8_LocinfoUi
                0x080742f4       0x5b /x86/lib/libcpp.a(locale.o)
                0x080742f4                std::codecvt<char, char, _Mbstatet>::codecvt(std::_Locinfo const &, unsigned int)
 *fill*         0x0807434f        0x1 37008
 .gnu.linkonce.t._Tidy__Q23stdt8_Tidyfac1ZQ23stdt7codecvt3ZcZcZ9_Mbstatet
                0x08074350       0x91 /x86/lib/libcpp.a(locale.o)
                0x08074350                std::_Tidyfac<std::codecvt<char, char, _Mbstatet> >::_Tidy(void)
 *fill*         0x080743e1        0x3 37008
 .gnu.linkonce.t._Save__Q23stdt8_Tidyfac1ZQ23stdt7codecvt3ZcZcZ9_MbstatetPQ23stdt7codecvt3ZcZcZ9_Mbstatet
                0x080743e4       0x2d /x86/lib/libcpp.a(locale.o)
                0x080743e4                std::_Tidyfac<std::codecvt<char, char, _Mbstatet> >::_Save(std::codecvt<char, char, _Mbstatet> *)
 *fill*         0x08074411        0x3 37008
 .gnu.linkonce.t.assign__Q23stdt12basic_string3ZcZQ23stdt11char_traits1ZcZQ23stdt9allocator1ZcRCQ23stdt12basic_string3ZcZQ23stdt11char_traits1ZcZQ23stdt9allocator1Zc
                0x08074414       0x17 /x86/lib/libcpp.a(locale.o)
                0x08074414                std::basic_string<char, std::char_traits<char>, std::allocator<char> >::assign(std::basic_string<char, std::char_traits<char>, std::allocator<char> > const &)
 *fill*         0x0807442b        0x1 37008
 .gnu.linkonce.t.__as__Q23stdt12basic_string3ZcZQ23stdt11char_traits1ZcZQ23stdt9allocator1ZcRCQ23stdt12basic_string3ZcZQ23stdt11char_traits1ZcZQ23stdt9allocator1Zc
                0x0807442c       0x16 /x86/lib/libcpp.a(locale.o)
                0x0807442c                std::basic_string<char, std::char_traits<char>, std::allocator<char> >::operator=(std::basic_string<char, std::char_traits<char>, std::allocator<char> > const &)
 *fill*         0x08074442        0x2 37008
 .gnu.linkonce.t._._Q23stdt7codecvt3ZcZcZ9_Mbstatet
                0x08074444       0x1f /x86/lib/libcpp.a(locale.o)
                0x08074444                std::codecvt<char, char, _Mbstatet>::~codecvt(void)
 *fill*         0x08074463        0x1 37008
 .gnu.linkonce.t.do_length__CQ23stdt7codecvt3ZcZcZ9_MbstatetRC9_MbstatetPCcT2Ui
                0x08074464       0x14 /x86/lib/libcpp.a(locale.o)
                0x08074464                std::codecvt<char, char, _Mbstatet>::do_length(_Mbstatet const &, char const *, char const *, unsigned int) const
 .gnu.linkonce.t._._Q23stdt7num_get2ZcZQ23stdt19istreambuf_iterator2ZcZQ23stdt11char_traits1Zc
                0x08074478       0x1f /x86/lib/libcpp.a(locale.o)
                0x08074478                std::num_get<char, std::istreambuf_iterator<char, std::char_traits<char> > >::~num_get(void)
 *fill*         0x08074497        0x1 37008
 .gnu.linkonce.t.__apl__Q23stdt12basic_string3ZcZQ23stdt11char_traits1ZcZQ23stdt9allocator1Zcc
                0x08074498       0x1a /x86/lib/libcpp.a(locale.o)
                0x08074498                std::basic_string<char, std::char_traits<char>, std::allocator<char> >::operator+=(char)
 *fill*         0x080744b2        0x2 37008
 .gnu.linkonce.t.sbumpc__Q23stdt15basic_streambuf2ZcZQ23stdt11char_traits1Zc
                0x080744b4       0x65 /x86/lib/libcpp.a(locale.o)
                0x080744b4                std::basic_streambuf<char, std::char_traits<char> >::sbumpc(void)
 *fill*         0x08074519        0x3 37008
 .gnu.linkonce.t._Inc__Q23stdt19istreambuf_iterator2ZcZQ23stdt11char_traits1Zc
                0x0807451c       0x58 /x86/lib/libcpp.a(locale.o)
                0x0807451c                std::istreambuf_iterator<char, std::char_traits<char> >::_Inc(void)
 .gnu.linkonce.t.__pp__Q23stdt19istreambuf_iterator2ZcZQ23stdt11char_traits1Zc
                0x08074574       0x1a /x86/lib/libcpp.a(locale.o)
                0x08074574                std::istreambuf_iterator<char, std::char_traits<char> >::operator++(void)
 *fill*         0x0807458e        0x2 37008
 .gnu.linkonce.t.__vc__Q23stdt12basic_string3ZcZQ23stdt11char_traits1ZcZQ23stdt9allocator1ZcUi
                0x08074590       0x1c /x86/lib/libcpp.a(locale.o)
                0x08074590                std::basic_string<char, std::char_traits<char>, std::allocator<char> >::operator[](unsigned int)
 .gnu.linkonce.t.sgetc__Q23stdt15basic_streambuf2ZcZQ23stdt11char_traits1Zc
                0x080745ac       0x65 /x86/lib/libcpp.a(locale.o)
                0x080745ac                std::basic_streambuf<char, std::char_traits<char> >::sgetc(void)
 *fill*         0x08074611        0x3 37008
 .gnu.linkonce.t._Peek__Q23stdt19istreambuf_iterator2ZcZQ23stdt11char_traits1Zc
                0x08074614       0x66 /x86/lib/libcpp.a(locale.o)
                0x08074614                std::istreambuf_iterator<char, std::char_traits<char> >::_Peek(void)
 *fill*         0x0807467a        0x2 37008
 .gnu.linkonce.t.__ml__CQ23stdt19istreambuf_iterator2ZcZQ23stdt11char_traits1Zc
                0x0807467c       0x21 /x86/lib/libcpp.a(locale.o)
                0x0807467c                std::istreambuf_iterator<char, std::char_traits<char> >::operator*(void) const
 *fill*         0x0807469d        0x3 37008
 .gnu.linkonce.t.equal__CQ23stdt19istreambuf_iterator2ZcZQ23stdt11char_traits1ZcRCQ23stdt19istreambuf_iterator2ZcZQ23stdt11char_traits1Zc
                0x080746a0       0x52 /x86/lib/libcpp.a(locale.o)
                0x080746a0                std::istreambuf_iterator<char, std::char_traits<char> >::equal(std::istreambuf_iterator<char, std::char_traits<char> > const &) const
 *fill*         0x080746f2        0x2 37008
 .gnu.linkonce.t._Getifld__Q23stdt7num_get2ZcZQ23stdt19istreambuf_iterator2ZcZQ23stdt11char_traits1ZcPcRQ23stdt19istreambuf_iterator2ZcZQ23stdt11char_traits1ZcT2Q33stdt5_Iosb1Zi9_FmtflagsRCQ23std6locale
                0x080746f4      0x3d4 /x86/lib/libcpp.a(locale.o)
                0x080746f4                std::num_get<char, std::istreambuf_iterator<char, std::char_traits<char> > >::_Getifld(char *, std::istreambuf_iterator<char, std::char_traits<char> > &, std::istreambuf_iterator<char, std::char_traits<char> > &, std::_Iosb<int>::_Fmtflags, std::locale const &)
 .gnu.linkonce.t.do_get__CQ23stdt7num_get2ZcZQ23stdt19istreambuf_iterator2ZcZQ23stdt11char_traits1ZcGQ23stdt19istreambuf_iterator2ZcZQ23stdt11char_traits1ZcT1RQ23std8ios_baseRQ33stdt5_Iosb1Zi8_IostateRb
                0x08074ac8      0x451 /x86/lib/libcpp.a(locale.o)
                0x08074ac8                std::num_get<char, std::istreambuf_iterator<char, std::char_traits<char> > >::do_get(std::istreambuf_iterator<char, std::char_traits<char> >, std::istreambuf_iterator<char, std::char_traits<char> >, std::ios_base &, std::_Iosb<int>::_Iostate &, bool &) const
 *fill*         0x08074f19        0x3 37008
 .gnu.linkonce.t.do_get__CQ23stdt7num_get2ZcZQ23stdt19istreambuf_iterator2ZcZQ23stdt11char_traits1ZcGQ23stdt19istreambuf_iterator2ZcZQ23stdt11char_traits1ZcT1RQ23std8ios_baseRQ33stdt5_Iosb1Zi8_IostateRUs
                0x08074f1c      0x11c /x86/lib/libcpp.a(locale.o)
                0x08074f1c                std::num_get<char, std::istreambuf_iterator<char, std::char_traits<char> > >::do_get(std::istreambuf_iterator<char, std::char_traits<char> >, std::istreambuf_iterator<char, std::char_traits<char> >, std::ios_base &, std::_Iosb<int>::_Iostate &, unsigned short &) const
 .gnu.linkonce.t.do_get__CQ23stdt7num_get2ZcZQ23stdt19istreambuf_iterator2ZcZQ23stdt11char_traits1ZcGQ23stdt19istreambuf_iterator2ZcZQ23stdt11char_traits1ZcT1RQ23std8ios_baseRQ33stdt5_Iosb1Zi8_IostateRUi
                0x08075038      0x110 /x86/lib/libcpp.a(locale.o)
                0x08075038                std::num_get<char, std::istreambuf_iterator<char, std::char_traits<char> > >::do_get(std::istreambuf_iterator<char, std::char_traits<char> >, std::istreambuf_iterator<char, std::char_traits<char> >, std::ios_base &, std::_Iosb<int>::_Iostate &, unsigned int &) const
 .gnu.linkonce.t.do_get__CQ23stdt7num_get2ZcZQ23stdt19istreambuf_iterator2ZcZQ23stdt11char_traits1ZcGQ23stdt19istreambuf_iterator2ZcZQ23stdt11char_traits1ZcT1RQ23std8ios_baseRQ33stdt5_Iosb1Zi8_IostateRl
                0x08075148       0xfc /x86/lib/libcpp.a(locale.o)
                0x08075148                std::num_get<char, std::istreambuf_iterator<char, std::char_traits<char> > >::do_get(std::istreambuf_iterator<char, std::char_traits<char> >, std::istreambuf_iterator<char, std::char_traits<char> >, std::ios_base &, std::_Iosb<int>::_Iostate &, long &) const
 .gnu.linkonce.t.do_get__CQ23stdt7num_get2ZcZQ23stdt19istreambuf_iterator2ZcZQ23stdt11char_traits1ZcGQ23stdt19istreambuf_iterator2ZcZQ23stdt11char_traits1ZcT1RQ23std8ios_baseRQ33stdt5_Iosb1Zi8_IostateRUl
                0x08075244       0xfc /x86/lib/libcpp.a(locale.o)
                0x08075244                std::num_get<char, std::istreambuf_iterator<char, std::char_traits<char> > >::do_get(std::istreambuf_iterator<char, std::char_traits<char> >, std::istreambuf_iterator<char, std::char_traits<char> >, std::ios_base &, std::_Iosb<int>::_Iostate &, unsigned long &) const
 .gnu.linkonce.t.do_get__CQ23stdt7num_get2ZcZQ23stdt19istreambuf_iterator2ZcZQ23stdt11char_traits1ZcGQ23stdt19istreambuf_iterator2ZcZQ23stdt11char_traits1ZcT1RQ23std8ios_baseRQ33stdt5_Iosb1Zi8_IostateRx
                0x08075340       0xfc /x86/lib/libcpp.a(locale.o)
                0x08075340                std::num_get<char, std::istreambuf_iterator<char, std::char_traits<char> > >::do_get(std::istreambuf_iterator<char, std::char_traits<char> >, std::istreambuf_iterator<char, std::char_traits<char> >, std::ios_base &, std::_Iosb<int>::_Iostate &, long long &) const
 .gnu.linkonce.t.do_get__CQ23stdt7num_get2ZcZQ23stdt19istreambuf_iterator2ZcZQ23stdt11char_traits1ZcGQ23stdt19istreambuf_iterator2ZcZQ23stdt11char_traits1ZcT1RQ23std8ios_baseRQ33stdt5_Iosb1Zi8_IostateRUx
                0x0807543c       0xfc /x86/lib/libcpp.a(locale.o)
                0x0807543c                std::num_get<char, std::istreambuf_iterator<char, std::char_traits<char> > >::do_get(std::istreambuf_iterator<char, std::char_traits<char> >, std::istreambuf_iterator<char, std::char_traits<char> >, std::ios_base &, std::_Iosb<int>::_Iostate &, unsigned long long &) const
 .gnu.linkonce.t._Getffld__Q23stdt7num_get2ZcZQ23stdt19istreambuf_iterator2ZcZQ23stdt11char_traits1ZcPcRQ23stdt19istreambuf_iterator2ZcZQ23stdt11char_traits1ZcT2RCQ23std6locale
                0x08075538      0x375 /x86/lib/libcpp.a(locale.o)
                0x08075538                std::num_get<char, std::istreambuf_iterator<char, std::char_traits<char> > >::_Getffld(char *, std::istreambuf_iterator<char, std::char_traits<char> > &, std::istreambuf_iterator<char, std::char_traits<char> > &, std::locale const &)
 *fill*         0x080758ad        0x3 37008
 .gnu.linkonce.t.do_get__CQ23stdt7num_get2ZcZQ23stdt19istreambuf_iterator2ZcZQ23stdt11char_traits1ZcGQ23stdt19istreambuf_iterator2ZcZQ23stdt11char_traits1ZcT1RQ23std8ios_baseRQ33stdt5_Iosb1Zi8_IostateRf
                0x080758b0       0xf0 /x86/lib/libcpp.a(locale.o)
                0x080758b0                std::num_get<char, std::istreambuf_iterator<char, std::char_traits<char> > >::do_get(std::istreambuf_iterator<char, std::char_traits<char> >, std::istreambuf_iterator<char, std::char_traits<char> >, std::ios_base &, std::_Iosb<int>::_Iostate &, float &) const
 .gnu.linkonce.t.do_get__CQ23stdt7num_get2ZcZQ23stdt19istreambuf_iterator2ZcZQ23stdt11char_traits1ZcGQ23stdt19istreambuf_iterator2ZcZQ23stdt11char_traits1ZcT1RQ23std8ios_baseRQ33stdt5_Iosb1Zi8_IostateRd
                0x080759a0       0xf0 /x86/lib/libcpp.a(locale.o)
                0x080759a0                std::num_get<char, std::istreambuf_iterator<char, std::char_traits<char> > >::do_get(std::istreambuf_iterator<char, std::char_traits<char> >, std::istreambuf_iterator<char, std::char_traits<char> >, std::ios_base &, std::_Iosb<int>::_Iostate &, double &) const
 .gnu.linkonce.t.do_get__CQ23stdt7num_get2ZcZQ23stdt19istreambuf_iterator2ZcZQ23stdt11char_traits1ZcGQ23stdt19istreambuf_iterator2ZcZQ23stdt11char_traits1ZcT1RQ23std8ios_baseRQ33stdt5_Iosb1Zi8_IostateRr
                0x08075a90       0xf0 /x86/lib/libcpp.a(locale.o)
                0x08075a90                std::num_get<char, std::istreambuf_iterator<char, std::char_traits<char> > >::do_get(std::istreambuf_iterator<char, std::char_traits<char> >, std::istreambuf_iterator<char, std::char_traits<char> >, std::ios_base &, std::_Iosb<int>::_Iostate &, long double &) const
 .gnu.linkonce.t.do_get__CQ23stdt7num_get2ZcZQ23stdt19istreambuf_iterator2ZcZQ23stdt11char_traits1ZcGQ23stdt19istreambuf_iterator2ZcZQ23stdt11char_traits1ZcT1RQ23std8ios_baseRQ33stdt5_Iosb1Zi8_IostateRPv
                0x08075b80       0xf8 /x86/lib/libcpp.a(locale.o)
                0x08075b80                std::num_get<char, std::istreambuf_iterator<char, std::char_traits<char> > >::do_get(std::istreambuf_iterator<char, std::char_traits<char> >, std::istreambuf_iterator<char, std::char_traits<char> >, std::ios_base &, std::_Iosb<int>::_Iostate &, void *&) const
 .gnu.linkonce.t.compare__Q23stdt11char_traits1ZcPCcT1Ui
                0x08075c78       0x19 /x86/lib/libcpp.a(locale.o)
                0x08075c78                std::char_traits<char>::compare(char const *, char const *, unsigned int)
 *fill*         0x08075c91        0x3 37008
 .gnu.linkonce.t.__Q23std8_Timevec
                0x08075c94       0x1b /x86/lib/libcpp.a(locale.o)
                0x08075c94                std::_Timevec::_Timevec(void)
 *fill*         0x08075caf        0x1 37008
 .gnu.linkonce.t._Getname__CQ23std8_Locinfo
                0x08075cb0       0x25 /x86/lib/libcpp.a(locale.o)
                0x08075cb0                std::_Locinfo::_Getname(void) const
 *fill*         0x08075cd5        0x3 37008
 .gnu.linkonce.t._Getcvt__CQ23std8_Locinfo
                0x08075cd8        0xd /x86/lib/libcpp.a(locale.o)
                0x08075cd8                std::_Locinfo::_Getcvt(void) const
 *fill*         0x08075ce5        0x3 37008
 .gnu.linkonce.t.__Q23std12codecvt_baseUi
                0x08075ce8       0x24 /x86/lib/libcpp.a(locale.o)
                0x08075ce8                std::codecvt_base::codecvt_base(unsigned int)
 .gnu.linkonce.t._._Q23std12codecvt_base
                0x08075d0c       0x1f /x86/lib/libcpp.a(locale.o)
                0x08075d0c                std::codecvt_base::~codecvt_base(void)
 *fill*         0x08075d2b        0x1 37008
 .gnu.linkonce.t.do_always_noconv__CQ23std12codecvt_base
                0x08075d2c        0xa /x86/lib/libcpp.a(locale.o)
                0x08075d2c                std::codecvt_base::do_always_noconv(void) const
 *fill*         0x08075d36        0x2 37008
 .gnu.linkonce.t.do_max_length__CQ23std12codecvt_base
                0x08075d38        0xa /x86/lib/libcpp.a(locale.o)
                0x08075d38                std::codecvt_base::do_max_length(void) const
 *fill*         0x08075d42        0x2 37008
 .gnu.linkonce.t.do_encoding__CQ23std12codecvt_base
                0x08075d44        0xa /x86/lib/libcpp.a(locale.o)
                0x08075d44                std::codecvt_base::do_encoding(void) const
 *fill*         0x08075d4e        0x2 37008
 .gnu.linkonce.t.__Q23stdt5ctype1ZcRCQ23std8_LocinfoUi
                0x08075d50       0x5b /x86/lib/libcpp.a(locale.o)
                0x08075d50                std::ctype<char>::ctype(std::_Locinfo const &, unsigned int)
 *fill*         0x08075dab        0x1 37008
 .gnu.linkonce.t.__tfQ23stdt7num_get2ZcZQ23stdt19istreambuf_iterator2ZcZQ23stdt11char_traits1Zc
                0x08075dac       0x34 /x86/lib/libcpp.a(locale.o)
                0x08075dac                std::num_get<char, std::istreambuf_iterator<char, std::char_traits<char> > > type_info function
 .gnu.linkonce.t.use_facet__H1ZQ23stdt7num_get2ZcZQ23stdt19istreambuf_iterator2ZcZQ23stdt11char_traits1Zc_3stdRCQ23std6locale_RCX01
                0x08075de0      0x12b /x86/lib/libcpp.a(locale.o)
                0x08075de0                std::num_get<char, std::istreambuf_iterator<char, std::char_traits<char> > > const & std::use_facet<std::num_get<char, std::istreambuf_iterator<char, std::char_traits<char> > > >(std::locale const &)
 *fill*         0x08075f0b        0x1 37008
 .gnu.linkonce.t.__tfQ23stdt7codecvt3ZcZcZ9_Mbstatet
                0x08075f0c       0x34 /x86/lib/libcpp.a(locale.o)
                0x08075f0c                std::codecvt<char, char, _Mbstatet> type_info function
 .gnu.linkonce.t.use_facet__H1ZQ23stdt7codecvt3ZcZcZ9_Mbstatet_3stdRCQ23std6locale_RCX01
                0x08075f40      0x12b /x86/lib/libcpp.a(locale.o)
                0x08075f40                std::codecvt<char, char, _Mbstatet> const & std::use_facet<std::codecvt<char, char, _Mbstatet> >(std::locale const &)
 *fill*         0x0807606b        0x1 37008
 .gnu.linkonce.t.__tfQ23std12codecvt_base
                0x0807606c       0x4b /x86/lib/libcpp.a(locale.o)
                0x0807606c                std::codecvt_base type_info function
 *fill*         0x080760b7        0x1 37008
 .gnu.linkonce.t.compare__CQ23stdt12basic_string3ZcZQ23stdt11char_traits1ZcZQ23stdt9allocator1ZcRCQ23stdt12basic_string3ZcZQ23stdt11char_traits1ZcZQ23stdt9allocator1Zc
                0x080760b8       0x3a /x86/lib/libcpp.a(locale0.o)
                0x080760b8                std::basic_string<char, std::char_traits<char>, std::allocator<char> >::compare(std::basic_string<char, std::char_traits<char>, std::allocator<char> > const &) const
 *fill*         0x080760f2        0x2 37008
 .gnu.linkonce.t.__tfQ33std6locale7_Locimp
                0x080760f4       0x34 /x86/lib/libcpp.a(locale0.o)
                0x080760f4                std::locale::_Locimp type_info function
 .gnu.linkonce.t.name__CQ23std6locale
                0x08076128       0x26 /x86/lib/libcpp.a(locale0.o)
                0x08076128                std::locale::name(void) const
 *fill*         0x0807614e        0x2 37008
 .gnu.linkonce.t.__Q23std6localePQ33std6locale7_Locimp
                0x08076150       0x10 /x86/lib/libcpp.a(locale0.o)
                0x08076150                std::locale::locale(std::locale::_Locimp *)
 .gnu.linkonce.t.__tfQ23std9bad_alloc
                0x08076160       0x34 /x86/lib/libcpp.a(newaop.o)
                0x08076160                std::bad_alloc type_info function
 .gnu.linkonce.t.what__CQ23std9bad_alloc
                0x08076194        0xa /x86/lib/libcpp.a(nomemory.o)
                0x08076194                std::bad_alloc::what(void) const
 *fill*         0x0807619e        0x2 37008
 .gnu.linkonce.t._._Q23std9bad_alloc
                0x080761a0       0x65 /x86/lib/libcpp.a(nomemory.o)
                0x080761a0                std::bad_alloc::~bad_alloc(void)
 *fill*         0x08076205        0x3 37008
 .gnu.linkonce.t._Doraise__CQ23std9bad_alloc
                0x08076208       0x3a /x86/lib/libcpp.a(nomemory.o)
                0x08076208                std::bad_alloc::_Doraise(void) const
 *fill*         0x08076242        0x2 37008
 .gnu.linkonce.t._Init__Q23stdt5ctype1ZwRCQ23std8_Locinfo
                0x08076244       0x3a /x86/lib/libcpp.a(wlocale.o)
                0x08076244                std::ctype<wchar_t>::_Init(std::_Locinfo const &)
 *fill*         0x0807627e        0x2 37008
 .gnu.linkonce.t.__Q23stdt5ctype1ZwUi
                0x08076280       0xc8 /x86/lib/libcpp.a(wlocale.o)
                0x08076280                std::ctype<wchar_t>::ctype(unsigned int)
 .gnu.linkonce.t._Getcat__Q23stdt5ctype1ZwPPCQ33std6locale5facet
                0x08076348       0xa0 /x86/lib/libcpp.a(wlocale.o)
                0x08076348                std::ctype<wchar_t>::_Getcat(std::locale::facet const **)
 .gnu.linkonce.t.__Q23stdt5ctype1ZwRCQ23std8_LocinfoUi
                0x080763e8       0x6d /x86/lib/libcpp.a(wlocale.o)
                0x080763e8                std::ctype<wchar_t>::ctype(std::_Locinfo const &, unsigned int)
 *fill*         0x08076455        0x3 37008
 .gnu.linkonce.t._Tidy__Q23stdt8_Tidyfac1ZQ23stdt5ctype1Zw
                0x08076458       0xb0 /x86/lib/libcpp.a(wlocale.o)
                0x08076458                std::_Tidyfac<std::ctype<wchar_t> >::_Tidy(void)
 .gnu.linkonce.t._Save__Q23stdt8_Tidyfac1ZQ23stdt5ctype1ZwPQ23stdt5ctype1Zw
                0x08076508       0x3a /x86/lib/libcpp.a(wlocale.o)
                0x08076508                std::_Tidyfac<std::ctype<wchar_t> >::_Save(std::ctype<wchar_t> *)
 *fill*         0x08076542        0x2 37008
 .gnu.linkonce.t._Init__Q23stdt7num_get2ZwZQ23stdt19istreambuf_iterator2ZwZQ23stdt11char_traits1ZwRCQ23std8_Locinfo
                0x08076544        0x8 /x86/lib/libcpp.a(wlocale.o)
                0x08076544                std::num_get<wchar_t, std::istreambuf_iterator<wchar_t, std::char_traits<wchar_t> > >::_Init(std::_Locinfo const &)
 .gnu.linkonce.t.__Q23stdt7num_get2ZwZQ23stdt19istreambuf_iterator2ZwZQ23stdt11char_traits1ZwUi
                0x0807654c       0xc8 /x86/lib/libcpp.a(wlocale.o)
                0x0807654c                std::num_get<wchar_t, std::istreambuf_iterator<wchar_t, std::char_traits<wchar_t> > >::num_get(unsigned int)
 .gnu.linkonce.t._Getcat__Q23stdt7num_get2ZwZQ23stdt19istreambuf_iterator2ZwZQ23stdt11char_traits1ZwPPCQ33std6locale5facet
                0x08076614       0xa0 /x86/lib/libcpp.a(wlocale.o)
                0x08076614                std::num_get<wchar_t, std::istreambuf_iterator<wchar_t, std::char_traits<wchar_t> > >::_Getcat(std::locale::facet const **)
 .gnu.linkonce.t.__Q23stdt7num_get2ZwZQ23stdt19istreambuf_iterator2ZwZQ23stdt11char_traits1ZwRCQ23std8_LocinfoUi
                0x080766b4       0x6d /x86/lib/libcpp.a(wlocale.o)
                0x080766b4                std::num_get<wchar_t, std::istreambuf_iterator<wchar_t, std::char_traits<wchar_t> > >::num_get(std::_Locinfo const &, unsigned int)
 *fill*         0x08076721        0x3 37008
 .gnu.linkonce.t._Tidy__Q23stdt8_Tidyfac1ZQ23stdt7num_get2ZwZQ23stdt19istreambuf_iterator2ZwZQ23stdt11char_traits1Zw
                0x08076724       0xb0 /x86/lib/libcpp.a(wlocale.o)
                0x08076724                std::_Tidyfac<std::num_get<wchar_t, std::istreambuf_iterator<wchar_t, std::char_traits<wchar_t> > > >::_Tidy(void)
 .gnu.linkonce.t._Save__Q23stdt8_Tidyfac1ZQ23stdt7num_get2ZwZQ23stdt19istreambuf_iterator2ZwZQ23stdt11char_traits1ZwPQ23stdt7num_get2ZwZQ23stdt19istreambuf_iterator2ZwZQ23stdt11char_traits1Zw
                0x080767d4       0x3a /x86/lib/libcpp.a(wlocale.o)
                0x080767d4                std::_Tidyfac<std::num_get<wchar_t, std::istreambuf_iterator<wchar_t, std::char_traits<wchar_t> > > >::_Save(std::num_get<wchar_t, std::istreambuf_iterator<wchar_t, std::char_traits<wchar_t> > > *)
 *fill*         0x0807680e        0x2 37008
 .gnu.linkonce.t._Init__Q23stdt7num_put2ZwZQ23stdt19ostreambuf_iterator2ZwZQ23stdt11char_traits1ZwRCQ23std8_Locinfo
                0x08076810        0x8 /x86/lib/libcpp.a(wlocale.o)
                0x08076810                std::num_put<wchar_t, std::ostreambuf_iterator<wchar_t, std::char_traits<wchar_t> > >::_Init(std::_Locinfo const &)
 .gnu.linkonce.t.__Q23stdt7num_put2ZwZQ23stdt19ostreambuf_iterator2ZwZQ23stdt11char_traits1ZwUi
                0x08076818       0xc8 /x86/lib/libcpp.a(wlocale.o)
                0x08076818                std::num_put<wchar_t, std::ostreambuf_iterator<wchar_t, std::char_traits<wchar_t> > >::num_put(unsigned int)
 .gnu.linkonce.t._Getcat__Q23stdt7num_put2ZwZQ23stdt19ostreambuf_iterator2ZwZQ23stdt11char_traits1ZwPPCQ33std6locale5facet
                0x080768e0       0xa0 /x86/lib/libcpp.a(wlocale.o)
                0x080768e0                std::num_put<wchar_t, std::ostreambuf_iterator<wchar_t, std::char_traits<wchar_t> > >::_Getcat(std::locale::facet const **)
 .gnu.linkonce.t.__Q23stdt7num_put2ZwZQ23stdt19ostreambuf_iterator2ZwZQ23stdt11char_traits1ZwRCQ23std8_LocinfoUi
                0x08076980       0x6d /x86/lib/libcpp.a(wlocale.o)
                0x08076980                std::num_put<wchar_t, std::ostreambuf_iterator<wchar_t, std::char_traits<wchar_t> > >::num_put(std::_Locinfo const &, unsigned int)
 *fill*         0x080769ed        0x3 37008
 .gnu.linkonce.t._Tidy__Q23stdt8_Tidyfac1ZQ23stdt7num_put2ZwZQ23stdt19ostreambuf_iterator2ZwZQ23stdt11char_traits1Zw
                0x080769f0       0xb0 /x86/lib/libcpp.a(wlocale.o)
                0x080769f0                std::_Tidyfac<std::num_put<wchar_t, std::ostreambuf_iterator<wchar_t, std::char_traits<wchar_t> > > >::_Tidy(void)
 .gnu.linkonce.t._Save__Q23stdt8_Tidyfac1ZQ23stdt7num_put2ZwZQ23stdt19ostreambuf_iterator2ZwZQ23stdt11char_traits1ZwPQ23stdt7num_put2ZwZQ23stdt19ostreambuf_iterator2ZwZQ23stdt11char_traits1Zw
                0x08076aa0       0x3a /x86/lib/libcpp.a(wlocale.o)
                0x08076aa0                std::_Tidyfac<std::num_put<wchar_t, std::ostreambuf_iterator<wchar_t, std::char_traits<wchar_t> > > >::_Save(std::num_put<wchar_t, std::ostreambuf_iterator<wchar_t, std::char_traits<wchar_t> > > *)
 *fill*         0x08076ada        0x2 37008
 .gnu.linkonce.t._Maklocstr__H1Zw_3stdPCcPX01_PX01
                0x08076adc       0x7f /x86/lib/libcpp.a(wlocale.o)
                0x08076adc                wchar_t * std::_Maklocstr<wchar_t>(char const *, wchar_t *)
 *fill*         0x08076b5b        0x1 37008
 .gnu.linkonce.t._Init__Q23stdt8numpunct1ZwRCQ23std8_Locinfo
                0x08076b5c       0xbc /x86/lib/libcpp.a(wlocale.o)
                0x08076b5c                std::numpunct<wchar_t>::_Init(std::_Locinfo const &)
 .gnu.linkonce.t.__Q23stdt8numpunct1ZwUi
                0x08076c18       0xc8 /x86/lib/libcpp.a(wlocale.o)
                0x08076c18                std::numpunct<wchar_t>::numpunct(unsigned int)
 .gnu.linkonce.t._Getcat__Q23stdt8numpunct1ZwPPCQ33std6locale5facet
                0x08076ce0       0xa0 /x86/lib/libcpp.a(wlocale.o)
                0x08076ce0                std::numpunct<wchar_t>::_Getcat(std::locale::facet const **)
 .gnu.linkonce.t.__Q23stdt8numpunct1ZwRCQ23std8_LocinfoUi
                0x08076d80       0x6d /x86/lib/libcpp.a(wlocale.o)
                0x08076d80                std::numpunct<wchar_t>::numpunct(std::_Locinfo const &, unsigned int)
 *fill*         0x08076ded        0x3 37008
 .gnu.linkonce.t._Tidy__Q23stdt8_Tidyfac1ZQ23stdt8numpunct1Zw
                0x08076df0       0xb0 /x86/lib/libcpp.a(wlocale.o)
                0x08076df0                std::_Tidyfac<std::numpunct<wchar_t> >::_Tidy(void)
 .gnu.linkonce.t._Save__Q23stdt8_Tidyfac1ZQ23stdt8numpunct1ZwPQ23stdt8numpunct1Zw
                0x08076ea0       0x3a /x86/lib/libcpp.a(wlocale.o)
                0x08076ea0                std::_Tidyfac<std::numpunct<wchar_t> >::_Save(std::numpunct<wchar_t> *)
 *fill*         0x08076eda        0x2 37008
 .gnu.linkonce.t._Init__Q23stdt7collate1ZwRCQ23std8_Locinfo
                0x08076edc       0x28 /x86/lib/libcpp.a(wlocale.o)
                0x08076edc                std::collate<wchar_t>::_Init(std::_Locinfo const &)
 .gnu.linkonce.t.__Q23stdt7collate1ZwUi
                0x08076f04       0xc8 /x86/lib/libcpp.a(wlocale.o)
                0x08076f04                std::collate<wchar_t>::collate(unsigned int)
 .gnu.linkonce.t._Getcat__Q23stdt7collate1ZwPPCQ33std6locale5facet
                0x08076fcc       0xa0 /x86/lib/libcpp.a(wlocale.o)
                0x08076fcc                std::collate<wchar_t>::_Getcat(std::locale::facet const **)
 .gnu.linkonce.t.__Q23stdt7collate1ZwRCQ23std8_LocinfoUi
                0x0807706c       0x6d /x86/lib/libcpp.a(wlocale.o)
                0x0807706c                std::collate<wchar_t>::collate(std::_Locinfo const &, unsigned int)
 *fill*         0x080770d9        0x3 37008
 .gnu.linkonce.t._Tidy__Q23stdt8_Tidyfac1ZQ23stdt7collate1Zw
                0x080770dc       0xb0 /x86/lib/libcpp.a(wlocale.o)
                0x080770dc                std::_Tidyfac<std::collate<wchar_t> >::_Tidy(void)
 .gnu.linkonce.t._Save__Q23stdt8_Tidyfac1ZQ23stdt7collate1ZwPQ23stdt7collate1Zw
                0x0807718c       0x3a /x86/lib/libcpp.a(wlocale.o)
                0x0807718c                std::_Tidyfac<std::collate<wchar_t> >::_Save(std::collate<wchar_t> *)
 *fill*         0x080771c6        0x2 37008
 .gnu.linkonce.t._._Q23std13messages_base
                0x080771c8       0x22 /x86/lib/libcpp.a(wlocale.o)
                0x080771c8                std::messages_base::~messages_base(void)
 *fill*         0x080771ea        0x2 37008
 .gnu.linkonce.t._Init__Q23stdt8messages1ZwRCQ23std8_Locinfo
                0x080771ec        0x8 /x86/lib/libcpp.a(wlocale.o)
                0x080771ec                std::messages<wchar_t>::_Init(std::_Locinfo const &)
 .gnu.linkonce.t.__Q23stdt8messages1ZwUi
                0x080771f4       0xc8 /x86/lib/libcpp.a(wlocale.o)
                0x080771f4                std::messages<wchar_t>::messages(unsigned int)
 .gnu.linkonce.t._Getcat__Q23stdt8messages1ZwPPCQ33std6locale5facet
                0x080772bc       0xa0 /x86/lib/libcpp.a(wlocale.o)
                0x080772bc                std::messages<wchar_t>::_Getcat(std::locale::facet const **)
 .gnu.linkonce.t.__Q23stdt8messages1ZwRCQ23std8_LocinfoUi
                0x0807735c       0x6d /x86/lib/libcpp.a(wlocale.o)
                0x0807735c                std::messages<wchar_t>::messages(std::_Locinfo const &, unsigned int)
 *fill*         0x080773c9        0x3 37008
 .gnu.linkonce.t._Tidy__Q23stdt8_Tidyfac1ZQ23stdt8messages1Zw
                0x080773cc       0xb0 /x86/lib/libcpp.a(wlocale.o)
                0x080773cc                std::_Tidyfac<std::messages<wchar_t> >::_Tidy(void)
 .gnu.linkonce.t._Save__Q23stdt8_Tidyfac1ZQ23stdt8messages1ZwPQ23stdt8messages1Zw
                0x0807747c       0x3a /x86/lib/libcpp.a(wlocale.o)
                0x0807747c                std::_Tidyfac<std::messages<wchar_t> >::_Save(std::messages<wchar_t> *)
 *fill*         0x080774b6        0x2 37008
 .gnu.linkonce.t._Init__Q23stdt9money_get2ZwZQ23stdt19istreambuf_iterator2ZwZQ23stdt11char_traits1ZwRCQ23std8_Locinfo
                0x080774b8        0x8 /x86/lib/libcpp.a(wlocale.o)
                0x080774b8                std::money_get<wchar_t, std::istreambuf_iterator<wchar_t, std::char_traits<wchar_t> > >::_Init(std::_Locinfo const &)
 .gnu.linkonce.t.__Q23stdt9money_get2ZwZQ23stdt19istreambuf_iterator2ZwZQ23stdt11char_traits1ZwUi
                0x080774c0       0xc8 /x86/lib/libcpp.a(wlocale.o)
                0x080774c0                std::money_get<wchar_t, std::istreambuf_iterator<wchar_t, std::char_traits<wchar_t> > >::money_get(unsigned int)
 .gnu.linkonce.t._Getcat__Q23stdt9money_get2ZwZQ23stdt19istreambuf_iterator2ZwZQ23stdt11char_traits1ZwPPCQ33std6locale5facet
                0x08077588       0xa0 /x86/lib/libcpp.a(wlocale.o)
                0x08077588                std::money_get<wchar_t, std::istreambuf_iterator<wchar_t, std::char_traits<wchar_t> > >::_Getcat(std::locale::facet const **)
 .gnu.linkonce.t.__Q23stdt9money_get2ZwZQ23stdt19istreambuf_iterator2ZwZQ23stdt11char_traits1ZwRCQ23std8_LocinfoUi
                0x08077628       0x6d /x86/lib/libcpp.a(wlocale.o)
                0x08077628                std::money_get<wchar_t, std::istreambuf_iterator<wchar_t, std::char_traits<wchar_t> > >::money_get(std::_Locinfo const &, unsigned int)
 *fill*         0x08077695        0x3 37008
 .gnu.linkonce.t._Tidy__Q23stdt8_Tidyfac1ZQ23stdt9money_get2ZwZQ23stdt19istreambuf_iterator2ZwZQ23stdt11char_traits1Zw
                0x08077698       0xb0 /x86/lib/libcpp.a(wlocale.o)
                0x08077698                std::_Tidyfac<std::money_get<wchar_t, std::istreambuf_iterator<wchar_t, std::char_traits<wchar_t> > > >::_Tidy(void)
 .gnu.linkonce.t._Save__Q23stdt8_Tidyfac1ZQ23stdt9money_get2ZwZQ23stdt19istreambuf_iterator2ZwZQ23stdt11char_traits1ZwPQ23stdt9money_get2ZwZQ23stdt19istreambuf_iterator2ZwZQ23stdt11char_traits1Zw
                0x08077748       0x3a /x86/lib/libcpp.a(wlocale.o)
                0x08077748                std::_Tidyfac<std::money_get<wchar_t, std::istreambuf_iterator<wchar_t, std::char_traits<wchar_t> > > >::_Save(std::money_get<wchar_t, std::istreambuf_iterator<wchar_t, std::char_traits<wchar_t> > > *)
 *fill*         0x08077782        0x2 37008
 .gnu.linkonce.t._Init__Q23stdt9money_put2ZwZQ23stdt19ostreambuf_iterator2ZwZQ23stdt11char_traits1ZwRCQ23std8_Locinfo
                0x08077784        0x8 /x86/lib/libcpp.a(wlocale.o)
                0x08077784                std::money_put<wchar_t, std::ostreambuf_iterator<wchar_t, std::char_traits<wchar_t> > >::_Init(std::_Locinfo const &)
 .gnu.linkonce.t.__Q23stdt9money_put2ZwZQ23stdt19ostreambuf_iterator2ZwZQ23stdt11char_traits1ZwUi
                0x0807778c       0xc8 /x86/lib/libcpp.a(wlocale.o)
                0x0807778c                std::money_put<wchar_t, std::ostreambuf_iterator<wchar_t, std::char_traits<wchar_t> > >::money_put(unsigned int)
 .gnu.linkonce.t._Getcat__Q23stdt9money_put2ZwZQ23stdt19ostreambuf_iterator2ZwZQ23stdt11char_traits1ZwPPCQ33std6locale5facet
                0x08077854       0xa0 /x86/lib/libcpp.a(wlocale.o)
                0x08077854                std::money_put<wchar_t, std::ostreambuf_iterator<wchar_t, std::char_traits<wchar_t> > >::_Getcat(std::locale::facet const **)
 .gnu.linkonce.t.__Q23stdt9money_put2ZwZQ23stdt19ostreambuf_iterator2ZwZQ23stdt11char_traits1ZwRCQ23std8_LocinfoUi
                0x080778f4       0x6d /x86/lib/libcpp.a(wlocale.o)
                0x080778f4                std::money_put<wchar_t, std::ostreambuf_iterator<wchar_t, std::char_traits<wchar_t> > >::money_put(std::_Locinfo const &, unsigned int)
 *fill*         0x08077961        0x3 37008
 .gnu.linkonce.t._Tidy__Q23stdt8_Tidyfac1ZQ23stdt9money_put2ZwZQ23stdt19ostreambuf_iterator2ZwZQ23stdt11char_traits1Zw
                0x08077964       0xb0 /x86/lib/libcpp.a(wlocale.o)
                0x08077964                std::_Tidyfac<std::money_put<wchar_t, std::ostreambuf_iterator<wchar_t, std::char_traits<wchar_t> > > >::_Tidy(void)
 .gnu.linkonce.t._Save__Q23stdt8_Tidyfac1ZQ23stdt9money_put2ZwZQ23stdt19ostreambuf_iterator2ZwZQ23stdt11char_traits1ZwPQ23stdt9money_put2ZwZQ23stdt19ostreambuf_iterator2ZwZQ23stdt11char_traits1Zw
                0x08077a14       0x3a /x86/lib/libcpp.a(wlocale.o)
                0x08077a14                std::_Tidyfac<std::money_put<wchar_t, std::ostreambuf_iterator<wchar_t, std::char_traits<wchar_t> > > >::_Save(std::money_put<wchar_t, std::ostreambuf_iterator<wchar_t, std::char_traits<wchar_t> > > *)
 *fill*         0x08077a4e        0x2 37008
 .gnu.linkonce.t._._Q23std10money_base
                0x08077a50       0x22 /x86/lib/libcpp.a(wlocale.o)
                0x08077a50                std::money_base::~money_base(void)
 *fill*         0x08077a72        0x2 37008
 .gnu.linkonce.t._Makpat__Q23stdt7_Mpunct1ZwRQ33std10money_base7patternUiUiUi
                0x08077a74       0x81 /x86/lib/libcpp.a(wlocale.o)
                0x08077a74                std::_Mpunct<wchar_t>::_Makpat(std::money_base::pattern &, unsigned int, unsigned int, unsigned int)
 *fill*         0x08077af5        0x3 37008
 .gnu.linkonce.t._Init__Q23stdt7_Mpunct1ZwRCQ23std8_Locinfo
                0x08077af8      0x174 /x86/lib/libcpp.a(wlocale.o)
                0x08077af8                std::_Mpunct<wchar_t>::_Init(std::_Locinfo const &)
 .gnu.linkonce.t.__Q23stdt7_Mpunct1ZwUib
                0x08077c6c       0xcc /x86/lib/libcpp.a(wlocale.o)
                0x08077c6c                std::_Mpunct<wchar_t>::_Mpunct(unsigned int, bool)
 .gnu.linkonce.t._._Q23stdt7_Mpunct1Zw
                0x08077d38       0x85 /x86/lib/libcpp.a(wlocale.o)
                0x08077d38                std::_Mpunct<wchar_t>::~_Mpunct(void)
 *fill*         0x08077dbd        0x3 37008
 .gnu.linkonce.t.__Q23stdt10moneypunct2Zwb0Ui
                0x08077dc0       0x61 /x86/lib/libcpp.a(wlocale.o)
                0x08077dc0                std::moneypunct<wchar_t, false>::moneypunct(unsigned int)
 *fill*         0x08077e21        0x3 37008
 .gnu.linkonce.t._Getcat__Q23stdt10moneypunct2Zwb0PPCQ33std6locale5facet
                0x08077e24       0xa0 /x86/lib/libcpp.a(wlocale.o)
                0x08077e24                std::moneypunct<wchar_t, false>::_Getcat(std::locale::facet const **)
 .gnu.linkonce.t.__Q23stdt7_Mpunct1ZwRCQ23std8_LocinfoUib
                0x08077ec4       0x75 /x86/lib/libcpp.a(wlocale.o)
                0x08077ec4                std::_Mpunct<wchar_t>::_Mpunct(std::_Locinfo const &, unsigned int, bool)
 *fill*         0x08077f39        0x3 37008
 .gnu.linkonce.t.__Q23stdt10moneypunct2Zwb0RCQ23std8_LocinfoUi
                0x08077f3c       0x61 /x86/lib/libcpp.a(wlocale.o)
                0x08077f3c                std::moneypunct<wchar_t, false>::moneypunct(std::_Locinfo const &, unsigned int)
 *fill*         0x08077f9d        0x3 37008
 .gnu.linkonce.t._Tidy__Q23stdt8_Tidyfac1ZQ23stdt10moneypunct2Zwb0
                0x08077fa0       0xb0 /x86/lib/libcpp.a(wlocale.o)
                0x08077fa0                std::_Tidyfac<std::moneypunct<wchar_t, false> >::_Tidy(void)
 .gnu.linkonce.t._Save__Q23stdt8_Tidyfac1ZQ23stdt10moneypunct2Zwb0PQ23stdt10moneypunct2Zwb0
                0x08078050       0x3a /x86/lib/libcpp.a(wlocale.o)
                0x08078050                std::_Tidyfac<std::moneypunct<wchar_t, false> >::_Save(std::moneypunct<wchar_t, false> *)
 *fill*         0x0807808a        0x2 37008
 .gnu.linkonce.t.__Q23stdt10moneypunct2Zwb1Ui
                0x0807808c       0x61 /x86/lib/libcpp.a(wlocale.o)
                0x0807808c                std::moneypunct<wchar_t, true>::moneypunct(unsigned int)
 *fill*         0x080780ed        0x3 37008
 .gnu.linkonce.t._Getcat__Q23stdt10moneypunct2Zwb1PPCQ33std6locale5facet
                0x080780f0       0xa0 /x86/lib/libcpp.a(wlocale.o)
                0x080780f0                std::moneypunct<wchar_t, true>::_Getcat(std::locale::facet const **)
 .gnu.linkonce.t.__Q23stdt10moneypunct2Zwb1RCQ23std8_LocinfoUi
                0x08078190       0x61 /x86/lib/libcpp.a(wlocale.o)
                0x08078190                std::moneypunct<wchar_t, true>::moneypunct(std::_Locinfo const &, unsigned int)
 *fill*         0x080781f1        0x3 37008
 .gnu.linkonce.t._Tidy__Q23stdt8_Tidyfac1ZQ23stdt10moneypunct2Zwb1
                0x080781f4       0xb0 /x86/lib/libcpp.a(wlocale.o)
                0x080781f4                std::_Tidyfac<std::moneypunct<wchar_t, true> >::_Tidy(void)
 .gnu.linkonce.t._Save__Q23stdt8_Tidyfac1ZQ23stdt10moneypunct2Zwb1PQ23stdt10moneypunct2Zwb1
                0x080782a4       0x3a /x86/lib/libcpp.a(wlocale.o)
                0x080782a4                std::_Tidyfac<std::moneypunct<wchar_t, true> >::_Save(std::moneypunct<wchar_t, true> *)
 *fill*         0x080782de        0x2 37008
 .gnu.linkonce.t._._Q23std9time_base
                0x080782e0       0x22 /x86/lib/libcpp.a(wlocale.o)
                0x080782e0                std::time_base::~time_base(void)
 *fill*         0x08078302        0x2 37008
 .gnu.linkonce.t._Init__Q23stdt8time_get2ZwZQ23stdt19istreambuf_iterator2ZwZQ23stdt11char_traits1ZwRCQ23std8_Locinfo
                0x08078304       0x57 /x86/lib/libcpp.a(wlocale.o)
                0x08078304                std::time_get<wchar_t, std::istreambuf_iterator<wchar_t, std::char_traits<wchar_t> > >::_Init(std::_Locinfo const &)
 *fill*         0x0807835b        0x1 37008
 .gnu.linkonce.t.__Q23stdt8time_get2ZwZQ23stdt19istreambuf_iterator2ZwZQ23stdt11char_traits1ZwUi
                0x0807835c       0xc8 /x86/lib/libcpp.a(wlocale.o)
                0x0807835c                std::time_get<wchar_t, std::istreambuf_iterator<wchar_t, std::char_traits<wchar_t> > >::time_get(unsigned int)
 .gnu.linkonce.t._Getcat__Q23stdt8time_get2ZwZQ23stdt19istreambuf_iterator2ZwZQ23stdt11char_traits1ZwPPCQ33std6locale5facet
                0x08078424       0xa0 /x86/lib/libcpp.a(wlocale.o)
                0x08078424                std::time_get<wchar_t, std::istreambuf_iterator<wchar_t, std::char_traits<wchar_t> > >::_Getcat(std::locale::facet const **)
 .gnu.linkonce.t.__Q23stdt8time_get2ZwZQ23stdt19istreambuf_iterator2ZwZQ23stdt11char_traits1ZwRCQ23std8_LocinfoUi
                0x080784c4       0x6d /x86/lib/libcpp.a(wlocale.o)
                0x080784c4                std::time_get<wchar_t, std::istreambuf_iterator<wchar_t, std::char_traits<wchar_t> > >::time_get(std::_Locinfo const &, unsigned int)
 *fill*         0x08078531        0x3 37008
 .gnu.linkonce.t._Tidy__Q23stdt8_Tidyfac1ZQ23stdt8time_get2ZwZQ23stdt19istreambuf_iterator2ZwZQ23stdt11char_traits1Zw
                0x08078534       0xb0 /x86/lib/libcpp.a(wlocale.o)
                0x08078534                std::_Tidyfac<std::time_get<wchar_t, std::istreambuf_iterator<wchar_t, std::char_traits<wchar_t> > > >::_Tidy(void)
 .gnu.linkonce.t._Save__Q23stdt8_Tidyfac1ZQ23stdt8time_get2ZwZQ23stdt19istreambuf_iterator2ZwZQ23stdt11char_traits1ZwPQ23stdt8time_get2ZwZQ23stdt19istreambuf_iterator2ZwZQ23stdt11char_traits1Zw
                0x080785e4       0x3a /x86/lib/libcpp.a(wlocale.o)
                0x080785e4                std::_Tidyfac<std::time_get<wchar_t, std::istreambuf_iterator<wchar_t, std::char_traits<wchar_t> > > >::_Save(std::time_get<wchar_t, std::istreambuf_iterator<wchar_t, std::char_traits<wchar_t> > > *)
 *fill*         0x0807861e        0x2 37008
 .gnu.linkonce.t._Init__Q23stdt8time_put2ZwZQ23stdt19ostreambuf_iterator2ZwZQ23stdt11char_traits1ZwRCQ23std8_Locinfo
                0x08078620       0x38 /x86/lib/libcpp.a(wlocale.o)
                0x08078620                std::time_put<wchar_t, std::ostreambuf_iterator<wchar_t, std::char_traits<wchar_t> > >::_Init(std::_Locinfo const &)
 .gnu.linkonce.t.__Q23stdt8time_put2ZwZQ23stdt19ostreambuf_iterator2ZwZQ23stdt11char_traits1ZwUi
                0x08078658       0xd8 /x86/lib/libcpp.a(wlocale.o)
                0x08078658                std::time_put<wchar_t, std::ostreambuf_iterator<wchar_t, std::char_traits<wchar_t> > >::time_put(unsigned int)
 .gnu.linkonce.t._Getcat__Q23stdt8time_put2ZwZQ23stdt19ostreambuf_iterator2ZwZQ23stdt11char_traits1ZwPPCQ33std6locale5facet
                0x08078730       0xa0 /x86/lib/libcpp.a(wlocale.o)
                0x08078730                std::time_put<wchar_t, std::ostreambuf_iterator<wchar_t, std::char_traits<wchar_t> > >::_Getcat(std::locale::facet const **)
 .gnu.linkonce.t.__Q23stdt8time_put2ZwZQ23stdt19ostreambuf_iterator2ZwZQ23stdt11char_traits1ZwRCQ23std8_LocinfoUi
                0x080787d0       0x7d /x86/lib/libcpp.a(wlocale.o)
                0x080787d0                std::time_put<wchar_t, std::ostreambuf_iterator<wchar_t, std::char_traits<wchar_t> > >::time_put(std::_Locinfo const &, unsigned int)
 *fill*         0x0807884d        0x3 37008
 .gnu.linkonce.t._Tidy__Q23stdt8_Tidyfac1ZQ23stdt8time_put2ZwZQ23stdt19ostreambuf_iterator2ZwZQ23stdt11char_traits1Zw
                0x08078850       0xb0 /x86/lib/libcpp.a(wlocale.o)
                0x08078850                std::_Tidyfac<std::time_put<wchar_t, std::ostreambuf_iterator<wchar_t, std::char_traits<wchar_t> > > >::_Tidy(void)
 .gnu.linkonce.t._Save__Q23stdt8_Tidyfac1ZQ23stdt8time_put2ZwZQ23stdt19ostreambuf_iterator2ZwZQ23stdt11char_traits1ZwPQ23stdt8time_put2ZwZQ23stdt19ostreambuf_iterator2ZwZQ23stdt11char_traits1Zw
                0x08078900       0x3a /x86/lib/libcpp.a(wlocale.o)
                0x08078900                std::_Tidyfac<std::time_put<wchar_t, std::ostreambuf_iterator<wchar_t, std::char_traits<wchar_t> > > >::_Save(std::time_put<wchar_t, std::ostreambuf_iterator<wchar_t, std::char_traits<wchar_t> > > *)
 *fill*         0x0807893a        0x2 37008
 .gnu.linkonce.t._Tidy__Q23stdt8_Tidyfac1ZQ23stdt7codecvt3ZwZcZ9_Mbstatet
                0x0807893c       0xb0 /x86/lib/libcpp.a(wlocale.o)
                0x0807893c                std::_Tidyfac<std::codecvt<wchar_t, char, _Mbstatet> >::_Tidy(void)
 .gnu.linkonce.t._Save__Q23stdt8_Tidyfac1ZQ23stdt7codecvt3ZwZcZ9_MbstatetPQ23stdt7codecvt3ZwZcZ9_Mbstatet
                0x080789ec       0x3a /x86/lib/libcpp.a(wlocale.o)
                0x080789ec                std::_Tidyfac<std::codecvt<wchar_t, char, _Mbstatet> >::_Save(std::codecvt<wchar_t, char, _Mbstatet> *)
 *fill*         0x08078a26        0x2 37008
 .gnu.linkonce.t._._Q23stdt8time_put2ZwZQ23stdt19ostreambuf_iterator2ZwZQ23stdt11char_traits1Zw
                0x08078a28       0x26 /x86/lib/libcpp.a(wlocale.o)
                0x08078a28                std::time_put<wchar_t, std::ostreambuf_iterator<wchar_t, std::char_traits<wchar_t> > >::~time_put(void)
 *fill*         0x08078a4e        0x2 37008
 .gnu.linkonce.t.__pp__Q23stdt19ostreambuf_iterator2ZwZQ23stdt11char_traits1Zw
                0x08078a50        0xa /x86/lib/libcpp.a(wlocale.o)
                0x08078a50                std::ostreambuf_iterator<wchar_t, std::char_traits<wchar_t> >::operator++(void)
 *fill*         0x08078a5a        0x2 37008
 .gnu.linkonce.t.__pp__Q23stdt6_Ptrit6ZcZiZPCcZRCcZPcZRc
                0x08078a5c        0xf /x86/lib/libcpp.a(wlocale.o)
                0x08078a5c                std::_Ptrit<char, int, char const *, char const &, char *, char &>::operator++(void)
 *fill*         0x08078a6b        0x1 37008
 .gnu.linkonce.t.__ml__CQ23stdt6_Ptrit6ZcZiZPCcZRCcZPcZRc
                0x08078a6c        0xf /x86/lib/libcpp.a(wlocale.o)
                0x08078a6c                std::_Ptrit<char, int, char const *, char const &, char *, char &>::operator*(void) const
 *fill*         0x08078a7b        0x1 37008
 .gnu.linkonce.t.__ml__Q23stdt19ostreambuf_iterator2ZwZQ23stdt11char_traits1Zw
                0x08078a7c        0xa /x86/lib/libcpp.a(wlocale.o)
                0x08078a7c                std::ostreambuf_iterator<wchar_t, std::char_traits<wchar_t> >::operator*(void)
 *fill*         0x08078a86        0x2 37008
 .gnu.linkonce.t.overflow__Q23stdt15basic_streambuf2ZwZQ23stdt11char_traits1Zww
                0x08078a88       0x1a /x86/lib/libcpp.a(wlocale.o)
                0x08078a88                std::basic_streambuf<wchar_t, std::char_traits<wchar_t> >::overflow(wchar_t)
 *fill*         0x08078aa2        0x2 37008
 .gnu.linkonce.t._Pninc__Q23stdt15basic_streambuf2ZwZQ23stdt11char_traits1Zw
                0x08078aa4       0x14 /x86/lib/libcpp.a(wlocale.o)
                0x08078aa4                std::basic_streambuf<wchar_t, std::char_traits<wchar_t> >::_Pninc(void)
 .gnu.linkonce.t.epptr__CQ23stdt15basic_streambuf2ZwZQ23stdt11char_traits1Zw
                0x08078ab8       0x11 /x86/lib/libcpp.a(wlocale.o)
                0x08078ab8                std::basic_streambuf<wchar_t, std::char_traits<wchar_t> >::epptr(void) const
 *fill*         0x08078ac9        0x3 37008
 .gnu.linkonce.t.pptr__CQ23stdt15basic_streambuf2ZwZQ23stdt11char_traits1Zw
                0x08078acc       0x11 /x86/lib/libcpp.a(wlocale.o)
                0x08078acc                std::basic_streambuf<wchar_t, std::char_traits<wchar_t> >::pptr(void) const
 *fill*         0x08078add        0x3 37008
 .gnu.linkonce.t.sputc__Q23stdt15basic_streambuf2ZwZQ23stdt11char_traits1Zww
                0x08078ae0       0xa8 /x86/lib/libcpp.a(wlocale.o)
                0x08078ae0                std::basic_streambuf<wchar_t, std::char_traits<wchar_t> >::sputc(wchar_t)
 .gnu.linkonce.t.__as__Q23stdt19ostreambuf_iterator2ZwZQ23stdt11char_traits1Zww
                0x08078b88       0x5c /x86/lib/libcpp.a(wlocale.o)
                0x08078b88                std::ostreambuf_iterator<wchar_t, std::char_traits<wchar_t> >::operator=(wchar_t)
 .gnu.linkonce.t.do_put__CQ23stdt8time_put2ZwZQ23stdt19ostreambuf_iterator2ZwZQ23stdt11char_traits1ZwGQ23stdt19ostreambuf_iterator2ZwZQ23stdt11char_traits1ZwRQ23std8ios_basewPCQ23std2tmcc
                0x08078be4      0x1eb /x86/lib/libcpp.a(wlocale.o)
                0x08078be4                std::time_put<wchar_t, std::ostreambuf_iterator<wchar_t, std::char_traits<wchar_t> > >::do_put(std::ostreambuf_iterator<wchar_t, std::char_traits<wchar_t> >, std::ios_base &, wchar_t, std::tm const *, char, char) const
 *fill*         0x08078dcf        0x1 37008
 .gnu.linkonce.t._._Q23stdt8time_get2ZwZQ23stdt19istreambuf_iterator2ZwZQ23stdt11char_traits1Zw
                0x08078dd0       0x55 /x86/lib/libcpp.a(wlocale.o)
                0x08078dd0                std::time_get<wchar_t, std::istreambuf_iterator<wchar_t, std::char_traits<wchar_t> > >::~time_get(void)
 *fill*         0x08078e25        0x3 37008
 .gnu.linkonce.t.do_date_order__CQ23stdt8time_get2ZwZQ23stdt19istreambuf_iterator2ZwZQ23stdt11char_traits1Zw
                0x08078e28        0xf /x86/lib/libcpp.a(wlocale.o)
                0x08078e28                std::time_get<wchar_t, std::istreambuf_iterator<wchar_t, std::char_traits<wchar_t> > >::do_date_order(void) const
 *fill*         0x08078e37        0x1 37008
 .gnu.linkonce.t.underflow__Q23stdt15basic_streambuf2ZwZQ23stdt11char_traits1Zw
                0x08078e38       0x1a /x86/lib/libcpp.a(wlocale.o)
                0x08078e38                std::basic_streambuf<wchar_t, std::char_traits<wchar_t> >::underflow(void)
 *fill*         0x08078e52        0x2 37008
 .gnu.linkonce.t.gptr__CQ23stdt15basic_streambuf2ZwZQ23stdt11char_traits1Zw
                0x08078e54       0x11 /x86/lib/libcpp.a(wlocale.o)
                0x08078e54                std::basic_streambuf<wchar_t, std::char_traits<wchar_t> >::gptr(void) const
 *fill*         0x08078e65        0x3 37008
 .gnu.linkonce.t.egptr__CQ23stdt15basic_streambuf2ZwZQ23stdt11char_traits1Zw
                0x08078e68       0x11 /x86/lib/libcpp.a(wlocale.o)
                0x08078e68                std::basic_streambuf<wchar_t, std::char_traits<wchar_t> >::egptr(void) const
 *fill*         0x08078e79        0x3 37008
 .gnu.linkonce.t.sgetc__Q23stdt15basic_streambuf2ZwZQ23stdt11char_traits1Zw
                0x08078e7c       0x88 /x86/lib/libcpp.a(wlocale.o)
                0x08078e7c                std::basic_streambuf<wchar_t, std::char_traits<wchar_t> >::sgetc(void)
 .gnu.linkonce.t._Peek__Q23stdt19istreambuf_iterator2ZwZQ23stdt11char_traits1Zw
                0x08078f04       0x7b /x86/lib/libcpp.a(wlocale.o)
                0x08078f04                std::istreambuf_iterator<wchar_t, std::char_traits<wchar_t> >::_Peek(void)
 *fill*         0x08078f7f        0x1 37008
 .gnu.linkonce.t.equal__CQ23stdt19istreambuf_iterator2ZwZQ23stdt11char_traits1ZwRCQ23stdt19istreambuf_iterator2ZwZQ23stdt11char_traits1Zw
                0x08078f80       0x6a /x86/lib/libcpp.a(wlocale.o)
                0x08078f80                std::istreambuf_iterator<wchar_t, std::char_traits<wchar_t> >::equal(std::istreambuf_iterator<wchar_t, std::char_traits<wchar_t> > const &) const
 *fill*         0x08078fea        0x2 37008
 .gnu.linkonce.t.__eq__H2ZwZQ23stdt11char_traits1Zw_3stdRCQ23stdt19istreambuf_iterator2ZX01ZX11T1_b
                0x08078fec       0x28 /x86/lib/libcpp.a(wlocale.o)
                0x08078fec                bool std::operator==<wchar_t, std::char_traits<wchar_t> >(std::istreambuf_iterator<wchar_t, std::char_traits<wchar_t> > const &, std::istreambuf_iterator<wchar_t, std::char_traits<wchar_t> > const &)
 .gnu.linkonce.t.__ml__CQ23stdt19istreambuf_iterator2ZwZQ23stdt11char_traits1Zw
                0x08079014       0x28 /x86/lib/libcpp.a(wlocale.o)
                0x08079014                std::istreambuf_iterator<wchar_t, std::char_traits<wchar_t> >::operator*(void) const
 .gnu.linkonce.t._Gninc__Q23stdt15basic_streambuf2ZwZQ23stdt11char_traits1Zw
                0x0807903c       0x14 /x86/lib/libcpp.a(wlocale.o)
                0x0807903c                std::basic_streambuf<wchar_t, std::char_traits<wchar_t> >::_Gninc(void)
 .gnu.linkonce.t.uflow__Q23stdt15basic_streambuf2ZwZQ23stdt11char_traits1Zw
                0x08079050       0x7c /x86/lib/libcpp.a(wlocale.o)
                0x08079050                std::basic_streambuf<wchar_t, std::char_traits<wchar_t> >::uflow(void)
 .gnu.linkonce.t.sbumpc__Q23stdt15basic_streambuf2ZwZQ23stdt11char_traits1Zw
                0x080790cc       0x88 /x86/lib/libcpp.a(wlocale.o)
                0x080790cc                std::basic_streambuf<wchar_t, std::char_traits<wchar_t> >::sbumpc(void)
 .gnu.linkonce.t._Inc__Q23stdt19istreambuf_iterator2ZwZQ23stdt11char_traits1Zw
                0x08079154       0x64 /x86/lib/libcpp.a(wlocale.o)
                0x08079154                std::istreambuf_iterator<wchar_t, std::char_traits<wchar_t> >::_Inc(void)
 .gnu.linkonce.t.__pp__Q23stdt19istreambuf_iterator2ZwZQ23stdt11char_traits1Zw
                0x080791b8       0x1f /x86/lib/libcpp.a(wlocale.o)
                0x080791b8                std::istreambuf_iterator<wchar_t, std::char_traits<wchar_t> >::operator++(void)
 *fill*         0x080791d7        0x1 37008
 .gnu.linkonce.t.__ne__H2ZwZQ23stdt11char_traits1Zw_3stdRCQ23stdt19istreambuf_iterator2ZX01ZX11T1_b
                0x080791d8       0x2b /x86/lib/libcpp.a(wlocale.o)
                0x080791d8                bool std::operator!=<wchar_t, std::char_traits<wchar_t> >(std::istreambuf_iterator<wchar_t, std::char_traits<wchar_t> > const &, std::istreambuf_iterator<wchar_t, std::char_traits<wchar_t> > const &)
 *fill*         0x08079203        0x1 37008
 .gnu.linkonce.t._Getint__Q23stdt8time_get2ZwZQ23stdt19istreambuf_iterator2ZwZQ23stdt11char_traits1ZwRQ23stdt19istreambuf_iterator2ZwZQ23stdt11char_traits1ZwT1iiRi
                0x08079204      0x28b /x86/lib/libcpp.a(wlocale.o)
                0x08079204                std::time_get<wchar_t, std::istreambuf_iterator<wchar_t, std::char_traits<wchar_t> > >::_Getint(std::istreambuf_iterator<wchar_t, std::char_traits<wchar_t> > &, std::istreambuf_iterator<wchar_t, std::char_traits<wchar_t> > &, int, int, int &)
 *fill*         0x0807948f        0x1 37008
 .gnu.linkonce.t.do_get_time__CQ23stdt8time_get2ZwZQ23stdt19istreambuf_iterator2ZwZQ23stdt11char_traits1ZwGQ23stdt19istreambuf_iterator2ZwZQ23stdt11char_traits1ZwT1RQ23std8ios_baseRQ33stdt5_Iosb1Zi8_IostatePQ23std2tm
                0x08079490      0x160 /x86/lib/libcpp.a(wlocale.o)
                0x08079490                std::time_get<wchar_t, std::istreambuf_iterator<wchar_t, std::char_traits<wchar_t> > >::do_get_time(std::istreambuf_iterator<wchar_t, std::char_traits<wchar_t> >, std::istreambuf_iterator<wchar_t, std::char_traits<wchar_t> >, std::ios_base &, std::_Iosb<int>::_Iostate &, std::tm *) const
 .gnu.linkonce.t._Getloctxt__H2ZwZQ23stdt19istreambuf_iterator2ZwZQ23stdt11char_traits1Zw_3stdRX11T1UiPCX01_i
                0x080795f0      0x260 /x86/lib/libcpp.a(wlocale.o)
                0x080795f0                int std::_Getloctxt<wchar_t, std::istreambuf_iterator<wchar_t, std::char_traits<wchar_t> > >(std::istreambuf_iterator<wchar_t, std::char_traits<wchar_t> > &, std::istreambuf_iterator<wchar_t, std::char_traits<wchar_t> > &, unsigned int, wchar_t const *)
 .gnu.linkonce.t.do_get_monthname__CQ23stdt8time_get2ZwZQ23stdt19istreambuf_iterator2ZwZQ23stdt11char_traits1ZwGQ23stdt19istreambuf_iterator2ZwZQ23stdt11char_traits1ZwT1RQ23std8ios_baseRQ33stdt5_Iosb1Zi8_IostatePQ23std2tm
                0x08079850       0x74 /x86/lib/libcpp.a(wlocale.o)
                0x08079850                std::time_get<wchar_t, std::istreambuf_iterator<wchar_t, std::char_traits<wchar_t> > >::do_get_monthname(std::istreambuf_iterator<wchar_t, std::char_traits<wchar_t> >, std::istreambuf_iterator<wchar_t, std::char_traits<wchar_t> >, std::ios_base &, std::_Iosb<int>::_Iostate &, std::tm *) const
 .gnu.linkonce.t.get_monthname__CQ23stdt8time_get2ZwZQ23stdt19istreambuf_iterator2ZwZQ23stdt11char_traits1ZwGQ23stdt19istreambuf_iterator2ZwZQ23stdt11char_traits1ZwT1RQ23std8ios_baseRQ33stdt5_Iosb1Zi8_IostatePQ23std2tm
                0x080798c4       0x83 /x86/lib/libcpp.a(wlocale.o)
                0x080798c4                std::time_get<wchar_t, std::istreambuf_iterator<wchar_t, std::char_traits<wchar_t> > >::get_monthname(std::istreambuf_iterator<wchar_t, std::char_traits<wchar_t> >, std::istreambuf_iterator<wchar_t, std::char_traits<wchar_t> >, std::ios_base &, std::_Iosb<int>::_Iostate &, std::tm *) const
 *fill*         0x08079947        0x1 37008
 .gnu.linkonce.t.do_get_year__CQ23stdt8time_get2ZwZQ23stdt19istreambuf_iterator2ZwZQ23stdt11char_traits1ZwGQ23stdt19istreambuf_iterator2ZwZQ23stdt11char_traits1ZwT1RQ23std8ios_baseRQ33stdt5_Iosb1Zi8_IostatePQ23std2tm
                0x08079948       0xc4 /x86/lib/libcpp.a(wlocale.o)
                0x08079948                std::time_get<wchar_t, std::istreambuf_iterator<wchar_t, std::char_traits<wchar_t> > >::do_get_year(std::istreambuf_iterator<wchar_t, std::char_traits<wchar_t> >, std::istreambuf_iterator<wchar_t, std::char_traits<wchar_t> >, std::ios_base &, std::_Iosb<int>::_Iostate &, std::tm *) const
 .gnu.linkonce.t.get_year__CQ23stdt8time_get2ZwZQ23stdt19istreambuf_iterator2ZwZQ23stdt11char_traits1ZwGQ23stdt19istreambuf_iterator2ZwZQ23stdt11char_traits1ZwT1RQ23std8ios_baseRQ33stdt5_Iosb1Zi8_IostatePQ23std2tm
                0x08079a0c       0x83 /x86/lib/libcpp.a(wlocale.o)
                0x08079a0c                std::time_get<wchar_t, std::istreambuf_iterator<wchar_t, std::char_traits<wchar_t> > >::get_year(std::istreambuf_iterator<wchar_t, std::char_traits<wchar_t> >, std::istreambuf_iterator<wchar_t, std::char_traits<wchar_t> >, std::ios_base &, std::_Iosb<int>::_Iostate &, std::tm *) const
 *fill*         0x08079a8f        0x1 37008
 .gnu.linkonce.t.do_get_date__CQ23stdt8time_get2ZwZQ23stdt19istreambuf_iterator2ZwZQ23stdt11char_traits1ZwGQ23stdt19istreambuf_iterator2ZwZQ23stdt11char_traits1ZwT1RQ23std8ios_baseRQ33stdt5_Iosb1Zi8_IostatePQ23std2tm
                0x08079a90      0x29a /x86/lib/libcpp.a(wlocale.o)
                0x08079a90                std::time_get<wchar_t, std::istreambuf_iterator<wchar_t, std::char_traits<wchar_t> > >::do_get_date(std::istreambuf_iterator<wchar_t, std::char_traits<wchar_t> >, std::istreambuf_iterator<wchar_t, std::char_traits<wchar_t> >, std::ios_base &, std::_Iosb<int>::_Iostate &, std::tm *) const
 *fill*         0x08079d2a        0x2 37008
 .gnu.linkonce.t.do_get_weekday__CQ23stdt8time_get2ZwZQ23stdt19istreambuf_iterator2ZwZQ23stdt11char_traits1ZwGQ23stdt19istreambuf_iterator2ZwZQ23stdt11char_traits1ZwT1RQ23std8ios_baseRQ33stdt5_Iosb1Zi8_IostatePQ23std2tm
                0x08079d2c       0x74 /x86/lib/libcpp.a(wlocale.o)
                0x08079d2c                std::time_get<wchar_t, std::istreambuf_iterator<wchar_t, std::char_traits<wchar_t> > >::do_get_weekday(std::istreambuf_iterator<wchar_t, std::char_traits<wchar_t> >, std::istreambuf_iterator<wchar_t, std::char_traits<wchar_t> >, std::ios_base &, std::_Iosb<int>::_Iostate &, std::tm *) const
 .gnu.linkonce.t.do_decimal_point__CQ23stdt7_Mpunct1Zw
                0x08079da0        0xf /x86/lib/libcpp.a(wlocale.o)
                0x08079da0                std::_Mpunct<wchar_t>::do_decimal_point(void) const
 *fill*         0x08079daf        0x1 37008
 .gnu.linkonce.t.do_thousands_sep__CQ23stdt7_Mpunct1Zw
                0x08079db0        0xf /x86/lib/libcpp.a(wlocale.o)
                0x08079db0                std::_Mpunct<wchar_t>::do_thousands_sep(void) const
 *fill*         0x08079dbf        0x1 37008
 .gnu.linkonce.t.do_grouping__CQ23stdt7_Mpunct1Zw
                0x08079dc0       0x2d /x86/lib/libcpp.a(wlocale.o)
                0x08079dc0                std::_Mpunct<wchar_t>::do_grouping(void) const
 *fill*         0x08079ded        0x3 37008
 .gnu.linkonce.t.assign__Q23stdt12basic_string3ZwZQ23stdt11char_traits1ZwZQ23stdt9allocator1ZwRCQ23stdt12basic_string3ZwZQ23stdt11char_traits1ZwZQ23stdt9allocator1ZwUiUi
                0x08079df0       0xf7 /x86/lib/libcpp.a(wlocale.o)
                0x08079df0                std::basic_string<wchar_t, std::char_traits<wchar_t>, std::allocator<wchar_t> >::assign(std::basic_string<wchar_t, std::char_traits<wchar_t>, std::allocator<wchar_t> > const &, unsigned int, unsigned int)
 *fill*         0x08079ee7        0x1 37008
 .gnu.linkonce.t.assign__Q23stdt12basic_string3ZwZQ23stdt11char_traits1ZwZQ23stdt9allocator1ZwPCwUi
                0x08079ee8       0xa3 /x86/lib/libcpp.a(wlocale.o)
                0x08079ee8                std::basic_string<wchar_t, std::char_traits<wchar_t>, std::allocator<wchar_t> >::assign(wchar_t const *, unsigned int)
 *fill*         0x08079f8b        0x1 37008
 .gnu.linkonce.t.assign__Q23stdt12basic_string3ZwZQ23stdt11char_traits1ZwZQ23stdt9allocator1ZwPCw
                0x08079f8c       0x37 /x86/lib/libcpp.a(wlocale.o)
                0x08079f8c                std::basic_string<wchar_t, std::char_traits<wchar_t>, std::allocator<wchar_t> >::assign(wchar_t const *)
 *fill*         0x08079fc3        0x1 37008
 .gnu.linkonce.t.__Q23stdt12basic_string3ZwZQ23stdt11char_traits1ZwZQ23stdt9allocator1ZwPCw
                0x08079fc4       0x54 /x86/lib/libcpp.a(wlocale.o)
                0x08079fc4                std::basic_string<wchar_t, std::char_traits<wchar_t>, std::allocator<wchar_t> >::basic_string(wchar_t const *)
 .gnu.linkonce.t.__Q23stdt12basic_string3ZwZQ23stdt11char_traits1ZwZQ23stdt9allocator1ZwRCQ23stdt12basic_string3ZwZQ23stdt11char_traits1ZwZQ23stdt9allocator1Zw
                0x0807a018       0x5a /x86/lib/libcpp.a(wlocale.o)
                0x0807a018                std::basic_string<wchar_t, std::char_traits<wchar_t>, std::allocator<wchar_t> >::basic_string(std::basic_string<wchar_t, std::char_traits<wchar_t>, std::allocator<wchar_t> > const &)
 *fill*         0x0807a072        0x2 37008
 .gnu.linkonce.t.do_curr_symbol__CQ23stdt7_Mpunct1Zw
                0x0807a074       0x2d /x86/lib/libcpp.a(wlocale.o)
                0x0807a074                std::_Mpunct<wchar_t>::do_curr_symbol(void) const
 *fill*         0x0807a0a1        0x3 37008
 .gnu.linkonce.t.do_positive_sign__CQ23stdt7_Mpunct1Zw
                0x0807a0a4       0x2d /x86/lib/libcpp.a(wlocale.o)
                0x0807a0a4                std::_Mpunct<wchar_t>::do_positive_sign(void) const
 *fill*         0x0807a0d1        0x3 37008
 .gnu.linkonce.t.do_negative_sign__CQ23stdt7_Mpunct1Zw
                0x0807a0d4       0x2d /x86/lib/libcpp.a(wlocale.o)
                0x0807a0d4                std::_Mpunct<wchar_t>::do_negative_sign(void) const
 *fill*         0x0807a101        0x3 37008
 .gnu.linkonce.t.do_frac_digits__CQ23stdt7_Mpunct1Zw
                0x0807a104        0xf /x86/lib/libcpp.a(wlocale.o)
                0x0807a104                std::_Mpunct<wchar_t>::do_frac_digits(void) const
 *fill*         0x0807a113        0x1 37008
 .gnu.linkonce.t.do_pos_format__CQ23stdt7_Mpunct1Zw
                0x0807a114       0x16 /x86/lib/libcpp.a(wlocale.o)
                0x0807a114                std::_Mpunct<wchar_t>::do_pos_format(void) const
 *fill*         0x0807a12a        0x2 37008
 .gnu.linkonce.t.do_neg_format__CQ23stdt7_Mpunct1Zw
                0x0807a12c       0x16 /x86/lib/libcpp.a(wlocale.o)
                0x0807a12c                std::_Mpunct<wchar_t>::do_neg_format(void) const
 *fill*         0x0807a142        0x2 37008
 .gnu.linkonce.t._._Q23stdt9money_put2ZwZQ23stdt19ostreambuf_iterator2ZwZQ23stdt11char_traits1Zw
                0x0807a144       0x26 /x86/lib/libcpp.a(wlocale.o)
                0x0807a144                std::money_put<wchar_t, std::ostreambuf_iterator<wchar_t, std::char_traits<wchar_t> > >::~money_put(void)
 *fill*         0x0807a16a        0x2 37008
 .gnu.linkonce.t.append__Q23stdt12basic_string3ZwZQ23stdt11char_traits1ZwZQ23stdt9allocator1ZwUiw
                0x0807a16c       0x96 /x86/lib/libcpp.a(wlocale.o)
                0x0807a16c                std::basic_string<wchar_t, std::char_traits<wchar_t>, std::allocator<wchar_t> >::append(unsigned int, wchar_t)
 *fill*         0x0807a202        0x2 37008
 .gnu.linkonce.t.frac_digits__CQ23stdt7_Mpunct1Zw
                0x0807a204       0x32 /x86/lib/libcpp.a(wlocale.o)
                0x0807a204                std::_Mpunct<wchar_t>::frac_digits(void) const
 *fill*         0x0807a236        0x2 37008
 .gnu.linkonce.t.grouping__CQ23stdt7_Mpunct1Zw
                0x0807a238       0x3c /x86/lib/libcpp.a(wlocale.o)
                0x0807a238                std::_Mpunct<wchar_t>::grouping(void) const
 .gnu.linkonce.t.thousands_sep__CQ23stdt7_Mpunct1Zw
                0x0807a274       0x32 /x86/lib/libcpp.a(wlocale.o)
                0x0807a274                std::_Mpunct<wchar_t>::thousands_sep(void) const
 *fill*         0x0807a2a6        0x2 37008
 .gnu.linkonce.t.insert__Q23stdt12basic_string3ZwZQ23stdt11char_traits1ZwZQ23stdt9allocator1ZwUiUiw
                0x0807a2a8      0x10e /x86/lib/libcpp.a(wlocale.o)
                0x0807a2a8                std::basic_string<wchar_t, std::char_traits<wchar_t>, std::allocator<wchar_t> >::insert(unsigned int, unsigned int, wchar_t)
 *fill*         0x0807a3b6        0x2 37008
 .gnu.linkonce.t.neg_format__CQ23stdt7_Mpunct1Zw
                0x0807a3b8       0x3c /x86/lib/libcpp.a(wlocale.o)
                0x0807a3b8                std::_Mpunct<wchar_t>::neg_format(void) const
 .gnu.linkonce.t.negative_sign__CQ23stdt7_Mpunct1Zw
                0x0807a3f4       0x3c /x86/lib/libcpp.a(wlocale.o)
                0x0807a3f4                std::_Mpunct<wchar_t>::negative_sign(void) const
 .gnu.linkonce.t.assign__Q23stdt12basic_string3ZwZQ23stdt11char_traits1ZwZQ23stdt9allocator1ZwRCQ23stdt12basic_string3ZwZQ23stdt11char_traits1ZwZQ23stdt9allocator1Zw
                0x0807a430       0x26 /x86/lib/libcpp.a(wlocale.o)
                0x0807a430                std::basic_string<wchar_t, std::char_traits<wchar_t>, std::allocator<wchar_t> >::assign(std::basic_string<wchar_t, std::char_traits<wchar_t>, std::allocator<wchar_t> > const &)
 *fill*         0x0807a456        0x2 37008
 .gnu.linkonce.t.__as__Q23stdt12basic_string3ZwZQ23stdt11char_traits1ZwZQ23stdt9allocator1ZwRCQ23stdt12basic_string3ZwZQ23stdt11char_traits1ZwZQ23stdt9allocator1Zw
                0x0807a458       0x25 /x86/lib/libcpp.a(wlocale.o)
                0x0807a458                std::basic_string<wchar_t, std::char_traits<wchar_t>, std::allocator<wchar_t> >::operator=(std::basic_string<wchar_t, std::char_traits<wchar_t>, std::allocator<wchar_t> > const &)
 *fill*         0x0807a47d        0x3 37008
 .gnu.linkonce.t.pos_format__CQ23stdt7_Mpunct1Zw
                0x0807a480       0x3c /x86/lib/libcpp.a(wlocale.o)
                0x0807a480                std::_Mpunct<wchar_t>::pos_format(void) const
 .gnu.linkonce.t.positive_sign__CQ23stdt7_Mpunct1Zw
                0x0807a4bc       0x3c /x86/lib/libcpp.a(wlocale.o)
                0x0807a4bc                std::_Mpunct<wchar_t>::positive_sign(void) const
 .gnu.linkonce.t.curr_symbol__CQ23stdt7_Mpunct1Zw
                0x0807a4f8       0x3c /x86/lib/libcpp.a(wlocale.o)
                0x0807a4f8                std::_Mpunct<wchar_t>::curr_symbol(void) const
 .gnu.linkonce.t._Rep__Q23stdt9money_put2ZwZQ23stdt19ostreambuf_iterator2ZwZQ23stdt11char_traits1ZwGQ23stdt19ostreambuf_iterator2ZwZQ23stdt11char_traits1ZwwUi
                0x0807a534       0x6d /x86/lib/libcpp.a(wlocale.o)
                0x0807a534                std::money_put<wchar_t, std::ostreambuf_iterator<wchar_t, std::char_traits<wchar_t> > >::_Rep(std::ostreambuf_iterator<wchar_t, std::char_traits<wchar_t> >, wchar_t, unsigned int)
 *fill*         0x0807a5a1        0x3 37008
 .gnu.linkonce.t.__pp__Q23stdt6_Ptrit6ZwZiZPCwZRCwZPwZRw
                0x0807a5a4       0x16 /x86/lib/libcpp.a(wlocale.o)
                0x0807a5a4                std::_Ptrit<wchar_t, int, wchar_t const *, wchar_t const &, wchar_t *, wchar_t &>::operator++(void)
 *fill*         0x0807a5ba        0x2 37008
 .gnu.linkonce.t.__ml__CQ23stdt6_Ptrit6ZwZiZPCwZRCwZPwZRw
                0x0807a5bc       0x16 /x86/lib/libcpp.a(wlocale.o)
                0x0807a5bc                std::_Ptrit<wchar_t, int, wchar_t const *, wchar_t const &, wchar_t *, wchar_t &>::operator*(void) const
 *fill*         0x0807a5d2        0x2 37008
 .gnu.linkonce.t._Put__Q23stdt9money_put2ZwZQ23stdt19ostreambuf_iterator2ZwZQ23stdt11char_traits1ZwGQ23stdt19ostreambuf_iterator2ZwZQ23stdt11char_traits1ZwGQ23stdt6_Ptrit6ZwZiZPCwZRCwZPwZRwUi
                0x0807a5d4       0x8d /x86/lib/libcpp.a(wlocale.o)
                0x0807a5d4                std::money_put<wchar_t, std::ostreambuf_iterator<wchar_t, std::char_traits<wchar_t> > >::_Put(std::ostreambuf_iterator<wchar_t, std::char_traits<wchar_t> >, std::_Ptrit<wchar_t, int, wchar_t const *, wchar_t const &, wchar_t *, wchar_t &>, unsigned int)
 *fill*         0x0807a661        0x3 37008
 .gnu.linkonce.t.__pp__Q23stdt19ostreambuf_iterator2ZwZQ23stdt11char_traits1Zwi
                0x0807a664        0xe /x86/lib/libcpp.a(wlocale.o)
                0x0807a664                std::ostreambuf_iterator<wchar_t, std::char_traits<wchar_t> >::operator++(int)
 *fill*         0x0807a672        0x2 37008
 .gnu.linkonce.t.decimal_point__CQ23stdt7_Mpunct1Zw
                0x0807a674       0x38 /x86/lib/libcpp.a(wlocale.o)
                0x0807a674                std::_Mpunct<wchar_t>::decimal_point(void) const
 .gnu.linkonce.t.__mi__CQ23stdt6_Ptrit6ZwZiZPwZRwZPwZRwi
                0x0807a6ac       0x3f /x86/lib/libcpp.a(wlocale.o)
                0x0807a6ac                std::_Ptrit<wchar_t, int, wchar_t *, wchar_t &, wchar_t *, wchar_t &>::operator-(int) const
 *fill*         0x0807a6eb        0x1 37008
 .gnu.linkonce.t.__pl__CQ23stdt6_Ptrit6ZwZiZPwZRwZPwZRwi
                0x0807a6ec       0x3f /x86/lib/libcpp.a(wlocale.o)
                0x0807a6ec                std::_Ptrit<wchar_t, int, wchar_t *, wchar_t &, wchar_t *, wchar_t &>::operator+(int) const
 *fill*         0x0807a72b        0x1 37008
 .gnu.linkonce.t._Putmfld__CQ23stdt9money_put2ZwZQ23stdt19ostreambuf_iterator2ZwZQ23stdt11char_traits1ZwGQ23stdt19ostreambuf_iterator2ZwZQ23stdt11char_traits1ZwbRQ23std8ios_basewT2GQ23stdt12basic_string3ZwZQ23stdt11char_traits1ZwZQ23stdt9allocator1Zw
                0x0807a72c      0xe6f /x86/lib/libcpp.a(wlocale.o)
                0x0807a72c                std::money_put<wchar_t, std::ostreambuf_iterator<wchar_t, std::char_traits<wchar_t> > >::_Putmfld(std::ostreambuf_iterator<wchar_t, std::char_traits<wchar_t> >, bool, std::ios_base &, wchar_t, bool, std::basic_string<wchar_t, std::char_traits<wchar_t>, std::allocator<wchar_t> >) const
 *fill*         0x0807b59b        0x1 37008
 .gnu.linkonce.t.do_put__CQ23stdt9money_put2ZwZQ23stdt19ostreambuf_iterator2ZwZQ23stdt11char_traits1ZwGQ23stdt19ostreambuf_iterator2ZwZQ23stdt11char_traits1ZwbRQ23std8ios_basewr
                0x0807b59c      0x1c6 /x86/lib/libcpp.a(wlocale.o)
                0x0807b59c                std::money_put<wchar_t, std::ostreambuf_iterator<wchar_t, std::char_traits<wchar_t> > >::do_put(std::ostreambuf_iterator<wchar_t, std::char_traits<wchar_t> >, bool, std::ios_base &, wchar_t, long double) const
 *fill*         0x0807b762        0x2 37008
 .gnu.linkonce.t.do_narrow__CQ23stdt5ctype1Zwwc
                0x0807b764       0x1e /x86/lib/libcpp.a(wlocale.o)
                0x0807b764                std::ctype<wchar_t>::do_narrow(wchar_t, char) const
 *fill*         0x0807b782        0x2 37008
 .gnu.linkonce.t.narrow__CQ23stdt5ctype1Zwwc
                0x0807b784       0x48 /x86/lib/libcpp.a(wlocale.o)
                0x0807b784                std::ctype<wchar_t>::narrow(wchar_t, char) const
 .gnu.linkonce.t.do_is__CQ23stdt5ctype1Zwsw
                0x0807b7cc       0x4d /x86/lib/libcpp.a(wlocale.o)
                0x0807b7cc                std::ctype<wchar_t>::do_is(short, wchar_t) const
 *fill*         0x0807b819        0x3 37008
 .gnu.linkonce.t.is__CQ23stdt5ctype1Zwsw
                0x0807b81c       0x48 /x86/lib/libcpp.a(wlocale.o)
                0x0807b81c                std::ctype<wchar_t>::is(short, wchar_t) const
 .gnu.linkonce.t.__Q23stdt12basic_string3ZwZQ23stdt11char_traits1ZwZQ23stdt9allocator1ZwPCwUi
                0x0807b864       0x58 /x86/lib/libcpp.a(wlocale.o)
                0x0807b864                std::basic_string<wchar_t, std::char_traits<wchar_t>, std::allocator<wchar_t> >::basic_string(wchar_t const *, unsigned int)
 .gnu.linkonce.t.do_put__CQ23stdt9money_put2ZwZQ23stdt19ostreambuf_iterator2ZwZQ23stdt11char_traits1ZwGQ23stdt19ostreambuf_iterator2ZwZQ23stdt11char_traits1ZwbRQ23std8ios_basewRCQ23stdt12basic_string3ZwZQ23stdt11char_traits1ZwZQ23stdt9allocator1Zw
                0x0807b8bc      0x1d4 /x86/lib/libcpp.a(wlocale.o)
                0x0807b8bc                std::money_put<wchar_t, std::ostreambuf_iterator<wchar_t, std::char_traits<wchar_t> > >::do_put(std::ostreambuf_iterator<wchar_t, std::char_traits<wchar_t> >, bool, std::ios_base &, wchar_t, std::basic_string<wchar_t, std::char_traits<wchar_t>, std::allocator<wchar_t> > const &) const
 .gnu.linkonce.t._._Q23stdt9money_get2ZwZQ23stdt19istreambuf_iterator2ZwZQ23stdt11char_traits1Zw
                0x0807ba90       0x26 /x86/lib/libcpp.a(wlocale.o)
                0x0807ba90                std::money_get<wchar_t, std::istreambuf_iterator<wchar_t, std::char_traits<wchar_t> > >::~money_get(void)
 *fill*         0x0807bab6        0x2 37008
 .gnu.linkonce.t.__Q23stdt6_Ptrit6ZwZiZPCwZRCwZPwZRw
                0x0807bab8        0xa /x86/lib/libcpp.a(wlocale.o)
                0x0807bab8                std::_Ptrit<wchar_t, int, wchar_t const *, wchar_t const &, wchar_t *, wchar_t &>::_Ptrit(void)
 *fill*         0x0807bac2        0x2 37008
 .gnu.linkonce.t.__eq__CQ23stdt6_Ptrit6ZwZiZPCwZRCwZPwZRwRCQ23stdt6_Ptrit6ZwZiZPCwZRCwZPwZRw
                0x0807bac4       0x1b /x86/lib/libcpp.a(wlocale.o)
                0x0807bac4                std::_Ptrit<wchar_t, int, wchar_t const *, wchar_t const &, wchar_t *, wchar_t &>::operator==(std::_Ptrit<wchar_t, int, wchar_t const *, wchar_t const &, wchar_t *, wchar_t &> const &) const
 *fill*         0x0807badf        0x1 37008
 .gnu.linkonce.t.__ne__CQ23stdt6_Ptrit6ZwZiZPCwZRCwZPwZRwRCQ23stdt6_Ptrit6ZwZiZPCwZRCwZPwZRw
                0x0807bae0       0x28 /x86/lib/libcpp.a(wlocale.o)
                0x0807bae0                std::_Ptrit<wchar_t, int, wchar_t const *, wchar_t const &, wchar_t *, wchar_t &>::operator!=(std::_Ptrit<wchar_t, int, wchar_t const *, wchar_t const &, wchar_t *, wchar_t &> const &) const
 .gnu.linkonce.t.__vc__Q23stdt12basic_string3ZwZQ23stdt11char_traits1ZwZQ23stdt9allocator1ZwUi
                0x0807bb08       0x37 /x86/lib/libcpp.a(wlocale.o)
                0x0807bb08                std::basic_string<wchar_t, std::char_traits<wchar_t>, std::allocator<wchar_t> >::operator[](unsigned int)
 *fill*         0x0807bb3f        0x1 37008
 .gnu.linkonce.t.__pp__Q23stdt19istreambuf_iterator2ZwZQ23stdt11char_traits1Zwi
                0x0807bb40       0x6b /x86/lib/libcpp.a(wlocale.o)
                0x0807bb40                std::istreambuf_iterator<wchar_t, std::char_traits<wchar_t> >::operator++(int)
 *fill*         0x0807bbab        0x1 37008
 .gnu.linkonce.t.__apl__Q23stdt12basic_string3ZwZQ23stdt11char_traits1ZwZQ23stdt9allocator1Zww
                0x0807bbac       0x2d /x86/lib/libcpp.a(wlocale.o)
                0x0807bbac                std::basic_string<wchar_t, std::char_traits<wchar_t>, std::allocator<wchar_t> >::operator+=(wchar_t)
 *fill*         0x0807bbd9        0x3 37008
 .gnu.linkonce.t._Getmfld__CQ23stdt9money_get2ZwZQ23stdt19istreambuf_iterator2ZwZQ23stdt11char_traits1ZwRQ23stdt19istreambuf_iterator2ZwZQ23stdt11char_traits1ZwT1bRQ23std8ios_base
                0x0807bbdc     0x1073 /x86/lib/libcpp.a(wlocale.o)
                0x0807bbdc                std::money_get<wchar_t, std::istreambuf_iterator<wchar_t, std::char_traits<wchar_t> > >::_Getmfld(std::istreambuf_iterator<wchar_t, std::char_traits<wchar_t> > &, std::istreambuf_iterator<wchar_t, std::char_traits<wchar_t> > &, bool, std::ios_base &) const
 *fill*         0x0807cc4f        0x1 37008
 .gnu.linkonce.t.do_get__CQ23stdt9money_get2ZwZQ23stdt19istreambuf_iterator2ZwZQ23stdt11char_traits1ZwGQ23stdt19istreambuf_iterator2ZwZQ23stdt11char_traits1ZwT1bRQ23std8ios_baseRQ33stdt5_Iosb1Zi8_IostateRr
                0x0807cc50      0x220 /x86/lib/libcpp.a(wlocale.o)
                0x0807cc50                std::money_get<wchar_t, std::istreambuf_iterator<wchar_t, std::char_traits<wchar_t> > >::do_get(std::istreambuf_iterator<wchar_t, std::char_traits<wchar_t> >, std::istreambuf_iterator<wchar_t, std::char_traits<wchar_t> >, bool, std::ios_base &, std::_Iosb<int>::_Iostate &, long double &) const
 .gnu.linkonce.t.do_get__CQ23stdt9money_get2ZwZQ23stdt19istreambuf_iterator2ZwZQ23stdt11char_traits1ZwGQ23stdt19istreambuf_iterator2ZwZQ23stdt11char_traits1ZwT1bRQ23std8ios_baseRQ33stdt5_Iosb1Zi8_IostateRQ23stdt12basic_string3ZwZQ23stdt11char_traits1ZwZQ23stdt9allocator1Zw
                0x0807ce70      0x103 /x86/lib/libcpp.a(wlocale.o)
                0x0807ce70                std::money_get<wchar_t, std::istreambuf_iterator<wchar_t, std::char_traits<wchar_t> > >::do_get(std::istreambuf_iterator<wchar_t, std::char_traits<wchar_t> >, std::istreambuf_iterator<wchar_t, std::char_traits<wchar_t> >, bool, std::ios_base &, std::_Iosb<int>::_Iostate &, std::basic_string<wchar_t, std::char_traits<wchar_t>, std::allocator<wchar_t> > &) const
 *fill*         0x0807cf73        0x1 37008
 .gnu.linkonce.t.do_open__CQ23stdt8messages1ZwRCQ23stdt12basic_string3ZcZQ23stdt11char_traits1ZcZQ23stdt9allocator1ZcRCQ23std6locale
                0x0807cf74       0x12 /x86/lib/libcpp.a(wlocale.o)
                0x0807cf74                std::messages<wchar_t>::do_open(std::basic_string<char, std::char_traits<char>, std::allocator<char> > const &, std::locale const &) const
 *fill*         0x0807cf86        0x2 37008
 .gnu.linkonce.t.do_get__CQ23stdt8messages1ZwiiiRCQ23stdt12basic_string3ZwZQ23stdt11char_traits1ZwZQ23stdt9allocator1Zw
                0x0807cf88       0x33 /x86/lib/libcpp.a(wlocale.o)
                0x0807cf88                std::messages<wchar_t>::do_get(int, int, int, std::basic_string<wchar_t, std::char_traits<wchar_t>, std::allocator<wchar_t> > const &) const
 *fill*         0x0807cfbb        0x1 37008
 .gnu.linkonce.t.do_close__CQ23stdt8messages1Zwi
                0x0807cfbc        0xe /x86/lib/libcpp.a(wlocale.o)
                0x0807cfbc                std::messages<wchar_t>::do_close(int) const
 *fill*         0x0807cfca        0x2 37008
 .gnu.linkonce.t._._Q23stdt7collate1Zw
                0x0807cfcc       0x26 /x86/lib/libcpp.a(wlocale.o)
                0x0807cfcc                std::collate<wchar_t>::~collate(void)
 *fill*         0x0807cff2        0x2 37008
 .gnu.linkonce.t.do_compare__CQ23stdt7collate1ZwPCwN31
                0x0807cff4       0x39 /x86/lib/libcpp.a(wlocale.o)
                0x0807cff4                std::collate<wchar_t>::do_compare(wchar_t const *, wchar_t const *, wchar_t const *, wchar_t const *) const
 *fill*         0x0807d02d        0x3 37008
 .gnu.linkonce.t.resize__Q23stdt12basic_string3ZwZQ23stdt11char_traits1ZwZQ23stdt9allocator1ZwUiw
                0x0807d030       0x4d /x86/lib/libcpp.a(wlocale.o)
                0x0807d030                std::basic_string<wchar_t, std::char_traits<wchar_t>, std::allocator<wchar_t> >::resize(unsigned int, wchar_t)
 *fill*         0x0807d07d        0x3 37008
 .gnu.linkonce.t.resize__Q23stdt12basic_string3ZwZQ23stdt11char_traits1ZwZQ23stdt9allocator1ZwUi
                0x0807d080       0x25 /x86/lib/libcpp.a(wlocale.o)
                0x0807d080                std::basic_string<wchar_t, std::char_traits<wchar_t>, std::allocator<wchar_t> >::resize(unsigned int)
 *fill*         0x0807d0a5        0x3 37008
 .gnu.linkonce.t.__ml__CQ23stdt6_Ptrit6ZwZiZPwZRwZPwZRw
                0x0807d0a8       0x16 /x86/lib/libcpp.a(wlocale.o)
                0x0807d0a8                std::_Ptrit<wchar_t, int, wchar_t *, wchar_t &, wchar_t *, wchar_t &>::operator*(void) const
 *fill*         0x0807d0be        0x2 37008
 .gnu.linkonce.t.do_transform__CQ23stdt7collate1ZwPCwT1
                0x0807d0c0      0x154 /x86/lib/libcpp.a(wlocale.o)
                0x0807d0c0                std::collate<wchar_t>::do_transform(wchar_t const *, wchar_t const *) const
 .gnu.linkonce.t.do_hash__CQ23stdt7collate1ZwPCwT1
                0x0807d214       0x49 /x86/lib/libcpp.a(wlocale.o)
                0x0807d214                std::collate<wchar_t>::do_hash(wchar_t const *, wchar_t const *) const
 *fill*         0x0807d25d        0x3 37008
 .gnu.linkonce.t._._Q23stdt8numpunct1Zw
                0x0807d260       0x6d /x86/lib/libcpp.a(wlocale.o)
                0x0807d260                std::numpunct<wchar_t>::~numpunct(void)
 *fill*         0x0807d2cd        0x3 37008
 .gnu.linkonce.t.do_decimal_point__CQ23stdt8numpunct1Zw
                0x0807d2d0       0x16 /x86/lib/libcpp.a(wlocale.o)
                0x0807d2d0                std::numpunct<wchar_t>::do_decimal_point(void) const
 *fill*         0x0807d2e6        0x2 37008
 .gnu.linkonce.t.do_thousands_sep__CQ23stdt8numpunct1Zw
                0x0807d2e8       0x16 /x86/lib/libcpp.a(wlocale.o)
                0x0807d2e8                std::numpunct<wchar_t>::do_thousands_sep(void) const
 *fill*         0x0807d2fe        0x2 37008
 .gnu.linkonce.t.do_grouping__CQ23stdt8numpunct1Zw
                0x0807d300       0x33 /x86/lib/libcpp.a(wlocale.o)
                0x0807d300                std::numpunct<wchar_t>::do_grouping(void) const
 *fill*         0x0807d333        0x1 37008
 .gnu.linkonce.t.do_falsename__CQ23stdt8numpunct1Zw
                0x0807d334       0x33 /x86/lib/libcpp.a(wlocale.o)
                0x0807d334                std::numpunct<wchar_t>::do_falsename(void) const
 *fill*         0x0807d367        0x1 37008
 .gnu.linkonce.t.do_truename__CQ23stdt8numpunct1Zw
                0x0807d368       0x33 /x86/lib/libcpp.a(wlocale.o)
                0x0807d368                std::numpunct<wchar_t>::do_truename(void) const
 *fill*         0x0807d39b        0x1 37008
 .gnu.linkonce.t._._Q23stdt7num_put2ZwZQ23stdt19ostreambuf_iterator2ZwZQ23stdt11char_traits1Zw
                0x0807d39c       0x26 /x86/lib/libcpp.a(wlocale.o)
                0x0807d39c                std::num_put<wchar_t, std::ostreambuf_iterator<wchar_t, std::char_traits<wchar_t> > >::~num_put(void)
 *fill*         0x0807d3c2        0x2 37008
 .gnu.linkonce.t._Ifmt__Q23stdt7num_put2ZwZQ23stdt19ostreambuf_iterator2ZwZQ23stdt11char_traits1ZwPcPCcQ33stdt5_Iosb1Zi9_Fmtflags
                0x0807d3c4      0x121 /x86/lib/libcpp.a(wlocale.o)
                0x0807d3c4                std::num_put<wchar_t, std::ostreambuf_iterator<wchar_t, std::char_traits<wchar_t> > >::_Ifmt(char *, char const *, std::_Iosb<int>::_Fmtflags)
 *fill*         0x0807d4e5        0x3 37008
 .gnu.linkonce.t.grouping__CQ23stdt8numpunct1Zw
                0x0807d4e8       0x3c /x86/lib/libcpp.a(wlocale.o)
                0x0807d4e8                std::numpunct<wchar_t>::grouping(void) const
 .gnu.linkonce.t.thousands_sep__CQ23stdt8numpunct1Zw
                0x0807d524       0x32 /x86/lib/libcpp.a(wlocale.o)
                0x0807d524                std::numpunct<wchar_t>::thousands_sep(void) const
 *fill*         0x0807d556        0x2 37008
 .gnu.linkonce.t._Rep__Q23stdt7num_put2ZwZQ23stdt19ostreambuf_iterator2ZwZQ23stdt11char_traits1ZwGQ23stdt19ostreambuf_iterator2ZwZQ23stdt11char_traits1ZwwUi
                0x0807d558       0x68 /x86/lib/libcpp.a(wlocale.o)
                0x0807d558                std::num_put<wchar_t, std::ostreambuf_iterator<wchar_t, std::char_traits<wchar_t> > >::_Rep(std::ostreambuf_iterator<wchar_t, std::char_traits<wchar_t> >, wchar_t, unsigned int)
 .gnu.linkonce.t._Putc__Q23stdt7num_put2ZwZQ23stdt19ostreambuf_iterator2ZwZQ23stdt11char_traits1ZwGQ23stdt19ostreambuf_iterator2ZwZQ23stdt11char_traits1ZwPCcUi
                0x0807d5c0       0x80 /x86/lib/libcpp.a(wlocale.o)
                0x0807d5c0                std::num_put<wchar_t, std::ostreambuf_iterator<wchar_t, std::char_traits<wchar_t> > >::_Putc(std::ostreambuf_iterator<wchar_t, std::char_traits<wchar_t> >, char const *, unsigned int)
 .gnu.linkonce.t._Iput__Q23stdt7num_put2ZwZQ23stdt19ostreambuf_iterator2ZwZQ23stdt11char_traits1ZwGQ23stdt19ostreambuf_iterator2ZwZQ23stdt11char_traits1ZwRQ23std8ios_basewPcUi
                0x0807d640      0x4d0 /x86/lib/libcpp.a(wlocale.o)
                0x0807d640                std::num_put<wchar_t, std::ostreambuf_iterator<wchar_t, std::char_traits<wchar_t> > >::_Iput(std::ostreambuf_iterator<wchar_t, std::char_traits<wchar_t> >, std::ios_base &, wchar_t, char *, unsigned int)
 .gnu.linkonce.t.do_put__CQ23stdt7num_put2ZwZQ23stdt19ostreambuf_iterator2ZwZQ23stdt11char_traits1ZwGQ23stdt19ostreambuf_iterator2ZwZQ23stdt11char_traits1ZwRQ23std8ios_basewl
                0x0807db10       0x8d /x86/lib/libcpp.a(wlocale.o)
                0x0807db10                std::num_put<wchar_t, std::ostreambuf_iterator<wchar_t, std::char_traits<wchar_t> > >::do_put(std::ostreambuf_iterator<wchar_t, std::char_traits<wchar_t> >, std::ios_base &, wchar_t, long) const
 *fill*         0x0807db9d        0x3 37008
 .gnu.linkonce.t.falsename__CQ23stdt8numpunct1Zw
                0x0807dba0       0x3c /x86/lib/libcpp.a(wlocale.o)
                0x0807dba0                std::numpunct<wchar_t>::falsename(void) const
 .gnu.linkonce.t.truename__CQ23stdt8numpunct1Zw
                0x0807dbdc       0x3c /x86/lib/libcpp.a(wlocale.o)
                0x0807dbdc                std::numpunct<wchar_t>::truename(void) const
 .gnu.linkonce.t._Put__Q23stdt7num_put2ZwZQ23stdt19ostreambuf_iterator2ZwZQ23stdt11char_traits1ZwGQ23stdt19ostreambuf_iterator2ZwZQ23stdt11char_traits1ZwPCwUi
                0x0807dc18       0x70 /x86/lib/libcpp.a(wlocale.o)
                0x0807dc18                std::num_put<wchar_t, std::ostreambuf_iterator<wchar_t, std::char_traits<wchar_t> > >::_Put(std::ostreambuf_iterator<wchar_t, std::char_traits<wchar_t> >, wchar_t const *, unsigned int)
 .gnu.linkonce.t.do_put__CQ23stdt7num_put2ZwZQ23stdt19ostreambuf_iterator2ZwZQ23stdt11char_traits1ZwGQ23stdt19ostreambuf_iterator2ZwZQ23stdt11char_traits1ZwRQ23std8ios_basewb
                0x0807dc88      0x300 /x86/lib/libcpp.a(wlocale.o)
                0x0807dc88                std::num_put<wchar_t, std::ostreambuf_iterator<wchar_t, std::char_traits<wchar_t> > >::do_put(std::ostreambuf_iterator<wchar_t, std::char_traits<wchar_t> >, std::ios_base &, wchar_t, bool) const
 .gnu.linkonce.t.do_put__CQ23stdt7num_put2ZwZQ23stdt19ostreambuf_iterator2ZwZQ23stdt11char_traits1ZwGQ23stdt19ostreambuf_iterator2ZwZQ23stdt11char_traits1ZwRQ23std8ios_basewUl
                0x0807df88       0x8d /x86/lib/libcpp.a(wlocale.o)
                0x0807df88                std::num_put<wchar_t, std::ostreambuf_iterator<wchar_t, std::char_traits<wchar_t> > >::do_put(std::ostreambuf_iterator<wchar_t, std::char_traits<wchar_t> >, std::ios_base &, wchar_t, unsigned long) const
 *fill*         0x0807e015        0x3 37008
 .gnu.linkonce.t.do_put__CQ23stdt7num_put2ZwZQ23stdt19ostreambuf_iterator2ZwZQ23stdt11char_traits1ZwGQ23stdt19ostreambuf_iterator2ZwZQ23stdt11char_traits1ZwRQ23std8ios_basewx
                0x0807e018       0x8e /x86/lib/libcpp.a(wlocale.o)
                0x0807e018                std::num_put<wchar_t, std::ostreambuf_iterator<wchar_t, std::char_traits<wchar_t> > >::do_put(std::ostreambuf_iterator<wchar_t, std::char_traits<wchar_t> >, std::ios_base &, wchar_t, long long) const
 *fill*         0x0807e0a6        0x2 37008
 .gnu.linkonce.t.do_put__CQ23stdt7num_put2ZwZQ23stdt19ostreambuf_iterator2ZwZQ23stdt11char_traits1ZwGQ23stdt19ostreambuf_iterator2ZwZQ23stdt11char_traits1ZwRQ23std8ios_basewUx
                0x0807e0a8       0x8e /x86/lib/libcpp.a(wlocale.o)
                0x0807e0a8                std::num_put<wchar_t, std::ostreambuf_iterator<wchar_t, std::char_traits<wchar_t> > >::do_put(std::ostreambuf_iterator<wchar_t, std::char_traits<wchar_t> >, std::ios_base &, wchar_t, unsigned long long) const
 *fill*         0x0807e136        0x2 37008
 .gnu.linkonce.t._Ffmt__Q23stdt7num_put2ZwZQ23stdt19ostreambuf_iterator2ZwZQ23stdt11char_traits1ZwPccQ33stdt5_Iosb1Zi9_Fmtflags
                0x0807e138       0xec /x86/lib/libcpp.a(wlocale.o)
                0x0807e138                std::num_put<wchar_t, std::ostreambuf_iterator<wchar_t, std::char_traits<wchar_t> > >::_Ffmt(char *, char, std::_Iosb<int>::_Fmtflags)
 .gnu.linkonce.t.decimal_point__CQ23stdt8numpunct1Zw
                0x0807e224       0x32 /x86/lib/libcpp.a(wlocale.o)
                0x0807e224                std::numpunct<wchar_t>::decimal_point(void) const
 *fill*         0x0807e256        0x2 37008
 .gnu.linkonce.t._Fput__Q23stdt7num_put2ZwZQ23stdt19ostreambuf_iterator2ZwZQ23stdt11char_traits1ZwGQ23stdt19ostreambuf_iterator2ZwZQ23stdt11char_traits1ZwRQ23std8ios_basewPCcUiUiUiUi
                0x0807e258      0x5cc /x86/lib/libcpp.a(wlocale.o)
                0x0807e258                std::num_put<wchar_t, std::ostreambuf_iterator<wchar_t, std::char_traits<wchar_t> > >::_Fput(std::ostreambuf_iterator<wchar_t, std::char_traits<wchar_t> >, std::ios_base &, wchar_t, char const *, unsigned int, unsigned int, unsigned int, unsigned int)
 .gnu.linkonce.t.do_put__CQ23stdt7num_put2ZwZQ23stdt19ostreambuf_iterator2ZwZQ23stdt11char_traits1ZwGQ23stdt19ostreambuf_iterator2ZwZQ23stdt11char_traits1ZwRQ23std8ios_basewd
                0x0807e824      0x241 /x86/lib/libcpp.a(wlocale.o)
                0x0807e824                std::num_put<wchar_t, std::ostreambuf_iterator<wchar_t, std::char_traits<wchar_t> > >::do_put(std::ostreambuf_iterator<wchar_t, std::char_traits<wchar_t> >, std::ios_base &, wchar_t, double) const
 *fill*         0x0807ea65        0x3 37008
 .gnu.linkonce.t.do_put__CQ23stdt7num_put2ZwZQ23stdt19ostreambuf_iterator2ZwZQ23stdt11char_traits1ZwGQ23stdt19ostreambuf_iterator2ZwZQ23stdt11char_traits1ZwRQ23std8ios_basewr
                0x0807ea68      0x241 /x86/lib/libcpp.a(wlocale.o)
                0x0807ea68                std::num_put<wchar_t, std::ostreambuf_iterator<wchar_t, std::char_traits<wchar_t> > >::do_put(std::ostreambuf_iterator<wchar_t, std::char_traits<wchar_t> >, std::ios_base &, wchar_t, long double) const
 *fill*         0x0807eca9        0x3 37008
 .gnu.linkonce.t.do_put__CQ23stdt7num_put2ZwZQ23stdt19ostreambuf_iterator2ZwZQ23stdt11char_traits1ZwGQ23stdt19ostreambuf_iterator2ZwZQ23stdt11char_traits1ZwRQ23std8ios_basewPCv
                0x0807ecac      0x18b /x86/lib/libcpp.a(wlocale.o)
                0x0807ecac                std::num_put<wchar_t, std::ostreambuf_iterator<wchar_t, std::char_traits<wchar_t> > >::do_put(std::ostreambuf_iterator<wchar_t, std::char_traits<wchar_t> >, std::ios_base &, wchar_t, void const *) const
 *fill*         0x0807ee37        0x1 37008
 .gnu.linkonce.t._._Q23stdt7num_get2ZwZQ23stdt19istreambuf_iterator2ZwZQ23stdt11char_traits1Zw
                0x0807ee38       0x26 /x86/lib/libcpp.a(wlocale.o)
                0x0807ee38                std::num_get<wchar_t, std::istreambuf_iterator<wchar_t, std::char_traits<wchar_t> > >::~num_get(void)
 *fill*         0x0807ee5e        0x2 37008
 .gnu.linkonce.t.assign__Q23stdt12basic_string3ZwZQ23stdt11char_traits1ZwZQ23stdt9allocator1ZwUiw
                0x0807ee60       0x6f /x86/lib/libcpp.a(wlocale.o)
                0x0807ee60                std::basic_string<wchar_t, std::char_traits<wchar_t>, std::allocator<wchar_t> >::assign(unsigned int, wchar_t)
 *fill*         0x0807eecf        0x1 37008
 .gnu.linkonce.t.__Q23stdt12basic_string3ZwZQ23stdt11char_traits1ZwZQ23stdt9allocator1ZwUiw
                0x0807eed0       0x58 /x86/lib/libcpp.a(wlocale.o)
                0x0807eed0                std::basic_string<wchar_t, std::char_traits<wchar_t>, std::allocator<wchar_t> >::basic_string(unsigned int, wchar_t)
 .gnu.linkonce.t.append__Q23stdt12basic_string3ZwZQ23stdt11char_traits1ZwZQ23stdt9allocator1ZwRCQ23stdt12basic_string3ZwZQ23stdt11char_traits1ZwZQ23stdt9allocator1ZwUiUi
                0x0807ef28       0xfb /x86/lib/libcpp.a(wlocale.o)
                0x0807ef28                std::basic_string<wchar_t, std::char_traits<wchar_t>, std::allocator<wchar_t> >::append(std::basic_string<wchar_t, std::char_traits<wchar_t>, std::allocator<wchar_t> > const &, unsigned int, unsigned int)
 *fill*         0x0807f023        0x1 37008
 .gnu.linkonce.t.append__Q23stdt12basic_string3ZwZQ23stdt11char_traits1ZwZQ23stdt9allocator1ZwRCQ23stdt12basic_string3ZwZQ23stdt11char_traits1ZwZQ23stdt9allocator1Zw
                0x0807f024       0x26 /x86/lib/libcpp.a(wlocale.o)
                0x0807f024                std::basic_string<wchar_t, std::char_traits<wchar_t>, std::allocator<wchar_t> >::append(std::basic_string<wchar_t, std::char_traits<wchar_t>, std::allocator<wchar_t> > const &)
 *fill*         0x0807f04a        0x2 37008
 .gnu.linkonce.t.__apl__Q23stdt12basic_string3ZwZQ23stdt11char_traits1ZwZQ23stdt9allocator1ZwRCQ23stdt12basic_string3ZwZQ23stdt11char_traits1ZwZQ23stdt9allocator1Zw
                0x0807f04c       0x25 /x86/lib/libcpp.a(wlocale.o)
                0x0807f04c                std::basic_string<wchar_t, std::char_traits<wchar_t>, std::allocator<wchar_t> >::operator+=(std::basic_string<wchar_t, std::char_traits<wchar_t>, std::allocator<wchar_t> > const &)
 *fill*         0x0807f071        0x3 37008
 .gnu.linkonce.t._Getifld__Q23stdt7num_get2ZwZQ23stdt19istreambuf_iterator2ZwZQ23stdt11char_traits1ZwPcRQ23stdt19istreambuf_iterator2ZwZQ23stdt11char_traits1ZwT2Q33stdt5_Iosb1Zi9_FmtflagsRCQ23std6locale
                0x0807f074      0x5cf /x86/lib/libcpp.a(wlocale.o)
                0x0807f074                std::num_get<wchar_t, std::istreambuf_iterator<wchar_t, std::char_traits<wchar_t> > >::_Getifld(char *, std::istreambuf_iterator<wchar_t, std::char_traits<wchar_t> > &, std::istreambuf_iterator<wchar_t, std::char_traits<wchar_t> > &, std::_Iosb<int>::_Fmtflags, std::locale const &)
 *fill*         0x0807f643        0x1 37008
 .gnu.linkonce.t.do_get__CQ23stdt7num_get2ZwZQ23stdt19istreambuf_iterator2ZwZQ23stdt11char_traits1ZwGQ23stdt19istreambuf_iterator2ZwZQ23stdt11char_traits1ZwT1RQ23std8ios_baseRQ33stdt5_Iosb1Zi8_IostateRb
                0x0807f644      0x334 /x86/lib/libcpp.a(wlocale.o)
                0x0807f644                std::num_get<wchar_t, std::istreambuf_iterator<wchar_t, std::char_traits<wchar_t> > >::do_get(std::istreambuf_iterator<wchar_t, std::char_traits<wchar_t> >, std::istreambuf_iterator<wchar_t, std::char_traits<wchar_t> >, std::ios_base &, std::_Iosb<int>::_Iostate &, bool &) const
 .gnu.linkonce.t.do_get__CQ23stdt7num_get2ZwZQ23stdt19istreambuf_iterator2ZwZQ23stdt11char_traits1ZwGQ23stdt19istreambuf_iterator2ZwZQ23stdt11char_traits1ZwT1RQ23std8ios_baseRQ33stdt5_Iosb1Zi8_IostateRUs
                0x0807f978      0x178 /x86/lib/libcpp.a(wlocale.o)
                0x0807f978                std::num_get<wchar_t, std::istreambuf_iterator<wchar_t, std::char_traits<wchar_t> > >::do_get(std::istreambuf_iterator<wchar_t, std::char_traits<wchar_t> >, std::istreambuf_iterator<wchar_t, std::char_traits<wchar_t> >, std::ios_base &, std::_Iosb<int>::_Iostate &, unsigned short &) const
 .gnu.linkonce.t.do_get__CQ23stdt7num_get2ZwZQ23stdt19istreambuf_iterator2ZwZQ23stdt11char_traits1ZwGQ23stdt19istreambuf_iterator2ZwZQ23stdt11char_traits1ZwT1RQ23std8ios_baseRQ33stdt5_Iosb1Zi8_IostateRUi
                0x0807faf0      0x178 /x86/lib/libcpp.a(wlocale.o)
                0x0807faf0                std::num_get<wchar_t, std::istreambuf_iterator<wchar_t, std::char_traits<wchar_t> > >::do_get(std::istreambuf_iterator<wchar_t, std::char_traits<wchar_t> >, std::istreambuf_iterator<wchar_t, std::char_traits<wchar_t> >, std::ios_base &, std::_Iosb<int>::_Iostate &, unsigned int &) const
 .gnu.linkonce.t.do_get__CQ23stdt7num_get2ZwZQ23stdt19istreambuf_iterator2ZwZQ23stdt11char_traits1ZwGQ23stdt19istreambuf_iterator2ZwZQ23stdt11char_traits1ZwT1RQ23std8ios_baseRQ33stdt5_Iosb1Zi8_IostateRl
                0x0807fc68      0x14c /x86/lib/libcpp.a(wlocale.o)
                0x0807fc68                std::num_get<wchar_t, std::istreambuf_iterator<wchar_t, std::char_traits<wchar_t> > >::do_get(std::istreambuf_iterator<wchar_t, std::char_traits<wchar_t> >, std::istreambuf_iterator<wchar_t, std::char_traits<wchar_t> >, std::ios_base &, std::_Iosb<int>::_Iostate &, long &) const
 .gnu.linkonce.t.do_get__CQ23stdt7num_get2ZwZQ23stdt19istreambuf_iterator2ZwZQ23stdt11char_traits1ZwGQ23stdt19istreambuf_iterator2ZwZQ23stdt11char_traits1ZwT1RQ23std8ios_baseRQ33stdt5_Iosb1Zi8_IostateRUl
                0x0807fdb4      0x14c /x86/lib/libcpp.a(wlocale.o)
                0x0807fdb4                std::num_get<wchar_t, std::istreambuf_iterator<wchar_t, std::char_traits<wchar_t> > >::do_get(std::istreambuf_iterator<wchar_t, std::char_traits<wchar_t> >, std::istreambuf_iterator<wchar_t, std::char_traits<wchar_t> >, std::ios_base &, std::_Iosb<int>::_Iostate &, unsigned long &) const
 .gnu.linkonce.t.do_get__CQ23stdt7num_get2ZwZQ23stdt19istreambuf_iterator2ZwZQ23stdt11char_traits1ZwGQ23stdt19istreambuf_iterator2ZwZQ23stdt11char_traits1ZwT1RQ23std8ios_baseRQ33stdt5_Iosb1Zi8_IostateRx
                0x0807ff00      0x150 /x86/lib/libcpp.a(wlocale.o)
                0x0807ff00                std::num_get<wchar_t, std::istreambuf_iterator<wchar_t, std::char_traits<wchar_t> > >::do_get(std::istreambuf_iterator<wchar_t, std::char_traits<wchar_t> >, std::istreambuf_iterator<wchar_t, std::char_traits<wchar_t> >, std::ios_base &, std::_Iosb<int>::_Iostate &, long long &) const
 .gnu.linkonce.t.do_get__CQ23stdt7num_get2ZwZQ23stdt19istreambuf_iterator2ZwZQ23stdt11char_traits1ZwGQ23stdt19istreambuf_iterator2ZwZQ23stdt11char_traits1ZwT1RQ23std8ios_baseRQ33stdt5_Iosb1Zi8_IostateRUx
                0x08080050      0x150 /x86/lib/libcpp.a(wlocale.o)
                0x08080050                std::num_get<wchar_t, std::istreambuf_iterator<wchar_t, std::char_traits<wchar_t> > >::do_get(std::istreambuf_iterator<wchar_t, std::char_traits<wchar_t> >, std::istreambuf_iterator<wchar_t, std::char_traits<wchar_t> >, std::ios_base &, std::_Iosb<int>::_Iostate &, unsigned long long &) const
 .gnu.linkonce.t._Getffld__Q23stdt7num_get2ZwZQ23stdt19istreambuf_iterator2ZwZQ23stdt11char_traits1ZwPcRQ23stdt19istreambuf_iterator2ZwZQ23stdt11char_traits1ZwT2RCQ23std6locale
                0x080801a0      0x5c5 /x86/lib/libcpp.a(wlocale.o)
                0x080801a0                std::num_get<wchar_t, std::istreambuf_iterator<wchar_t, std::char_traits<wchar_t> > >::_Getffld(char *, std::istreambuf_iterator<wchar_t, std::char_traits<wchar_t> > &, std::istreambuf_iterator<wchar_t, std::char_traits<wchar_t> > &, std::locale const &)
 *fill*         0x08080765        0x3 37008
 .gnu.linkonce.t.do_get__CQ23stdt7num_get2ZwZQ23stdt19istreambuf_iterator2ZwZQ23stdt11char_traits1ZwGQ23stdt19istreambuf_iterator2ZwZQ23stdt11char_traits1ZwT1RQ23std8ios_baseRQ33stdt5_Iosb1Zi8_IostateRf
                0x08080768      0x134 /x86/lib/libcpp.a(wlocale.o)
                0x08080768                std::num_get<wchar_t, std::istreambuf_iterator<wchar_t, std::char_traits<wchar_t> > >::do_get(std::istreambuf_iterator<wchar_t, std::char_traits<wchar_t> >, std::istreambuf_iterator<wchar_t, std::char_traits<wchar_t> >, std::ios_base &, std::_Iosb<int>::_Iostate &, float &) const
 .gnu.linkonce.t.do_get__CQ23stdt7num_get2ZwZQ23stdt19istreambuf_iterator2ZwZQ23stdt11char_traits1ZwGQ23stdt19istreambuf_iterator2ZwZQ23stdt11char_traits1ZwT1RQ23std8ios_baseRQ33stdt5_Iosb1Zi8_IostateRd
                0x0808089c      0x134 /x86/lib/libcpp.a(wlocale.o)
                0x0808089c                std::num_get<wchar_t, std::istreambuf_iterator<wchar_t, std::char_traits<wchar_t> > >::do_get(std::istreambuf_iterator<wchar_t, std::char_traits<wchar_t> >, std::istreambuf_iterator<wchar_t, std::char_traits<wchar_t> >, std::ios_base &, std::_Iosb<int>::_Iostate &, double &) const
 .gnu.linkonce.t.do_get__CQ23stdt7num_get2ZwZQ23stdt19istreambuf_iterator2ZwZQ23stdt11char_traits1ZwGQ23stdt19istreambuf_iterator2ZwZQ23stdt11char_traits1ZwT1RQ23std8ios_baseRQ33stdt5_Iosb1Zi8_IostateRr
                0x080809d0      0x137 /x86/lib/libcpp.a(wlocale.o)
                0x080809d0                std::num_get<wchar_t, std::istreambuf_iterator<wchar_t, std::char_traits<wchar_t> > >::do_get(std::istreambuf_iterator<wchar_t, std::char_traits<wchar_t> >, std::istreambuf_iterator<wchar_t, std::char_traits<wchar_t> >, std::ios_base &, std::_Iosb<int>::_Iostate &, long double &) const
 *fill*         0x08080b07        0x1 37008
 .gnu.linkonce.t.do_get__CQ23stdt7num_get2ZwZQ23stdt19istreambuf_iterator2ZwZQ23stdt11char_traits1ZwGQ23stdt19istreambuf_iterator2ZwZQ23stdt11char_traits1ZwT1RQ23std8ios_baseRQ33stdt5_Iosb1Zi8_IostateRPv
                0x08080b08      0x13c /x86/lib/libcpp.a(wlocale.o)
                0x08080b08                std::num_get<wchar_t, std::istreambuf_iterator<wchar_t, std::char_traits<wchar_t> > >::do_get(std::istreambuf_iterator<wchar_t, std::char_traits<wchar_t> >, std::istreambuf_iterator<wchar_t, std::char_traits<wchar_t> >, std::ios_base &, std::_Iosb<int>::_Iostate &, void *&) const
 .gnu.linkonce.t._._Q23stdt5ctype1Zw
                0x08080c44       0x3b /x86/lib/libcpp.a(wlocale.o)
                0x08080c44                std::ctype<wchar_t>::~ctype(void)
 *fill*         0x08080c7f        0x1 37008
 .gnu.linkonce.t.do_is__CQ23stdt5ctype1ZwPCwT1Ps
                0x08080c80       0x5c /x86/lib/libcpp.a(wlocale.o)
                0x08080c80                std::ctype<wchar_t>::do_is(wchar_t const *, wchar_t const *, short *) const
 .gnu.linkonce.t.do_scan_is__CQ23stdt5ctype1ZwsPCwT2
                0x08080cdc       0x54 /x86/lib/libcpp.a(wlocale.o)
                0x08080cdc                std::ctype<wchar_t>::do_scan_is(short, wchar_t const *, wchar_t const *) const
 .gnu.linkonce.t.do_scan_not__CQ23stdt5ctype1ZwsPCwT2
                0x08080d30       0x54 /x86/lib/libcpp.a(wlocale.o)
                0x08080d30                std::ctype<wchar_t>::do_scan_not(short, wchar_t const *, wchar_t const *) const
 .gnu.linkonce.t.do_widen__CQ23stdt5ctype1Zwc
                0x08080d84       0x2d /x86/lib/libcpp.a(wlocale.o)
                0x08080d84                std::ctype<wchar_t>::do_widen(char) const
 *fill*         0x08080db1        0x3 37008
 .gnu.linkonce.t.widen__CQ23stdt5ctype1Zwc
                0x08080db4       0x3d /x86/lib/libcpp.a(wlocale.o)
                0x08080db4                std::ctype<wchar_t>::widen(char) const
 *fill*         0x08080df1        0x3 37008
 .gnu.linkonce.t.do_tolower__CQ23stdt5ctype1Zww
                0x08080df4       0x4e /x86/lib/libcpp.a(wlocale.o)
                0x08080df4                std::ctype<wchar_t>::do_tolower(wchar_t) const
 *fill*         0x08080e42        0x2 37008
 .gnu.linkonce.t.do_tolower__CQ23stdt5ctype1ZwPwPCw
                0x08080e44       0x6c /x86/lib/libcpp.a(wlocale.o)
                0x08080e44                std::ctype<wchar_t>::do_tolower(wchar_t *, wchar_t const *) const
 .gnu.linkonce.t.do_toupper__CQ23stdt5ctype1Zww
                0x08080eb0       0x4e /x86/lib/libcpp.a(wlocale.o)
                0x08080eb0                std::ctype<wchar_t>::do_toupper(wchar_t) const
 *fill*         0x08080efe        0x2 37008
 .gnu.linkonce.t.do_toupper__CQ23stdt5ctype1ZwPwPCw
                0x08080f00       0x6c /x86/lib/libcpp.a(wlocale.o)
                0x08080f00                std::ctype<wchar_t>::do_toupper(wchar_t *, wchar_t const *) const
 .gnu.linkonce.t.do_widen__CQ23stdt5ctype1ZwPCcT1Pw
                0x08080f6c       0x48 /x86/lib/libcpp.a(wlocale.o)
                0x08080f6c                std::ctype<wchar_t>::do_widen(char const *, char const *, wchar_t *) const
 .gnu.linkonce.t.do_narrow__CQ23stdt5ctype1ZwPCwT1cPc
                0x08080fb4       0x3c /x86/lib/libcpp.a(wlocale.o)
                0x08080fb4                std::ctype<wchar_t>::do_narrow(wchar_t const *, wchar_t const *, char, char *) const
 .gnu.linkonce.t.__tfQ23stdt5ctype1Zw
                0x08080ff0       0x3a /x86/lib/libcpp.a(wlocale.o)
                0x08080ff0                std::ctype<wchar_t> type_info function
 *fill*         0x0808102a        0x2 37008
 .gnu.linkonce.t.__tfQ23stdt7num_get2ZwZQ23stdt19istreambuf_iterator2ZwZQ23stdt11char_traits1Zw
                0x0808102c       0x3a /x86/lib/libcpp.a(wlocale.o)
                0x0808102c                std::num_get<wchar_t, std::istreambuf_iterator<wchar_t, std::char_traits<wchar_t> > > type_info function
 *fill*         0x08081066        0x2 37008
 .gnu.linkonce.t.__tfQ23stdt7num_put2ZwZQ23stdt19ostreambuf_iterator2ZwZQ23stdt11char_traits1Zw
                0x08081068       0x3a /x86/lib/libcpp.a(wlocale.o)
                0x08081068                std::num_put<wchar_t, std::ostreambuf_iterator<wchar_t, std::char_traits<wchar_t> > > type_info function
 *fill*         0x080810a2        0x2 37008
 .gnu.linkonce.t.__tfQ23stdt8numpunct1Zw
                0x080810a4       0x3a /x86/lib/libcpp.a(wlocale.o)
                0x080810a4                std::numpunct<wchar_t> type_info function
 *fill*         0x080810de        0x2 37008
 .gnu.linkonce.t.__tfQ23stdt7collate1Zw
                0x080810e0       0x3a /x86/lib/libcpp.a(wlocale.o)
                0x080810e0                std::collate<wchar_t> type_info function
 *fill*         0x0808111a        0x2 37008
 .gnu.linkonce.t._._Q23stdt8messages1Zw
                0x0808111c       0x22 /x86/lib/libcpp.a(wlocale.o)
                0x0808111c                std::messages<wchar_t>::~messages(void)
 *fill*         0x0808113e        0x2 37008
 .gnu.linkonce.t.__tfQ23stdt8messages1Zw
                0x08081140       0x3a /x86/lib/libcpp.a(wlocale.o)
                0x08081140                std::messages<wchar_t> type_info function
 *fill*         0x0808117a        0x2 37008
 .gnu.linkonce.t.__tfQ23stdt9money_get2ZwZQ23stdt19istreambuf_iterator2ZwZQ23stdt11char_traits1Zw
                0x0808117c       0x3a /x86/lib/libcpp.a(wlocale.o)
                0x0808117c                std::money_get<wchar_t, std::istreambuf_iterator<wchar_t, std::char_traits<wchar_t> > > type_info function
 *fill*         0x080811b6        0x2 37008
 .gnu.linkonce.t.__tfQ23stdt9money_put2ZwZQ23stdt19ostreambuf_iterator2ZwZQ23stdt11char_traits1Zw
                0x080811b8       0x3a /x86/lib/libcpp.a(wlocale.o)
                0x080811b8                std::money_put<wchar_t, std::ostreambuf_iterator<wchar_t, std::char_traits<wchar_t> > > type_info function
 *fill*         0x080811f2        0x2 37008
 .gnu.linkonce.t.__tfQ23stdt7_Mpunct1Zw
                0x080811f4       0x3a /x86/lib/libcpp.a(wlocale.o)
                0x080811f4                std::_Mpunct<wchar_t> type_info function
 *fill*         0x0808122e        0x2 37008
 .gnu.linkonce.t._._Q23stdt10moneypunct2Zwb0
                0x08081230       0x22 /x86/lib/libcpp.a(wlocale.o)
                0x08081230                std::moneypunct<wchar_t, false>::~moneypunct(void)
 *fill*         0x08081252        0x2 37008
 .gnu.linkonce.t.__tfQ23stdt10moneypunct2Zwb0
                0x08081254       0x3a /x86/lib/libcpp.a(wlocale.o)
                0x08081254                std::moneypunct<wchar_t, false> type_info function
 *fill*         0x0808128e        0x2 37008
 .gnu.linkonce.t._._Q23stdt10moneypunct2Zwb1
                0x08081290       0x22 /x86/lib/libcpp.a(wlocale.o)
                0x08081290                std::moneypunct<wchar_t, true>::~moneypunct(void)
 *fill*         0x080812b2        0x2 37008
 .gnu.linkonce.t.__tfQ23stdt10moneypunct2Zwb1
                0x080812b4       0x3a /x86/lib/libcpp.a(wlocale.o)
                0x080812b4                std::moneypunct<wchar_t, true> type_info function
 *fill*         0x080812ee        0x2 37008
 .gnu.linkonce.t.__tfQ23stdt8time_get2ZwZQ23stdt19istreambuf_iterator2ZwZQ23stdt11char_traits1Zw
                0x080812f0       0x3a /x86/lib/libcpp.a(wlocale.o)
                0x080812f0                std::time_get<wchar_t, std::istreambuf_iterator<wchar_t, std::char_traits<wchar_t> > > type_info function
 *fill*         0x0808132a        0x2 37008
 .gnu.linkonce.t.__tfQ23stdt8time_put2ZwZQ23stdt19ostreambuf_iterator2ZwZQ23stdt11char_traits1Zw
                0x0808132c       0x3a /x86/lib/libcpp.a(wlocale.o)
                0x0808132c                std::time_put<wchar_t, std::ostreambuf_iterator<wchar_t, std::char_traits<wchar_t> > > type_info function
 *fill*         0x08081366        0x2 37008
 .gnu.linkonce.t.length__Q23stdt11char_traits1ZwPCw
                0x08081368       0x1e /x86/lib/libcpp.a(wlocale.o)
                0x08081368                std::char_traits<wchar_t>::length(wchar_t const *)
 *fill*         0x08081386        0x2 37008
 .gnu.linkonce.t.assign__Q23stdt11char_traits1ZwPwUiw
                0x08081388       0x26 /x86/lib/libcpp.a(wlocale.o)
                0x08081388                std::char_traits<wchar_t>::assign(wchar_t *, unsigned int, wchar_t)
 *fill*         0x080813ae        0x2 37008
 .gnu.linkonce.t.to_char_type__Q23stdt11char_traits1ZwRCw
                0x080813b0        0xe /x86/lib/libcpp.a(wlocale.o)
                0x080813b0                std::char_traits<wchar_t>::to_char_type(wchar_t const &)
 *fill*         0x080813be        0x2 37008
 .gnu.linkonce.t.to_int_type__Q23stdt11char_traits1ZwRCw
                0x080813c0        0xe /x86/lib/libcpp.a(wlocale.o)
                0x080813c0                std::char_traits<wchar_t>::to_int_type(wchar_t const &)
 *fill*         0x080813ce        0x2 37008
 .gnu.linkonce.t.eq_int_type__Q23stdt11char_traits1ZwRCwT1
                0x080813d0       0x1a /x86/lib/libcpp.a(wlocale.o)
                0x080813d0                std::char_traits<wchar_t>::eq_int_type(wchar_t const &, wchar_t const &)
 *fill*         0x080813ea        0x2 37008
 .gnu.linkonce.t.eof__Q23stdt11char_traits1Zw
                0x080813ec        0xe /x86/lib/libcpp.a(wlocale.o)
                0x080813ec                std::char_traits<wchar_t>::eof(void)
 *fill*         0x080813fa        0x2 37008
 .gnu.linkonce.t.isdigit__3stdi
                0x080813fc       0x1f /x86/lib/libcpp.a(wlocale.o)
                0x080813fc                std::isdigit(int)
 *fill*         0x0808141b        0x1 37008
 .gnu.linkonce.t._Getptr__CQ23std8_Timevec
                0x0808141c        0xa /x86/lib/libcpp.a(wlocale.o)
                0x0808141c                std::_Timevec::_Getptr(void) const
 *fill*         0x08081426        0x2 37008
 .gnu.linkonce.t._Getcoll__CQ23std8_Locinfo
                0x08081428       0x1d /x86/lib/libcpp.a(wlocale.o)
                0x08081428                std::_Locinfo::_Getcoll(void) const
 *fill*         0x08081445        0x3 37008
 .gnu.linkonce.t._Gettnames__CQ23std8_Locinfo
                0x08081448       0x25 /x86/lib/libcpp.a(wlocale.o)
                0x08081448                std::_Locinfo::_Gettnames(void) const
 *fill*         0x0808146d        0x3 37008
 .gnu.linkonce.t._Getdays__CQ23std8_Locinfo
                0x08081470       0x12 /x86/lib/libcpp.a(wlocale.o)
                0x08081470                std::_Locinfo::_Getdays(void) const
 *fill*         0x08081482        0x2 37008
 .gnu.linkonce.t._Getmonths__CQ23std8_Locinfo
                0x08081484       0x12 /x86/lib/libcpp.a(wlocale.o)
                0x08081484                std::_Locinfo::_Getmonths(void) const
 *fill*         0x08081496        0x2 37008
 .gnu.linkonce.t._LStrcoll__H1Zw_3stdPCX01N31PCQ23std8_Collvec_i
                0x08081498      0x12c /x86/lib/libcpp.a(wlocale.o)
                0x08081498                int std::_LStrcoll<wchar_t>(wchar_t const *, wchar_t const *, wchar_t const *, wchar_t const *, std::_Collvec const *)
 .gnu.linkonce.t._LStrxfrm__H1Zw_3stdPX01T1PCX01T3PCQ23std8_Collvec_Ui
                0x080815c4       0xdc /x86/lib/libcpp.a(wlocale.o)
                0x080815c4                unsigned int std::_LStrxfrm<wchar_t>(wchar_t *, wchar_t *, wchar_t const *, wchar_t const *, std::_Collvec const *)
 .gnu.linkonce.t._Strftime__3stdPcUiPCcPCQ23std2tmPv
                0x080816a0       0x36 /x86/lib/libcpp.a(wlocale.o)
                0x080816a0                std::_Strftime(char *, unsigned int, char const *, std::tm const *, void *)
 *fill*         0x080816d6        0x2 37008
 .gnu.linkonce.t._Widen__H1Zw_3stdcPX01_X01
                0x080816d8       0x30 /x86/lib/libcpp.a(wlocale.o)
                0x080816d8                wchar_t std::_Widen<wchar_t>(char, wchar_t *)
 .gnu.linkonce.t.__Q23stdt7codecvt3ZwZcZ9_MbstatetRCQ23std8_LocinfoUi
                0x08081708       0x6d /x86/lib/libcpp.a(wlocale.o)
                0x08081708                std::codecvt<wchar_t, char, _Mbstatet>::codecvt(std::_Locinfo const &, unsigned int)
 *fill*         0x08081775        0x3 37008
 .gnu.linkonce.t._Getcat__Q23stdt7codecvt3ZwZcZ9_MbstatetPPCQ33std6locale5facet
                0x08081778       0xa0 /x86/lib/libcpp.a(wlocale.o)
                0x08081778                std::codecvt<wchar_t, char, _Mbstatet>::_Getcat(std::locale::facet const **)
 .gnu.linkonce.t.__aad__3stdRQ33stdt5_Iosb1Zi9_FmtflagsQ33stdt5_Iosb1Zi9_Fmtflags
                0x08081818       0x11 /x86/lib/libcpp.a(wlocale.o)
                0x08081818                std::operator&=(std::_Iosb<int>::_Fmtflags &, std::_Iosb<int>::_Fmtflags)
 *fill*         0x08081829        0x3 37008
 .gnu.linkonce.t.__ad__3stdQ33stdt5_Iosb1Zi8_IostateT1
                0x0808182c       0x17 /x86/lib/libcpp.a(wlocale.o)
                0x0808182c                std::operator&(std::_Iosb<int>::_Iostate, std::_Iosb<int>::_Iostate)
 *fill*         0x08081843        0x1 37008
 .gnu.linkonce.t.__Q23std13messages_baseUi
                0x08081844       0x5d /x86/lib/libcpp.a(wlocale.o)
                0x08081844                std::messages_base::messages_base(unsigned int)
 *fill*         0x080818a1        0x3 37008
 .gnu.linkonce.t.__Q23std10money_baseUi
                0x080818a4       0x5d /x86/lib/libcpp.a(wlocale.o)
                0x080818a4                std::money_base::money_base(unsigned int)
 *fill*         0x08081901        0x3 37008
 .gnu.linkonce.t.__Q23std9time_baseUi
                0x08081904       0x5d /x86/lib/libcpp.a(wlocale.o)
                0x08081904                std::time_base::time_base(unsigned int)
 *fill*         0x08081961        0x3 37008
 .gnu.linkonce.t.use_facet__H1ZQ23stdt5ctype1Zw_3stdRCQ23std6locale_RCX01
                0x08081964      0x18c /x86/lib/libcpp.a(wlocale.o)
                0x08081964                std::ctype<wchar_t> const & std::use_facet<std::ctype<wchar_t> >(std::locale const &)
 .gnu.linkonce.t.use_facet__H1ZQ23stdt7num_get2ZwZQ23stdt19istreambuf_iterator2ZwZQ23stdt11char_traits1Zw_3stdRCQ23std6locale_RCX01
                0x08081af0      0x18c /x86/lib/libcpp.a(wlocale.o)
                0x08081af0                std::num_get<wchar_t, std::istreambuf_iterator<wchar_t, std::char_traits<wchar_t> > > const & std::use_facet<std::num_get<wchar_t, std::istreambuf_iterator<wchar_t, std::char_traits<wchar_t> > > >(std::locale const &)
 .gnu.linkonce.t.use_facet__H1ZQ23stdt7num_put2ZwZQ23stdt19ostreambuf_iterator2ZwZQ23stdt11char_traits1Zw_3stdRCQ23std6locale_RCX01
                0x08081c7c      0x18c /x86/lib/libcpp.a(wlocale.o)
                0x08081c7c                std::num_put<wchar_t, std::ostreambuf_iterator<wchar_t, std::char_traits<wchar_t> > > const & std::use_facet<std::num_put<wchar_t, std::ostreambuf_iterator<wchar_t, std::char_traits<wchar_t> > > >(std::locale const &)
 .gnu.linkonce.t.use_facet__H1ZQ23stdt8numpunct1Zw_3stdRCQ23std6locale_RCX01
                0x08081e08      0x18c /x86/lib/libcpp.a(wlocale.o)
                0x08081e08                std::numpunct<wchar_t> const & std::use_facet<std::numpunct<wchar_t> >(std::locale const &)
 .gnu.linkonce.t.use_facet__H1ZQ23stdt7collate1Zw_3stdRCQ23std6locale_RCX01
                0x08081f94      0x18c /x86/lib/libcpp.a(wlocale.o)
                0x08081f94                std::collate<wchar_t> const & std::use_facet<std::collate<wchar_t> >(std::locale const &)
 .gnu.linkonce.t.use_facet__H1ZQ23stdt8messages1Zw_3stdRCQ23std6locale_RCX01
                0x08082120      0x18c /x86/lib/libcpp.a(wlocale.o)
                0x08082120                std::messages<wchar_t> const & std::use_facet<std::messages<wchar_t> >(std::locale const &)
 .gnu.linkonce.t.use_facet__H1ZQ23stdt9money_get2ZwZQ23stdt19istreambuf_iterator2ZwZQ23stdt11char_traits1Zw_3stdRCQ23std6locale_RCX01
                0x080822ac      0x18c /x86/lib/libcpp.a(wlocale.o)
                0x080822ac                std::money_get<wchar_t, std::istreambuf_iterator<wchar_t, std::char_traits<wchar_t> > > const & std::use_facet<std::money_get<wchar_t, std::istreambuf_iterator<wchar_t, std::char_traits<wchar_t> > > >(std::locale const &)
 .gnu.linkonce.t.use_facet__H1ZQ23stdt9money_put2ZwZQ23stdt19ostreambuf_iterator2ZwZQ23stdt11char_traits1Zw_3stdRCQ23std6locale_RCX01
                0x08082438      0x18c /x86/lib/libcpp.a(wlocale.o)
                0x08082438                std::money_put<wchar_t, std::ostreambuf_iterator<wchar_t, std::char_traits<wchar_t> > > const & std::use_facet<std::money_put<wchar_t, std::ostreambuf_iterator<wchar_t, std::char_traits<wchar_t> > > >(std::locale const &)
 .gnu.linkonce.t.use_facet__H1ZQ23stdt10moneypunct2Zwb0__3stdRCQ23std6locale_RCX01
                0x080825c4      0x18c /x86/lib/libcpp.a(wlocale.o)
                0x080825c4                std::moneypunct<wchar_t, false> const & std use_facet<std::moneypunct<wchar_t, false> >(std::locale const &)
 .gnu.linkonce.t.use_facet__H1ZQ23stdt10moneypunct2Zwb1__3stdRCQ23std6locale_RCX01
                0x08082750      0x18c /x86/lib/libcpp.a(wlocale.o)
                0x08082750                std::moneypunct<wchar_t, true> const & std use_facet<std::moneypunct<wchar_t, true> >(std::locale const &)
 .gnu.linkonce.t.use_facet__H1ZQ23stdt8time_get2ZwZQ23stdt19istreambuf_iterator2ZwZQ23stdt11char_traits1Zw_3stdRCQ23std6locale_RCX01
                0x080828dc      0x18c /x86/lib/libcpp.a(wlocale.o)
                0x080828dc                std::time_get<wchar_t, std::istreambuf_iterator<wchar_t, std::char_traits<wchar_t> > > const & std::use_facet<std::time_get<wchar_t, std::istreambuf_iterator<wchar_t, std::char_traits<wchar_t> > > >(std::locale const &)
 .gnu.linkonce.t.use_facet__H1ZQ23stdt8time_put2ZwZQ23stdt19ostreambuf_iterator2ZwZQ23stdt11char_traits1Zw_3stdRCQ23std6locale_RCX01
                0x08082a68      0x18c /x86/lib/libcpp.a(wlocale.o)
                0x08082a68                std::time_put<wchar_t, std::ostreambuf_iterator<wchar_t, std::char_traits<wchar_t> > > const & std::use_facet<std::time_put<wchar_t, std::ostreambuf_iterator<wchar_t, std::char_traits<wchar_t> > > >(std::locale const &)
 .gnu.linkonce.t.use_facet__H1ZQ23stdt7codecvt3ZwZcZ9_Mbstatet_3stdRCQ23std6locale_RCX01
                0x08082bf4      0x18c /x86/lib/libcpp.a(wlocale.o)
                0x08082bf4                std::codecvt<wchar_t, char, _Mbstatet> const & std::use_facet<std::codecvt<wchar_t, char, _Mbstatet> >(std::locale const &)
 .gnu.linkonce.t.__tfQ23stdt7codecvt3ZwZcZ9_Mbstatet
                0x08082d80       0x3a /x86/lib/libcpp.a(wlocale.o)
                0x08082d80                std::codecvt<wchar_t, char, _Mbstatet> type_info function
 *fill*         0x08082dba        0x2 37008
 .gnu.linkonce.t.__tfQ23std13messages_base
                0x08082dbc       0x3a /x86/lib/libcpp.a(wlocale.o)
                0x08082dbc                std::messages_base type_info function
 *fill*         0x08082df6        0x2 37008
 .gnu.linkonce.t.__tfQ23std10money_base
                0x08082df8       0x3a /x86/lib/libcpp.a(wlocale.o)
                0x08082df8                std::money_base type_info function
 *fill*         0x08082e32        0x2 37008
 .gnu.linkonce.t.__tfQ23std9time_base
                0x08082e34       0x3a /x86/lib/libcpp.a(wlocale.o)
                0x08082e34                std::time_base type_info function
 *fill*         0x08082e6e        0x2 37008
 .gnu.linkonce.t.btowc__3stdi
                0x08082e70       0x21 /x86/lib/libcpp.a(wlocale.o)
                0x08082e70                std::btowc(int)
 *fill*         0x08082e91        0x3 37008
 .gnu.linkonce.t.__Q23stdt7codecvt3ZwZcZ9_MbstatetUi
                0x08082e94       0xc8 /x86/lib/libcpp.a(wlocale.o)
                0x08082e94                std::codecvt<wchar_t, char, _Mbstatet>::codecvt(unsigned int)
 .gnu.linkonce.t._._Q23stdt7codecvt3ZwZcZ9_Mbstatet
                0x08082f5c       0x26 /x86/lib/libcpp.a(wlocale.o)
                0x08082f5c                std::codecvt<wchar_t, char, _Mbstatet>::~codecvt(void)
 *fill*         0x08082f82        0x2 37008
 .gnu.linkonce.t._Init__Q23stdt7codecvt3ZwZcZ9_MbstatetRCQ23std8_Locinfo
                0x08082f84       0x28 /x86/lib/libcpp.a(wlocale.o)
                0x08082f84                std::codecvt<wchar_t, char, _Mbstatet>::_Init(std::_Locinfo const &)
 .gnu.linkonce.t.do_in__CQ23stdt7codecvt3ZwZcZ9_MbstatetR9_MbstatetPCcT2RPCcPwT5RPw
                0x08082fac       0xfe /x86/lib/libcpp.a(wlocale.o)
                0x08082fac                std::codecvt<wchar_t, char, _Mbstatet>::do_in(_Mbstatet &, char const *, char const *, char const *&, wchar_t *, wchar_t *, wchar_t *&) const
 *fill*         0x080830aa        0x2 37008
 .gnu.linkonce.t.do_out__CQ23stdt7codecvt3ZwZcZ9_MbstatetR9_MbstatetPCwT2RPCwPcT5RPc
                0x080830ac      0x16e /x86/lib/libcpp.a(wlocale.o)
                0x080830ac                std::codecvt<wchar_t, char, _Mbstatet>::do_out(_Mbstatet &, wchar_t const *, wchar_t const *, wchar_t const *&, char *, char *, char *&) const
 *fill*         0x0808321a        0x2 37008
 .gnu.linkonce.t.do_unshift__CQ23stdt7codecvt3ZwZcZ9_MbstatetR9_MbstatetPcT2RPc
                0x0808321c       0xbd /x86/lib/libcpp.a(wlocale.o)
                0x0808321c                std::codecvt<wchar_t, char, _Mbstatet>::do_unshift(_Mbstatet &, char *, char *, char *&) const
 *fill*         0x080832d9        0x3 37008
 .gnu.linkonce.t.do_length__CQ23stdt7codecvt3ZwZcZ9_MbstatetRC9_MbstatetPCcT2Ui
                0x080832dc      0x13d /x86/lib/libcpp.a(wlocale.o)
                0x080832dc                std::codecvt<wchar_t, char, _Mbstatet>::do_length(_Mbstatet const &, char const *, char const *, unsigned int) const
 *fill*         0x08083419        0x3 37008
 .gnu.linkonce.t.do_always_noconv__CQ23stdt7codecvt3ZwZcZ9_Mbstatet
                0x0808341c       0x75 /x86/lib/libcpp.a(wlocale.o)
                0x0808341c                std::codecvt<wchar_t, char, _Mbstatet>::do_always_noconv(void) const
 *fill*         0x08083491        0x3 37008
 .gnu.linkonce.t.do_max_length__CQ23stdt7codecvt3ZwZcZ9_Mbstatet
                0x08083494       0x79 /x86/lib/libcpp.a(wlocale.o)
                0x08083494                std::codecvt<wchar_t, char, _Mbstatet>::do_max_length(void) const
 *fill*         0x0808350d        0x3 37008
 .gnu.linkonce.t.do_encoding__CQ23stdt7codecvt3ZwZcZ9_Mbstatet
                0x08083510       0x75 /x86/lib/libcpp.a(wlocale.o)
                0x08083510                std::codecvt<wchar_t, char, _Mbstatet>::do_encoding(void) const
 *fill*         0x08083585        0x3 37008
 .gnu.linkonce.t._Mbrtowc__3stdPwPCcUiP9_MbstatetPCQ23std7_Cvtvec
                0x08083588       0x32 /x86/lib/libcpp.a(wlocale.o)
                0x08083588                std::_Mbrtowc(wchar_t *, char const *, unsigned int, _Mbstatet *, std::_Cvtvec const *)
 *fill*         0x080835ba        0x2 37008
 .gnu.linkonce.t._Wcrtomb__3stdPcwP9_MbstatetPCQ23std7_Cvtvec
                0x080835bc       0x31 /x86/lib/libcpp.a(wlocale.o)
                0x080835bc                std::_Wcrtomb(char *, wchar_t, _Mbstatet *, std::_Cvtvec const *)
 *fill*         0x080835ed        0x3 37008
 .gnu.linkonce.t._Init__Q23stdt7collate1ZcRCQ23std8_Locinfo
                0x080835f0       0x28 /x86/lib/libcpp.a(xlocale.o)
                0x080835f0                std::collate<char>::_Init(std::_Locinfo const &)
 .gnu.linkonce.t.__Q23stdt7collate1ZcUi
                0x08083618       0xc8 /x86/lib/libcpp.a(xlocale.o)
                0x08083618                std::collate<char>::collate(unsigned int)
 .gnu.linkonce.t._Getcat__Q23stdt7collate1ZcPPCQ33std6locale5facet
                0x080836e0       0xa0 /x86/lib/libcpp.a(xlocale.o)
                0x080836e0                std::collate<char>::_Getcat(std::locale::facet const **)
 .gnu.linkonce.t.__Q23stdt7collate1ZcRCQ23std8_LocinfoUi
                0x08083780       0x6d /x86/lib/libcpp.a(xlocale.o)
                0x08083780                std::collate<char>::collate(std::_Locinfo const &, unsigned int)
 *fill*         0x080837ed        0x3 37008
 .gnu.linkonce.t._Tidy__Q23stdt8_Tidyfac1ZQ23stdt7collate1Zc
                0x080837f0       0xb0 /x86/lib/libcpp.a(xlocale.o)
                0x080837f0                std::_Tidyfac<std::collate<char> >::_Tidy(void)
 .gnu.linkonce.t._Save__Q23stdt8_Tidyfac1ZQ23stdt7collate1ZcPQ23stdt7collate1Zc
                0x080838a0       0x3a /x86/lib/libcpp.a(xlocale.o)
                0x080838a0                std::_Tidyfac<std::collate<char> >::_Save(std::collate<char> *)
 *fill*         0x080838da        0x2 37008
 .gnu.linkonce.t._Init__Q23stdt8messages1ZcRCQ23std8_Locinfo
                0x080838dc        0x8 /x86/lib/libcpp.a(xlocale.o)
                0x080838dc                std::messages<char>::_Init(std::_Locinfo const &)
 .gnu.linkonce.t.__Q23stdt8messages1ZcUi
                0x080838e4       0xc8 /x86/lib/libcpp.a(xlocale.o)
                0x080838e4                std::messages<char>::messages(unsigned int)
 .gnu.linkonce.t._Getcat__Q23stdt8messages1ZcPPCQ33std6locale5facet
                0x080839ac       0xa0 /x86/lib/libcpp.a(xlocale.o)
                0x080839ac                std::messages<char>::_Getcat(std::locale::facet const **)
 .gnu.linkonce.t.__Q23stdt8messages1ZcRCQ23std8_LocinfoUi
                0x08083a4c       0x6d /x86/lib/libcpp.a(xlocale.o)
                0x08083a4c                std::messages<char>::messages(std::_Locinfo const &, unsigned int)
 *fill*         0x08083ab9        0x3 37008
 .gnu.linkonce.t._Tidy__Q23stdt8_Tidyfac1ZQ23stdt8messages1Zc
                0x08083abc       0xb0 /x86/lib/libcpp.a(xlocale.o)
                0x08083abc                std::_Tidyfac<std::messages<char> >::_Tidy(void)
 .gnu.linkonce.t._Save__Q23stdt8_Tidyfac1ZQ23stdt8messages1ZcPQ23stdt8messages1Zc
                0x08083b6c       0x3a /x86/lib/libcpp.a(xlocale.o)
                0x08083b6c                std::_Tidyfac<std::messages<char> >::_Save(std::messages<char> *)
 *fill*         0x08083ba6        0x2 37008
 .gnu.linkonce.t._Init__Q23stdt9money_get2ZcZQ23stdt19istreambuf_iterator2ZcZQ23stdt11char_traits1ZcRCQ23std8_Locinfo
                0x08083ba8        0x8 /x86/lib/libcpp.a(xlocale.o)
                0x08083ba8                std::money_get<char, std::istreambuf_iterator<char, std::char_traits<char> > >::_Init(std::_Locinfo const &)
 .gnu.linkonce.t.__Q23stdt9money_get2ZcZQ23stdt19istreambuf_iterator2ZcZQ23stdt11char_traits1ZcUi
                0x08083bb0       0xc8 /x86/lib/libcpp.a(xlocale.o)
                0x08083bb0                std::money_get<char, std::istreambuf_iterator<char, std::char_traits<char> > >::money_get(unsigned int)
 .gnu.linkonce.t._Getcat__Q23stdt9money_get2ZcZQ23stdt19istreambuf_iterator2ZcZQ23stdt11char_traits1ZcPPCQ33std6locale5facet
                0x08083c78       0xa0 /x86/lib/libcpp.a(xlocale.o)
                0x08083c78                std::money_get<char, std::istreambuf_iterator<char, std::char_traits<char> > >::_Getcat(std::locale::facet const **)
 .gnu.linkonce.t.__Q23stdt9money_get2ZcZQ23stdt19istreambuf_iterator2ZcZQ23stdt11char_traits1ZcRCQ23std8_LocinfoUi
                0x08083d18       0x6d /x86/lib/libcpp.a(xlocale.o)
                0x08083d18                std::money_get<char, std::istreambuf_iterator<char, std::char_traits<char> > >::money_get(std::_Locinfo const &, unsigned int)
 *fill*         0x08083d85        0x3 37008
 .gnu.linkonce.t._Tidy__Q23stdt8_Tidyfac1ZQ23stdt9money_get2ZcZQ23stdt19istreambuf_iterator2ZcZQ23stdt11char_traits1Zc
                0x08083d88       0xb0 /x86/lib/libcpp.a(xlocale.o)
                0x08083d88                std::_Tidyfac<std::money_get<char, std::istreambuf_iterator<char, std::char_traits<char> > > >::_Tidy(void)
 .gnu.linkonce.t._Save__Q23stdt8_Tidyfac1ZQ23stdt9money_get2ZcZQ23stdt19istreambuf_iterator2ZcZQ23stdt11char_traits1ZcPQ23stdt9money_get2ZcZQ23stdt19istreambuf_iterator2ZcZQ23stdt11char_traits1Zc
                0x08083e38       0x3a /x86/lib/libcpp.a(xlocale.o)
                0x08083e38                std::_Tidyfac<std::money_get<char, std::istreambuf_iterator<char, std::char_traits<char> > > >::_Save(std::money_get<char, std::istreambuf_iterator<char, std::char_traits<char> > > *)
 *fill*         0x08083e72        0x2 37008
 .gnu.linkonce.t._Init__Q23stdt9money_put2ZcZQ23stdt19ostreambuf_iterator2ZcZQ23stdt11char_traits1ZcRCQ23std8_Locinfo
                0x08083e74        0x8 /x86/lib/libcpp.a(xlocale.o)
                0x08083e74                std::money_put<char, std::ostreambuf_iterator<char, std::char_traits<char> > >::_Init(std::_Locinfo const &)
 .gnu.linkonce.t.__Q23stdt9money_put2ZcZQ23stdt19ostreambuf_iterator2ZcZQ23stdt11char_traits1ZcUi
                0x08083e7c       0xc8 /x86/lib/libcpp.a(xlocale.o)
                0x08083e7c                std::money_put<char, std::ostreambuf_iterator<char, std::char_traits<char> > >::money_put(unsigned int)
 .gnu.linkonce.t._Getcat__Q23stdt9money_put2ZcZQ23stdt19ostreambuf_iterator2ZcZQ23stdt11char_traits1ZcPPCQ33std6locale5facet
                0x08083f44       0xa0 /x86/lib/libcpp.a(xlocale.o)
                0x08083f44                std::money_put<char, std::ostreambuf_iterator<char, std::char_traits<char> > >::_Getcat(std::locale::facet const **)
 .gnu.linkonce.t.__Q23stdt9money_put2ZcZQ23stdt19ostreambuf_iterator2ZcZQ23stdt11char_traits1ZcRCQ23std8_LocinfoUi
                0x08083fe4       0x6d /x86/lib/libcpp.a(xlocale.o)
                0x08083fe4                std::money_put<char, std::ostreambuf_iterator<char, std::char_traits<char> > >::money_put(std::_Locinfo const &, unsigned int)
 *fill*         0x08084051        0x3 37008
 .gnu.linkonce.t._Tidy__Q23stdt8_Tidyfac1ZQ23stdt9money_put2ZcZQ23stdt19ostreambuf_iterator2ZcZQ23stdt11char_traits1Zc
                0x08084054       0xb0 /x86/lib/libcpp.a(xlocale.o)
                0x08084054                std::_Tidyfac<std::money_put<char, std::ostreambuf_iterator<char, std::char_traits<char> > > >::_Tidy(void)
 .gnu.linkonce.t._Save__Q23stdt8_Tidyfac1ZQ23stdt9money_put2ZcZQ23stdt19ostreambuf_iterator2ZcZQ23stdt11char_traits1ZcPQ23stdt9money_put2ZcZQ23stdt19ostreambuf_iterator2ZcZQ23stdt11char_traits1Zc
                0x08084104       0x3a /x86/lib/libcpp.a(xlocale.o)
                0x08084104                std::_Tidyfac<std::money_put<char, std::ostreambuf_iterator<char, std::char_traits<char> > > >::_Save(std::money_put<char, std::ostreambuf_iterator<char, std::char_traits<char> > > *)
 *fill*         0x0808413e        0x2 37008
 .gnu.linkonce.t._Makpat__Q23stdt7_Mpunct1ZcRQ33std10money_base7patternUiUiUi
                0x08084140       0x81 /x86/lib/libcpp.a(xlocale.o)
                0x08084140                std::_Mpunct<char>::_Makpat(std::money_base::pattern &, unsigned int, unsigned int, unsigned int)
 *fill*         0x080841c1        0x3 37008
 .gnu.linkonce.t._Init__Q23stdt7_Mpunct1ZcRCQ23std8_Locinfo
                0x080841c4      0x174 /x86/lib/libcpp.a(xlocale.o)
                0x080841c4                std::_Mpunct<char>::_Init(std::_Locinfo const &)
 .gnu.linkonce.t.__Q23stdt7_Mpunct1ZcUib
                0x08084338       0xcc /x86/lib/libcpp.a(xlocale.o)
                0x08084338                std::_Mpunct<char>::_Mpunct(unsigned int, bool)
 .gnu.linkonce.t._._Q23stdt7_Mpunct1Zc
                0x08084404       0x85 /x86/lib/libcpp.a(xlocale.o)
                0x08084404                std::_Mpunct<char>::~_Mpunct(void)
 *fill*         0x08084489        0x3 37008
 .gnu.linkonce.t.__Q23stdt10moneypunct2Zcb0Ui
                0x0808448c       0x61 /x86/lib/libcpp.a(xlocale.o)
                0x0808448c                std::moneypunct<char, false>::moneypunct(unsigned int)
 *fill*         0x080844ed        0x3 37008
 .gnu.linkonce.t._Getcat__Q23stdt10moneypunct2Zcb0PPCQ33std6locale5facet
                0x080844f0       0xa0 /x86/lib/libcpp.a(xlocale.o)
                0x080844f0                std::moneypunct<char, false>::_Getcat(std::locale::facet const **)
 .gnu.linkonce.t.__Q23stdt7_Mpunct1ZcRCQ23std8_LocinfoUib
                0x08084590       0x75 /x86/lib/libcpp.a(xlocale.o)
                0x08084590                std::_Mpunct<char>::_Mpunct(std::_Locinfo const &, unsigned int, bool)
 *fill*         0x08084605        0x3 37008
 .gnu.linkonce.t.__Q23stdt10moneypunct2Zcb0RCQ23std8_LocinfoUi
                0x08084608       0x61 /x86/lib/libcpp.a(xlocale.o)
                0x08084608                std::moneypunct<char, false>::moneypunct(std::_Locinfo const &, unsigned int)
 *fill*         0x08084669        0x3 37008
 .gnu.linkonce.t._Tidy__Q23stdt8_Tidyfac1ZQ23stdt10moneypunct2Zcb0
                0x0808466c       0xb0 /x86/lib/libcpp.a(xlocale.o)
                0x0808466c                std::_Tidyfac<std::moneypunct<char, false> >::_Tidy(void)
 .gnu.linkonce.t._Save__Q23stdt8_Tidyfac1ZQ23stdt10moneypunct2Zcb0PQ23stdt10moneypunct2Zcb0
                0x0808471c       0x3a /x86/lib/libcpp.a(xlocale.o)
                0x0808471c                std::_Tidyfac<std::moneypunct<char, false> >::_Save(std::moneypunct<char, false> *)
 *fill*         0x08084756        0x2 37008
 .gnu.linkonce.t.__Q23stdt10moneypunct2Zcb1Ui
                0x08084758       0x61 /x86/lib/libcpp.a(xlocale.o)
                0x08084758                std::moneypunct<char, true>::moneypunct(unsigned int)
 *fill*         0x080847b9        0x3 37008
 .gnu.linkonce.t._Getcat__Q23stdt10moneypunct2Zcb1PPCQ33std6locale5facet
                0x080847bc       0xa0 /x86/lib/libcpp.a(xlocale.o)
                0x080847bc                std::moneypunct<char, true>::_Getcat(std::locale::facet const **)
 .gnu.linkonce.t.__Q23stdt10moneypunct2Zcb1RCQ23std8_LocinfoUi
                0x0808485c       0x61 /x86/lib/libcpp.a(xlocale.o)
                0x0808485c                std::moneypunct<char, true>::moneypunct(std::_Locinfo const &, unsigned int)
 *fill*         0x080848bd        0x3 37008
 .gnu.linkonce.t._Tidy__Q23stdt8_Tidyfac1ZQ23stdt10moneypunct2Zcb1
                0x080848c0       0xb0 /x86/lib/libcpp.a(xlocale.o)
                0x080848c0                std::_Tidyfac<std::moneypunct<char, true> >::_Tidy(void)
 .gnu.linkonce.t._Save__Q23stdt8_Tidyfac1ZQ23stdt10moneypunct2Zcb1PQ23stdt10moneypunct2Zcb1
                0x08084970       0x3a /x86/lib/libcpp.a(xlocale.o)
                0x08084970                std::_Tidyfac<std::moneypunct<char, true> >::_Save(std::moneypunct<char, true> *)
 *fill*         0x080849aa        0x2 37008
 .gnu.linkonce.t._Init__Q23stdt8time_get2ZcZQ23stdt19istreambuf_iterator2ZcZQ23stdt11char_traits1ZcRCQ23std8_Locinfo
                0x080849ac       0x57 /x86/lib/libcpp.a(xlocale.o)
                0x080849ac                std::time_get<char, std::istreambuf_iterator<char, std::char_traits<char> > >::_Init(std::_Locinfo const &)
 *fill*         0x08084a03        0x1 37008
 .gnu.linkonce.t.__Q23stdt8time_get2ZcZQ23stdt19istreambuf_iterator2ZcZQ23stdt11char_traits1ZcUi
                0x08084a04       0xc8 /x86/lib/libcpp.a(xlocale.o)
                0x08084a04                std::time_get<char, std::istreambuf_iterator<char, std::char_traits<char> > >::time_get(unsigned int)
 .gnu.linkonce.t._Getcat__Q23stdt8time_get2ZcZQ23stdt19istreambuf_iterator2ZcZQ23stdt11char_traits1ZcPPCQ33std6locale5facet
                0x08084acc       0xa0 /x86/lib/libcpp.a(xlocale.o)
                0x08084acc                std::time_get<char, std::istreambuf_iterator<char, std::char_traits<char> > >::_Getcat(std::locale::facet const **)
 .gnu.linkonce.t.__Q23stdt8time_get2ZcZQ23stdt19istreambuf_iterator2ZcZQ23stdt11char_traits1ZcRCQ23std8_LocinfoUi
                0x08084b6c       0x6d /x86/lib/libcpp.a(xlocale.o)
                0x08084b6c                std::time_get<char, std::istreambuf_iterator<char, std::char_traits<char> > >::time_get(std::_Locinfo const &, unsigned int)
 *fill*         0x08084bd9        0x3 37008
 .gnu.linkonce.t._Tidy__Q23stdt8_Tidyfac1ZQ23stdt8time_get2ZcZQ23stdt19istreambuf_iterator2ZcZQ23stdt11char_traits1Zc
                0x08084bdc       0xb0 /x86/lib/libcpp.a(xlocale.o)
                0x08084bdc                std::_Tidyfac<std::time_get<char, std::istreambuf_iterator<char, std::char_traits<char> > > >::_Tidy(void)
 .gnu.linkonce.t._Save__Q23stdt8_Tidyfac1ZQ23stdt8time_get2ZcZQ23stdt19istreambuf_iterator2ZcZQ23stdt11char_traits1ZcPQ23stdt8time_get2ZcZQ23stdt19istreambuf_iterator2ZcZQ23stdt11char_traits1Zc
                0x08084c8c       0x3a /x86/lib/libcpp.a(xlocale.o)
                0x08084c8c                std::_Tidyfac<std::time_get<char, std::istreambuf_iterator<char, std::char_traits<char> > > >::_Save(std::time_get<char, std::istreambuf_iterator<char, std::char_traits<char> > > *)
 *fill*         0x08084cc6        0x2 37008
 .gnu.linkonce.t._Init__Q23stdt8time_put2ZcZQ23stdt19ostreambuf_iterator2ZcZQ23stdt11char_traits1ZcRCQ23std8_Locinfo
                0x08084cc8       0x38 /x86/lib/libcpp.a(xlocale.o)
                0x08084cc8                std::time_put<char, std::ostreambuf_iterator<char, std::char_traits<char> > >::_Init(std::_Locinfo const &)
 .gnu.linkonce.t.__Q23stdt8time_put2ZcZQ23stdt19ostreambuf_iterator2ZcZQ23stdt11char_traits1ZcUi
                0x08084d00       0xd8 /x86/lib/libcpp.a(xlocale.o)
                0x08084d00                std::time_put<char, std::ostreambuf_iterator<char, std::char_traits<char> > >::time_put(unsigned int)
 .gnu.linkonce.t._Getcat__Q23stdt8time_put2ZcZQ23stdt19ostreambuf_iterator2ZcZQ23stdt11char_traits1ZcPPCQ33std6locale5facet
                0x08084dd8       0xa0 /x86/lib/libcpp.a(xlocale.o)
                0x08084dd8                std::time_put<char, std::ostreambuf_iterator<char, std::char_traits<char> > >::_Getcat(std::locale::facet const **)
 .gnu.linkonce.t.__Q23stdt8time_put2ZcZQ23stdt19ostreambuf_iterator2ZcZQ23stdt11char_traits1ZcRCQ23std8_LocinfoUi
                0x08084e78       0x7d /x86/lib/libcpp.a(xlocale.o)
                0x08084e78                std::time_put<char, std::ostreambuf_iterator<char, std::char_traits<char> > >::time_put(std::_Locinfo const &, unsigned int)
 *fill*         0x08084ef5        0x3 37008
 .gnu.linkonce.t._Tidy__Q23stdt8_Tidyfac1ZQ23stdt8time_put2ZcZQ23stdt19ostreambuf_iterator2ZcZQ23stdt11char_traits1Zc
                0x08084ef8       0xb0 /x86/lib/libcpp.a(xlocale.o)
                0x08084ef8                std::_Tidyfac<std::time_put<char, std::ostreambuf_iterator<char, std::char_traits<char> > > >::_Tidy(void)
 .gnu.linkonce.t._Save__Q23stdt8_Tidyfac1ZQ23stdt8time_put2ZcZQ23stdt19ostreambuf_iterator2ZcZQ23stdt11char_traits1ZcPQ23stdt8time_put2ZcZQ23stdt19ostreambuf_iterator2ZcZQ23stdt11char_traits1Zc
                0x08084fa8       0x3a /x86/lib/libcpp.a(xlocale.o)
                0x08084fa8                std::_Tidyfac<std::time_put<char, std::ostreambuf_iterator<char, std::char_traits<char> > > >::_Save(std::time_put<char, std::ostreambuf_iterator<char, std::char_traits<char> > > *)
 *fill*         0x08084fe2        0x2 37008
 .gnu.linkonce.t._._Q23stdt8time_put2ZcZQ23stdt19ostreambuf_iterator2ZcZQ23stdt11char_traits1Zc
                0x08084fe4       0x26 /x86/lib/libcpp.a(xlocale.o)
                0x08084fe4                std::time_put<char, std::ostreambuf_iterator<char, std::char_traits<char> > >::~time_put(void)
 *fill*         0x0808500a        0x2 37008
 .gnu.linkonce.t.do_put__CQ23stdt8time_put2ZcZQ23stdt19ostreambuf_iterator2ZcZQ23stdt11char_traits1ZcGQ23stdt19ostreambuf_iterator2ZcZQ23stdt11char_traits1ZcRQ23std8ios_basecPCQ23std2tmcc
                0x0808500c      0x1f3 /x86/lib/libcpp.a(xlocale.o)
                0x0808500c                std::time_put<char, std::ostreambuf_iterator<char, std::char_traits<char> > >::do_put(std::ostreambuf_iterator<char, std::char_traits<char> >, std::ios_base &, char, std::tm const *, char, char) const
 *fill*         0x080851ff        0x1 37008
 .gnu.linkonce.t._._Q23stdt8time_get2ZcZQ23stdt19istreambuf_iterator2ZcZQ23stdt11char_traits1Zc
                0x08085200       0x55 /x86/lib/libcpp.a(xlocale.o)
                0x08085200                std::time_get<char, std::istreambuf_iterator<char, std::char_traits<char> > >::~time_get(void)
 *fill*         0x08085255        0x3 37008
 .gnu.linkonce.t.do_date_order__CQ23stdt8time_get2ZcZQ23stdt19istreambuf_iterator2ZcZQ23stdt11char_traits1Zc
                0x08085258        0xf /x86/lib/libcpp.a(xlocale.o)
                0x08085258                std::time_get<char, std::istreambuf_iterator<char, std::char_traits<char> > >::do_date_order(void) const
 *fill*         0x08085267        0x1 37008
 .gnu.linkonce.t.__eq__H2ZcZQ23stdt11char_traits1Zc_3stdRCQ23stdt19istreambuf_iterator2ZX01ZX11T1_b
                0x08085268       0x28 /x86/lib/libcpp.a(xlocale.o)
                0x08085268                bool std::operator==<char, std::char_traits<char> >(std::istreambuf_iterator<char, std::char_traits<char> > const &, std::istreambuf_iterator<char, std::char_traits<char> > const &)
 .gnu.linkonce.t.__ne__H2ZcZQ23stdt11char_traits1Zc_3stdRCQ23stdt19istreambuf_iterator2ZX01ZX11T1_b
                0x08085290       0x2b /x86/lib/libcpp.a(xlocale.o)
                0x08085290                bool std::operator!=<char, std::char_traits<char> >(std::istreambuf_iterator<char, std::char_traits<char> > const &, std::istreambuf_iterator<char, std::char_traits<char> > const &)
 *fill*         0x080852bb        0x1 37008
 .gnu.linkonce.t._Getint__Q23stdt8time_get2ZcZQ23stdt19istreambuf_iterator2ZcZQ23stdt11char_traits1ZcRQ23stdt19istreambuf_iterator2ZcZQ23stdt11char_traits1ZcT1iiRi
                0x080852bc      0x28b /x86/lib/libcpp.a(xlocale.o)
                0x080852bc                std::time_get<char, std::istreambuf_iterator<char, std::char_traits<char> > >::_Getint(std::istreambuf_iterator<char, std::char_traits<char> > &, std::istreambuf_iterator<char, std::char_traits<char> > &, int, int, int &)
 *fill*         0x08085547        0x1 37008
 .gnu.linkonce.t.do_get_time__CQ23stdt8time_get2ZcZQ23stdt19istreambuf_iterator2ZcZQ23stdt11char_traits1ZcGQ23stdt19istreambuf_iterator2ZcZQ23stdt11char_traits1ZcT1RQ23std8ios_baseRQ33stdt5_Iosb1Zi8_IostatePQ23std2tm
                0x08085548      0x15f /x86/lib/libcpp.a(xlocale.o)
                0x08085548                std::time_get<char, std::istreambuf_iterator<char, std::char_traits<char> > >::do_get_time(std::istreambuf_iterator<char, std::char_traits<char> >, std::istreambuf_iterator<char, std::char_traits<char> >, std::ios_base &, std::_Iosb<int>::_Iostate &, std::tm *) const
 *fill*         0x080856a7        0x1 37008
 .gnu.linkonce.t._Getloctxt__H2ZcZQ23stdt19istreambuf_iterator2ZcZQ23stdt11char_traits1Zc_3stdRX11T1UiPCX01_i
                0x080856a8      0x260 /x86/lib/libcpp.a(xlocale.o)
                0x080856a8                int std::_Getloctxt<char, std::istreambuf_iterator<char, std::char_traits<char> > >(std::istreambuf_iterator<char, std::char_traits<char> > &, std::istreambuf_iterator<char, std::char_traits<char> > &, unsigned int, char const *)
 .gnu.linkonce.t.do_get_monthname__CQ23stdt8time_get2ZcZQ23stdt19istreambuf_iterator2ZcZQ23stdt11char_traits1ZcGQ23stdt19istreambuf_iterator2ZcZQ23stdt11char_traits1ZcT1RQ23std8ios_baseRQ33stdt5_Iosb1Zi8_IostatePQ23std2tm
                0x08085908       0x74 /x86/lib/libcpp.a(xlocale.o)
                0x08085908                std::time_get<char, std::istreambuf_iterator<char, std::char_traits<char> > >::do_get_monthname(std::istreambuf_iterator<char, std::char_traits<char> >, std::istreambuf_iterator<char, std::char_traits<char> >, std::ios_base &, std::_Iosb<int>::_Iostate &, std::tm *) const
 .gnu.linkonce.t.get_monthname__CQ23stdt8time_get2ZcZQ23stdt19istreambuf_iterator2ZcZQ23stdt11char_traits1ZcGQ23stdt19istreambuf_iterator2ZcZQ23stdt11char_traits1ZcT1RQ23std8ios_baseRQ33stdt5_Iosb1Zi8_IostatePQ23std2tm
                0x0808597c       0x83 /x86/lib/libcpp.a(xlocale.o)
                0x0808597c                std::time_get<char, std::istreambuf_iterator<char, std::char_traits<char> > >::get_monthname(std::istreambuf_iterator<char, std::char_traits<char> >, std::istreambuf_iterator<char, std::char_traits<char> >, std::ios_base &, std::_Iosb<int>::_Iostate &, std::tm *) const
 *fill*         0x080859ff        0x1 37008
 .gnu.linkonce.t.do_get_year__CQ23stdt8time_get2ZcZQ23stdt19istreambuf_iterator2ZcZQ23stdt11char_traits1ZcGQ23stdt19istreambuf_iterator2ZcZQ23stdt11char_traits1ZcT1RQ23std8ios_baseRQ33stdt5_Iosb1Zi8_IostatePQ23std2tm
                0x08085a00       0xc4 /x86/lib/libcpp.a(xlocale.o)
                0x08085a00                std::time_get<char, std::istreambuf_iterator<char, std::char_traits<char> > >::do_get_year(std::istreambuf_iterator<char, std::char_traits<char> >, std::istreambuf_iterator<char, std::char_traits<char> >, std::ios_base &, std::_Iosb<int>::_Iostate &, std::tm *) const
 .gnu.linkonce.t.get_year__CQ23stdt8time_get2ZcZQ23stdt19istreambuf_iterator2ZcZQ23stdt11char_traits1ZcGQ23stdt19istreambuf_iterator2ZcZQ23stdt11char_traits1ZcT1RQ23std8ios_baseRQ33stdt5_Iosb1Zi8_IostatePQ23std2tm
                0x08085ac4       0x83 /x86/lib/libcpp.a(xlocale.o)
                0x08085ac4                std::time_get<char, std::istreambuf_iterator<char, std::char_traits<char> > >::get_year(std::istreambuf_iterator<char, std::char_traits<char> >, std::istreambuf_iterator<char, std::char_traits<char> >, std::ios_base &, std::_Iosb<int>::_Iostate &, std::tm *) const
 *fill*         0x08085b47        0x1 37008
 .gnu.linkonce.t.do_get_date__CQ23stdt8time_get2ZcZQ23stdt19istreambuf_iterator2ZcZQ23stdt11char_traits1ZcGQ23stdt19istreambuf_iterator2ZcZQ23stdt11char_traits1ZcT1RQ23std8ios_baseRQ33stdt5_Iosb1Zi8_IostatePQ23std2tm
                0x08085b48      0x29a /x86/lib/libcpp.a(xlocale.o)
                0x08085b48                std::time_get<char, std::istreambuf_iterator<char, std::char_traits<char> > >::do_get_date(std::istreambuf_iterator<char, std::char_traits<char> >, std::istreambuf_iterator<char, std::char_traits<char> >, std::ios_base &, std::_Iosb<int>::_Iostate &, std::tm *) const
 *fill*         0x08085de2        0x2 37008
 .gnu.linkonce.t.do_get_weekday__CQ23stdt8time_get2ZcZQ23stdt19istreambuf_iterator2ZcZQ23stdt11char_traits1ZcGQ23stdt19istreambuf_iterator2ZcZQ23stdt11char_traits1ZcT1RQ23std8ios_baseRQ33stdt5_Iosb1Zi8_IostatePQ23std2tm
                0x08085de4       0x74 /x86/lib/libcpp.a(xlocale.o)
                0x08085de4                std::time_get<char, std::istreambuf_iterator<char, std::char_traits<char> > >::do_get_weekday(std::istreambuf_iterator<char, std::char_traits<char> >, std::istreambuf_iterator<char, std::char_traits<char> >, std::ios_base &, std::_Iosb<int>::_Iostate &, std::tm *) const
 .gnu.linkonce.t.do_decimal_point__CQ23stdt7_Mpunct1Zc
                0x08085e58       0x10 /x86/lib/libcpp.a(xlocale.o)
                0x08085e58                std::_Mpunct<char>::do_decimal_point(void) const
 .gnu.linkonce.t.do_thousands_sep__CQ23stdt7_Mpunct1Zc
                0x08085e68       0x10 /x86/lib/libcpp.a(xlocale.o)
                0x08085e68                std::_Mpunct<char>::do_thousands_sep(void) const
 .gnu.linkonce.t.do_grouping__CQ23stdt7_Mpunct1Zc
                0x08085e78       0x2d /x86/lib/libcpp.a(xlocale.o)
                0x08085e78                std::_Mpunct<char>::do_grouping(void) const
 *fill*         0x08085ea5        0x3 37008
 .gnu.linkonce.t.do_curr_symbol__CQ23stdt7_Mpunct1Zc
                0x08085ea8       0x2d /x86/lib/libcpp.a(xlocale.o)
                0x08085ea8                std::_Mpunct<char>::do_curr_symbol(void) const
 *fill*         0x08085ed5        0x3 37008
 .gnu.linkonce.t.do_positive_sign__CQ23stdt7_Mpunct1Zc
                0x08085ed8       0x2d /x86/lib/libcpp.a(xlocale.o)
                0x08085ed8                std::_Mpunct<char>::do_positive_sign(void) const
 *fill*         0x08085f05        0x3 37008
 .gnu.linkonce.t.do_negative_sign__CQ23stdt7_Mpunct1Zc
                0x08085f08       0x2d /x86/lib/libcpp.a(xlocale.o)
                0x08085f08                std::_Mpunct<char>::do_negative_sign(void) const
 *fill*         0x08085f35        0x3 37008
 .gnu.linkonce.t.do_frac_digits__CQ23stdt7_Mpunct1Zc
                0x08085f38        0xf /x86/lib/libcpp.a(xlocale.o)
                0x08085f38                std::_Mpunct<char>::do_frac_digits(void) const
 *fill*         0x08085f47        0x1 37008
 .gnu.linkonce.t.do_pos_format__CQ23stdt7_Mpunct1Zc
                0x08085f48       0x16 /x86/lib/libcpp.a(xlocale.o)
                0x08085f48                std::_Mpunct<char>::do_pos_format(void) const
 *fill*         0x08085f5e        0x2 37008
 .gnu.linkonce.t.do_neg_format__CQ23stdt7_Mpunct1Zc
                0x08085f60       0x16 /x86/lib/libcpp.a(xlocale.o)
                0x08085f60                std::_Mpunct<char>::do_neg_format(void) const
 *fill*         0x08085f76        0x2 37008
 .gnu.linkonce.t._._Q23stdt9money_put2ZcZQ23stdt19ostreambuf_iterator2ZcZQ23stdt11char_traits1Zc
                0x08085f78       0x26 /x86/lib/libcpp.a(xlocale.o)
                0x08085f78                std::money_put<char, std::ostreambuf_iterator<char, std::char_traits<char> > >::~money_put(void)
 *fill*         0x08085f9e        0x2 37008
 .gnu.linkonce.t.frac_digits__CQ23stdt7_Mpunct1Zc
                0x08085fa0       0x32 /x86/lib/libcpp.a(xlocale.o)
                0x08085fa0                std::_Mpunct<char>::frac_digits(void) const
 *fill*         0x08085fd2        0x2 37008
 .gnu.linkonce.t.grouping__CQ23stdt7_Mpunct1Zc
                0x08085fd4       0x3c /x86/lib/libcpp.a(xlocale.o)
                0x08085fd4                std::_Mpunct<char>::grouping(void) const
 .gnu.linkonce.t.thousands_sep__CQ23stdt7_Mpunct1Zc
                0x08086010       0x35 /x86/lib/libcpp.a(xlocale.o)
                0x08086010                std::_Mpunct<char>::thousands_sep(void) const
 *fill*         0x08086045        0x3 37008
 .gnu.linkonce.t.insert__Q23stdt12basic_string3ZcZQ23stdt11char_traits1ZcZQ23stdt9allocator1ZcUiUic
                0x08086048       0xed /x86/lib/libcpp.a(xlocale.o)
                0x08086048                std::basic_string<char, std::char_traits<char>, std::allocator<char> >::insert(unsigned int, unsigned int, char)
 *fill*         0x08086135        0x3 37008
 .gnu.linkonce.t.neg_format__CQ23stdt7_Mpunct1Zc
                0x08086138       0x3c /x86/lib/libcpp.a(xlocale.o)
                0x08086138                std::_Mpunct<char>::neg_format(void) const
 .gnu.linkonce.t.negative_sign__CQ23stdt7_Mpunct1Zc
                0x08086174       0x3c /x86/lib/libcpp.a(xlocale.o)
                0x08086174                std::_Mpunct<char>::negative_sign(void) const
 .gnu.linkonce.t.pos_format__CQ23stdt7_Mpunct1Zc
                0x080861b0       0x3c /x86/lib/libcpp.a(xlocale.o)
                0x080861b0                std::_Mpunct<char>::pos_format(void) const
 .gnu.linkonce.t.positive_sign__CQ23stdt7_Mpunct1Zc
                0x080861ec       0x3c /x86/lib/libcpp.a(xlocale.o)
                0x080861ec                std::_Mpunct<char>::positive_sign(void) const
 .gnu.linkonce.t.curr_symbol__CQ23stdt7_Mpunct1Zc
                0x08086228       0x3c /x86/lib/libcpp.a(xlocale.o)
                0x08086228                std::_Mpunct<char>::curr_symbol(void) const
 .gnu.linkonce.t._Rep__Q23stdt9money_put2ZcZQ23stdt19ostreambuf_iterator2ZcZQ23stdt11char_traits1ZcGQ23stdt19ostreambuf_iterator2ZcZQ23stdt11char_traits1ZccUi
                0x08086264       0x71 /x86/lib/libcpp.a(xlocale.o)
                0x08086264                std::money_put<char, std::ostreambuf_iterator<char, std::char_traits<char> > >::_Rep(std::ostreambuf_iterator<char, std::char_traits<char> >, char, unsigned int)
 *fill*         0x080862d5        0x3 37008
 .gnu.linkonce.t._Put__Q23stdt9money_put2ZcZQ23stdt19ostreambuf_iterator2ZcZQ23stdt11char_traits1ZcGQ23stdt19ostreambuf_iterator2ZcZQ23stdt11char_traits1ZcGQ23stdt6_Ptrit6ZcZiZPCcZRCcZPcZRcUi
                0x080862d8       0x91 /x86/lib/libcpp.a(xlocale.o)
                0x080862d8                std::money_put<char, std::ostreambuf_iterator<char, std::char_traits<char> > >::_Put(std::ostreambuf_iterator<char, std::char_traits<char> >, std::_Ptrit<char, int, char const *, char const &, char *, char &>, unsigned int)
 *fill*         0x08086369        0x3 37008
 .gnu.linkonce.t.__pp__Q23stdt19ostreambuf_iterator2ZcZQ23stdt11char_traits1Zci
                0x0808636c        0xe /x86/lib/libcpp.a(xlocale.o)
                0x0808636c                std::ostreambuf_iterator<char, std::char_traits<char> >::operator++(int)
 *fill*         0x0808637a        0x2 37008
 .gnu.linkonce.t.decimal_point__CQ23stdt7_Mpunct1Zc
                0x0808637c       0x3c /x86/lib/libcpp.a(xlocale.o)
                0x0808637c                std::_Mpunct<char>::decimal_point(void) const
 .gnu.linkonce.t.__mi__CQ23stdt6_Ptrit6ZcZiZPcZRcZPcZRci
                0x080863b8       0x37 /x86/lib/libcpp.a(xlocale.o)
                0x080863b8                std::_Ptrit<char, int, char *, char &, char *, char &>::operator-(int) const
 *fill*         0x080863ef        0x1 37008
 .gnu.linkonce.t._Putmfld__CQ23stdt9money_put2ZcZQ23stdt19ostreambuf_iterator2ZcZQ23stdt11char_traits1ZcGQ23stdt19ostreambuf_iterator2ZcZQ23stdt11char_traits1ZcbRQ23std8ios_basecT2GQ23stdt12basic_string3ZcZQ23stdt11char_traits1ZcZQ23stdt9allocator1Zc
                0x080863f0      0xeef /x86/lib/libcpp.a(xlocale.o)
                0x080863f0                std::money_put<char, std::ostreambuf_iterator<char, std::char_traits<char> > >::_Putmfld(std::ostreambuf_iterator<char, std::char_traits<char> >, bool, std::ios_base &, char, bool, std::basic_string<char, std::char_traits<char>, std::allocator<char> >) const
 *fill*         0x080872df        0x1 37008
 .gnu.linkonce.t.do_put__CQ23stdt9money_put2ZcZQ23stdt19ostreambuf_iterator2ZcZQ23stdt11char_traits1ZcGQ23stdt19ostreambuf_iterator2ZcZQ23stdt11char_traits1ZcbRQ23std8ios_basecr
                0x080872e0      0x1d2 /x86/lib/libcpp.a(xlocale.o)
                0x080872e0                std::money_put<char, std::ostreambuf_iterator<char, std::char_traits<char> > >::do_put(std::ostreambuf_iterator<char, std::char_traits<char> >, bool, std::ios_base &, char, long double) const
 *fill*         0x080874b2        0x2 37008
 .gnu.linkonce.t.do_put__CQ23stdt9money_put2ZcZQ23stdt19ostreambuf_iterator2ZcZQ23stdt11char_traits1ZcGQ23stdt19ostreambuf_iterator2ZcZQ23stdt11char_traits1ZcbRQ23std8ios_basecRCQ23stdt12basic_string3ZcZQ23stdt11char_traits1ZcZQ23stdt9allocator1Zc
                0x080874b4      0x1dc /x86/lib/libcpp.a(xlocale.o)
                0x080874b4                std::money_put<char, std::ostreambuf_iterator<char, std::char_traits<char> > >::do_put(std::ostreambuf_iterator<char, std::char_traits<char> >, bool, std::ios_base &, char, std::basic_string<char, std::char_traits<char>, std::allocator<char> > const &) const
 .gnu.linkonce.t._._Q23stdt9money_get2ZcZQ23stdt19istreambuf_iterator2ZcZQ23stdt11char_traits1Zc
                0x08087690       0x26 /x86/lib/libcpp.a(xlocale.o)
                0x08087690                std::money_get<char, std::istreambuf_iterator<char, std::char_traits<char> > >::~money_get(void)
 *fill*         0x080876b6        0x2 37008
 .gnu.linkonce.t.__Q23stdt6_Ptrit6ZcZiZPCcZRCcZPcZRc
                0x080876b8        0xa /x86/lib/libcpp.a(xlocale.o)
                0x080876b8                std::_Ptrit<char, int, char const *, char const &, char *, char &>::_Ptrit(void)
 *fill*         0x080876c2        0x2 37008
 .gnu.linkonce.t.__eq__CQ23stdt6_Ptrit6ZcZiZPCcZRCcZPcZRcRCQ23stdt6_Ptrit6ZcZiZPCcZRCcZPcZRc
                0x080876c4       0x1b /x86/lib/libcpp.a(xlocale.o)
                0x080876c4                std::_Ptrit<char, int, char const *, char const &, char *, char &>::operator==(std::_Ptrit<char, int, char const *, char const &, char *, char &> const &) const
 *fill*         0x080876df        0x1 37008
 .gnu.linkonce.t.__ne__CQ23stdt6_Ptrit6ZcZiZPCcZRCcZPcZRcRCQ23stdt6_Ptrit6ZcZiZPCcZRCcZPcZRc
                0x080876e0       0x28 /x86/lib/libcpp.a(xlocale.o)
                0x080876e0                std::_Ptrit<char, int, char const *, char const &, char *, char &>::operator!=(std::_Ptrit<char, int, char const *, char const &, char *, char &> const &) const
 .gnu.linkonce.t.__pp__Q23stdt19istreambuf_iterator2ZcZQ23stdt11char_traits1Zci
                0x08087708       0x6b /x86/lib/libcpp.a(xlocale.o)
                0x08087708                std::istreambuf_iterator<char, std::char_traits<char> >::operator++(int)
 *fill*         0x08087773        0x1 37008
 .gnu.linkonce.t._Getmfld__CQ23stdt9money_get2ZcZQ23stdt19istreambuf_iterator2ZcZQ23stdt11char_traits1ZcRQ23stdt19istreambuf_iterator2ZcZQ23stdt11char_traits1ZcT1bRQ23std8ios_base
                0x08087774     0x107f /x86/lib/libcpp.a(xlocale.o)
                0x08087774                std::money_get<char, std::istreambuf_iterator<char, std::char_traits<char> > >::_Getmfld(std::istreambuf_iterator<char, std::char_traits<char> > &, std::istreambuf_iterator<char, std::char_traits<char> > &, bool, std::ios_base &) const
 *fill*         0x080887f3        0x1 37008
 .gnu.linkonce.t.do_get__CQ23stdt9money_get2ZcZQ23stdt19istreambuf_iterator2ZcZQ23stdt11char_traits1ZcGQ23stdt19istreambuf_iterator2ZcZQ23stdt11char_traits1ZcT1bRQ23std8ios_baseRQ33stdt5_Iosb1Zi8_IostateRr
                0x080887f4      0x220 /x86/lib/libcpp.a(xlocale.o)
                0x080887f4                std::money_get<char, std::istreambuf_iterator<char, std::char_traits<char> > >::do_get(std::istreambuf_iterator<char, std::char_traits<char> >, std::istreambuf_iterator<char, std::char_traits<char> >, bool, std::ios_base &, std::_Iosb<int>::_Iostate &, long double &) const
 .gnu.linkonce.t.do_get__CQ23stdt9money_get2ZcZQ23stdt19istreambuf_iterator2ZcZQ23stdt11char_traits1ZcGQ23stdt19istreambuf_iterator2ZcZQ23stdt11char_traits1ZcT1bRQ23std8ios_baseRQ33stdt5_Iosb1Zi8_IostateRQ23stdt12basic_string3ZcZQ23stdt11char_traits1ZcZQ23stdt9allocator1Zc
                0x08088a14      0x103 /x86/lib/libcpp.a(xlocale.o)
                0x08088a14                std::money_get<char, std::istreambuf_iterator<char, std::char_traits<char> > >::do_get(std::istreambuf_iterator<char, std::char_traits<char> >, std::istreambuf_iterator<char, std::char_traits<char> >, bool, std::ios_base &, std::_Iosb<int>::_Iostate &, std::basic_string<char, std::char_traits<char>, std::allocator<char> > &) const
 *fill*         0x08088b17        0x1 37008
 .gnu.linkonce.t.do_open__CQ23stdt8messages1ZcRCQ23stdt12basic_string3ZcZQ23stdt11char_traits1ZcZQ23stdt9allocator1ZcRCQ23std6locale
                0x08088b18       0x12 /x86/lib/libcpp.a(xlocale.o)
                0x08088b18                std::messages<char>::do_open(std::basic_string<char, std::char_traits<char>, std::allocator<char> > const &, std::locale const &) const
 *fill*         0x08088b2a        0x2 37008
 .gnu.linkonce.t.do_get__CQ23stdt8messages1ZciiiRCQ23stdt12basic_string3ZcZQ23stdt11char_traits1ZcZQ23stdt9allocator1Zc
                0x08088b2c       0x33 /x86/lib/libcpp.a(xlocale.o)
                0x08088b2c                std::messages<char>::do_get(int, int, int, std::basic_string<char, std::char_traits<char>, std::allocator<char> > const &) const
 *fill*         0x08088b5f        0x1 37008
 .gnu.linkonce.t.do_close__CQ23stdt8messages1Zci
                0x08088b60        0xe /x86/lib/libcpp.a(xlocale.o)
                0x08088b60                std::messages<char>::do_close(int) const
 *fill*         0x08088b6e        0x2 37008
 .gnu.linkonce.t._._Q23stdt7collate1Zc
                0x08088b70       0x26 /x86/lib/libcpp.a(xlocale.o)
                0x08088b70                std::collate<char>::~collate(void)
 *fill*         0x08088b96        0x2 37008
 .gnu.linkonce.t.do_compare__CQ23stdt7collate1ZcPCcN31
                0x08088b98       0x39 /x86/lib/libcpp.a(xlocale.o)
                0x08088b98                std::collate<char>::do_compare(char const *, char const *, char const *, char const *) const
 *fill*         0x08088bd1        0x3 37008
 .gnu.linkonce.t.resize__Q23stdt12basic_string3ZcZQ23stdt11char_traits1ZcZQ23stdt9allocator1ZcUic
                0x08088bd4       0x51 /x86/lib/libcpp.a(xlocale.o)
                0x08088bd4                std::basic_string<char, std::char_traits<char>, std::allocator<char> >::resize(unsigned int, char)
 *fill*         0x08088c25        0x3 37008
 .gnu.linkonce.t.resize__Q23stdt12basic_string3ZcZQ23stdt11char_traits1ZcZQ23stdt9allocator1ZcUi
                0x08088c28       0x25 /x86/lib/libcpp.a(xlocale.o)
                0x08088c28                std::basic_string<char, std::char_traits<char>, std::allocator<char> >::resize(unsigned int)
 *fill*         0x08088c4d        0x3 37008
 .gnu.linkonce.t.do_transform__CQ23stdt7collate1ZcPCcT1
                0x08088c50      0x150 /x86/lib/libcpp.a(xlocale.o)
                0x08088c50                std::collate<char>::do_transform(char const *, char const *) const
 .gnu.linkonce.t.do_hash__CQ23stdt7collate1ZcPCcT1
                0x08088da0       0x49 /x86/lib/libcpp.a(xlocale.o)
                0x08088da0                std::collate<char>::do_hash(char const *, char const *) const
 *fill*         0x08088de9        0x3 37008
 .gnu.linkonce.t.__tfQ23stdt7collate1Zc
                0x08088dec       0x3e /x86/lib/libcpp.a(xlocale.o)
                0x08088dec                std::collate<char> type_info function
 *fill*         0x08088e2a        0x2 37008
 .gnu.linkonce.t._._Q23stdt8messages1Zc
                0x08088e2c       0x22 /x86/lib/libcpp.a(xlocale.o)
                0x08088e2c                std::messages<char>::~messages(void)
 *fill*         0x08088e4e        0x2 37008
 .gnu.linkonce.t.__tfQ23stdt8messages1Zc
                0x08088e50       0x3e /x86/lib/libcpp.a(xlocale.o)
                0x08088e50                std::messages<char> type_info function
 *fill*         0x08088e8e        0x2 37008
 .gnu.linkonce.t.__tfQ23stdt9money_get2ZcZQ23stdt19istreambuf_iterator2ZcZQ23stdt11char_traits1Zc
                0x08088e90       0x3e /x86/lib/libcpp.a(xlocale.o)
                0x08088e90                std::money_get<char, std::istreambuf_iterator<char, std::char_traits<char> > > type_info function
 *fill*         0x08088ece        0x2 37008
 .gnu.linkonce.t.__tfQ23stdt9money_put2ZcZQ23stdt19ostreambuf_iterator2ZcZQ23stdt11char_traits1Zc
                0x08088ed0       0x3e /x86/lib/libcpp.a(xlocale.o)
                0x08088ed0                std::money_put<char, std::ostreambuf_iterator<char, std::char_traits<char> > > type_info function
 *fill*         0x08088f0e        0x2 37008
 .gnu.linkonce.t.__tfQ23stdt7_Mpunct1Zc
                0x08088f10       0x3e /x86/lib/libcpp.a(xlocale.o)
                0x08088f10                std::_Mpunct<char> type_info function
 *fill*         0x08088f4e        0x2 37008
 .gnu.linkonce.t._._Q23stdt10moneypunct2Zcb0
                0x08088f50       0x22 /x86/lib/libcpp.a(xlocale.o)
                0x08088f50                std::moneypunct<char, false>::~moneypunct(void)
 *fill*         0x08088f72        0x2 37008
 .gnu.linkonce.t.__tfQ23stdt10moneypunct2Zcb0
                0x08088f74       0x3e /x86/lib/libcpp.a(xlocale.o)
                0x08088f74                std::moneypunct<char, false> type_info function
 *fill*         0x08088fb2        0x2 37008
 .gnu.linkonce.t._._Q23stdt10moneypunct2Zcb1
                0x08088fb4       0x22 /x86/lib/libcpp.a(xlocale.o)
                0x08088fb4                std::moneypunct<char, true>::~moneypunct(void)
 *fill*         0x08088fd6        0x2 37008
 .gnu.linkonce.t.__tfQ23stdt10moneypunct2Zcb1
                0x08088fd8       0x3e /x86/lib/libcpp.a(xlocale.o)
                0x08088fd8                std::moneypunct<char, true> type_info function
 *fill*         0x08089016        0x2 37008
 .gnu.linkonce.t.__tfQ23stdt8time_get2ZcZQ23stdt19istreambuf_iterator2ZcZQ23stdt11char_traits1Zc
                0x08089018       0x3e /x86/lib/libcpp.a(xlocale.o)
                0x08089018                std::time_get<char, std::istreambuf_iterator<char, std::char_traits<char> > > type_info function
 *fill*         0x08089056        0x2 37008
 .gnu.linkonce.t.__tfQ23stdt8time_put2ZcZQ23stdt19ostreambuf_iterator2ZcZQ23stdt11char_traits1Zc
                0x08089058       0x3e /x86/lib/libcpp.a(xlocale.o)
                0x08089058                std::time_put<char, std::ostreambuf_iterator<char, std::char_traits<char> > > type_info function
 *fill*         0x08089096        0x2 37008
 .gnu.linkonce.t._LStrcoll__H1Zc_3stdPCX01N31PCQ23std8_Collvec_i
                0x08089098      0x12c /x86/lib/libcpp.a(xlocale.o)
                0x08089098                int std::_LStrcoll<char>(char const *, char const *, char const *, char const *, std::_Collvec const *)
 .gnu.linkonce.t._LStrxfrm__H1Zc_3stdPX01T1PCX01T3PCQ23std8_Collvec_Ui
                0x080891c4       0xd0 /x86/lib/libcpp.a(xlocale.o)
                0x080891c4                unsigned int std::_LStrxfrm<char>(char *, char *, char const *, char const *, std::_Collvec const *)
 .gnu.linkonce.t.is__CQ23stdt5ctype1Zcsc
                0x08089294       0x37 /x86/lib/libcpp.a(xlocale.o)
                0x08089294                std::ctype<char>::is(short, char) const
 *fill*         0x080892cb        0x1 37008
 .gnu.linkonce.t.use_facet__H1ZQ23stdt7collate1Zc_3stdRCQ23std6locale_RCX01
                0x080892cc      0x18c /x86/lib/libcpp.a(xlocale.o)
                0x080892cc                std::collate<char> const & std::use_facet<std::collate<char> >(std::locale const &)
 .gnu.linkonce.t.use_facet__H1ZQ23stdt8messages1Zc_3stdRCQ23std6locale_RCX01
                0x08089458      0x18c /x86/lib/libcpp.a(xlocale.o)
                0x08089458                std::messages<char> const & std::use_facet<std::messages<char> >(std::locale const &)
 .gnu.linkonce.t.use_facet__H1ZQ23stdt9money_get2ZcZQ23stdt19istreambuf_iterator2ZcZQ23stdt11char_traits1Zc_3stdRCQ23std6locale_RCX01
                0x080895e4      0x18c /x86/lib/libcpp.a(xlocale.o)
                0x080895e4                std::money_get<char, std::istreambuf_iterator<char, std::char_traits<char> > > const & std::use_facet<std::money_get<char, std::istreambuf_iterator<char, std::char_traits<char> > > >(std::locale const &)
 .gnu.linkonce.t.use_facet__H1ZQ23stdt9money_put2ZcZQ23stdt19ostreambuf_iterator2ZcZQ23stdt11char_traits1Zc_3stdRCQ23std6locale_RCX01
                0x08089770      0x18c /x86/lib/libcpp.a(xlocale.o)
                0x08089770                std::money_put<char, std::ostreambuf_iterator<char, std::char_traits<char> > > const & std::use_facet<std::money_put<char, std::ostreambuf_iterator<char, std::char_traits<char> > > >(std::locale const &)
 .gnu.linkonce.t.use_facet__H1ZQ23stdt10moneypunct2Zcb0__3stdRCQ23std6locale_RCX01
                0x080898fc      0x18c /x86/lib/libcpp.a(xlocale.o)
                0x080898fc                std::moneypunct<char, false> const & std use_facet<std::moneypunct<char, false> >(std::locale const &)
 .gnu.linkonce.t.use_facet__H1ZQ23stdt10moneypunct2Zcb1__3stdRCQ23std6locale_RCX01
                0x08089a88      0x18c /x86/lib/libcpp.a(xlocale.o)
                0x08089a88                std::moneypunct<char, true> const & std use_facet<std::moneypunct<char, true> >(std::locale const &)
 .gnu.linkonce.t.use_facet__H1ZQ23stdt8time_get2ZcZQ23stdt19istreambuf_iterator2ZcZQ23stdt11char_traits1Zc_3stdRCQ23std6locale_RCX01
                0x08089c14      0x18c /x86/lib/libcpp.a(xlocale.o)
                0x08089c14                std::time_get<char, std::istreambuf_iterator<char, std::char_traits<char> > > const & std::use_facet<std::time_get<char, std::istreambuf_iterator<char, std::char_traits<char> > > >(std::locale const &)
 .gnu.linkonce.t.use_facet__H1ZQ23stdt8time_put2ZcZQ23stdt19ostreambuf_iterator2ZcZQ23stdt11char_traits1Zc_3stdRCQ23std6locale_RCX01
                0x08089da0      0x18c /x86/lib/libcpp.a(xlocale.o)
                0x08089da0                std::time_put<char, std::ostreambuf_iterator<char, std::char_traits<char> > > const & std::use_facet<std::time_put<char, std::ostreambuf_iterator<char, std::char_traits<char> > > >(std::locale const &)
 .gnu.linkonce.t.__tf9exception
                0x08089f2c       0x38 /usr/lib/gcc-lib/ntox86/2.95.3/exceptions/libgcc.a(exception.o)
                0x08089f2c                exception type_info function
 .gnu.linkonce.t.__9exception
                0x08089f64       0x20 /usr/lib/gcc-lib/ntox86/2.95.3/exceptions/libgcc.a(exception.o)
                0x08089f64                exception::exception(void)
 .gnu.linkonce.t._._9exception
                0x08089f84       0x34 /usr/lib/gcc-lib/ntox86/2.95.3/exceptions/libgcc.a(exception.o)
                0x08089f84                exception::~exception(void)
 .gnu.linkonce.t.__tf13bad_exception
                0x08089fb8       0x65 /usr/lib/gcc-lib/ntox86/2.95.3/exceptions/libgcc.a(exception.o)
                0x08089fb8                bad_exception type_info function
 *fill*         0x0808a01d        0x3 37008
 .gnu.linkonce.t.__13bad_exception
                0x0808a020       0x28 /usr/lib/gcc-lib/ntox86/2.95.3/exceptions/libgcc.a(exception.o)
                0x0808a020                bad_exception::bad_exception(void)
 .gnu.linkonce.t._._13bad_exception
                0x0808a048       0x3b /usr/lib/gcc-lib/ntox86/2.95.3/exceptions/libgcc.a(exception.o)
                0x0808a048                bad_exception::~bad_exception(void)
 *fill*         0x0808a083        0x1 37008
 .gnu.linkonce.t.__tf9type_info
                0x0808a084       0x38 /usr/lib/gcc-lib/ntox86/2.95.3/exceptions/libgcc.a(tinfo.o)
                0x0808a084                type_info type_info function
 .gnu.linkonce.t.__9type_infoPCc
                0x0808a0bc       0x26 /usr/lib/gcc-lib/ntox86/2.95.3/exceptions/libgcc.a(tinfo.o)
                0x0808a0bc                type_info::type_info(char const *)
 *fill*         0x0808a0e2        0x2 37008
 .gnu.linkonce.t.name__C9type_info
                0x0808a0e4        0xa /usr/lib/gcc-lib/ntox86/2.95.3/exceptions/libgcc.a(tinfo.o)
                0x0808a0e4                type_info::name(void) const
 *fill*         0x0808a0ee        0x2 37008
 .gnu.linkonce.t.__ne__C9type_infoRC9type_info
                0x0808a0f0       0x28 /usr/lib/gcc-lib/ntox86/2.95.3/exceptions/libgcc.a(tinfo.o)
                0x0808a0f0                type_info::operator!=(type_info const &) const
 .gnu.linkonce.t.__tf8bad_cast
                0x0808a118       0x43 /usr/lib/gcc-lib/ntox86/2.95.3/exceptions/libgcc.a(tinfo.o)
                0x0808a118                bad_cast type_info function
 *fill*         0x0808a15b        0x1 37008
 .gnu.linkonce.t.__8bad_cast
                0x0808a15c       0x28 /usr/lib/gcc-lib/ntox86/2.95.3/exceptions/libgcc.a(tinfo.o)
                0x0808a15c                bad_cast::bad_cast(void)
 .gnu.linkonce.t._._8bad_cast
                0x0808a184       0x3b /usr/lib/gcc-lib/ntox86/2.95.3/exceptions/libgcc.a(tinfo.o)
                0x0808a184                bad_cast::~bad_cast(void)
 *fill*         0x0808a1bf        0x1 37008
 .gnu.linkonce.t.__tf10bad_typeid
                0x0808a1c0       0x43 /usr/lib/gcc-lib/ntox86/2.95.3/exceptions/libgcc.a(tinfo.o)
                0x0808a1c0                bad_typeid type_info function
 *fill*         0x0808a203        0x1 37008
 .gnu.linkonce.t.__10bad_typeid
                0x0808a204       0x28 /usr/lib/gcc-lib/ntox86/2.95.3/exceptions/libgcc.a(tinfo.o)
                0x0808a204                bad_typeid::bad_typeid(void)
 .gnu.linkonce.t._._10bad_typeid
                0x0808a22c       0x3b /usr/lib/gcc-lib/ntox86/2.95.3/exceptions/libgcc.a(tinfo.o)
                0x0808a22c                bad_typeid::~bad_typeid(void)
 *fill*         0x0808a267        0x1 37008
 .gnu.linkonce.t._._16__user_type_info
                0x0808a268       0x26 /usr/lib/gcc-lib/ntox86/2.95.3/exceptions/libgcc.a(tinfo.o)
                0x0808a268                __user_type_info::~__user_type_info(void)
 *fill*         0x0808a28e        0x2 37008
 .gnu.linkonce.t.__tf16__user_type_info
                0x0808a290       0x65 /usr/lib/gcc-lib/ntox86/2.95.3/exceptions/libgcc.a(tinfo.o)
                0x0808a290                __user_type_info type_info function
 *fill*         0x0808a2f5        0x3 37008
 .gnu.linkonce.t.__16__user_type_infoPCc
                0x0808a2f8       0x2f /usr/lib/gcc-lib/ntox86/2.95.3/exceptions/libgcc.a(tinfo.o)
                0x0808a2f8                __user_type_info::__user_type_info(char const *)
 *fill*         0x0808a327        0x1 37008
 .gnu.linkonce.t._._14__si_type_info
                0x0808a328       0x26 /usr/lib/gcc-lib/ntox86/2.95.3/exceptions/libgcc.a(tinfo.o)
                0x0808a328                __si_type_info::~__si_type_info(void)
 *fill*         0x0808a34e        0x2 37008
 .gnu.linkonce.t.__tf14__si_type_info
                0x0808a350       0x90 /usr/lib/gcc-lib/ntox86/2.95.3/exceptions/libgcc.a(tinfo.o)
                0x0808a350                __si_type_info type_info function
 .gnu.linkonce.t.__14__si_type_infoPCcRC16__user_type_info
                0x0808a3e0       0x40 /usr/lib/gcc-lib/ntox86/2.95.3/exceptions/libgcc.a(tinfo.o)
                0x0808a3e0                __si_type_info::__si_type_info(char const *, __user_type_info const &)
 .gnu.linkonce.t._._17__class_type_info
                0x0808a420       0x26 /usr/lib/gcc-lib/ntox86/2.95.3/exceptions/libgcc.a(tinfo.o)
                0x0808a420                __class_type_info::~__class_type_info(void)
 *fill*         0x0808a446        0x2 37008
 .gnu.linkonce.t.__tf17__class_type_info
                0x0808a448       0x90 /usr/lib/gcc-lib/ntox86/2.95.3/exceptions/libgcc.a(tinfo.o)
                0x0808a448                __class_type_info type_info function
 .gnu.linkonce.t.__17__class_type_infoPCcPCQ217__class_type_info9base_infoUi
                0x0808a4d8       0x48 /usr/lib/gcc-lib/ntox86/2.95.3/exceptions/libgcc.a(tinfo.o)
                0x0808a4d8                __class_type_info::__class_type_info(char const *, __class_type_info::base_info const *, unsigned int)
 .gnu.linkonce.t._._19__pointer_type_info
                0x0808a520       0x26 /usr/lib/gcc-lib/ntox86/2.95.3/exceptions/libgcc.a(tinfo2.o)
                0x0808a520                __pointer_type_info::~__pointer_type_info(void)
 *fill*         0x0808a546        0x2 37008
 .gnu.linkonce.t.__tf19__pointer_type_info
                0x0808a548       0x43 /usr/lib/gcc-lib/ntox86/2.95.3/exceptions/libgcc.a(tinfo2.o)
                0x0808a548                __pointer_type_info type_info function
 *fill*         0x0808a58b        0x1 37008
 .gnu.linkonce.t._._16__attr_type_info
                0x0808a58c       0x26 /usr/lib/gcc-lib/ntox86/2.95.3/exceptions/libgcc.a(tinfo2.o)
                0x0808a58c                __attr_type_info::~__attr_type_info(void)
 *fill*         0x0808a5b2        0x2 37008
 .gnu.linkonce.t.__tf16__attr_type_info
                0x0808a5b4       0x43 /usr/lib/gcc-lib/ntox86/2.95.3/exceptions/libgcc.a(tinfo2.o)
                0x0808a5b4                __attr_type_info type_info function
 *fill*         0x0808a5f7        0x1 37008
 .gnu.linkonce.t._._19__builtin_type_info
                0x0808a5f8       0x26 /usr/lib/gcc-lib/ntox86/2.95.3/exceptions/libgcc.a(tinfo2.o)
                0x0808a5f8                __builtin_type_info::~__builtin_type_info(void)
 *fill*         0x0808a61e        0x2 37008
 .gnu.linkonce.t.__tf19__builtin_type_info
                0x0808a620       0x43 /usr/lib/gcc-lib/ntox86/2.95.3/exceptions/libgcc.a(tinfo2.o)
                0x0808a620                __builtin_type_info type_info function
 *fill*         0x0808a663        0x1 37008
 .gnu.linkonce.t._._16__func_type_info
                0x0808a664       0x26 /usr/lib/gcc-lib/ntox86/2.95.3/exceptions/libgcc.a(tinfo2.o)
                0x0808a664                __func_type_info::~__func_type_info(void)
 *fill*         0x0808a68a        0x2 37008
 .gnu.linkonce.t.__tf16__func_type_info
                0x0808a68c       0x43 /usr/lib/gcc-lib/ntox86/2.95.3/exceptions/libgcc.a(tinfo2.o)
                0x0808a68c                __func_type_info type_info function
 *fill*         0x0808a6cf        0x1 37008
 .gnu.linkonce.t._._16__ptmf_type_info
                0x0808a6d0       0x26 /usr/lib/gcc-lib/ntox86/2.95.3/exceptions/libgcc.a(tinfo2.o)
                0x0808a6d0                __ptmf_type_info::~__ptmf_type_info(void)
 *fill*         0x0808a6f6        0x2 37008
 .gnu.linkonce.t.__tf16__ptmf_type_info
                0x0808a6f8       0x43 /usr/lib/gcc-lib/ntox86/2.95.3/exceptions/libgcc.a(tinfo2.o)
                0x0808a6f8                __ptmf_type_info type_info function
 *fill*         0x0808a73b        0x1 37008
 .gnu.linkonce.t._._16__ptmd_type_info
                0x0808a73c       0x26 /usr/lib/gcc-lib/ntox86/2.95.3/exceptions/libgcc.a(tinfo2.o)
                0x0808a73c                __ptmd_type_info::~__ptmd_type_info(void)
 *fill*         0x0808a762        0x2 37008
 .gnu.linkonce.t.__tf16__ptmd_type_info
                0x0808a764       0x43 /usr/lib/gcc-lib/ntox86/2.95.3/exceptions/libgcc.a(tinfo2.o)
                0x0808a764                __ptmd_type_info type_info function
 *fill*         0x0808a7a7        0x1 37008
 .gnu.linkonce.t._._17__array_type_info
                0x0808a7a8       0x26 /usr/lib/gcc-lib/ntox86/2.95.3/exceptions/libgcc.a(tinfo2.o)
                0x0808a7a8                __array_type_info::~__array_type_info(void)
 *fill*         0x0808a7ce        0x2 37008
 .gnu.linkonce.t.__tf17__array_type_info
                0x0808a7d0       0x43 /usr/lib/gcc-lib/ntox86/2.95.3/exceptions/libgcc.a(tinfo2.o)
                0x0808a7d0                __array_type_info type_info function
                0x0808a813                _etext=.
                0x0808a813                PROVIDE (etext, .)

.fini           0x0808a813        0x8
 *(.fini)
 .fini          0x0808a813        0x5 /usr/lib/gcc-lib/ntox86/2.95.3/crtbeginC++.o
 .fini          0x0808a818        0x3 /x86/lib/crtn.o

.rodata         0x0808a820     0x5020
 *(.rodata)
 .rodata        0x0808a820       0x3a objects_storage_logger.o
 *fill*         0x0808a85a        0x6
 .rodata        0x0808a860      0x516 manager_of_data_storage.o
 *fill*         0x0808ad76        0x2
 .rodata        0x0808ad78       0x7e jobs_data_managers_container.o
 *fill*         0x0808adf6        0xa
 .rodata        0x0808ae00       0xe9 pri_data_manager.o
 *fill*         0x0808aee9       0x17
 .rodata        0x0808af00       0xb5 mock_database_wrapper.o
 *fill*         0x0808afb5        0xb
 .rodata        0x0808afc0      0x37a main.o
 .rodata        0x0808b33a        0xa /x86/lib/libcpp.a(delop3.o)
 .rodata        0x0808b344       0x12 /x86/lib/libcpp.a(gccex.o)
 *fill*         0x0808b356        0x2
 .rodata        0x0808b358       0xab /x86/lib/libcpp.a(ios.o)
                0x0808b370                std::_BADOFF
 *fill*         0x0808b403       0x1d
 .rodata        0x0808b420      0x160 /x86/lib/libcpp.a(iostream.o)
 .rodata        0x0808b580      0x1fd /x86/lib/libcpp.a(locale.o)
 *fill*         0x0808b77d        0x3
 .rodata        0x0808b780       0x48 /x86/lib/libcpp.a(locale0.o)
                0x0808b798                std::ctype<char>::table_size
 .rodata        0x0808b7c8       0x1b /x86/lib/libcpp.a(newaop.o)
 .rodata        0x0808b7e3       0x1b /x86/lib/libcpp.a(newop.o)
 .rodata        0x0808b7fe       0x1b /x86/lib/libcpp.a(nomemory.o)
 .rodata        0x0808b819       0x7d /x86/lib/libcpp.a(string.o)
 *fill*         0x0808b896        0xa
 .rodata        0x0808b8a0      0x492 /x86/lib/libcpp.a(wlocale.o)
 *fill*         0x0808bd32        0xe
 .rodata        0x0808bd40      0x30e /x86/lib/libcpp.a(xlocale.o)
 .rodata        0x0808c04e        0xa /x86/lib/libcpp.a(new.o)
 .rodata        0x0808c058       0x1b /usr/lib/gcc-lib/ntox86/2.95.3/exceptions/libgcc.a(exception.o)
 .rodata        0x0808c073        0x4 /usr/lib/gcc-lib/ntox86/2.95.3/exceptions/libgcc.a(frame.o)
 .rodata        0x0808c077       0x64 /usr/lib/gcc-lib/ntox86/2.95.3/exceptions/libgcc.a(tinfo.o)
 .rodata        0x0808c0db       0xbe /usr/lib/gcc-lib/ntox86/2.95.3/exceptions/libgcc.a(tinfo2.o)
 *fill*         0x0808c199        0x7
 .rodata        0x0808c1a0       0x37 /x86/lib/libc.a(getopt.o)
 *fill*         0x0808c1d7        0x9
 .rodata        0x0808c1e0       0x67 /x86/lib/libc.a(util.o)
 .rodata        0x0808c247       0x21 /x86/lib/libc.a(localeco.o)
 .rodata        0x0808c268        0x1 /x86/lib/libc.a(mbrtowc.o)
 *fill*         0x0808c269        0x3
 .rodata        0x0808c26c       0x68 /x86/lib/libc.a(setlocal.o)
                0x0808c270                _Nmcats
 *fill*         0x0808c2d4        0xc
 .rodata        0x0808c2e0      0x202 /x86/lib/libc.a(xctype.o)
 *fill*         0x0808c4e2        0x2
 .rodata        0x0808c4e4       0x76 /x86/lib/libc.a(xdefloc.o)
 .rodata        0x0808c55a       0x4e /x86/lib/libc.a(xgetloc.o)
 *fill*         0x0808c5a8       0x18
 .rodata        0x0808c5c0       0x58 /x86/lib/libc.a(xmakeloc.o)
 .rodata        0x0808c618        0x3 /x86/lib/libc.a(xmakewct.o)
 *fill*         0x0808c61b        0x1
 .rodata        0x0808c61c        0x8 /x86/lib/libc.a(xmbtowc.o)
 *fill*         0x0808c624       0x1c
 .rodata        0x0808c640       0x36 /x86/lib/libc.a(xreadloc.o)
 *fill*         0x0808c676        0x2
 .rodata        0x0808c678       0x1c /x86/lib/libc.a(xsetloc.o)
 *fill*         0x0808c694        0x4
 .rodata        0x0808c698       0x20 /x86/lib/libc.a(xstod.o)
 .rodata        0x0808c6b8       0x20 /x86/lib/libc.a(xstoflt.o)
 *fill*         0x0808c6d8        0x8
 .rodata        0x0808c6e0       0x60 /x86/lib/libc.a(xstold.o)
 .rodata        0x0808c740       0x2d /x86/lib/libc.a(xstoxflt.o)
 *fill*         0x0808c76d       0x13
 .rodata        0x0808c780      0x202 /x86/lib/libc.a(xtolotab.o)
 *fill*         0x0808c982       0x1e
 .rodata        0x0808c9a0      0x202 /x86/lib/libc.a(xtouptab.o)
 *fill*         0x0808cba2        0x6
 .rodata        0x0808cba8       0x80 /x86/lib/libc.a(xvalues.o)
                0x0808cc08                _Snan
                0x0808cbf8                _Rteps
                0x0808cbd8                _Inf
                0x0808cbb8                _Eps
                0x0808cba8                _Denorm
                0x0808cbe8                _Nan
                0x0808cbc8                _Hugeval
                0x0808cc18                _Xbig
                0x0808cc20                _Zero
 .rodata        0x0808cc28        0x8 /x86/lib/libc.a(xwctomb.o)
 .rodata        0x0808cc30       0x54 /x86/lib/libc.a(xwctrtab.o)
 .rodata        0x0808cc84      0x165 /x86/lib/libc.a(xwctytab.o)
 .rodata        0x0808cde9        0xa /x86/lib/libc.a(slog.o)
 .rodata        0x0808cdf3        0xe /x86/lib/libc.a(strerror.o)
 *fill*         0x0808ce01       0x1f
 .rodata        0x0808ce20       0x3e /x86/lib/libc.a(xfiles.o)
                0x0808ce20                _PJP_C_Copyright
 *fill*         0x0808ce5e        0x2
 .rodata        0x0808ce60       0x27 /x86/lib/libc.a(xprintf.o)
 *fill*         0x0808ce87        0x1
 .rodata        0x0808ce88      0x1b8 /x86/lib/libc.a(xputfld.o)
 .rodata        0x0808d040       0x61 /x86/lib/libc.a(xputtxt.o)
 .rodata        0x0808d0a1        0xc /x86/lib/libc.a(xscanf.o)
 *fill*         0x0808d0ad        0x3
 .rodata        0x0808d0b0        0x8 /x86/lib/libc.a(wcscoll.o)
 *fill*         0x0808d0b8        0x8
 .rodata        0x0808d0c0      0x14c /x86/lib/libc.a(asctime.o)
 .rodata        0x0808d20c       0x1e /x86/lib/libc.a(xtzset.o)
 *fill*         0x0808d22a       0x16
 .rodata        0x0808d240     0x1224 /x86/lib/libc.a(sys_err.o)
                0x0808e460                sys_nerr
                0x0808d250                sys_errlist
 *fill*         0x0808e464       0x1c
 .rodata        0x0808e480       0x6c /x86/lib/libc.a(random.o)
 .rodata        0x0808e4ec       0xb0 /x86/lib/libc.a(sysconf.o)
 .rodata        0x0808e59c        0x2 /x86/lib/libc.a(basename.o)
 *fill*         0x0808e59e        0x2
 .rodata        0x0808e5a0       0x10 /x86/lib/libc.a(confstr.o)
 .rodata        0x0808e5b0       0x18 /x86/lib/libc.a(dlist.o)
 .rodata        0x0808e5c8       0x4c /x86/lib/libc.a(xdtento.o)
 .rodata        0x0808e614       0x1c /x86/lib/libc.a(xfdtento.o)
 .rodata        0x0808e630       0x24 /x86/lib/libc.a(xfreeloc.o)
 .rodata        0x0808e654       0x68 /x86/lib/libc.a(xfvalues.o)
                0x0808e6a4                _FRteps
                0x0808e6b4                _FXbig
                0x0808e664                _FEps
                0x0808e674                _FInf
                0x0808e654                _FDenorm
                0x0808e694                _FSnan
                0x0808e684                _FNan
                0x0808e6b8                _FZero
 *fill*         0x0808e6bc        0x4
 .rodata        0x0808e6c0       0xa0 /x86/lib/libc.a(xldtento.o)
 .rodata        0x0808e760      0x526 /x86/lib/libc.a(xloctab.o)
                0x0808e760                _Loctab
 *fill*         0x0808ec86       0x1a
 .rodata        0x0808eca0       0x7d /x86/lib/libc.a(xlocterm.o)
 *fill*         0x0808ed1d        0x3
 .rodata        0x0808ed20       0x7c /x86/lib/libc.a(xlvalues.o)
                0x0808ed20                _LDenorm
                0x0808ed40                _LInf
                0x0808ed90                _LZero
                0x0808ed60                _LSnan
                0x0808ed70                _LRteps
                0x0808ed50                _LNan
                0x0808ed30                _LEps
                0x0808ed80                _LXbig
 .rodata        0x0808ed9c       0x20 /x86/lib/libc.a(xstoint.o)
 .rodata        0x0808edbc      0x1b0 /x86/lib/libc.a(xgetfld.o)
 .rodata        0x0808ef6c       0x17 /x86/lib/libc.a(xgetfloa.o)
 *fill*         0x0808ef83        0x1
 .rodata        0x0808ef84       0xe8 /x86/lib/libc.a(xgetint.o)
 *fill*         0x0808f06c        0x4
 .rodata        0x0808f070       0xdc /x86/lib/libc.a(xldtob.o)
 .rodata        0x0808f14c       0x22 /x86/lib/libc.a(xlitob.o)
 *fill*         0x0808f16e        0x2
 .rodata        0x0808f170      0x184 /x86/lib/libc.a(xgentime.o)
 .rodata        0x0808f2f4       0x38 /x86/lib/libc.a(xttotm.o)
 .rodata        0x0808f32c        0x8 /x86/lib/libc.a(fork.o)
 .rodata        0x0808f334        0x1 /x86/lib/libc.a(_findenv.o)
 *fill*         0x0808f335        0x3
 .rodata        0x0808f338        0x4 /x86/lib/libc.a(ldiv.o)
 .rodata        0x0808f33c        0x2 /x86/lib/libc.a(xgenld.o)
 *fill*         0x0808f33e        0x2
 .rodata        0x0808f340       0x20 /x86/lib/libc.a(_connect_ctrl.o)
 .rodata        0x0808f360       0x60 /x86/lib/libc.a(xisdst.o)
 .rodata        0x0808f3c0        0x4 /x86/lib/libc.a(div.o)
 .rodata        0x0808f3c4      0x100 /usr/lib/gcc-lib/ntox86/2.95.3/exceptions/libgcc.a(_divdi3.o)
 .rodata        0x0808f4c4      0x100 /usr/lib/gcc-lib/ntox86/2.95.3/exceptions/libgcc.a(_moddi3.o)
 .rodata        0x0808f5c4      0x100 /usr/lib/gcc-lib/ntox86/2.95.3/exceptions/libgcc.a(_udivdi3.o)
 .rodata        0x0808f6c4      0x100 /usr/lib/gcc-lib/ntox86/2.95.3/exceptions/libgcc.a(_umoddi3.o)
 *(.rodata.*)
 *(.gnu.linkonce.r*)
 .gnu.linkonce.r._Q23stdt12basic_string3ZcZQ23stdt11char_traits1ZcZQ23stdt9allocator1Zc.npos
                0x0808f7c4        0x4 objects_storage_logger.o
                0x0808f7c4                std::basic_string<char, std::char_traits<char>, std::allocator<char> >::npos
 .gnu.linkonce.r._Q23stdt12basic_string3ZwZQ23stdt11char_traits1ZwZQ23stdt9allocator1Zw.npos
                0x0808f7c8        0x4 objects_storage_logger.o
                0x0808f7c8                std::basic_string<wchar_t, std::char_traits<wchar_t>, std::allocator<wchar_t> >::npos
 .gnu.linkonce.r._Q23stdt8_Locbase1Zi.all
                0x0808f7cc        0x4 objects_storage_logger.o
                0x0808f7cc                std::_Locbase<int>::all
 .gnu.linkonce.r._Q23stdt5_Iosb1Zi.skipws
                0x0808f7d0        0x4 objects_storage_logger.o
                0x0808f7d0                std::_Iosb<int>::skipws
 .gnu.linkonce.r._Q23stdt5_Iosb1Zi.unitbuf
                0x0808f7d4        0x4 objects_storage_logger.o
                0x0808f7d4                std::_Iosb<int>::unitbuf
 .gnu.linkonce.r._Q23stdt5_Iosb1Zi.uppercase
                0x0808f7d8        0x4 objects_storage_logger.o
                0x0808f7d8                std::_Iosb<int>::uppercase
 .gnu.linkonce.r._Q23stdt5_Iosb1Zi.showbase
                0x0808f7dc        0x4 objects_storage_logger.o
                0x0808f7dc                std::_Iosb<int>::showbase
 .gnu.linkonce.r._Q23stdt5_Iosb1Zi.showpoint
                0x0808f7e0        0x4 objects_storage_logger.o
                0x0808f7e0                std::_Iosb<int>::showpoint
 .gnu.linkonce.r._Q23stdt5_Iosb1Zi.showpos
                0x0808f7e4        0x4 objects_storage_logger.o
                0x0808f7e4                std::_Iosb<int>::showpos
 .gnu.linkonce.r._Q23stdt5_Iosb1Zi.left
                0x0808f7e8        0x4 objects_storage_logger.o
                0x0808f7e8                std::_Iosb<int>::left
 .gnu.linkonce.r._Q23stdt5_Iosb1Zi.right
                0x0808f7ec        0x4 objects_storage_logger.o
                0x0808f7ec                std::_Iosb<int>::right
 .gnu.linkonce.r._Q23stdt5_Iosb1Zi.internal
                0x0808f7f0        0x4 objects_storage_logger.o
                0x0808f7f0                std::_Iosb<int>::internal
 .gnu.linkonce.r._Q23stdt5_Iosb1Zi.dec
                0x0808f7f4        0x4 objects_storage_logger.o
                0x0808f7f4                std::_Iosb<int>::dec
 .gnu.linkonce.r._Q23stdt5_Iosb1Zi.oct
                0x0808f7f8        0x4 objects_storage_logger.o
                0x0808f7f8                std::_Iosb<int>::oct
 .gnu.linkonce.r._Q23stdt5_Iosb1Zi.hex
                0x0808f7fc        0x4 objects_storage_logger.o
                0x0808f7fc                std::_Iosb<int>::hex
 .gnu.linkonce.r._Q23stdt5_Iosb1Zi.scientific
                0x0808f800        0x4 objects_storage_logger.o
                0x0808f800                std::_Iosb<int>::scientific
 .gnu.linkonce.r._Q23stdt5_Iosb1Zi.fixed
                0x0808f804        0x4 objects_storage_logger.o
                0x0808f804                std::_Iosb<int>::fixed
 .gnu.linkonce.r._Q23stdt5_Iosb1Zi.boolalpha
                0x0808f808        0x4 objects_storage_logger.o
                0x0808f808                std::_Iosb<int>::boolalpha
 .gnu.linkonce.r._Q23stdt5_Iosb1Zi.adjustfield
                0x0808f80c        0x4 objects_storage_logger.o
                0x0808f80c                std::_Iosb<int>::adjustfield
 .gnu.linkonce.r._Q23stdt5_Iosb1Zi.basefield
                0x0808f810        0x4 objects_storage_logger.o
                0x0808f810                std::_Iosb<int>::basefield
 .gnu.linkonce.r._Q23stdt5_Iosb1Zi.floatfield
                0x0808f814        0x4 objects_storage_logger.o
                0x0808f814                std::_Iosb<int>::floatfield
 .gnu.linkonce.r._Q23stdt5_Iosb1Zi.goodbit
                0x0808f818        0x4 objects_storage_logger.o
                0x0808f818                std::_Iosb<int>::goodbit
 .gnu.linkonce.r._Q23stdt5_Iosb1Zi.eofbit
                0x0808f81c        0x4 objects_storage_logger.o
                0x0808f81c                std::_Iosb<int>::eofbit
 .gnu.linkonce.r._Q23stdt5_Iosb1Zi.failbit
                0x0808f820        0x4 objects_storage_logger.o
                0x0808f820                std::_Iosb<int>::failbit
 .gnu.linkonce.r._Q23stdt5_Iosb1Zi.badbit
                0x0808f824        0x4 objects_storage_logger.o
                0x0808f824                std::_Iosb<int>::badbit
 .gnu.linkonce.r._Q23stdt5_Iosb1Zi.in
                0x0808f828        0x4 manager_of_data_storage.o
                0x0808f828                std::_Iosb<int>::in
 .gnu.linkonce.r._Q23stdt5_Iosb1Zi.end
                0x0808f82c        0x4 manager_of_data_storage.o
                0x0808f82c                std::_Iosb<int>::end
 .gnu.linkonce.r._Q23stdt5_Iosb1Zi.cur
                0x0808f830        0x4 manager_of_data_storage.o
                0x0808f830                std::_Iosb<int>::cur
 .gnu.linkonce.r._Q23stdt5_Iosb1Zi.beg
                0x0808f834        0x4 manager_of_data_storage.o
                0x0808f834                std::_Iosb<int>::beg
 .gnu.linkonce.r._Q23stdt5_Iosb1Zi.out
                0x0808f838        0x4 manager_of_data_storage.o
                0x0808f838                std::_Iosb<int>::out
 .gnu.linkonce.r._Q23stdt8_Locbase1Zi.none
                0x0808f83c        0x4 /x86/lib/libcpp.a(locale0.o)
                0x0808f83c                std::_Locbase<int>::none

.rodata1
 *(.rodata1)
                0x08090840                .=(ALIGN(0x1000)+(.&0xfff))

.data           0x08090840     0x1aa0
 *(.data)
 .data          0x08090840        0x8 /usr/lib/gcc-lib/ntox86/2.95.3/crtbeginC++.o
 .data          0x08090848        0x8 objects_storage_logger.o
                0x0809084c                objects_storage_logger::logger_instance
 .data          0x08090850       0x24 manager_of_data_storage.o
                0x0809086a                manager_of_data_storage::descriptor_channeld_channel_num
                0x08090869                manager_of_data_storage::descriptor_channeld_e1_num
                0x08090860                manager_of_data_storage::channel_id
                0x08090865                manager_of_data_storage::descriptor_call_pointer_first
                0x0809085c                manager_of_data_storage::process_id
                0x08090868                manager_of_data_storage::descriptor_channeld_ie1_num
                0x08090866                manager_of_data_storage::descriptior_call_pointer_second
                0x08090858                manager_of_data_storage::node_id
                0x08090867                manager_of_data_storage::descriptor_channeld_upo_num
                0x08090864                manager_of_data_storage::descriptor_call_pointer_num
                0x08090854                manager_of_data_storage::mngr_instance
 .data          0x08090874        0xc pri_data_manager.o
                0x0809087c                pri_data_manager::pri_mgr_instance
                0x08090878                pri_data_manager::data_manager_type
 .data          0x08090880        0x8 mock_database_wrapper.o
                0x08090884                database_wrapper::dbwrapper_instance
 .data          0x08090888        0x4 main.o
 .data          0x0809088c        0x8 /x86/lib/libcpp.a(exceptio.o)
 *fill*         0x08090894        0xc
 .data          0x080908a0       0x52 /x86/lib/libcpp.a(ios.o)
                0x080908b8                std::ios_base::_Index
                0x080908bc                std::ios_base::_Sync
                0x080908a8                std::_Fpz
 *fill*         0x080908f2        0x2
 .data          0x080908f4        0x8 /x86/lib/libcpp.a(iostream.o)
                0x080908f8                std::ios_base::Init::_Init_cnt
 .data          0x080908fc       0x14 /x86/lib/libcpp.a(locale.o)
 .data          0x08090910       0x10 /x86/lib/libcpp.a(locale0.o)
                0x0809091c                std::locale::id::_Id_cnt
                0x08090918                std::locale::_Locimp::_Global
                0x08090914                std::locale::_Locimp::_Clocptr
 .data          0x08090920        0x4 /x86/lib/libcpp.a(raisehan.o)
                0x08090920                std::_Raise_handler
 .data          0x08090924        0x4 /x86/lib/libcpp.a(string.o)
 .data          0x08090928       0x38 /x86/lib/libcpp.a(wlocale.o)
 .data          0x08090960       0x24 /x86/lib/libcpp.a(xlocale.o)
 .data          0x08090984        0xc /x86/lib/libcpp.a(xlock.o)
 .data          0x08090990        0x4 /x86/lib/libcpp.a(new.o)
                0x08090990                std::_New_hand
 .data          0x08090994       0x18 /usr/lib/gcc-lib/ntox86/2.95.3/exceptions/libgcc.a(_eh.o)
                0x08090998                __terminate_func
 .data          0x080909ac        0x4 /usr/lib/gcc-lib/ntox86/2.95.3/exceptions/libgcc.a(exception.o)
 .data          0x080909b0        0xc /usr/lib/gcc-lib/ntox86/2.95.3/exceptions/libgcc.a(frame.o)
 .data          0x080909bc        0x8 /x86/lib/libc.a(getopt.o)
                0x080909c0                opterr
                0x080909bc                optind
 .data          0x080909c4        0x8 /x86/lib/libc.a(malloc.o)
                0x080909c4                _malloc_mutex
 .data          0x080909cc       0x10 /x86/lib/libc.a(util.o)
 *fill*         0x080909dc        0x4
 .data          0x080909e0       0x78 /x86/lib/libc.a(localeco.o)
                0x080909e0                _Locale
 *fill*         0x08090a58        0x8
 .data          0x08090a60      0x22c /x86/lib/libc.a(setlocal.o)
                0x08090a60                _Clocale
 .data          0x08090c8c        0x4 /x86/lib/libc.a(xctype.o)
                0x08090c8c                _Ctype
 .data          0x08090c90        0x4 /x86/lib/libc.a(xdefloc.o)
 .data          0x08090c94        0x4 /x86/lib/libc.a(xgetloc.o)
 .data          0x08090c98        0x1 /x86/lib/libc.a(xstate.o)
                0x08090c98                _Mbcurmax
 *fill*         0x08090c99        0x3
 .data          0x08090c9c        0x4 /x86/lib/libc.a(xtolotab.o)
                0x08090c9c                _Tolotab
 .data          0x08090ca0        0x4 /x86/lib/libc.a(xtouptab.o)
                0x08090ca0                _Touptab
 .data          0x08090ca4        0x4 /x86/lib/libc.a(xwctrtab.o)
                0x08090ca4                _Wctrans
 .data          0x08090ca8        0x4 /x86/lib/libc.a(xwctytab.o)
                0x08090ca8                _Wctype
 .data          0x08090cac        0x4 /x86/lib/libc.a(slog.o)
                0x08090cac                _slogfd
 .data          0x08090cb0       0x10 /x86/lib/libc.a(flockfile.o)
                0x08090cb8                _stdio_cond
                0x08090cb0                _stdio_mutex
 .data          0x08090cc0      0x160 /x86/lib/libc.a(xfiles.o)
                0x08090d20                _Stdout
                0x08090de0                _Files
                0x08090cc0                _Stdin
                0x08090d80                _Stderr
 .data          0x08090e20        0x4 /x86/lib/libc.a(_math_emu_callout.o)
                0x08090e20                _emulator_callout
 *fill*         0x08090e24       0x1c
 .data          0x08090e40      0x10e /x86/lib/libc.a(asctime.o)
                0x08090ec0                _Times
 *fill*         0x08090f4e        0x2
 .data          0x08090f50        0x4 /x86/lib/libc.a(xtzset.o)
 *fill*         0x08090f54        0xc
 .data          0x08090f60       0xdc /x86/lib/libc.a(random.o)
 .data          0x0809103c       0x10 /x86/lib/libc.a(pthread_key_data.o)
                0x08091040                _key_destructor
                0x0809103c                _key_count
                0x08091044                _key_mutex
 .data          0x0809104c        0x4 /x86/lib/libc.a(amblksiz.o)
                0x0809104c                _amblksiz
 *fill*         0x08091050       0x10
 .data          0x08091060      0x130 /x86/lib/libc.a(dlist.o)
                0x0809107c                __flist_crumbs
                0x08091180                _malloc_monotonic_growth
                0x08091174                _malloc_check_fd
                0x08091070                __flist_avail
                0x08091060                __arenas
                0x08091170                __ndlist_stat_bins
                0x0809117c                _malloc_check_on
                0x08091178                _malloc_abort
                0x080910a0                __dlist_stat_bins
                0x08091184                _malloc_free_check
 *fill*         0x08091190       0x10
 .data          0x080911a0      0x13c /x86/lib/libc.a(malloc-config.o)
                0x080912c4                __bandmap
                0x080912a0                __Bands
                0x080912d8                __nbandmap
                0x080912c0                __nband
 .data          0x080912dc        0x8 /x86/lib/libc.a(fork.o)
                0x080912dc                pthread_atfork_mutex
 .data          0x080912e4        0x1 /x86/lib/libc.a(core.o)
 *fill*         0x080912e5        0x3
 *(.data.*)
 *(.gnu.linkonce.d*)
 .gnu.linkonce.d._Q23stdt8_Tidyfac1ZQ23stdt5ctype1Zc._Facsav
                0x080912e8        0x4 objects_storage_logger.o
                0x080912e8                std::_Tidyfac<std::ctype<char> >::_Facsav
 .gnu.linkonce.d._Q23stdt8_Tidyfac1ZQ23stdt7num_put2ZcZQ23stdt19ostreambuf_iterator2ZcZQ23stdt11char_traits1Zc._Facsav
                0x080912ec        0x4 manager_of_data_storage.o
                0x080912ec                std::_Tidyfac<std::num_put<char, std::ostreambuf_iterator<char, std::char_traits<char> > > >::_Facsav
 .gnu.linkonce.d._Q23stdt8_Tidyfac1ZQ23stdt8numpunct1Zc._Facsav
                0x080912f0        0x4 manager_of_data_storage.o
                0x080912f0                std::_Tidyfac<std::numpunct<char> >::_Facsav
 *fill*         0x080912f4        0xc
 .gnu.linkonce.d._vt.Q23stdt8numpunct1Zc
                0x08091300       0x40 manager_of_data_storage.o
                0x08091300                std::numpunct<char> virtual table
 .gnu.linkonce.d._vt.Q23stdt7num_put2ZcZQ23stdt19ostreambuf_iterator2ZcZQ23stdt11char_traits1Zc
                0x08091340       0x58 manager_of_data_storage.o
                0x08091340                std::num_put<char, std::ostreambuf_iterator<char, std::char_traits<char> > > virtual table
 .gnu.linkonce.d._vt.Q23stdt19basic_ostringstream3ZcZQ23stdt11char_traits1ZcZQ23stdt9allocator1Zc.Q23stdt9basic_ios2ZcZQ23stdt11char_traits1Zc
                0x08091398       0x18 manager_of_data_storage.o
                0x08091398                std::basic_ostringstream<char, std::char_traits<char>, std::allocator<char> >::std::basic_ios<char, std::char_traits<char> > virtual table
 *fill*         0x080913b0       0x10
 .gnu.linkonce.d._vt.Q23stdt15basic_stringbuf3ZcZQ23stdt11char_traits1ZcZQ23stdt9allocator1Zc
                0x080913c0       0x78 manager_of_data_storage.o
                0x080913c0                std::basic_stringbuf<char, std::char_traits<char>, std::allocator<char> > virtual table
 *fill*         0x08091438        0x8
 .gnu.linkonce.d._vt.Q23stdt15basic_streambuf2ZcZQ23stdt11char_traits1Zc
                0x08091440       0x78 manager_of_data_storage.o
                0x08091440                std::basic_streambuf<char, std::char_traits<char> > virtual table
 .gnu.linkonce.d._vt.Q23stdt13basic_ostream2ZcZQ23stdt11char_traits1Zc.Q23stdt9basic_ios2ZcZQ23stdt11char_traits1Zc
                0x080914b8       0x18 manager_of_data_storage.o
                0x080914b8                std::basic_ostream<char, std::char_traits<char> >::std::basic_ios<char, std::char_traits<char> > virtual table
 .gnu.linkonce.d._vt.Q23stdt9basic_ios2ZcZQ23stdt11char_traits1Zc
                0x080914d0       0x18 manager_of_data_storage.o
                0x080914d0                std::basic_ios<char, std::char_traits<char> > virtual table
 .gnu.linkonce.d._vt.Q33std6locale5facet
                0x080914e8       0x18 manager_of_data_storage.o
                0x080914e8                std::locale::facet virtual table
 .gnu.linkonce.d._vt.Q23std8bad_cast
                0x08091500       0x28 manager_of_data_storage.o
                0x08091500                std::bad_cast virtual table
 *fill*         0x08091528       0x18
 .gnu.linkonce.d._vt.Q23std12out_of_range
                0x08091540       0x28 manager_of_data_storage.o
                0x08091540                std::out_of_range virtual table
 *fill*         0x08091568       0x18
 .gnu.linkonce.d._vt.Q23std12length_error
                0x08091580       0x28 manager_of_data_storage.o
                0x08091580                std::length_error virtual table
 *fill*         0x080915a8       0x18
 .gnu.linkonce.d._vt.Q23std11logic_error
                0x080915c0       0x28 manager_of_data_storage.o
                0x080915c0                std::logic_error virtual table
 *fill*         0x080915e8       0x18
 .gnu.linkonce.d._vt.16pri_data_manager
                0x08091600       0x20 pri_data_manager.o
                0x08091600                pri_data_manager virtual table
 .gnu.linkonce.d._vt.25abstract_job_data_manager
                0x08091620       0x20 pri_data_manager.o
                0x08091620                abstract_job_data_manager virtual table
 .gnu.linkonce.d._vt.Q23stdt5ctype1Zc
                0x08091640       0x58 main.o
                0x08091640                std::ctype<char> virtual table
 .gnu.linkonce.d._vt.Q23std10ctype_base
                0x08091698       0x18 main.o
                0x08091698                std::ctype_base virtual table
 *fill*         0x080916b0       0x10
 .gnu.linkonce.d._vt.Q23std9exception
                0x080916c0       0x28 /x86/lib/libcpp.a(gccex.o)
                0x080916c0                std::exception virtual table
 .gnu.linkonce.d._vt.Q23std8ios_base
                0x080916e8       0x18 /x86/lib/libcpp.a(ios.o)
                0x080916e8                std::ios_base virtual table
 .gnu.linkonce.d._vt.Q33std8ios_base7failure
                0x08091700       0x28 /x86/lib/libcpp.a(ios.o)
                0x08091700                std::ios_base::failure virtual table
 *fill*         0x08091728       0x18
 .gnu.linkonce.d._vt.Q23std13runtime_error
                0x08091740       0x28 /x86/lib/libcpp.a(ios.o)
                0x08091740                std::runtime_error virtual table
 .gnu.linkonce.d._vt.Q23stdt13basic_istream2ZcZQ23stdt11char_traits1Zc.Q23stdt9basic_ios2ZcZQ23stdt11char_traits1Zc
                0x08091768       0x18 /x86/lib/libcpp.a(iostream.o)
                0x08091768                std::basic_istream<char, std::char_traits<char> >::std::basic_ios<char, std::char_traits<char> > virtual table
 .gnu.linkonce.d._vt.Q23stdt13basic_filebuf2ZcZQ23stdt11char_traits1Zc
                0x08091780       0x78 /x86/lib/libcpp.a(iostream.o)
                0x08091780                std::basic_filebuf<char, std::char_traits<char> > virtual table
 .gnu.linkonce.d._Q23stdt8_Tidyfac1ZQ23stdt7num_get2ZcZQ23stdt19istreambuf_iterator2ZcZQ23stdt11char_traits1Zc._Facsav
                0x080917f8        0x4 /x86/lib/libcpp.a(locale.o)
                0x080917f8                std::_Tidyfac<std::num_get<char, std::istreambuf_iterator<char, std::char_traits<char> > > >::_Facsav
 .gnu.linkonce.d._Q23stdt8_Tidyfac1ZQ23stdt7codecvt3ZcZcZ9_Mbstatet._Facsav
                0x080917fc        0x4 /x86/lib/libcpp.a(locale.o)
                0x080917fc                std::_Tidyfac<std::codecvt<char, char, _Mbstatet> >::_Facsav
 .gnu.linkonce.d._vt.Q23stdt7codecvt3ZcZcZ9_Mbstatet
                0x08091800       0x50 /x86/lib/libcpp.a(locale.o)
                0x08091800                std::codecvt<char, char, _Mbstatet> virtual table
 *fill*         0x08091850       0x10
 .gnu.linkonce.d._vt.Q23stdt7num_get2ZcZQ23stdt19istreambuf_iterator2ZcZQ23stdt11char_traits1Zc
                0x08091860       0x70 /x86/lib/libcpp.a(locale.o)
                0x08091860                std::num_get<char, std::istreambuf_iterator<char, std::char_traits<char> > > virtual table
 *fill*         0x080918d0       0x10
 .gnu.linkonce.d._vt.Q23std12codecvt_base
                0x080918e0       0x30 /x86/lib/libcpp.a(locale.o)
                0x080918e0                std::codecvt_base virtual table
 .gnu.linkonce.d._vt.Q33std6locale7_Locimp
                0x08091910       0x18 /x86/lib/libcpp.a(locale0.o)
                0x08091910                std::locale::_Locimp virtual table
 *fill*         0x08091928       0x18
 .gnu.linkonce.d._vt.Q23std9bad_alloc
                0x08091940       0x28 /x86/lib/libcpp.a(nomemory.o)
                0x08091940                std::bad_alloc virtual table
 .gnu.linkonce.d._Q23stdt8_Tidyfac1ZQ23stdt5ctype1Zw._Facsav
                0x08091968        0x4 /x86/lib/libcpp.a(wlocale.o)
                0x08091968                std::_Tidyfac<std::ctype<wchar_t> >::_Facsav
 .gnu.linkonce.d._Q23stdt8_Tidyfac1ZQ23stdt7num_get2ZwZQ23stdt19istreambuf_iterator2ZwZQ23stdt11char_traits1Zw._Facsav
                0x0809196c        0x4 /x86/lib/libcpp.a(wlocale.o)
                0x0809196c                std::_Tidyfac<std::num_get<wchar_t, std::istreambuf_iterator<wchar_t, std::char_traits<wchar_t> > > >::_Facsav
 .gnu.linkonce.d._Q23stdt8_Tidyfac1ZQ23stdt7num_put2ZwZQ23stdt19ostreambuf_iterator2ZwZQ23stdt11char_traits1Zw._Facsav
                0x08091970        0x4 /x86/lib/libcpp.a(wlocale.o)
                0x08091970                std::_Tidyfac<std::num_put<wchar_t, std::ostreambuf_iterator<wchar_t, std::char_traits<wchar_t> > > >::_Facsav
 .gnu.linkonce.d._Q23stdt8_Tidyfac1ZQ23stdt8numpunct1Zw._Facsav
                0x08091974        0x4 /x86/lib/libcpp.a(wlocale.o)
                0x08091974                std::_Tidyfac<std::numpunct<wchar_t> >::_Facsav
 .gnu.linkonce.d._Q23stdt8_Tidyfac1ZQ23stdt7collate1Zw._Facsav
                0x08091978        0x4 /x86/lib/libcpp.a(wlocale.o)
                0x08091978                std::_Tidyfac<std::collate<wchar_t> >::_Facsav
 .gnu.linkonce.d._Q23stdt8_Tidyfac1ZQ23stdt8messages1Zw._Facsav
                0x0809197c        0x4 /x86/lib/libcpp.a(wlocale.o)
                0x0809197c                std::_Tidyfac<std::messages<wchar_t> >::_Facsav
 .gnu.linkonce.d._Q23stdt8_Tidyfac1ZQ23stdt9money_get2ZwZQ23stdt19istreambuf_iterator2ZwZQ23stdt11char_traits1Zw._Facsav
                0x08091980        0x4 /x86/lib/libcpp.a(wlocale.o)
                0x08091980                std::_Tidyfac<std::money_get<wchar_t, std::istreambuf_iterator<wchar_t, std::char_traits<wchar_t> > > >::_Facsav
 .gnu.linkonce.d._Q23stdt8_Tidyfac1ZQ23stdt9money_put2ZwZQ23stdt19ostreambuf_iterator2ZwZQ23stdt11char_traits1Zw._Facsav
                0x08091984        0x4 /x86/lib/libcpp.a(wlocale.o)
                0x08091984                std::_Tidyfac<std::money_put<wchar_t, std::ostreambuf_iterator<wchar_t, std::char_traits<wchar_t> > > >::_Facsav
 .gnu.linkonce.d._Q23stdt8_Tidyfac1ZQ23stdt10moneypunct2Zwb0._Facsav
                0x08091988        0x4 /x86/lib/libcpp.a(wlocale.o)
                0x08091988                std::_Tidyfac<std::moneypunct<wchar_t, false> >::_Facsav
 .gnu.linkonce.d._Q23stdt8_Tidyfac1ZQ23stdt10moneypunct2Zwb1._Facsav
                0x0809198c        0x4 /x86/lib/libcpp.a(wlocale.o)
                0x0809198c                std::_Tidyfac<std::moneypunct<wchar_t, true> >::_Facsav
 .gnu.linkonce.d._Q23stdt8_Tidyfac1ZQ23stdt8time_get2ZwZQ23stdt19istreambuf_iterator2ZwZQ23stdt11char_traits1Zw._Facsav
                0x08091990        0x4 /x86/lib/libcpp.a(wlocale.o)
                0x08091990                std::_Tidyfac<std::time_get<wchar_t, std::istreambuf_iterator<wchar_t, std::char_traits<wchar_t> > > >::_Facsav
 .gnu.linkonce.d._Q23stdt8_Tidyfac1ZQ23stdt8time_put2ZwZQ23stdt19ostreambuf_iterator2ZwZQ23stdt11char_traits1Zw._Facsav
                0x08091994        0x4 /x86/lib/libcpp.a(wlocale.o)
                0x08091994                std::_Tidyfac<std::time_put<wchar_t, std::ostreambuf_iterator<wchar_t, std::char_traits<wchar_t> > > >::_Facsav
 .gnu.linkonce.d._Q23stdt8_Tidyfac1ZQ23stdt7codecvt3ZwZcZ9_Mbstatet._Facsav
                0x08091998        0x4 /x86/lib/libcpp.a(wlocale.o)
                0x08091998                std::_Tidyfac<std::codecvt<wchar_t, char, _Mbstatet> >::_Facsav
 *fill*         0x0809199c        0x4
 .gnu.linkonce.d._vt.Q23stdt8time_put2ZwZQ23stdt19ostreambuf_iterator2ZwZQ23stdt11char_traits1Zw
                0x080919a0       0x20 /x86/lib/libcpp.a(wlocale.o)
                0x080919a0                std::time_put<wchar_t, std::ostreambuf_iterator<wchar_t, std::char_traits<wchar_t> > > virtual table
 .gnu.linkonce.d._vt.Q23stdt8time_get2ZwZQ23stdt19istreambuf_iterator2ZwZQ23stdt11char_traits1Zw
                0x080919c0       0x48 /x86/lib/libcpp.a(wlocale.o)
                0x080919c0                std::time_get<wchar_t, std::istreambuf_iterator<wchar_t, std::char_traits<wchar_t> > > virtual table
 *fill*         0x08091a08       0x18
 .gnu.linkonce.d._vt.Q23stdt10moneypunct2Zwb1
                0x08091a20       0x60 /x86/lib/libcpp.a(wlocale.o)
                0x08091a20                std::moneypunct<wchar_t, true> virtual table
 .gnu.linkonce.d._vt.Q23stdt10moneypunct2Zwb0
                0x08091a80       0x60 /x86/lib/libcpp.a(wlocale.o)
                0x08091a80                std::moneypunct<wchar_t, false> virtual table
 .gnu.linkonce.d._vt.Q23stdt7_Mpunct1Zw
                0x08091ae0       0x60 /x86/lib/libcpp.a(wlocale.o)
                0x08091ae0                std::_Mpunct<wchar_t> virtual table
 .gnu.linkonce.d._vt.Q23stdt9money_put2ZwZQ23stdt19ostreambuf_iterator2ZwZQ23stdt11char_traits1Zw
                0x08091b40       0x28 /x86/lib/libcpp.a(wlocale.o)
                0x08091b40                std::money_put<wchar_t, std::ostreambuf_iterator<wchar_t, std::char_traits<wchar_t> > > virtual table
 *fill*         0x08091b68       0x18
 .gnu.linkonce.d._vt.Q23stdt9money_get2ZwZQ23stdt19istreambuf_iterator2ZwZQ23stdt11char_traits1Zw
                0x08091b80       0x28 /x86/lib/libcpp.a(wlocale.o)
                0x08091b80                std::money_get<wchar_t, std::istreambuf_iterator<wchar_t, std::char_traits<wchar_t> > > virtual table
 *fill*         0x08091ba8       0x18
 .gnu.linkonce.d._vt.Q23stdt8messages1Zw
                0x08091bc0       0x30 /x86/lib/libcpp.a(wlocale.o)
                0x08091bc0                std::messages<wchar_t> virtual table
 *fill*         0x08091bf0       0x10
 .gnu.linkonce.d._vt.Q23stdt7collate1Zw
                0x08091c00       0x30 /x86/lib/libcpp.a(wlocale.o)
                0x08091c00                std::collate<wchar_t> virtual table
 *fill*         0x08091c30       0x10
 .gnu.linkonce.d._vt.Q23stdt8numpunct1Zw
                0x08091c40       0x40 /x86/lib/libcpp.a(wlocale.o)
                0x08091c40                std::numpunct<wchar_t> virtual table
 .gnu.linkonce.d._vt.Q23stdt7num_put2ZwZQ23stdt19ostreambuf_iterator2ZwZQ23stdt11char_traits1Zw
                0x08091c80       0x58 /x86/lib/libcpp.a(wlocale.o)
                0x08091c80                std::num_put<wchar_t, std::ostreambuf_iterator<wchar_t, std::char_traits<wchar_t> > > virtual table
 *fill*         0x08091cd8        0x8
 .gnu.linkonce.d._vt.Q23stdt7num_get2ZwZQ23stdt19istreambuf_iterator2ZwZQ23stdt11char_traits1Zw
                0x08091ce0       0x70 /x86/lib/libcpp.a(wlocale.o)
                0x08091ce0                std::num_get<wchar_t, std::istreambuf_iterator<wchar_t, std::char_traits<wchar_t> > > virtual table
 *fill*         0x08091d50       0x10
 .gnu.linkonce.d._vt.Q23stdt5ctype1Zw
                0x08091d60       0x78 /x86/lib/libcpp.a(wlocale.o)
                0x08091d60                std::ctype<wchar_t> virtual table
 .gnu.linkonce.d._vt.Q23std9time_base
                0x08091dd8       0x18 /x86/lib/libcpp.a(wlocale.o)
                0x08091dd8                std::time_base virtual table
 .gnu.linkonce.d._vt.Q23std10money_base
                0x08091df0       0x18 /x86/lib/libcpp.a(wlocale.o)
                0x08091df0                std::money_base virtual table
 .gnu.linkonce.d._vt.Q23std13messages_base
                0x08091e08       0x18 /x86/lib/libcpp.a(wlocale.o)
                0x08091e08                std::messages_base virtual table
 .gnu.linkonce.d._vt.Q23stdt7codecvt3ZwZcZ9_Mbstatet
                0x08091e20       0x50 /x86/lib/libcpp.a(wlocale.o)
                0x08091e20                std::codecvt<wchar_t, char, _Mbstatet> virtual table
 .gnu.linkonce.d._Q23stdt8_Tidyfac1ZQ23stdt7collate1Zc._Facsav
                0x08091e70        0x4 /x86/lib/libcpp.a(xlocale.o)
                0x08091e70                std::_Tidyfac<std::collate<char> >::_Facsav
 .gnu.linkonce.d._Q23stdt8_Tidyfac1ZQ23stdt8messages1Zc._Facsav
                0x08091e74        0x4 /x86/lib/libcpp.a(xlocale.o)
                0x08091e74                std::_Tidyfac<std::messages<char> >::_Facsav
 .gnu.linkonce.d._Q23stdt8_Tidyfac1ZQ23stdt9money_get2ZcZQ23stdt19istreambuf_iterator2ZcZQ23stdt11char_traits1Zc._Facsav
                0x08091e78        0x4 /x86/lib/libcpp.a(xlocale.o)
                0x08091e78                std::_Tidyfac<std::money_get<char, std::istreambuf_iterator<char, std::char_traits<char> > > >::_Facsav
 .gnu.linkonce.d._Q23stdt8_Tidyfac1ZQ23stdt9money_put2ZcZQ23stdt19ostreambuf_iterator2ZcZQ23stdt11char_traits1Zc._Facsav
                0x08091e7c        0x4 /x86/lib/libcpp.a(xlocale.o)
                0x08091e7c                std::_Tidyfac<std::money_put<char, std::ostreambuf_iterator<char, std::char_traits<char> > > >::_Facsav
 .gnu.linkonce.d._Q23stdt8_Tidyfac1ZQ23stdt10moneypunct2Zcb0._Facsav
                0x08091e80        0x4 /x86/lib/libcpp.a(xlocale.o)
                0x08091e80                std::_Tidyfac<std::moneypunct<char, false> >::_Facsav
 .gnu.linkonce.d._Q23stdt8_Tidyfac1ZQ23stdt10moneypunct2Zcb1._Facsav
                0x08091e84        0x4 /x86/lib/libcpp.a(xlocale.o)
                0x08091e84                std::_Tidyfac<std::moneypunct<char, true> >::_Facsav
 .gnu.linkonce.d._Q23stdt8_Tidyfac1ZQ23stdt8time_get2ZcZQ23stdt19istreambuf_iterator2ZcZQ23stdt11char_traits1Zc._Facsav
                0x08091e88        0x4 /x86/lib/libcpp.a(xlocale.o)
                0x08091e88                std::_Tidyfac<std::time_get<char, std::istreambuf_iterator<char, std::char_traits<char> > > >::_Facsav
 .gnu.linkonce.d._Q23stdt8_Tidyfac1ZQ23stdt8time_put2ZcZQ23stdt19ostreambuf_iterator2ZcZQ23stdt11char_traits1Zc._Facsav
                0x08091e8c        0x4 /x86/lib/libcpp.a(xlocale.o)
                0x08091e8c                std::_Tidyfac<std::time_put<char, std::ostreambuf_iterator<char, std::char_traits<char> > > >::_Facsav
 *fill*         0x08091e90       0x10
 .gnu.linkonce.d._vt.Q23stdt8time_put2ZcZQ23stdt19ostreambuf_iterator2ZcZQ23stdt11char_traits1Zc
                0x08091ea0       0x20 /x86/lib/libcpp.a(xlocale.o)
                0x08091ea0                std::time_put<char, std::ostreambuf_iterator<char, std::char_traits<char> > > virtual table
 .gnu.linkonce.d._vt.Q23stdt8time_get2ZcZQ23stdt19istreambuf_iterator2ZcZQ23stdt11char_traits1Zc
                0x08091ec0       0x48 /x86/lib/libcpp.a(xlocale.o)
                0x08091ec0                std::time_get<char, std::istreambuf_iterator<char, std::char_traits<char> > > virtual table
 *fill*         0x08091f08       0x18
 .gnu.linkonce.d._vt.Q23stdt10moneypunct2Zcb1
                0x08091f20       0x60 /x86/lib/libcpp.a(xlocale.o)
                0x08091f20                std::moneypunct<char, true> virtual table
 .gnu.linkonce.d._vt.Q23stdt10moneypunct2Zcb0
                0x08091f80       0x60 /x86/lib/libcpp.a(xlocale.o)
                0x08091f80                std::moneypunct<char, false> virtual table
 .gnu.linkonce.d._vt.Q23stdt7_Mpunct1Zc
                0x08091fe0       0x60 /x86/lib/libcpp.a(xlocale.o)
                0x08091fe0                std::_Mpunct<char> virtual table
 .gnu.linkonce.d._vt.Q23stdt9money_put2ZcZQ23stdt19ostreambuf_iterator2ZcZQ23stdt11char_traits1Zc
                0x08092040       0x28 /x86/lib/libcpp.a(xlocale.o)
                0x08092040                std::money_put<char, std::ostreambuf_iterator<char, std::char_traits<char> > > virtual table
 *fill*         0x08092068       0x18
 .gnu.linkonce.d._vt.Q23stdt9money_get2ZcZQ23stdt19istreambuf_iterator2ZcZQ23stdt11char_traits1Zc
                0x08092080       0x28 /x86/lib/libcpp.a(xlocale.o)
                0x08092080                std::money_get<char, std::istreambuf_iterator<char, std::char_traits<char> > > virtual table
 *fill*         0x080920a8       0x18
 .gnu.linkonce.d._vt.Q23stdt8messages1Zc
                0x080920c0       0x30 /x86/lib/libcpp.a(xlocale.o)
                0x080920c0                std::messages<char> virtual table
 *fill*         0x080920f0       0x10
 .gnu.linkonce.d._vt.Q23stdt7collate1Zc
                0x08092100       0x30 /x86/lib/libcpp.a(xlocale.o)
                0x08092100                std::collate<char> virtual table
 *fill*         0x08092130       0x10
 .gnu.linkonce.d._vt.13bad_exception
                0x08092140       0x20 /usr/lib/gcc-lib/ntox86/2.95.3/exceptions/libgcc.a(exception.o)
                0x08092140                bad_exception virtual table
 .gnu.linkonce.d._vt.9exception
                0x08092160       0x20 /usr/lib/gcc-lib/ntox86/2.95.3/exceptions/libgcc.a(exception.o)
                0x08092160                exception virtual table
 .gnu.linkonce.d._vt.17__class_type_info
                0x08092180       0x20 /usr/lib/gcc-lib/ntox86/2.95.3/exceptions/libgcc.a(tinfo.o)
                0x08092180                __class_type_info virtual table
 .gnu.linkonce.d._vt.14__si_type_info
                0x080921a0       0x20 /usr/lib/gcc-lib/ntox86/2.95.3/exceptions/libgcc.a(tinfo.o)
                0x080921a0                __si_type_info virtual table
 .gnu.linkonce.d._vt.16__user_type_info
                0x080921c0       0x20 /usr/lib/gcc-lib/ntox86/2.95.3/exceptions/libgcc.a(tinfo.o)
                0x080921c0                __user_type_info virtual table
 .gnu.linkonce.d._vt.10bad_typeid
                0x080921e0       0x20 /usr/lib/gcc-lib/ntox86/2.95.3/exceptions/libgcc.a(tinfo.o)
                0x080921e0                bad_typeid virtual table
 .gnu.linkonce.d._vt.8bad_cast
                0x08092200       0x20 /usr/lib/gcc-lib/ntox86/2.95.3/exceptions/libgcc.a(tinfo.o)
                0x08092200                bad_cast virtual table
 .gnu.linkonce.d._vt.9type_info
                0x08092220       0x18 /usr/lib/gcc-lib/ntox86/2.95.3/exceptions/libgcc.a(tinfo.o)
                0x08092220                type_info virtual table
 .gnu.linkonce.d._vt.17__array_type_info
                0x08092238       0x18 /usr/lib/gcc-lib/ntox86/2.95.3/exceptions/libgcc.a(tinfo2.o)
                0x08092238                __array_type_info virtual table
 .gnu.linkonce.d._vt.16__ptmd_type_info
                0x08092250       0x18 /usr/lib/gcc-lib/ntox86/2.95.3/exceptions/libgcc.a(tinfo2.o)
                0x08092250                __ptmd_type_info virtual table
 .gnu.linkonce.d._vt.16__ptmf_type_info
                0x08092268       0x18 /usr/lib/gcc-lib/ntox86/2.95.3/exceptions/libgcc.a(tinfo2.o)
                0x08092268                __ptmf_type_info virtual table
 .gnu.linkonce.d._vt.16__func_type_info
                0x08092280       0x18 /usr/lib/gcc-lib/ntox86/2.95.3/exceptions/libgcc.a(tinfo2.o)
                0x08092280                __func_type_info virtual table
 .gnu.linkonce.d._vt.19__builtin_type_info
                0x08092298       0x18 /usr/lib/gcc-lib/ntox86/2.95.3/exceptions/libgcc.a(tinfo2.o)
                0x08092298                __builtin_type_info virtual table
 .gnu.linkonce.d._vt.16__attr_type_info
                0x080922b0       0x18 /usr/lib/gcc-lib/ntox86/2.95.3/exceptions/libgcc.a(tinfo2.o)
                0x080922b0                __attr_type_info virtual table
 .gnu.linkonce.d._vt.19__pointer_type_info
                0x080922c8       0x18 /usr/lib/gcc-lib/ntox86/2.95.3/exceptions/libgcc.a(tinfo2.o)
                0x080922c8                __pointer_type_info virtual table

.data1
 *(.data1)

.eh_frame       0x080922e0    0x19cf8
 *(.eh_frame)
 .eh_frame      0x080922e0      0xb5c objects_storage_logger.o
 .eh_frame      0x08092e3c     0x39e4 manager_of_data_storage.o
 .eh_frame      0x08096820      0xde0 jobs_data_managers_container.o
 .eh_frame      0x08097600     0x1e34 pri_data_manager.o
 .eh_frame      0x08099434     0x1f90 mock_database_wrapper.o
 .eh_frame      0x0809b3c4     0x20a4 main.o
 .eh_frame      0x0809d468       0x48 /x86/lib/libcpp.a(delaop.o)
 .eh_frame      0x0809d4b0       0x48 /x86/lib/libcpp.a(delop.o)
 .eh_frame      0x0809d4f8       0x2c /x86/lib/libcpp.a(delop3.o)
 .eh_frame      0x0809d524       0x8c /x86/lib/libcpp.a(exceptio.o)
 .eh_frame      0x0809d5b0       0xd8 /x86/lib/libcpp.a(gccex.o)
 .eh_frame      0x0809d688     0x1254 /x86/lib/libcpp.a(ios.o)
 .eh_frame      0x0809e8dc     0x15e0 /x86/lib/libcpp.a(iostream.o)
 .eh_frame      0x0809febc     0x2508 /x86/lib/libcpp.a(locale.o)
 .eh_frame      0x080a23c4      0xe08 /x86/lib/libcpp.a(locale0.o)
 .eh_frame      0x080a31cc       0x68 /x86/lib/libcpp.a(newaop.o)
 .eh_frame      0x080a3234       0x68 /x86/lib/libcpp.a(newop.o)
 .eh_frame      0x080a329c       0xec /x86/lib/libcpp.a(nomemory.o)
 .eh_frame      0x080a3388       0x14 /x86/lib/libcpp.a(raisehan.o)
 .eh_frame      0x080a339c      0xcbc /x86/lib/libcpp.a(string.o)
 .eh_frame      0x080a4058       0x2c /x86/lib/libcpp.a(uncaught.o)
 .eh_frame      0x080a4084     0x3f04 /x86/lib/libcpp.a(wlocale.o)
 .eh_frame      0x080a7f88     0x2bc4 /x86/lib/libcpp.a(xlocale.o)
 .eh_frame      0x080aab4c       0xa0 /x86/lib/libcpp.a(xlock.o)
 .eh_frame      0x080aabec       0x90 /x86/lib/libcpp.a(xmutex.o)
 .eh_frame      0x080aac7c       0x2c /x86/lib/libcpp.a(new.o)
 .eh_frame      0x080aaca8      0x3ac /usr/lib/gcc-lib/ntox86/2.95.3/exceptions/libgcc.a(_eh.o)
 .eh_frame      0x080ab054       0x30 /usr/lib/gcc-lib/ntox86/2.95.3/exceptions/libgcc.a(_pure.o)
 .eh_frame      0x080ab084      0x35c /usr/lib/gcc-lib/ntox86/2.95.3/exceptions/libgcc.a(exception.o)
 .eh_frame      0x080ab3e0      0x294 /usr/lib/gcc-lib/ntox86/2.95.3/exceptions/libgcc.a(frame.o)
 .eh_frame      0x080ab674      0x378 /usr/lib/gcc-lib/ntox86/2.95.3/exceptions/libgcc.a(tinfo.o)
 .eh_frame      0x080ab9ec      0x518 /usr/lib/gcc-lib/ntox86/2.95.3/exceptions/libgcc.a(tinfo2.o)
 .eh_frame      0x080abf04       0x34 /usr/lib/gcc-lib/ntox86/2.95.3/exceptions/libgcc.a(_divdi3.o)
 .eh_frame      0x080abf38       0x34 /usr/lib/gcc-lib/ntox86/2.95.3/exceptions/libgcc.a(_moddi3.o)
 .eh_frame      0x080abf6c       0x34 /usr/lib/gcc-lib/ntox86/2.95.3/exceptions/libgcc.a(_udivdi3.o)
 .eh_frame      0x080abfa0       0x34 /usr/lib/gcc-lib/ntox86/2.95.3/exceptions/libgcc.a(_umoddi3.o)
 .eh_frame      0x080abfd4        0x4 /usr/lib/gcc-lib/ntox86/2.95.3/crtendC++.o

.gcc_except_table
                0x080abfd8     0x5108
 *(.gcc_except_table)
 .gcc_except_table
                0x080abfd8       0xf8 objects_storage_logger.o
 .gcc_except_table
                0x080ac0d0      0xb54 manager_of_data_storage.o
 .gcc_except_table
                0x080acc24      0x224 jobs_data_managers_container.o
 .gcc_except_table
                0x080ace48      0x50c pri_data_manager.o
 .gcc_except_table
                0x080ad354      0x584 mock_database_wrapper.o
 .gcc_except_table
                0x080ad8d8      0x5fc main.o
 .gcc_except_table
                0x080aded4       0x38 /x86/lib/libcpp.a(delaop.o)
 .gcc_except_table
                0x080adf0c       0x38 /x86/lib/libcpp.a(delop.o)
 .gcc_except_table
                0x080adf44      0x380 /x86/lib/libcpp.a(ios.o)
 .gcc_except_table
                0x080ae2c4      0x2b4 /x86/lib/libcpp.a(iostream.o)
 .gcc_except_table
                0x080ae578      0x950 /x86/lib/libcpp.a(locale.o)
 .gcc_except_table
                0x080aeec8      0x1e8 /x86/lib/libcpp.a(locale0.o)
 .gcc_except_table
                0x080af0b0       0x38 /x86/lib/libcpp.a(newaop.o)
 .gcc_except_table
                0x080af0e8       0x38 /x86/lib/libcpp.a(newop.o)
 .gcc_except_table
                0x080af120       0x38 /x86/lib/libcpp.a(nomemory.o)
 .gcc_except_table
                0x080af158      0x20c /x86/lib/libcpp.a(string.o)
 .gcc_except_table
                0x080af364     0x11c0 /x86/lib/libcpp.a(wlocale.o)
 .gcc_except_table
                0x080b0524      0xb60 /x86/lib/libcpp.a(xlocale.o)
 .gcc_except_table
                0x080b1084       0x5c /usr/lib/gcc-lib/ntox86/2.95.3/exceptions/libgcc.a(exception.o)

.ctors          0x080b10e0       0x24
 *crtbegin.o(.ctors)
 EXCLUDE_FILE ( *crtend.o)*(.ctors)
 .ctors         0x080b10e0        0x4 /usr/lib/gcc-lib/ntox86/2.95.3/crtbeginC++.o
 .ctors         0x080b10e4        0x4 manager_of_data_storage.o
 .ctors         0x080b10e8        0x4 main.o
 .ctors         0x080b10ec        0x4 /x86/lib/libcpp.a(iostream.o)
 .ctors         0x080b10f0        0x4 /x86/lib/libcpp.a(locale.o)
 .ctors         0x080b10f4        0x4 /x86/lib/libcpp.a(locale0.o)
 .ctors         0x080b10f8        0x4 /x86/lib/libcpp.a(wlocale.o)
 .ctors         0x080b10fc        0x4 /x86/lib/libcpp.a(xlocale.o)
 .ctors         0x080b1100        0x4 /usr/lib/gcc-lib/ntox86/2.95.3/crtendC++.o
 *(SORT(.ctors.*))
 *(.ctors)

.dtors          0x080b1104       0x18
 *crtbegin.o(.dtors)
 EXCLUDE_FILE ( *crtend.o)*(.dtors)
 .dtors         0x080b1104        0x4 /usr/lib/gcc-lib/ntox86/2.95.3/crtbeginC++.o
 .dtors         0x080b1108        0x4 manager_of_data_storage.o
 .dtors         0x080b110c        0x4 main.o
 .dtors         0x080b1110        0x4 /x86/lib/libcpp.a(iostream.o)
 .dtors         0x080b1114        0x4 /x86/lib/libcpp.a(locale0.o)
 .dtors         0x080b1118        0x4 /usr/lib/gcc-lib/ntox86/2.95.3/crtendC++.o
 *(SORT(.dtors.*))
 *(.dtors)

.got            0x080b111c       0xf8
 *(.got.plt)
 .got.plt       0x080b111c        0xc /usr/lib/gcc-lib/ntox86/2.95.3/crtbeginC++.o
                0x080b111c                _GLOBAL_OFFSET_TABLE_
 *(.got)
 .got           0x080b1128       0xec /usr/lib/gcc-lib/ntox86/2.95.3/crtbeginC++.o

.dynamic
 *(.dynamic)

.sdata
 *(.sdata)
 *(.sdata.*)
 *(.gnu.linkonce.s.*)
                0x080b1214                _edata=.
                0x080b1214                PROVIDE (edata, .)
                0x080b1214                __bss_start=.

.sbss
 *(.dynsbss)
 *(.sbss)
 *(.sbss.*)
 *(.scommon)

.bss            0x080b1220      0xc18
 *(.dynbss)
 *(.bss)
 .bss           0x080b1220       0x18 /usr/lib/gcc-lib/ntox86/2.95.3/crtbeginC++.o
 .bss           0x080b1238        0x1 manager_of_data_storage.o
 *fill*         0x080b1239        0x3
 .bss           0x080b123c        0x1 main.o
 *fill*         0x080b123d        0x3
 .bss           0x080b1240       0x14 /x86/lib/libcpp.a(ios.o)
 *fill*         0x080b1254        0xc
 .bss           0x080b1260      0x29c /x86/lib/libcpp.a(iostream.o)
                0x080b1480                std::cerr
                0x080b1380                std::cin
                0x080b13c0                std::cout
                0x080b14c0                std::clog
 .bss           0x080b14fc        0x4 /x86/lib/libcpp.a(locale.o)
                0x080b14fc                std::ctype<char>::id
 .bss           0x080b1500        0x8 /x86/lib/libcpp.a(locale0.o)
 .bss           0x080b1508        0x8 /x86/lib/libcpp.a(nomemory.o)
 .bss           0x080b1510        0x4 /x86/lib/libcpp.a(wlocale.o)
                0x080b1510                std::codecvt<wchar_t, char, _Mbstatet>::id
 *fill*         0x080b1514        0xc
 .bss           0x080b1520       0x20 /x86/lib/libcpp.a(xlock.o)
 .bss           0x080b1540       0x20 /usr/lib/gcc-lib/ntox86/2.95.3/exceptions/libgcc.a(_eh.o)
 .bss           0x080b1560        0x4 /usr/lib/gcc-lib/ntox86/2.95.3/exceptions/libgcc.a(frame.o)
 .bss           0x080b1564       0x88 /usr/lib/gcc-lib/ntox86/2.95.3/exceptions/libgcc.a(tinfo2.o)
                0x080b15e4                signed char type_info node
                0x080b1594                char type_info node
                0x080b15b4                float type_info node
                0x080b15c4                unsigned long type_info node
                0x080b15cc                unsigned long long type_info node
                0x080b158c                bool type_info node
                0x080b1584                short type_info node
                0x080b15ac                double type_info node
                0x080b157c                int type_info node
                0x080b15bc                unsigned int type_info node
                0x080b15dc                unsigned char type_info node
                0x080b15d4                unsigned short type_info node
                0x080b1574                long type_info node
                0x080b159c                wchar_t type_info node
                0x080b156c                long long type_info node
                0x080b1564                void type_info node
                0x080b15a4                long double type_info node
 .bss           0x080b15ec        0x8 /x86/lib/libc.a(getopt.o)
 .bss           0x080b15f4        0x8 /x86/lib/libc.a(mbrtowc.o)
 .bss           0x080b15fc        0x4 /x86/lib/libc.a(setlocal.o)
 .bss           0x080b1600        0x8 /x86/lib/libc.a(wcrtomb.o)
 .bss           0x080b1608        0x4 /x86/lib/libc.a(xdefloc.o)
 .bss           0x080b160c        0x4 /x86/lib/libc.a(xgetloc.o)
 *fill*         0x080b1610       0x10
 .bss           0x080b1620       0x50 /x86/lib/libc.a(xfiles.o)
 *fill*         0x080b1670       0x10
 .bss           0x080b1680       0x3c /x86/lib/libc.a(strcoll.o)
 .bss           0x080b16bc       0x18 /x86/lib/libc.a(strxfrm.o)
 .bss           0x080b16d4        0x4 /x86/lib/libc.a(time.o)
 *fill*         0x080b16d8        0x8
 .bss           0x080b16e0       0x88 /x86/lib/libc.a(xtzset.o)
 *fill*         0x080b1768       0x18
 .bss           0x080b1780       0x68 /x86/lib/libc.a(xlocterm.o)
 .bss           0x080b17e8       0x10 /x86/lib/libc.a(localtim.o)
 .bss           0x080b17f8        0x8 /x86/lib/libc.a(xgetrules.o)
 .bss           0x080b1800       0x2c /x86/lib/libc.a(xttotm.o)
 .bss           0x080b182c        0x4 /x86/lib/libc.a(core.o)
 .bss           0x080b1830        0x4 /x86/lib/libc.a(_findenv.o)
 .bss           0x080b1834        0x7 /x86/lib/libc.a(_connect_ctrl.o)
 *fill*         0x080b183b        0x1
 *(.bss.*)
 *(COMMON)
 COMMON         0x080b183c       0xbc manager_of_data_storage.o
                                  0x0 (size before relaxing)
                0x080b183c                std::bad_cast type_info node
                0x080b1848                std::locale::facet type_info node
                0x080b1850                std::numpunct<char> type_info node
                0x080b185c                std::basic_stringbuf<char, std::char_traits<char>, std::allocator<char> > type_info node
                0x080b1868                std::length_error type_info node
                0x080b1874                std::fpos<_Mbstatet>::_Stz
                0x080b187c                __sn_Q23stdt8numpunct1Zc.id
                0x080b1880                std::numpunct<char>::id
                0x080b1884                std::_Mutex type_info node
                0x080b188c                std::basic_ios<char, std::char_traits<char> > type_info node
                0x080b1898                std::out_of_range type_info node
                0x080b18a4                std::num_put<char, std::ostreambuf_iterator<char, std::char_traits<char> > >::id
                0x080b18a8                __sn_Q23stdt7num_put2ZcZQ23stdt19ostreambuf_iterator2ZcZQ23stdt11char_traits1Zc.id
                0x080b18ac                std::logic_error type_info node
                0x080b18b8                std::basic_ostringstream<char, std::char_traits<char>, std::allocator<char> > type_info node
                0x080b18c8                std::num_put<char, std::ostreambuf_iterator<char, std::char_traits<char> > > type_info node
                0x080b18d4                std::basic_ostream<char, std::char_traits<char> > type_info node
                0x080b18e4                std::basic_streambuf<char, std::char_traits<char> > type_info node
                0x080b18f0                objects_storage_exception type_info node
 COMMON         0x080b18f8       0x14 pri_data_manager.o
                                  0x0 (size before relaxing)
                0x080b18f8                pri_data_manager type_info node
                0x080b1904                abstract_job_data_manager type_info node
 COMMON         0x080b190c       0x18 main.o
                                  0x0 (size before relaxing)
                0x080b190c                std::ctype<char> type_info node
                0x080b1918                std::ctype_base type_info node
 COMMON         0x080b1924        0x8 /x86/lib/libcpp.a(gccex.o)
                                  0x0 (size before relaxing)
                0x080b1924                std::exception type_info node
 COMMON         0x080b192c       0x2c /x86/lib/libcpp.a(ios.o)
                                  0x0 (size before relaxing)
                0x080b192c                std::_Iosb<int> type_info node
                0x080b1934                std::runtime_error type_info node
                0x080b1940                std::ios_base type_info node
                0x080b194c                std::ios_base::failure type_info node
 COMMON         0x080b1958       0x1c /x86/lib/libcpp.a(iostream.o)
                                  0x0 (size before relaxing)
                0x080b1958                std::basic_istream<char, std::char_traits<char> > type_info node
                0x080b1968                std::basic_filebuf<char, std::char_traits<char> > type_info node
 COMMON         0x080b1974       0x34 /x86/lib/libcpp.a(locale.o)
                                  0x0 (size before relaxing)
                0x080b1974                std::codecvt_base type_info node
                0x080b1980                __sn_Q23stdt7codecvt3ZcZcZ9_Mbstatet.id
                0x080b1984                __sn_Q23stdt7num_get2ZcZQ23stdt19istreambuf_iterator2ZcZQ23stdt11char_traits1Zc.id
                0x080b1988                std::num_get<char, std::istreambuf_iterator<char, std::char_traits<char> > > type_info node
                0x080b1994                std::num_get<char, std::istreambuf_iterator<char, std::char_traits<char> > >::id
                0x080b1998                std::codecvt<char, char, _Mbstatet>::id
                0x080b199c                std::codecvt<char, char, _Mbstatet> type_info node
 COMMON         0x080b19a8        0xc /x86/lib/libcpp.a(locale0.o)
                                  0x0 (size before relaxing)
                0x080b19a8                std::locale::_Locimp type_info node
 COMMON         0x080b19b4        0xc /x86/lib/libcpp.a(newaop.o)
                                  0x0 (size before relaxing)
                0x080b19b4                std::bad_alloc type_info node
 COMMON         0x080b19c0      0x12c /x86/lib/libcpp.a(wlocale.o)
                                  0x0 (size before relaxing)
                0x080b19c0                std::time_get<wchar_t, std::istreambuf_iterator<wchar_t, std::char_traits<wchar_t> > >::id
                0x080b19c4                __sn_Q23stdt10moneypunct2Zwb1.id
                0x080b19c8                std::collate<wchar_t>::id
                0x080b19cc                __sn_Q23stdt5ctype1Zw.id
                0x080b19d0                __sn_Q23stdt8time_get2ZwZQ23stdt19istreambuf_iterator2ZwZQ23stdt11char_traits1Zw.id
                0x080b19d4                std::moneypunct<wchar_t, false> type_info node
                0x080b19e0                std::money_get<wchar_t, std::istreambuf_iterator<wchar_t, std::char_traits<wchar_t> > >::id
                0x080b19e4                __sn_Q23stdt8time_put2ZwZQ23stdt19ostreambuf_iterator2ZwZQ23stdt11char_traits1Zw.id
                0x080b19e8                std::messages<wchar_t>::id
                0x080b19ec                std::collate<wchar_t> type_info node
                0x080b19f8                std::codecvt<wchar_t, char, _Mbstatet> type_info node
                0x080b1a04                __sn_Q23stdt7collate1Zw.id
                0x080b1a08                std::numpunct<wchar_t>::id
                0x080b1a0c                std::num_get<wchar_t, std::istreambuf_iterator<wchar_t, std::char_traits<wchar_t> > > type_info node
                0x080b1a18                std::messages_base type_info node
                0x080b1a24                std::numpunct<wchar_t> type_info node
                0x080b1a30                std::money_base type_info node
                0x080b1a3c                __sn_Q23stdt9money_put2ZwZQ23stdt19ostreambuf_iterator2ZwZQ23stdt11char_traits1Zw.id
                0x080b1a40                __sn_Q23stdt9money_get2ZwZQ23stdt19istreambuf_iterator2ZwZQ23stdt11char_traits1Zw.id
                0x080b1a44                __sn_Q23stdt8numpunct1Zw.id
                0x080b1a48                __sn_Q23stdt7num_put2ZwZQ23stdt19ostreambuf_iterator2ZwZQ23stdt11char_traits1Zw.id
                0x080b1a4c                std::money_get<wchar_t, std::istreambuf_iterator<wchar_t, std::char_traits<wchar_t> > > type_info node
                0x080b1a58                std::num_get<wchar_t, std::istreambuf_iterator<wchar_t, std::char_traits<wchar_t> > >::id
                0x080b1a5c                std::time_put<wchar_t, std::ostreambuf_iterator<wchar_t, std::char_traits<wchar_t> > >::id
                0x080b1a60                std::moneypunct<wchar_t, false>::id
                0x080b1a64                std::time_get<wchar_t, std::istreambuf_iterator<wchar_t, std::char_traits<wchar_t> > > type_info node
                0x080b1a70                std::ctype<wchar_t>::id
                0x080b1a74                std::num_put<wchar_t, std::ostreambuf_iterator<wchar_t, std::char_traits<wchar_t> > > type_info node
                0x080b1a80                std::money_put<wchar_t, std::ostreambuf_iterator<wchar_t, std::char_traits<wchar_t> > >::id
                0x080b1a84                std::_Mpunct<wchar_t> type_info node
                0x080b1a90                std::moneypunct<wchar_t, true>::id
                0x080b1a94                std::num_put<wchar_t, std::ostreambuf_iterator<wchar_t, std::char_traits<wchar_t> > >::id
                0x080b1a98                std::time_base type_info node
                0x080b1aa4                std::money_put<wchar_t, std::ostreambuf_iterator<wchar_t, std::char_traits<wchar_t> > > type_info node
                0x080b1ab0                std::moneypunct<wchar_t, true> type_info node
                0x080b1abc                __sn_Q23stdt8messages1Zw.id
                0x080b1ac0                std::time_put<wchar_t, std::ostreambuf_iterator<wchar_t, std::char_traits<wchar_t> > > type_info node
                0x080b1acc                __sn_Q23stdt7num_get2ZwZQ23stdt19istreambuf_iterator2ZwZQ23stdt11char_traits1Zw.id
                0x080b1ad0                std::ctype<wchar_t> type_info node
                0x080b1adc                __sn_Q23stdt10moneypunct2Zwb0.id
                0x080b1ae0                std::messages<wchar_t> type_info node
 COMMON         0x080b1aec       0xac /x86/lib/libcpp.a(xlocale.o)
                                  0x0 (size before relaxing)
                0x080b1aec                __sn_Q23stdt10moneypunct2Zcb1.id
                0x080b1af0                std::money_put<char, std::ostreambuf_iterator<char, std::char_traits<char> > > type_info node
                0x080b1afc                __sn_Q23stdt8time_put2ZcZQ23stdt19ostreambuf_iterator2ZcZQ23stdt11char_traits1Zc.id
                0x080b1b00                std::_Mpunct<char> type_info node
                0x080b1b0c                std::moneypunct<char, false>::id
                0x080b1b10                __sn_Q23stdt8time_get2ZcZQ23stdt19istreambuf_iterator2ZcZQ23stdt11char_traits1Zc.id
                0x080b1b14                std::messages<char>::id
                0x080b1b18                std::time_get<char, std::istreambuf_iterator<char, std::char_traits<char> > >::id
                0x080b1b1c                std::collate<char>::id
                0x080b1b20                __sn_Q23stdt10moneypunct2Zcb0.id
                0x080b1b24                std::messages<char> type_info node
                0x080b1b30                __sn_Q23stdt9money_get2ZcZQ23stdt19istreambuf_iterator2ZcZQ23stdt11char_traits1Zc.id
                0x080b1b34                std::collate<char> type_info node
                0x080b1b40                std::time_put<char, std::ostreambuf_iterator<char, std::char_traits<char> > >::id
                0x080b1b44                std::time_get<char, std::istreambuf_iterator<char, std::char_traits<char> > > type_info node
                0x080b1b50                std::money_get<char, std::istreambuf_iterator<char, std::char_traits<char> > >::id
                0x080b1b54                __sn_Q23stdt7collate1Zc.id
                0x080b1b58                std::money_get<char, std::istreambuf_iterator<char, std::char_traits<char> > > type_info node
                0x080b1b64                std::moneypunct<char, true>::id
                0x080b1b68                std::money_put<char, std::ostreambuf_iterator<char, std::char_traits<char> > >::id
                0x080b1b6c                std::moneypunct<char, true> type_info node
                0x080b1b78                std::moneypunct<char, false> type_info node
                0x080b1b84                __sn_Q23stdt9money_put2ZcZQ23stdt19ostreambuf_iterator2ZcZQ23stdt11char_traits1Zc.id
                0x080b1b88                __sn_Q23stdt8messages1Zc.id
                0x080b1b8c                std::time_put<char, std::ostreambuf_iterator<char, std::char_traits<char> > > type_info node
 COMMON         0x080b1b98       0x14 /usr/lib/gcc-lib/ntox86/2.95.3/exceptions/libgcc.a(exception.o)
                                  0x0 (size before relaxing)
                0x080b1b98                bad_exception type_info node
                0x080b1ba4                exception type_info node
 COMMON         0x080b1bac       0x44 /usr/lib/gcc-lib/ntox86/2.95.3/exceptions/libgcc.a(tinfo.o)
                                  0x0 (size before relaxing)
                0x080b1bac                bad_typeid type_info node
                0x080b1bb8                bad_cast type_info node
                0x080b1bc4                type_info type_info node
                0x080b1bcc                __user_type_info type_info node
                0x080b1bd8                __si_type_info type_info node
                0x080b1be4                __class_type_info type_info node
 COMMON         0x080b1bf0       0x54 /usr/lib/gcc-lib/ntox86/2.95.3/exceptions/libgcc.a(tinfo2.o)
                                  0x0 (size before relaxing)
                0x080b1bf0                __func_type_info type_info node
                0x080b1bfc                __attr_type_info type_info node
                0x080b1c08                __ptmf_type_info type_info node
                0x080b1c14                __array_type_info type_info node
                0x080b1c20                __pointer_type_info type_info node
                0x080b1c2c                __ptmd_type_info type_info node
                0x080b1c38                __builtin_type_info type_info node
 COMMON         0x080b1c44        0x8 /x86/lib/libc.a(getopt.o)
                                  0x0 (size before relaxing)
                0x080b1c44                optarg
                0x080b1c48                optopt
 *fill*         0x080b1c4c       0x14
 COMMON         0x080b1c60       0x5c /x86/lib/libc.a(malloc.o)
                                  0x0 (size before relaxing)
                0x080b1c60                _malloc_fill_area
                0x080b1c80                _malloc_stats
 *fill*         0x080b1cbc        0x4
 COMMON         0x080b1cc0      0x100 /x86/lib/libc.a(xstate.o)
                                  0x0 (size before relaxing)
                0x080b1cc0                _Wcstate
                0x080b1d00                _Mbstate
                0x080b1d40                _WCostate
                0x080b1d80                _Costate
 COMMON         0x080b1dc0       0x4c /x86/lib/libc.a(_init_libc.o)
                                  0x0 (size before relaxing)
                0x080b1dc0                _argv
                0x080b1dc4                errno
                0x080b1dc8                _syspage_ptr
                0x080b1dcc                _auxv
                0x080b1dd0                _Multi_threaded
                0x080b1dd4                environ
                0x080b1dd8                __progname
                0x080b1ddc                __cpu_flags
                0x080b1de0                _pls
                0x080b1e08                _argc
 COMMON         0x080b1e0c       0x10 /x86/lib/libc.a(xtzset.o)
                                  0x0 (size before relaxing)
                0x080b1e0c                daylight
                0x080b1e10                tzname
                0x080b1e18                timezone
 COMMON         0x080b1e1c        0x4 /x86/lib/libc.a(sysconf.o)
                                  0x0 (size before relaxing)
                0x080b1e1c                _sysconf_list
 COMMON         0x080b1e20        0x4 /x86/lib/libc.a(confstr.o)
                                  0x0 (size before relaxing)
                0x080b1e20                _confstr_list
 COMMON         0x080b1e24        0x4 /x86/lib/libc.a(_atexit.o)
                                  0x0 (size before relaxing)
                0x080b1e24                _atexit_list
 COMMON         0x080b1e28        0xc /x86/lib/libc.a(fork.o)
                                  0x0 (size before relaxing)
                0x080b1e28                _pthread_atfork_parent
                0x080b1e2c                _pthread_atfork_prepare
                0x080b1e30                _pthread_atfork_child
 COMMON         0x080b1e34        0x1 /x86/lib/libc.a(_connect_ctrl.o)
                                  0x0 (size before relaxing)
                0x080b1e34                _connect_malloc
 *fill*         0x080b1e35        0x3
                0x080b1e38                .=ALIGN(0x4)
                0x080b1e38                .=ALIGN(0x4)
                0x080b1e38                _end=.
                0x080b1e38                PROVIDE (end, .)

.stab           0x00000000    0x4f8e4
 *(.stab)
 .stab          0x00000000     0x7650 objects_storage_logger.o
                               0x76e0 (size before relaxing)
 .stab          0x00007650    0x178b0 manager_of_data_storage.o
                              0x184d4 (size before relaxing)
 .stab          0x0001ef00     0x570c jobs_data_managers_container.o
                               0x77a0 (size before relaxing)
 .stab          0x0002460c     0xb01c pri_data_manager.o
                               0xe928 (size before relaxing)
 .stab          0x0002f628     0xabe4 mock_database_wrapper.o
                               0xe724 (size before relaxing)
 .stab          0x0003a20c     0xb2bc main.o
                               0xfc54 (size before relaxing)
 .stab          0x000454c8     0x1440 /usr/lib/gcc-lib/ntox86/2.95.3/exceptions/libgcc.a(_eh.o)
                               0x14ac (size before relaxing)
 .stab          0x00046908      0x2c4 /usr/lib/gcc-lib/ntox86/2.95.3/exceptions/libgcc.a(_pure.o)
                                0x7ec (size before relaxing)
 .stab          0x00046bcc     0x1d04 /usr/lib/gcc-lib/ntox86/2.95.3/exceptions/libgcc.a(exception.o)
                               0x1ef0 (size before relaxing)
 .stab          0x000488d0     0x13b0 /usr/lib/gcc-lib/ntox86/2.95.3/exceptions/libgcc.a(frame.o)
                               0x1974 (size before relaxing)
 .stab          0x00049c80     0x1d34 /usr/lib/gcc-lib/ntox86/2.95.3/exceptions/libgcc.a(tinfo.o)
                               0x1f2c (size before relaxing)
 .stab          0x0004b9b4     0x3348 /usr/lib/gcc-lib/ntox86/2.95.3/exceptions/libgcc.a(tinfo2.o)
                               0x36d8 (size before relaxing)
 .stab          0x0004ecfc      0x300 /usr/lib/gcc-lib/ntox86/2.95.3/exceptions/libgcc.a(_divdi3.o)
                                0x828 (size before relaxing)
 .stab          0x0004effc      0x2f4 /usr/lib/gcc-lib/ntox86/2.95.3/exceptions/libgcc.a(_moddi3.o)
                                0x828 (size before relaxing)
 .stab          0x0004f2f0      0x300 /usr/lib/gcc-lib/ntox86/2.95.3/exceptions/libgcc.a(_udivdi3.o)
                                0x834 (size before relaxing)
 .stab          0x0004f5f0      0x2f4 /usr/lib/gcc-lib/ntox86/2.95.3/exceptions/libgcc.a(_umoddi3.o)
                                0x828 (size before relaxing)

.stabstr        0x00000000    0x8bc74
 *(.stabstr)
 .stabstr       0x00000000    0x8bc74 objects_storage_logger.o
                                  0x0 (size before relaxing)

.stab.excl
 *(.stab.excl)

.stab.exclstr
 *(.stab.exclstr)

.stab.index
 *(.stab.index)

.stab.indexstr
 *(.stab.indexstr)

.comment        0x00000000     0x25c0
 *(.comment)
 .comment       0x00000000       0x2d /usr/lib/gcc-lib/ntox86/2.95.3/crtbeginC++.o
 .comment       0x0000002d       0x2d objects_storage_logger.o
 .comment       0x0000005a       0x2d manager_of_data_storage.o
 .comment       0x00000087       0x2d jobs_data_managers_container.o
 .comment       0x000000b4       0x2d pri_data_manager.o
 .comment       0x000000e1       0x2d mock_database_wrapper.o
 .comment       0x0000010e       0x2d main.o
 .comment       0x0000013b       0x26 /x86/lib/libcpp.a(delaop.o)
 .comment       0x00000161       0x26 /x86/lib/libcpp.a(delop.o)
 .comment       0x00000187       0x26 /x86/lib/libcpp.a(delop3.o)
 .comment       0x000001ad       0x26 /x86/lib/libcpp.a(exceptio.o)
 .comment       0x000001d3       0x26 /x86/lib/libcpp.a(gccex.o)
 .comment       0x000001f9       0x26 /x86/lib/libcpp.a(ios.o)
 .comment       0x0000021f       0x26 /x86/lib/libcpp.a(iostream.o)
 .comment       0x00000245       0x26 /x86/lib/libcpp.a(locale.o)
 .comment       0x0000026b       0x26 /x86/lib/libcpp.a(locale0.o)
 .comment       0x00000291       0x26 /x86/lib/libcpp.a(newaop.o)
 .comment       0x000002b7       0x26 /x86/lib/libcpp.a(newop.o)
 .comment       0x000002dd       0x26 /x86/lib/libcpp.a(nomemory.o)
 .comment       0x00000303       0x26 /x86/lib/libcpp.a(raisehan.o)
 .comment       0x00000329       0x26 /x86/lib/libcpp.a(string.o)
 .comment       0x0000034f       0x26 /x86/lib/libcpp.a(uncaught.o)
 .comment       0x00000375       0x26 /x86/lib/libcpp.a(wlocale.o)
 .comment       0x0000039b       0x26 /x86/lib/libcpp.a(xlocale.o)
 .comment       0x000003c1       0x26 /x86/lib/libcpp.a(xlock.o)
 .comment       0x000003e7       0x26 /x86/lib/libcpp.a(xmtx.o)
 .comment       0x0000040d       0x26 /x86/lib/libcpp.a(xmutex.o)
 .comment       0x00000433       0x26 /x86/lib/libcpp.a(new.o)
 .comment       0x00000459       0x2d /usr/lib/gcc-lib/ntox86/2.95.3/exceptions/libgcc.a(_eh.o)
 .comment       0x00000486       0x2d /usr/lib/gcc-lib/ntox86/2.95.3/exceptions/libgcc.a(_pure.o)
 .comment       0x000004b3       0x2d /usr/lib/gcc-lib/ntox86/2.95.3/exceptions/libgcc.a(exception.o)
 .comment       0x000004e0       0x2d /usr/lib/gcc-lib/ntox86/2.95.3/exceptions/libgcc.a(frame.o)
 .comment       0x0000050d       0x2d /usr/lib/gcc-lib/ntox86/2.95.3/exceptions/libgcc.a(tinfo.o)
 .comment       0x0000053a       0x2d /usr/lib/gcc-lib/ntox86/2.95.3/exceptions/libgcc.a(tinfo2.o)
 .comment       0x00000567       0x26 /x86/lib/libc.a(getopt.o)
 .comment       0x0000058d       0x26 /x86/lib/libc.a(pthread_mutex_lock.o)
 .comment       0x000005b3       0x26 /x86/lib/libc.a(pthread_mutex_init.o)
 .comment       0x000005d9       0x26 /x86/lib/libc.a(pthread_mutex_destroy.o)
 .comment       0x000005ff       0x26 /x86/lib/libc.a(pthread_mutex_unlock.o)
 .comment       0x00000625       0x26 /x86/lib/libc.a(pthread_mutexattr_destroy.o)
 .comment       0x0000064b       0x26 /x86/lib/libc.a(pthread_mutexattr_init.o)
 .comment       0x00000671       0x26 /x86/lib/libc.a(pthread_mutexattr_settype.o)
 .comment       0x00000697       0x26 /x86/lib/libc.a(pthread_once.o)
 .comment       0x000006bd       0x26 /x86/lib/libc.a(malloc.o)
 .comment       0x000006e3       0x26 /x86/lib/libc.a(util.o)
 .comment       0x00000709       0x26 /x86/lib/libc.a(_exit.o)
 .comment       0x0000072f       0x26 /x86/lib/libc.a(abort.o)
 .comment       0x00000755       0x26 /x86/lib/libc.a(atexit.o)
 .comment       0x0000077b       0x26 /x86/lib/libc.a(exit.o)
 .comment       0x000007a1       0x26 /x86/lib/libc.a(localeco.o)
 .comment       0x000007c7       0x26 /x86/lib/libc.a(mbrtowc.o)
 .comment       0x000007ed       0x26 /x86/lib/libc.a(raise.o)
 .comment       0x00000813       0x26 /x86/lib/libc.a(setlocal.o)
 .comment       0x00000839       0x26 /x86/lib/libc.a(wcrtomb.o)
 .comment       0x0000085f       0x26 /x86/lib/libc.a(xbtowc.o)
 .comment       0x00000885       0x26 /x86/lib/libc.a(xctype.o)
 .comment       0x000008ab       0x26 /x86/lib/libc.a(xdefloc.o)
 .comment       0x000008d1       0x26 /x86/lib/libc.a(xgetloc.o)
 .comment       0x000008f7       0x26 /x86/lib/libc.a(xmakeloc.o)
 .comment       0x0000091d       0x26 /x86/lib/libc.a(xmakesta.o)
 .comment       0x00000943       0x26 /x86/lib/libc.a(xmakewct.o)
 .comment       0x00000969       0x26 /x86/lib/libc.a(xmbtowc.o)
 .comment       0x0000098f       0x26 /x86/lib/libc.a(xreadloc.o)
 .comment       0x000009b5       0x26 /x86/lib/libc.a(xsetloc.o)
 .comment       0x000009db       0x26 /x86/lib/libc.a(xstate.o)
 .comment       0x00000a01       0x26 /x86/lib/libc.a(xstod.o)
 .comment       0x00000a27       0x26 /x86/lib/libc.a(xstof.o)
 .comment       0x00000a4d       0x26 /x86/lib/libc.a(xstoflt.o)
 .comment       0x00000a73       0x26 /x86/lib/libc.a(xstold.o)
 .comment       0x00000a99       0x26 /x86/lib/libc.a(xstopfx.o)
 .comment       0x00000abf       0x26 /x86/lib/libc.a(xstoxflt.o)
 .comment       0x00000ae5       0x26 /x86/lib/libc.a(xtolotab.o)
 .comment       0x00000b0b       0x26 /x86/lib/libc.a(xtouptab.o)
 .comment       0x00000b31       0x26 /x86/lib/libc.a(xvalues.o)
 .comment       0x00000b57       0x26 /x86/lib/libc.a(xwctomb.o)
 .comment       0x00000b7d       0x26 /x86/lib/libc.a(xwctrtab.o)
 .comment       0x00000ba3       0x26 /x86/lib/libc.a(xwctytab.o)
 .comment       0x00000bc9       0x26 /x86/lib/libc.a(__ker_err.o)
 .comment       0x00000bef       0x26 /x86/lib/libc.a(gettid.o)
 .comment       0x00000c15       0x26 /x86/lib/libc.a(slog.o)
 .comment       0x00000c3b       0x26 /x86/lib/libc.a(fclose.o)
 .comment       0x00000c61       0x26 /x86/lib/libc.a(fflush.o)
 .comment       0x00000c87       0x26 /x86/lib/libc.a(fgetc.o)
 .comment       0x00000cad       0x26 /x86/lib/libc.a(fgetpos.o)
 .comment       0x00000cd3       0x26 /x86/lib/libc.a(fgets.o)
 .comment       0x00000cf9       0x26 /x86/lib/libc.a(fileno.o)
 .comment       0x00000d1f       0x26 /x86/lib/libc.a(flockfile.o)
 .comment       0x00000d45       0x26 /x86/lib/libc.a(fopen.o)
 .comment       0x00000d6b       0x26 /x86/lib/libc.a(fputc.o)
 .comment       0x00000d91       0x26 /x86/lib/libc.a(fputs.o)
 .comment       0x00000db7       0x26 /x86/lib/libc.a(fseek.o)
 .comment       0x00000ddd       0x26 /x86/lib/libc.a(fsetpos.o)
 .comment       0x00000e03       0x26 /x86/lib/libc.a(funlockfile.o)
 .comment       0x00000e29       0x26 /x86/lib/libc.a(fwrite.o)
 .comment       0x00000e4f       0x26 /x86/lib/libc.a(setvbuf.o)
 .comment       0x00000e75       0x26 /x86/lib/libc.a(sprintf.o)
 .comment       0x00000e9b       0x26 /x86/lib/libc.a(sscanf.o)
 .comment       0x00000ec1       0x26 /x86/lib/libc.a(strerror.o)
 .comment       0x00000ee7       0x26 /x86/lib/libc.a(ungetc.o)
 .comment       0x00000f0d       0x26 /x86/lib/libc.a(vsnprintf.o)
 .comment       0x00000f33       0x26 /x86/lib/libc.a(vsprintf.o)
 .comment       0x00000f59       0x26 /x86/lib/libc.a(xfgpos.o)
 .comment       0x00000f7f       0x26 /x86/lib/libc.a(xfiles.o)
 .comment       0x00000fa5       0x26 /x86/lib/libc.a(xfrprep.o)
 .comment       0x00000fcb       0x26 /x86/lib/libc.a(xfspos.o)
 .comment       0x00000ff1       0x26 /x86/lib/libc.a(xfwprep.o)
 .comment       0x00001017       0x26 /x86/lib/libc.a(xprintf.o)
 .comment       0x0000103d       0x26 /x86/lib/libc.a(xputfld.o)
 .comment       0x00001063       0x26 /x86/lib/libc.a(xputstr.o)
 .comment       0x00001089       0x26 /x86/lib/libc.a(xputtxt.o)
 .comment       0x000010af       0x26 /x86/lib/libc.a(xscanf.o)
 .comment       0x000010d5       0x26 /x86/lib/libc.a(xsnprout.o)
 .comment       0x000010fb       0x26 /x86/lib/libc.a(xsprout.o)
 .comment       0x00001121       0x26 /x86/lib/libc.a(memchr.o)
 .comment       0x00001147       0x26 /x86/lib/libc.a(memcmp.o)
 .comment       0x0000116d       0x26 /x86/lib/libc.a(memcpy.o)
 .comment       0x00001193       0x26 /x86/lib/libc.a(memmove.o)
 .comment       0x000011b9       0x26 /x86/lib/libc.a(memset.o)
 .comment       0x000011df       0x26 /x86/lib/libc.a(strcat.o)
 .comment       0x00001205       0x26 /x86/lib/libc.a(strchr.o)
 .comment       0x0000122b       0x26 /x86/lib/libc.a(strcmp.o)
 .comment       0x00001251       0x26 /x86/lib/libc.a(strcoll.o)
 .comment       0x00001277       0x26 /x86/lib/libc.a(strcpy.o)
 .comment       0x0000129d       0x26 /x86/lib/libc.a(strcspn.o)
 .comment       0x000012c3       0x26 /x86/lib/libc.a(strdup.o)
 .comment       0x000012e9       0x26 /x86/lib/libc.a(strlen.o)
 .comment       0x0000130f       0x26 /x86/lib/libc.a(strncmp.o)
 .comment       0x00001335       0x26 /x86/lib/libc.a(strrchr.o)
 .comment       0x0000135b       0x26 /x86/lib/libc.a(strspn.o)
 .comment       0x00001381       0x26 /x86/lib/libc.a(strtol.o)
 .comment       0x000013a7       0x26 /x86/lib/libc.a(strtoll.o)
 .comment       0x000013cd       0x26 /x86/lib/libc.a(strtoul.o)
 .comment       0x000013f3       0x26 /x86/lib/libc.a(strtoull.o)
 .comment       0x00001419       0x26 /x86/lib/libc.a(strxfrm.o)
 .comment       0x0000143f       0x26 /x86/lib/libc.a(wcscoll.o)
 .comment       0x00001465       0x26 /x86/lib/libc.a(wcslen.o)
 .comment       0x0000148b       0x26 /x86/lib/libc.a(wcsxfrm.o)
 .comment       0x000014b1       0x26 /x86/lib/libc.a(wmemcmp.o)
 .comment       0x000014d7       0x26 /x86/lib/libc.a(wmemcpy.o)
 .comment       0x000014fd       0x26 /x86/lib/libc.a(wmemmove.o)
 .comment       0x00001523       0x26 /x86/lib/libc.a(wmemset.o)
 .comment       0x00001549       0x26 /x86/lib/libc.a(xstrxfrm.o)
 .comment       0x0000156f       0x26 /x86/lib/libc.a(xwcsxfrm.o)
 .comment       0x00001595       0x26 /x86/lib/libc.a(__cleanup.o)
 .comment       0x000015bb       0x26 /x86/lib/libc.a(__get_errno_ptr.o)
 .comment       0x000015e1       0x26 /x86/lib/libc.a(__stackavail.o)
 .comment       0x00001607       0x26 /x86/lib/libc.a(__tls.o)
 .comment       0x0000162d       0x26 /x86/lib/libc.a(_init_libc.o)
 .comment       0x00001653       0x26 /x86/lib/libc.a(_math_emu_stub.o)
 .comment       0x00001679       0x26 /x86/lib/libc.a(_math_emu_callout.o)
 .comment       0x0000169f       0x26 /x86/lib/libc.a(asctime.o)
 .comment       0x000016c5       0x26 /x86/lib/libc.a(time.o)
 .comment       0x000016eb       0x26 /x86/lib/libc.a(xstrftim.o)
 .comment       0x00001711       0x26 /x86/lib/libc.a(xtzset.o)
 .comment       0x00001737       0x26 /x86/lib/libc.a(sys_err.o)
 .comment       0x0000175d       0x26 /x86/lib/libc.a(random.o)
 .comment       0x00001783       0x26 /x86/lib/libc.a(close.o)
 .comment       0x000017a9       0x26 /x86/lib/libc.a(getpid.o)
 .comment       0x000017cf       0x26 /x86/lib/libc.a(lseek.o)
 .comment       0x000017f5       0x26 /x86/lib/libc.a(open.o)
 .comment       0x0000181b       0x26 /x86/lib/libc.a(read.o)
 .comment       0x00001841       0x26 /x86/lib/libc.a(sigaction.o)
 .comment       0x00001867       0x26 /x86/lib/libc.a(sigdelset.o)
 .comment       0x0000188d       0x26 /x86/lib/libc.a(sigfillset.o)
 .comment       0x000018b3       0x26 /x86/lib/libc.a(sysconf.o)
 .comment       0x000018d9       0x26 /x86/lib/libc.a(write.o)
 .comment       0x000018ff       0x26 /x86/lib/libc.a(basename.o)
 .comment       0x00001925       0x26 /x86/lib/libc.a(confstr.o)
 .comment       0x0000194b       0x26 /x86/lib/libc.a(__my_thread_exit.o)
 .comment       0x00001971       0x26 /x86/lib/libc.a(pthread_cond_broadcast.o)
 .comment       0x00001997       0x26 /x86/lib/libc.a(pthread_cond_wait.o)
 .comment       0x000019bd       0x26 /x86/lib/libc.a(pthread_exit.o)
 .comment       0x000019e3       0x26 /x86/lib/libc.a(pthread_key_data.o)
 .comment       0x00001a09       0x26 /x86/lib/libc.a(pthread_self.o)
 .comment       0x00001a2f       0x26 /x86/lib/libc.a(pthread_sigmask.o)
 .comment       0x00001a55       0x26 /x86/lib/libc.a(amblksiz.o)
 .comment       0x00001a7b       0x26 /x86/lib/libc.a(band.o)
 .comment       0x00001aa1       0x26 /x86/lib/libc.a(compat.o)
 .comment       0x00001ac7       0x26 /x86/lib/libc.a(dlist.o)
 .comment       0x00001aed       0x26 /x86/lib/libc.a(malloc-config.o)
 .comment       0x00001b13       0x26 /x86/lib/libc.a(__exit.o)
 .comment       0x00001b39       0x26 /x86/lib/libc.a(_atexit.o)
 .comment       0x00001b5f       0x26 /x86/lib/libc.a(_cleanup.o)
 .comment       0x00001b85       0x26 /x86/lib/libc.a(getenv.o)
 .comment       0x00001bab       0x26 /x86/lib/libc.a(xdscale.o)
 .comment       0x00001bd1       0x26 /x86/lib/libc.a(xdtento.o)
 .comment       0x00001bf7       0x26 /x86/lib/libc.a(xdunscal.o)
 .comment       0x00001c1d       0x26 /x86/lib/libc.a(xfdscale.o)
 .comment       0x00001c43       0x26 /x86/lib/libc.a(xfdtento.o)
 .comment       0x00001c69       0x26 /x86/lib/libc.a(xfdunsca.o)
 .comment       0x00001c8f       0x26 /x86/lib/libc.a(xferaise.o)
 .comment       0x00001cb5       0x26 /x86/lib/libc.a(xfreeloc.o)
 .comment       0x00001cdb       0x26 /x86/lib/libc.a(xfvalues.o)
 .comment       0x00001d01       0x26 /x86/lib/libc.a(xldscale.o)
 .comment       0x00001d27       0x26 /x86/lib/libc.a(xldtento.o)
 .comment       0x00001d4d       0x26 /x86/lib/libc.a(xldunsca.o)
 .comment       0x00001d73       0x26 /x86/lib/libc.a(xloctab.o)
 .comment       0x00001d99       0x26 /x86/lib/libc.a(xlocterm.o)
 .comment       0x00001dbf       0x26 /x86/lib/libc.a(xlvalues.o)
 .comment       0x00001de5       0x26 /x86/lib/libc.a(xstoint.o)
 .comment       0x00001e0b       0x26 /x86/lib/libc.a(xwctob.o)
 .comment       0x00001e31       0x26 /x86/lib/libc.a(sysmgr_confstr_set.o)
 .comment       0x00001e57       0x26 /x86/lib/libc.a(_fsopen.o)
 .comment       0x00001e7d       0x26 /x86/lib/libc.a(fdopen.o)
 .comment       0x00001ea3       0x26 /x86/lib/libc.a(fprintf.o)
 .comment       0x00001ec9       0x26 /x86/lib/libc.a(xfbuf.o)
 .comment       0x00001eef       0x26 /x86/lib/libc.a(xfprout.o)
 .comment       0x00001f15       0x26 /x86/lib/libc.a(xgetfld.o)
 .comment       0x00001f3b       0x26 /x86/lib/libc.a(xgetfloa.o)
 .comment       0x00001f61       0x26 /x86/lib/libc.a(xgetint.o)
 .comment       0x00001f87       0x26 /x86/lib/libc.a(xgetstr.o)
 .comment       0x00001fad       0x26 /x86/lib/libc.a(xldtob.o)
 .comment       0x00001fd3       0x26 /x86/lib/libc.a(xlitob.o)
 .comment       0x00001ff9       0x26 /x86/lib/libc.a(_conf_get.o)
 .comment       0x0000201f       0x26 /x86/lib/libc.a(_math_emu_load.o)
 .comment       0x00002045       0x26 /x86/lib/libc.a(_vopen.o)
 .comment       0x0000206b       0x26 /x86/lib/libc.a(localtim.o)
 .comment       0x00002091       0x26 /x86/lib/libc.a(xgentime.o)
 .comment       0x000020b7       0x26 /x86/lib/libc.a(xgetdst.o)
 .comment       0x000020dd       0x26 /x86/lib/libc.a(xgetrules.o)
 .comment       0x00002103       0x26 /x86/lib/libc.a(xgettime.o)
 .comment       0x00002129       0x26 /x86/lib/libc.a(xgetzone.o)
 .comment       0x0000214f       0x26 /x86/lib/libc.a(xttotm.o)
 .comment       0x00002175       0x26 /x86/lib/libc.a(fork.o)
 .comment       0x0000219b       0x26 /x86/lib/libc.a(isatty.o)
 .comment       0x000021c1       0x26 /x86/lib/libc.a(core.o)
 .comment       0x000021e7       0x26 /x86/lib/libc.a(_findenv.o)
 .comment       0x0000220d       0x26 /x86/lib/libc.a(ldiv.o)
 .comment       0x00002233       0x26 /x86/lib/libc.a(xdnorm.o)
 .comment       0x00002259       0x26 /x86/lib/libc.a(xfdnorm.o)
 .comment       0x0000227f       0x26 /x86/lib/libc.a(xldnorm.o)
 .comment       0x000022a5       0x26 /x86/lib/libc.a(sopen.o)
 .comment       0x000022cb       0x26 /x86/lib/libc.a(__fpinit.o)
 .comment       0x000022f1       0x26 /x86/lib/libc.a(__parse_oflag.o)
 .comment       0x00002317       0x26 /x86/lib/libc.a(xgenld.o)
 .comment       0x0000233d       0x26 /x86/lib/libc.a(strncpy.o)
 .comment       0x00002363       0x26 /x86/lib/libc.a(_connect.o)
 .comment       0x00002389       0x26 /x86/lib/libc.a(_connect_entry.o)
 .comment       0x000023af       0x26 /x86/lib/libc.a(_connect_ctrl.o)
 .comment       0x000023d5       0x26 /x86/lib/libc.a(_devctl.o)
 .comment       0x000023fb       0x26 /x86/lib/libc.a(xisdst.o)
 .comment       0x00002421       0x26 /x86/lib/libc.a(mmap.o)
 .comment       0x00002447       0x26 /x86/lib/libc.a(munmap.o)
 .comment       0x0000246d       0x26 /x86/lib/libc.a(div.o)
 .comment       0x00002493       0x26 /x86/lib/libc.a(procmgr_session.o)
 .comment       0x000024b9       0x26 /x86/lib/libc.a(__fpbufinit.o)
 .comment       0x000024df       0x2d /usr/lib/gcc-lib/ntox86/2.95.3/exceptions/libgcc.a(_divdi3.o)
 .comment       0x0000250c       0x2d /usr/lib/gcc-lib/ntox86/2.95.3/exceptions/libgcc.a(_moddi3.o)
 .comment       0x00002539       0x2d /usr/lib/gcc-lib/ntox86/2.95.3/exceptions/libgcc.a(_udivdi3.o)
 .comment       0x00002566       0x2d /usr/lib/gcc-lib/ntox86/2.95.3/exceptions/libgcc.a(_umoddi3.o)
 .comment       0x00002593       0x2d /usr/lib/gcc-lib/ntox86/2.95.3/crtendC++.o

.debug
 *(.debug)

.line
 *(.line)

.debug_srcinfo
 *(.debug_srcinfo)

.debug_sfnames
 *(.debug_sfnames)

.debug_aranges
 *(.debug_aranges)

.debug_pubnames
 *(.debug_pubnames)

.debug_info
 *(.debug_info)

.debug_abbrev
 *(.debug_abbrev)

.debug_line
 *(.debug_line)

.debug_frame
 *(.debug_frame)

.debug_str
 *(.debug_str)

.debug_loc
 *(.debug_loc)

.debug_macinfo
 *(.debug_macinfo)

.debug_weaknames
 *(.debug_weaknames)

.debug_funcnames
 *(.debug_funcnames)

.debug_typenames
 *(.debug_typenames)

.debug_varnames
 *(.debug_varnames)
OUTPUT(objects_storage elf32-i386)

.note           0x00000000     0x139c
 .note          0x00000000       0x14 /usr/lib/gcc-lib/ntox86/2.95.3/crtbeginC++.o
 .note          0x00000014       0x14 objects_storage_logger.o
 .note          0x00000028       0x14 manager_of_data_storage.o
 .note          0x0000003c       0x14 jobs_data_managers_container.o
 .note          0x00000050       0x14 pri_data_manager.o
 .note          0x00000064       0x14 mock_database_wrapper.o
 .note          0x00000078       0x14 main.o
 .note          0x0000008c       0x14 /x86/lib/libcpp.a(delaop.o)
 .note          0x000000a0       0x14 /x86/lib/libcpp.a(delop.o)
 .note          0x000000b4       0x14 /x86/lib/libcpp.a(delop3.o)
 .note          0x000000c8       0x14 /x86/lib/libcpp.a(exceptio.o)
 .note          0x000000dc       0x14 /x86/lib/libcpp.a(gccex.o)
 .note          0x000000f0       0x14 /x86/lib/libcpp.a(ios.o)
 .note          0x00000104       0x14 /x86/lib/libcpp.a(iostream.o)
 .note          0x00000118       0x14 /x86/lib/libcpp.a(locale.o)
 .note          0x0000012c       0x14 /x86/lib/libcpp.a(locale0.o)
 .note          0x00000140       0x14 /x86/lib/libcpp.a(newaop.o)
 .note          0x00000154       0x14 /x86/lib/libcpp.a(newop.o)
 .note          0x00000168       0x14 /x86/lib/libcpp.a(nomemory.o)
 .note          0x0000017c       0x14 /x86/lib/libcpp.a(raisehan.o)
 .note          0x00000190       0x14 /x86/lib/libcpp.a(string.o)
 .note          0x000001a4       0x14 /x86/lib/libcpp.a(uncaught.o)
 .note          0x000001b8       0x14 /x86/lib/libcpp.a(wlocale.o)
 .note          0x000001cc       0x14 /x86/lib/libcpp.a(xlocale.o)
 .note          0x000001e0       0x14 /x86/lib/libcpp.a(xlock.o)
 .note          0x000001f4       0x14 /x86/lib/libcpp.a(xmtx.o)
 .note          0x00000208       0x14 /x86/lib/libcpp.a(xmutex.o)
 .note          0x0000021c       0x14 /x86/lib/libcpp.a(new.o)
 .note          0x00000230       0x14 /usr/lib/gcc-lib/ntox86/2.95.3/exceptions/libgcc.a(_eh.o)
 .note          0x00000244       0x14 /usr/lib/gcc-lib/ntox86/2.95.3/exceptions/libgcc.a(_pure.o)
 .note          0x00000258       0x14 /usr/lib/gcc-lib/ntox86/2.95.3/exceptions/libgcc.a(exception.o)
 .note          0x0000026c       0x14 /usr/lib/gcc-lib/ntox86/2.95.3/exceptions/libgcc.a(frame.o)
 .note          0x00000280       0x14 /usr/lib/gcc-lib/ntox86/2.95.3/exceptions/libgcc.a(tinfo.o)
 .note          0x00000294       0x14 /usr/lib/gcc-lib/ntox86/2.95.3/exceptions/libgcc.a(tinfo2.o)
 .note          0x000002a8       0x14 /x86/lib/libc.a(getopt.o)
 .note          0x000002bc       0x14 /x86/lib/libc.a(pthread_mutex_lock.o)
 .note          0x000002d0       0x14 /x86/lib/libc.a(pthread_mutex_init.o)
 .note          0x000002e4       0x14 /x86/lib/libc.a(pthread_mutex_destroy.o)
 .note          0x000002f8       0x14 /x86/lib/libc.a(pthread_mutex_unlock.o)
 .note          0x0000030c       0x14 /x86/lib/libc.a(pthread_mutexattr_destroy.o)
 .note          0x00000320       0x14 /x86/lib/libc.a(pthread_mutexattr_init.o)
 .note          0x00000334       0x14 /x86/lib/libc.a(pthread_mutexattr_settype.o)
 .note          0x00000348       0x14 /x86/lib/libc.a(pthread_once.o)
 .note          0x0000035c       0x14 /x86/lib/libc.a(malloc.o)
 .note          0x00000370       0x14 /x86/lib/libc.a(util.o)
 .note          0x00000384       0x14 /x86/lib/libc.a(_exit.o)
 .note          0x00000398       0x14 /x86/lib/libc.a(abort.o)
 .note          0x000003ac       0x14 /x86/lib/libc.a(atexit.o)
 .note          0x000003c0       0x14 /x86/lib/libc.a(exit.o)
 .note          0x000003d4       0x14 /x86/lib/libc.a(localeco.o)
 .note          0x000003e8       0x14 /x86/lib/libc.a(mbrtowc.o)
 .note          0x000003fc       0x14 /x86/lib/libc.a(raise.o)
 .note          0x00000410       0x14 /x86/lib/libc.a(setlocal.o)
 .note          0x00000424       0x14 /x86/lib/libc.a(wcrtomb.o)
 .note          0x00000438       0x14 /x86/lib/libc.a(xbtowc.o)
 .note          0x0000044c       0x14 /x86/lib/libc.a(xctype.o)
 .note          0x00000460       0x14 /x86/lib/libc.a(xdefloc.o)
 .note          0x00000474       0x14 /x86/lib/libc.a(xgetloc.o)
 .note          0x00000488       0x14 /x86/lib/libc.a(xmakeloc.o)
 .note          0x0000049c       0x14 /x86/lib/libc.a(xmakesta.o)
 .note          0x000004b0       0x14 /x86/lib/libc.a(xmakewct.o)
 .note          0x000004c4       0x14 /x86/lib/libc.a(xmbtowc.o)
 .note          0x000004d8       0x14 /x86/lib/libc.a(xreadloc.o)
 .note          0x000004ec       0x14 /x86/lib/libc.a(xsetloc.o)
 .note          0x00000500       0x14 /x86/lib/libc.a(xstate.o)
 .note          0x00000514       0x14 /x86/lib/libc.a(xstod.o)
 .note          0x00000528       0x14 /x86/lib/libc.a(xstof.o)
 .note          0x0000053c       0x14 /x86/lib/libc.a(xstoflt.o)
 .note          0x00000550       0x14 /x86/lib/libc.a(xstold.o)
 .note          0x00000564       0x14 /x86/lib/libc.a(xstopfx.o)
 .note          0x00000578       0x14 /x86/lib/libc.a(xstoxflt.o)
 .note          0x0000058c       0x14 /x86/lib/libc.a(xtolotab.o)
 .note          0x000005a0       0x14 /x86/lib/libc.a(xtouptab.o)
 .note          0x000005b4       0x14 /x86/lib/libc.a(xvalues.o)
 .note          0x000005c8       0x14 /x86/lib/libc.a(xwctomb.o)
 .note          0x000005dc       0x14 /x86/lib/libc.a(xwctrtab.o)
 .note          0x000005f0       0x14 /x86/lib/libc.a(xwctytab.o)
 .note          0x00000604       0x14 /x86/lib/libc.a(__ker_err.o)
 .note          0x00000618       0x14 /x86/lib/libc.a(gettid.o)
 .note          0x0000062c       0x14 /x86/lib/libc.a(slog.o)
 .note          0x00000640       0x14 /x86/lib/libc.a(fclose.o)
 .note          0x00000654       0x14 /x86/lib/libc.a(fflush.o)
 .note          0x00000668       0x14 /x86/lib/libc.a(fgetc.o)
 .note          0x0000067c       0x14 /x86/lib/libc.a(fgetpos.o)
 .note          0x00000690       0x14 /x86/lib/libc.a(fgets.o)
 .note          0x000006a4       0x14 /x86/lib/libc.a(fileno.o)
 .note          0x000006b8       0x14 /x86/lib/libc.a(flockfile.o)
 .note          0x000006cc       0x14 /x86/lib/libc.a(fopen.o)
 .note          0x000006e0       0x14 /x86/lib/libc.a(fputc.o)
 .note          0x000006f4       0x14 /x86/lib/libc.a(fputs.o)
 .note          0x00000708       0x14 /x86/lib/libc.a(fseek.o)
 .note          0x0000071c       0x14 /x86/lib/libc.a(fsetpos.o)
 .note          0x00000730       0x14 /x86/lib/libc.a(funlockfile.o)
 .note          0x00000744       0x14 /x86/lib/libc.a(fwrite.o)
 .note          0x00000758       0x14 /x86/lib/libc.a(setvbuf.o)
 .note          0x0000076c       0x14 /x86/lib/libc.a(sprintf.o)
 .note          0x00000780       0x14 /x86/lib/libc.a(sscanf.o)
 .note          0x00000794       0x14 /x86/lib/libc.a(strerror.o)
 .note          0x000007a8       0x14 /x86/lib/libc.a(ungetc.o)
 .note          0x000007bc       0x14 /x86/lib/libc.a(vsnprintf.o)
 .note          0x000007d0       0x14 /x86/lib/libc.a(vsprintf.o)
 .note          0x000007e4       0x14 /x86/lib/libc.a(xfgpos.o)
 .note          0x000007f8       0x14 /x86/lib/libc.a(xfiles.o)
 .note          0x0000080c       0x14 /x86/lib/libc.a(xfrprep.o)
 .note          0x00000820       0x14 /x86/lib/libc.a(xfspos.o)
 .note          0x00000834       0x14 /x86/lib/libc.a(xfwprep.o)
 .note          0x00000848       0x14 /x86/lib/libc.a(xprintf.o)
 .note          0x0000085c       0x14 /x86/lib/libc.a(xputfld.o)
 .note          0x00000870       0x14 /x86/lib/libc.a(xputstr.o)
 .note          0x00000884       0x14 /x86/lib/libc.a(xputtxt.o)
 .note          0x00000898       0x14 /x86/lib/libc.a(xscanf.o)
 .note          0x000008ac       0x14 /x86/lib/libc.a(xsnprout.o)
 .note          0x000008c0       0x14 /x86/lib/libc.a(xsprout.o)
 .note          0x000008d4       0x14 /x86/lib/libc.a(memchr.o)
 .note          0x000008e8       0x14 /x86/lib/libc.a(memcmp.o)
 .note          0x000008fc       0x14 /x86/lib/libc.a(memcpy.o)
 .note          0x00000910       0x14 /x86/lib/libc.a(memmove.o)
 .note          0x00000924       0x14 /x86/lib/libc.a(memset.o)
 .note          0x00000938       0x14 /x86/lib/libc.a(strcat.o)
 .note          0x0000094c       0x14 /x86/lib/libc.a(strchr.o)
 .note          0x00000960       0x14 /x86/lib/libc.a(strcmp.o)
 .note          0x00000974       0x14 /x86/lib/libc.a(strcoll.o)
 .note          0x00000988       0x14 /x86/lib/libc.a(strcpy.o)
 .note          0x0000099c       0x14 /x86/lib/libc.a(strcspn.o)
 .note          0x000009b0       0x14 /x86/lib/libc.a(strdup.o)
 .note          0x000009c4       0x14 /x86/lib/libc.a(strlen.o)
 .note          0x000009d8       0x14 /x86/lib/libc.a(strncmp.o)
 .note          0x000009ec       0x14 /x86/lib/libc.a(strrchr.o)
 .note          0x00000a00       0x14 /x86/lib/libc.a(strspn.o)
 .note          0x00000a14       0x14 /x86/lib/libc.a(strtol.o)
 .note          0x00000a28       0x14 /x86/lib/libc.a(strtoll.o)
 .note          0x00000a3c       0x14 /x86/lib/libc.a(strtoul.o)
 .note          0x00000a50       0x14 /x86/lib/libc.a(strtoull.o)
 .note          0x00000a64       0x14 /x86/lib/libc.a(strxfrm.o)
 .note          0x00000a78       0x14 /x86/lib/libc.a(wcscoll.o)
 .note          0x00000a8c       0x14 /x86/lib/libc.a(wcslen.o)
 .note          0x00000aa0       0x14 /x86/lib/libc.a(wcsxfrm.o)
 .note          0x00000ab4       0x14 /x86/lib/libc.a(wmemcmp.o)
 .note          0x00000ac8       0x14 /x86/lib/libc.a(wmemcpy.o)
 .note          0x00000adc       0x14 /x86/lib/libc.a(wmemmove.o)
 .note          0x00000af0       0x14 /x86/lib/libc.a(wmemset.o)
 .note          0x00000b04       0x14 /x86/lib/libc.a(xstrxfrm.o)
 .note          0x00000b18       0x14 /x86/lib/libc.a(xwcsxfrm.o)
 .note          0x00000b2c       0x14 /x86/lib/libc.a(__cleanup.o)
 .note          0x00000b40       0x14 /x86/lib/libc.a(__get_errno_ptr.o)
 .note          0x00000b54       0x14 /x86/lib/libc.a(__stackavail.o)
 .note          0x00000b68       0x14 /x86/lib/libc.a(__tls.o)
 .note          0x00000b7c       0x14 /x86/lib/libc.a(_init_libc.o)
 .note          0x00000b90       0x14 /x86/lib/libc.a(_math_emu_stub.o)
 .note          0x00000ba4       0x14 /x86/lib/libc.a(_math_emu_callout.o)
 .note          0x00000bb8       0x14 /x86/lib/libc.a(asctime.o)
 .note          0x00000bcc       0x14 /x86/lib/libc.a(time.o)
 .note          0x00000be0       0x14 /x86/lib/libc.a(xstrftim.o)
 .note          0x00000bf4       0x14 /x86/lib/libc.a(xtzset.o)
 .note          0x00000c08       0x14 /x86/lib/libc.a(sys_err.o)
 .note          0x00000c1c       0x14 /x86/lib/libc.a(random.o)
 .note          0x00000c30       0x14 /x86/lib/libc.a(close.o)
 .note          0x00000c44       0x14 /x86/lib/libc.a(getpid.o)
 .note          0x00000c58       0x14 /x86/lib/libc.a(lseek.o)
 .note          0x00000c6c       0x14 /x86/lib/libc.a(open.o)
 .note          0x00000c80       0x14 /x86/lib/libc.a(read.o)
 .note          0x00000c94       0x14 /x86/lib/libc.a(sigaction.o)
 .note          0x00000ca8       0x14 /x86/lib/libc.a(sigdelset.o)
 .note          0x00000cbc       0x14 /x86/lib/libc.a(sigfillset.o)
 .note          0x00000cd0       0x14 /x86/lib/libc.a(sysconf.o)
 .note          0x00000ce4       0x14 /x86/lib/libc.a(write.o)
 .note          0x00000cf8       0x14 /x86/lib/libc.a(basename.o)
 .note          0x00000d0c       0x14 /x86/lib/libc.a(confstr.o)
 .note          0x00000d20       0x14 /x86/lib/libc.a(__my_thread_exit.o)
 .note          0x00000d34       0x14 /x86/lib/libc.a(pthread_cond_broadcast.o)
 .note          0x00000d48       0x14 /x86/lib/libc.a(pthread_cond_wait.o)
 .note          0x00000d5c       0x14 /x86/lib/libc.a(pthread_exit.o)
 .note          0x00000d70       0x14 /x86/lib/libc.a(pthread_key_data.o)
 .note          0x00000d84       0x14 /x86/lib/libc.a(pthread_self.o)
 .note          0x00000d98       0x14 /x86/lib/libc.a(pthread_sigmask.o)
 .note          0x00000dac       0x14 /x86/lib/libc.a(amblksiz.o)
 .note          0x00000dc0       0x14 /x86/lib/libc.a(band.o)
 .note          0x00000dd4       0x14 /x86/lib/libc.a(compat.o)
 .note          0x00000de8       0x14 /x86/lib/libc.a(dlist.o)
 .note          0x00000dfc       0x14 /x86/lib/libc.a(malloc-config.o)
 .note          0x00000e10       0x14 /x86/lib/libc.a(__exit.o)
 .note          0x00000e24       0x14 /x86/lib/libc.a(_atexit.o)
 .note          0x00000e38       0x14 /x86/lib/libc.a(_cleanup.o)
 .note          0x00000e4c       0x14 /x86/lib/libc.a(getenv.o)
 .note          0x00000e60       0x14 /x86/lib/libc.a(xdscale.o)
 .note          0x00000e74       0x14 /x86/lib/libc.a(xdtento.o)
 .note          0x00000e88       0x14 /x86/lib/libc.a(xdunscal.o)
 .note          0x00000e9c       0x14 /x86/lib/libc.a(xfdscale.o)
 .note          0x00000eb0       0x14 /x86/lib/libc.a(xfdtento.o)
 .note          0x00000ec4       0x14 /x86/lib/libc.a(xfdunsca.o)
 .note          0x00000ed8       0x14 /x86/lib/libc.a(xferaise.o)
 .note          0x00000eec       0x14 /x86/lib/libc.a(xfreeloc.o)
 .note          0x00000f00       0x14 /x86/lib/libc.a(xfvalues.o)
 .note          0x00000f14       0x14 /x86/lib/libc.a(xldscale.o)
 .note          0x00000f28       0x14 /x86/lib/libc.a(xldtento.o)
 .note          0x00000f3c       0x14 /x86/lib/libc.a(xldunsca.o)
 .note          0x00000f50       0x14 /x86/lib/libc.a(xloctab.o)
 .note          0x00000f64       0x14 /x86/lib/libc.a(xlocterm.o)
 .note          0x00000f78       0x14 /x86/lib/libc.a(xlvalues.o)
 .note          0x00000f8c       0x14 /x86/lib/libc.a(xstoint.o)
 .note          0x00000fa0       0x14 /x86/lib/libc.a(xwctob.o)
 .note          0x00000fb4       0x14 /x86/lib/libc.a(sysmgr_confstr_set.o)
 .note          0x00000fc8       0x14 /x86/lib/libc.a(_fsopen.o)
 .note          0x00000fdc       0x14 /x86/lib/libc.a(fdopen.o)
 .note          0x00000ff0       0x14 /x86/lib/libc.a(fprintf.o)
 .note          0x00001004       0x14 /x86/lib/libc.a(xfbuf.o)
 .note          0x00001018       0x14 /x86/lib/libc.a(xfprout.o)
 .note          0x0000102c       0x14 /x86/lib/libc.a(xgetfld.o)
 .note          0x00001040       0x14 /x86/lib/libc.a(xgetfloa.o)
 .note          0x00001054       0x14 /x86/lib/libc.a(xgetint.o)
 .note          0x00001068       0x14 /x86/lib/libc.a(xgetstr.o)
 .note          0x0000107c       0x14 /x86/lib/libc.a(xldtob.o)
 .note          0x00001090       0x14 /x86/lib/libc.a(xlitob.o)
 .note          0x000010a4       0x14 /x86/lib/libc.a(_conf_get.o)
 .note          0x000010b8       0x14 /x86/lib/libc.a(_math_emu_load.o)
 .note          0x000010cc       0x14 /x86/lib/libc.a(_vopen.o)
 .note          0x000010e0       0x14 /x86/lib/libc.a(localtim.o)
 .note          0x000010f4       0x14 /x86/lib/libc.a(xgentime.o)
 .note          0x00001108       0x14 /x86/lib/libc.a(xgetdst.o)
 .note          0x0000111c       0x14 /x86/lib/libc.a(xgetrules.o)
 .note          0x00001130       0x14 /x86/lib/libc.a(xgettime.o)
 .note          0x00001144       0x14 /x86/lib/libc.a(xgetzone.o)
 .note          0x00001158       0x14 /x86/lib/libc.a(xttotm.o)
 .note          0x0000116c       0x14 /x86/lib/libc.a(fork.o)
 .note          0x00001180       0x14 /x86/lib/libc.a(isatty.o)
 .note          0x00001194       0x14 /x86/lib/libc.a(core.o)
 .note          0x000011a8       0x14 /x86/lib/libc.a(_findenv.o)
 .note          0x000011bc       0x14 /x86/lib/libc.a(ldiv.o)
 .note          0x000011d0       0x14 /x86/lib/libc.a(xdnorm.o)
 .note          0x000011e4       0x14 /x86/lib/libc.a(xfdnorm.o)
 .note          0x000011f8       0x14 /x86/lib/libc.a(xldnorm.o)
 .note          0x0000120c       0x14 /x86/lib/libc.a(sopen.o)
 .note          0x00001220       0x14 /x86/lib/libc.a(__fpinit.o)
 .note          0x00001234       0x14 /x86/lib/libc.a(__parse_oflag.o)
 .note          0x00001248       0x14 /x86/lib/libc.a(xgenld.o)
 .note          0x0000125c       0x14 /x86/lib/libc.a(strncpy.o)
 .note          0x00001270       0x14 /x86/lib/libc.a(_connect.o)
 .note          0x00001284       0x14 /x86/lib/libc.a(_connect_entry.o)
 .note          0x00001298       0x14 /x86/lib/libc.a(_connect_ctrl.o)
 .note          0x000012ac       0x14 /x86/lib/libc.a(_devctl.o)
 .note          0x000012c0       0x14 /x86/lib/libc.a(xisdst.o)
 .note          0x000012d4       0x14 /x86/lib/libc.a(mmap.o)
 .note          0x000012e8       0x14 /x86/lib/libc.a(munmap.o)
 .note          0x000012fc       0x14 /x86/lib/libc.a(div.o)
 .note          0x00001310       0x14 /x86/lib/libc.a(procmgr_session.o)
 .note          0x00001324       0x14 /x86/lib/libc.a(__fpbufinit.o)
 .note          0x00001338       0x14 /usr/lib/gcc-lib/ntox86/2.95.3/exceptions/libgcc.a(_divdi3.o)
 .note          0x0000134c       0x14 /usr/lib/gcc-lib/ntox86/2.95.3/exceptions/libgcc.a(_moddi3.o)
 .note          0x00001360       0x14 /usr/lib/gcc-lib/ntox86/2.95.3/exceptions/libgcc.a(_udivdi3.o)
 .note          0x00001374       0x14 /usr/lib/gcc-lib/ntox86/2.95.3/exceptions/libgcc.a(_umoddi3.o)
 .note          0x00001388       0x14 /usr/lib/gcc-lib/ntox86/2.95.3/crtendC++.o
