Archive member included because of file (symbol)

/usr/qnx650/target/qnx6/x86/lib//libc.a(slog.o)
                              program_settings.o (vslogf)

Discarded input sections

 _ZNSt11char_traitsIcE6assignERcRKc
                0x00000000        0x0 program_settings.o
 _ZNSt11char_traitsIcE6lengthEPKc
                0x00000000        0x0 program_settings.o
 _ZNSt11char_traitsIcE4copyEPcPKcj
                0x00000000        0x0 program_settings.o
 _ZNSt11char_traitsIcE4moveEPcPKcj
                0x00000000        0x0 program_settings.o
 _ZNSsC1ERKSs   0x00000000        0x0 program_settings.o
 _ZNSsD1Ev      0x00000000        0x0 program_settings.o
 _ZNKSs5c_strEv
                0x00000000        0x0 program_settings.o
 _ZNSsC1EPKc    0x00000000        0x0 program_settings.o
 _ZNSsC1Ev      0x00000000        0x0 program_settings.o
 _ZNKSs4sizeEv  0x00000000        0x0 program_settings.o
 _ZNSs7reserveEj
                0x00000000        0x0 program_settings.o
 _ZStplIcSt11char_traitsIcESaIcEESbIT_T0_T1_ERKS6_PKS3_
                0x00000000        0x0 program_settings.o
 _ZNSsaSERKSs   0x00000000        0x0 program_settings.o
 _ZNSspLERKSs   0x00000000        0x0 program_settings.o
 _ZNKSt6vectorIhSaIhEE5emptyEv
                0x00000000        0x0 program_settings.o
 _ZNSt6vectorIhSaIhEE5beginEv
                0x00000000        0x0 program_settings.o
 _ZNSt6vectorIhSaIhEE3endEv
                0x00000000        0x0 program_settings.o
 _ZNKSt22_Vector_const_iteratorIhSaIhEEneERKS1_
                0x00000000        0x0 program_settings.o
 _ZNSt16_Vector_iteratorIhSaIhEEppEi
                0x00000000        0x0 program_settings.o
 _ZNKSt16_Vector_iteratorIhSaIhEEdeEv
                0x00000000        0x0 program_settings.o
 _ZNSt15_Allocator_baseIcEC2Ev
                0x00000000        0x0 program_settings.o
 _ZNSaIcEC1ERKS_
                0x00000000        0x0 program_settings.o
 _ZNSt15_Container_baseC2Ev
                0x00000000        0x0 program_settings.o
 _ZNSt12_String_baseC2Ev
                0x00000000        0x0 program_settings.o
 _ZNSt11_String_valIcSaIcEEC2ES0_
                0x00000000        0x0 program_settings.o
 _ZNSs5_TidyEbj
                0x00000000        0x0 program_settings.o
 _ZNSs6assignERKSsjj
                0x00000000        0x0 program_settings.o
 _ZNKSs6_MyptrEv
                0x00000000        0x0 program_settings.o
 _ZNSaIcEC1Ev   0x00000000        0x0 program_settings.o
 _ZNSs6assignEPKc
                0x00000000        0x0 program_settings.o
 _ZNSs5_GrowEjb
                0x00000000        0x0 program_settings.o
 _ZNSs4_EosEj   0x00000000        0x0 program_settings.o
 _ZNSspLEPKc    0x00000000        0x0 program_settings.o
 _ZNSs6assignERKSs
                0x00000000        0x0 program_settings.o
 _ZNSs6appendERKSs
                0x00000000        0x0 program_settings.o
 _ZNKSt6vectorIhSaIhEE4sizeEv
                0x00000000        0x0 program_settings.o
 _ZNSt16_Vector_iteratorIhSaIhEEC1EPh
                0x00000000        0x0 program_settings.o
 _ZNKSt22_Vector_const_iteratorIhSaIhEEeqERKS1_
                0x00000000        0x0 program_settings.o
 _ZNSt16_Vector_iteratorIhSaIhEEppEv
                0x00000000        0x0 program_settings.o
 _ZNKSt22_Vector_const_iteratorIhSaIhEEdeEv
                0x00000000        0x0 program_settings.o
 _ZNSaIcE10deallocateEPcj
                0x00000000        0x0 program_settings.o
 _ZNSs5eraseEjj
                0x00000000        0x0 program_settings.o
 _ZNSs6_MyptrEv
                0x00000000        0x0 program_settings.o
 _ZNSs6assignEPKcj
                0x00000000        0x0 program_settings.o
 _ZNKSs8max_sizeEv
                0x00000000        0x0 program_settings.o
 _ZNSs5_CopyEjj
                0x00000000        0x0 program_settings.o
 _ZNSs6appendEPKc
                0x00000000        0x0 program_settings.o
 _ZNSs6appendERKSsjj
                0x00000000        0x0 program_settings.o
 _ZNSt14_Iterator_baseC2Ev
                0x00000000        0x0 program_settings.o
 _ZNSt8iteratorISt26random_access_iterator_taghiPKhRS1_EC2Ev
                0x00000000        0x0 program_settings.o
 _ZNSt6_RanitIhiPKhRS0_EC2Ev
                0x00000000        0x0 program_settings.o
 _ZNSt22_Vector_const_iteratorIhSaIhEEC2EPh
                0x00000000        0x0 program_settings.o
 _ZNSs7_InsideEPKc
                0x00000000        0x0 program_settings.o
 _ZNKSaIcE8max_sizeEv
                0x00000000        0x0 program_settings.o
 _ZNSaIcE8allocateEj
                0x00000000        0x0 program_settings.o
 _ZNSs6appendEPKcj
                0x00000000        0x0 program_settings.o
 _ZSt9_AllocateIcEPT_jS1_
                0x00000000        0x0 program_settings.o
 _ZNSt9exceptionC2Ev
                0x00000000        0x0 system_settings.o
 _ZnwjPv        0x00000000        0x0 system_settings.o
 _ZNSt11char_traitsIcE6assignERcRKc
                0x00000000        0x0 system_settings.o
 _ZNSt11char_traitsIcE6lengthEPKc
                0x00000000        0x0 system_settings.o
 _ZNSt11char_traitsIcE4copyEPcPKcj
                0x00000000        0x0 system_settings.o
 _ZNSt11char_traitsIcE4moveEPcPKcj
                0x00000000        0x0 system_settings.o
 _ZNSt11logic_errorC2ERKSs
                0x00000000        0x0 system_settings.o
 _ZNSt11logic_errorD2Ev
                0x00000000        0x0 system_settings.o
 _ZNSt11logic_errorD1Ev
                0x00000000        0x0 system_settings.o
 _ZNSt11logic_errorD0Ev
                0x00000000        0x0 system_settings.o
 _ZNKSt11logic_error4whatEv
                0x00000000        0x0 system_settings.o
 _ZNSt12length_errorC1ERKSs
                0x00000000        0x0 system_settings.o
 _ZNSt12length_errorD1Ev
                0x00000000        0x0 system_settings.o
 _ZNSt12length_errorD0Ev
                0x00000000        0x0 system_settings.o
 _ZN16spider_exceptionC1ESs
                0x00000000        0x0 system_settings.o
 _ZN15system_settingsD1Ev
                0x00000000        0x0 system_settings.o
 _ZN15system_settingsD0Ev
                0x00000000        0x0 system_settings.o
 _ZN16spider_exceptionD1Ev
                0x00000000        0x0 system_settings.o
 _ZNSsC1ERKSs   0x00000000        0x0 system_settings.o
 _ZNSsD1Ev      0x00000000        0x0 system_settings.o
 _ZNKSs5c_strEv
                0x00000000        0x0 system_settings.o
 _ZNSt6vectorISsSaISsEED1Ev
                0x00000000        0x0 system_settings.o
 _ZNSt6vectorISsSaISsEEixEj
                0x00000000        0x0 system_settings.o
 _ZNSsC1EPKc    0x00000000        0x0 system_settings.o
 _ZNSt6vectorISsSaISsEEC1Ej
                0x00000000        0x0 system_settings.o
 _ZNSsaSEPKc    0x00000000        0x0 system_settings.o
 _ZNSsC1Ev      0x00000000        0x0 system_settings.o
 _ZNKSs4sizeEv  0x00000000        0x0 system_settings.o
 _ZNSs7reserveEj
                0x00000000        0x0 system_settings.o
 _ZStplIcSt11char_traitsIcESaIcEESbIT_T0_T1_ERKS6_PKS3_
                0x00000000        0x0 system_settings.o
 _ZNSsaSERKSs   0x00000000        0x0 system_settings.o
 _ZNSspLERKSs   0x00000000        0x0 system_settings.o
 _ZNKSt6vectorIhSaIhEE5emptyEv
                0x00000000        0x0 system_settings.o
 _ZNSt6vectorIhSaIhEE5beginEv
                0x00000000        0x0 system_settings.o
 _ZNSt6vectorIhSaIhEE3endEv
                0x00000000        0x0 system_settings.o
 _ZNKSt22_Vector_const_iteratorIhSaIhEEneERKS1_
                0x00000000        0x0 system_settings.o
 _ZNSt16_Vector_iteratorIhSaIhEEppEi
                0x00000000        0x0 system_settings.o
 _ZNKSt16_Vector_iteratorIhSaIhEEdeEv
                0x00000000        0x0 system_settings.o
 _ZNSt15_Allocator_baseIcEC2Ev
                0x00000000        0x0 system_settings.o
 _ZNSaIcEC1ERKS_
                0x00000000        0x0 system_settings.o
 _ZNSt15_Container_baseC2Ev
                0x00000000        0x0 system_settings.o
 _ZNSt12_String_baseC2Ev
                0x00000000        0x0 system_settings.o
 _ZNSt11_String_valIcSaIcEEC2ES0_
                0x00000000        0x0 system_settings.o
 _ZNSs5_TidyEbj
                0x00000000        0x0 system_settings.o
 _ZNSs6assignERKSsjj
                0x00000000        0x0 system_settings.o
 _ZNKSs6_MyptrEv
                0x00000000        0x0 system_settings.o
 _ZNSt6vectorISsSaISsEE5_TidyEv
                0x00000000        0x0 system_settings.o
 _ZNSt15_Allocator_baseISsEC2Ev
                0x00000000        0x0 system_settings.o
 _ZNSaISsEC1ERKS_
                0x00000000        0x0 system_settings.o
 _ZNSt11_Vector_valISsSaISsEEC2ES0_
                0x00000000        0x0 system_settings.o
 _ZNSt6vectorISsSaISsEE4_BuyEj
                0x00000000        0x0 system_settings.o
 _ZNSt6vectorISsSaISsEE5beginEv
                0x00000000        0x0 system_settings.o
 _ZNKSt16_Vector_iteratorISsSaISsEEplEi
                0x00000000        0x0 system_settings.o
 _ZNKSt16_Vector_iteratorISsSaISsEEdeEv
                0x00000000        0x0 system_settings.o
 _ZNSaIcEC1Ev   0x00000000        0x0 system_settings.o
 _ZNSs6assignEPKc
                0x00000000        0x0 system_settings.o
 _ZNSaISsEC1Ev  0x00000000        0x0 system_settings.o
 _ZNSt6vectorISsSaISsEE12_Construct_nEjRKSs
                0x00000000        0x0 system_settings.o
 _ZNSs5_GrowEjb
                0x00000000        0x0 system_settings.o
 _ZNSs4_EosEj   0x00000000        0x0 system_settings.o
 _ZNSspLEPKc    0x00000000        0x0 system_settings.o
 _ZNSs6assignERKSs
                0x00000000        0x0 system_settings.o
 _ZNSs6appendERKSs
                0x00000000        0x0 system_settings.o
 _ZNKSt6vectorIhSaIhEE4sizeEv
                0x00000000        0x0 system_settings.o
 _ZNSt16_Vector_iteratorIhSaIhEEC1EPh
                0x00000000        0x0 system_settings.o
 _ZNKSt22_Vector_const_iteratorIhSaIhEEeqERKS1_
                0x00000000        0x0 system_settings.o
 _ZNSt16_Vector_iteratorIhSaIhEEppEv
                0x00000000        0x0 system_settings.o
 _ZNKSt22_Vector_const_iteratorIhSaIhEEdeEv
                0x00000000        0x0 system_settings.o
 _ZNSaIcE10deallocateEPcj
                0x00000000        0x0 system_settings.o
 _ZNSs5eraseEjj
                0x00000000        0x0 system_settings.o
 _ZNSs6_MyptrEv
                0x00000000        0x0 system_settings.o
 _ZNSt6vectorISsSaISsEE8_DestroyEPSsS2_
                0x00000000        0x0 system_settings.o
 _ZNSaISsE10deallocateEPSsj
                0x00000000        0x0 system_settings.o
 _ZNKSt6vectorISsSaISsEE8max_sizeEv
                0x00000000        0x0 system_settings.o
 _ZNKSt6vectorISsSaISsEE5_XlenEv
                0x00000000        0x0 system_settings.o
 _ZNSaISsE8allocateEj
                0x00000000        0x0 system_settings.o
 _ZNSt14_Iterator_baseC2Ev
                0x00000000        0x0 system_settings.o
 _ZNSt8iteratorISt26random_access_iterator_tagSsiPKSsRS1_EC2Ev
                0x00000000        0x0 system_settings.o
 _ZNSt6_RanitISsiPKSsRS0_EC2Ev
                0x00000000        0x0 system_settings.o
 _ZNSt22_Vector_const_iteratorISsSaISsEEC2EPSs
                0x00000000        0x0 system_settings.o
 _ZNSt16_Vector_iteratorISsSaISsEEC1EPSs
                0x00000000        0x0 system_settings.o
 _ZNSt16_Vector_iteratorISsSaISsEEpLEi
                0x00000000        0x0 system_settings.o
 _ZNKSt22_Vector_const_iteratorISsSaISsEEdeEv
                0x00000000        0x0 system_settings.o
 _ZNSs6assignEPKcj
                0x00000000        0x0 system_settings.o
 _ZNSt6vectorISsSaISsEE6_UfillEPSsjRKSs
                0x00000000        0x0 system_settings.o
 _ZNKSs8max_sizeEv
                0x00000000        0x0 system_settings.o
 _ZNSs5_CopyEjj
                0x00000000        0x0 system_settings.o
 _ZNSs6appendEPKc
                0x00000000        0x0 system_settings.o
 _ZNSs6appendERKSsjj
                0x00000000        0x0 system_settings.o
 _ZNSt8iteratorISt26random_access_iterator_taghiPKhRS1_EC2Ev
                0x00000000        0x0 system_settings.o
 _ZNSt6_RanitIhiPKhRS0_EC2Ev
                0x00000000        0x0 system_settings.o
 _ZNSt22_Vector_const_iteratorIhSaIhEEC2EPh
                0x00000000        0x0 system_settings.o
 _ZSt14_Destroy_rangeISsSaISsEEvPT_S2_RT0_
                0x00000000        0x0 system_settings.o
 _ZNKSaISsE8max_sizeEv
                0x00000000        0x0 system_settings.o
 _ZSt9_AllocateISsEPT_jS1_
                0x00000000        0x0 system_settings.o
 _ZNSs7_InsideEPKc
                0x00000000        0x0 system_settings.o
 _ZSt21_Uninitialized_fill_nIPSsjSsSaISsEEvT_T0_RKT1_RT2_
                0x00000000        0x0 system_settings.o
 _ZNKSaIcE8max_sizeEv
                0x00000000        0x0 system_settings.o
 _ZNSaIcE8allocateEj
                0x00000000        0x0 system_settings.o
 _ZNSs6appendEPKcj
                0x00000000        0x0 system_settings.o
 _ZSt8_Ptr_catIPSsS0_ESt27_Nonscalar_ptr_iterator_tagRT_RT0_
                0x00000000        0x0 system_settings.o
 _ZSt14_Destroy_rangeISsSaISsEEvPT_S2_RT0_St27_Nonscalar_ptr_iterator_tag
                0x00000000        0x0 system_settings.o
 _ZNSaISsE9constructEPSsRKSs
                0x00000000        0x0 system_settings.o
 _ZNSaISsE7destroyEPSs
                0x00000000        0x0 system_settings.o
 _ZSt14_Uninit_fill_nIPSsjSsSaISsEEvT_T0_RKT1_RT2_St27_Nonscalar_ptr_iterator_tag
                0x00000000        0x0 system_settings.o
 _ZSt9_AllocateIcEPT_jS1_
                0x00000000        0x0 system_settings.o
 _ZSt10_ConstructISsSsEvPT_RKT0_
                0x00000000        0x0 system_settings.o
 _ZSt8_DestroyISsEvPT_
                0x00000000        0x0 system_settings.o
 _ZTV15system_settings
                0x00000000        0x0 system_settings.o
 _ZTVSt12length_error
                0x00000000        0x0 system_settings.o
 _ZTVSt11logic_error
                0x00000000        0x0 system_settings.o
 _ZTS16spider_exception
                0x00000000        0x0 system_settings.o
 _ZTI16spider_exception
                0x00000000        0x0 system_settings.o
 _ZTS15system_settings
                0x00000000        0x0 system_settings.o
 _ZTI15system_settings
                0x00000000        0x0 system_settings.o
 _ZTSSt12length_error
                0x00000000        0x0 system_settings.o
 _ZTISt12length_error
                0x00000000        0x0 system_settings.o
 _ZTSSt11logic_error
                0x00000000        0x0 system_settings.o
 _ZTISt11logic_error
                0x00000000        0x0 system_settings.o
 .text._ZNSt11char_traitsIcE6assignERcRKc
                0x00000000        0x0 system_settings.o
 .text._ZNSt11char_traitsIcE6lengthEPKc
                0x00000000        0x0 system_settings.o
 .text._ZNSt11char_traitsIcE4copyEPcPKcj
                0x00000000        0x0 system_settings.o
 .text._ZNSt11char_traitsIcE4moveEPcPKcj
                0x00000000        0x0 system_settings.o
 .text._ZNSsC1ERKSs
                0x00000000        0x0 system_settings.o
 .text._ZNSsD1Ev
                0x00000000        0x0 system_settings.o
 .text._ZNKSs5c_strEv
                0x00000000        0x0 system_settings.o
 .text._ZNSsC1EPKc
                0x00000000        0x0 system_settings.o
 .text._ZNSsC1Ev
                0x00000000        0x0 system_settings.o
 .text._ZNKSs4sizeEv
                0x00000000        0x0 system_settings.o
 .text._ZNSs7reserveEj
                0x00000000        0x0 system_settings.o
 .text._ZStplIcSt11char_traitsIcESaIcEESbIT_T0_T1_ERKS6_PKS3_
                0x00000000        0x0 system_settings.o
 .text._ZNSsaSERKSs
                0x00000000        0x0 system_settings.o
 .text._ZNSspLERKSs
                0x00000000        0x0 system_settings.o
 .text._ZNKSt6vectorIhSaIhEE5emptyEv
                0x00000000        0x0 system_settings.o
 .text._ZNSt6vectorIhSaIhEE5beginEv
                0x00000000        0x0 system_settings.o
 .text._ZNSt6vectorIhSaIhEE3endEv
                0x00000000        0x0 system_settings.o
 .text._ZNKSt22_Vector_const_iteratorIhSaIhEEneERKS1_
                0x00000000        0x0 system_settings.o
 .text._ZNSt16_Vector_iteratorIhSaIhEEppEi
                0x00000000        0x0 system_settings.o
 .text._ZNKSt16_Vector_iteratorIhSaIhEEdeEv
                0x00000000        0x0 system_settings.o
 .text._ZNSt15_Allocator_baseIcEC2Ev
                0x00000000        0x0 system_settings.o
 .text._ZNSaIcEC1ERKS_
                0x00000000        0x0 system_settings.o
 .text._ZNSt15_Container_baseC2Ev
                0x00000000        0x0 system_settings.o
 .text._ZNSt12_String_baseC2Ev
                0x00000000        0x0 system_settings.o
 .text._ZNSt11_String_valIcSaIcEEC2ES0_
                0x00000000        0x0 system_settings.o
 .text._ZNSs5_TidyEbj
                0x00000000        0x0 system_settings.o
 .text._ZNSs6assignERKSsjj
                0x00000000        0x0 system_settings.o
 .text._ZNKSs6_MyptrEv
                0x00000000        0x0 system_settings.o
 .text._ZNSaIcEC1Ev
                0x00000000        0x0 system_settings.o
 .text._ZNSs6assignEPKc
                0x00000000        0x0 system_settings.o
 .text._ZNSs5_GrowEjb
                0x00000000        0x0 system_settings.o
 .text._ZNSs4_EosEj
                0x00000000        0x0 system_settings.o
 .text._ZNSspLEPKc
                0x00000000        0x0 system_settings.o
 .text._ZNSs6assignERKSs
                0x00000000        0x0 system_settings.o
 .text._ZNSs6appendERKSs
                0x00000000        0x0 system_settings.o
 .text._ZNKSt6vectorIhSaIhEE4sizeEv
                0x00000000        0x0 system_settings.o
 .text._ZNSt16_Vector_iteratorIhSaIhEEC1EPh
                0x00000000        0x0 system_settings.o
 .text._ZNKSt22_Vector_const_iteratorIhSaIhEEeqERKS1_
                0x00000000        0x0 system_settings.o
 .text._ZNSt16_Vector_iteratorIhSaIhEEppEv
                0x00000000        0x0 system_settings.o
 .text._ZNKSt22_Vector_const_iteratorIhSaIhEEdeEv
                0x00000000        0x0 system_settings.o
 .text._ZNSaIcE10deallocateEPcj
                0x00000000        0x0 system_settings.o
 .text._ZNSs5eraseEjj
                0x00000000        0x0 system_settings.o
 .text._ZNSs6_MyptrEv
                0x00000000        0x0 system_settings.o
 .text._ZNSt14_Iterator_baseC2Ev
                0x00000000        0x0 system_settings.o
 .text._ZNSs6assignEPKcj
                0x00000000        0x0 system_settings.o
 .text._ZNKSs8max_sizeEv
                0x00000000        0x0 system_settings.o
 .text._ZNSs5_CopyEjj
                0x00000000        0x0 system_settings.o
 .text._ZNSs6appendEPKc
                0x00000000        0x0 system_settings.o
 .text._ZNSs6appendERKSsjj
                0x00000000        0x0 system_settings.o
 .text._ZNSt8iteratorISt26random_access_iterator_taghiPKhRS1_EC2Ev
                0x00000000        0x0 system_settings.o
 .text._ZNSt6_RanitIhiPKhRS0_EC2Ev
                0x00000000        0x0 system_settings.o
 .text._ZNSt22_Vector_const_iteratorIhSaIhEEC2EPh
                0x00000000        0x0 system_settings.o
 .text._ZNSs7_InsideEPKc
                0x00000000        0x0 system_settings.o
 .text._ZNKSaIcE8max_sizeEv
                0x00000000        0x0 system_settings.o
 .text._ZNSaIcE8allocateEj
                0x00000000        0x0 system_settings.o
 .text._ZNSs6appendEPKcj
                0x00000000        0x0 system_settings.o
 .text._ZSt9_AllocateIcEPT_jS1_
                0x00000000        0x0 system_settings.o
 _ZNSt7_LockitC1Ei
                0x00000000        0x0 metro_device.o
 _ZNSt7_LockitD1Ev
                0x00000000        0x0 metro_device.o
 _ZNSt9exceptionC2Ev
                0x00000000        0x0 metro_device.o
 _ZnwjPv        0x00000000        0x0 metro_device.o
 _ZNSt11char_traitsIcE6assignERcRKc
                0x00000000        0x0 metro_device.o
 _ZNSt11char_traitsIcE2eqERKcS2_
                0x00000000        0x0 metro_device.o
 _ZNSt11char_traitsIcE6lengthEPKc
                0x00000000        0x0 metro_device.o
 _ZNSt11char_traitsIcE4copyEPcPKcj
                0x00000000        0x0 metro_device.o
 _ZNSt11char_traitsIcE4moveEPcPKcj
                0x00000000        0x0 metro_device.o
 _ZNSt11char_traitsIcE12to_char_typeERKi
                0x00000000        0x0 metro_device.o
 _ZNSt11char_traitsIcE11to_int_typeERKc
                0x00000000        0x0 metro_device.o
 _ZNSt11char_traitsIcE11eq_int_typeERKiS2_
                0x00000000        0x0 metro_device.o
 _ZNSt11char_traitsIcE3eofEv
                0x00000000        0x0 metro_device.o
 _ZNSt11char_traitsIcE7not_eofERKi
                0x00000000        0x0 metro_device.o
 _ZSt8_Ptr_catPhS_
                0x00000000        0x0 metro_device.o
 _ZNSt11logic_errorC2ERKSs
                0x00000000        0x0 metro_device.o
 _ZNSt11logic_errorD2Ev
                0x00000000        0x0 metro_device.o
 _ZNSt11logic_errorD1Ev
                0x00000000        0x0 metro_device.o
 _ZNSt11logic_errorD0Ev
                0x00000000        0x0 metro_device.o
 _ZNKSt11logic_error4whatEv
                0x00000000        0x0 metro_device.o
 _ZNSt12length_errorC1ERKSs
                0x00000000        0x0 metro_device.o
 _ZNSt12length_errorD1Ev
                0x00000000        0x0 metro_device.o
 _ZNSt12length_errorD0Ev
                0x00000000        0x0 metro_device.o
 _ZNSt8bad_castC1Ev
                0x00000000        0x0 metro_device.o
 _ZNKSt8bad_cast4whatEv
                0x00000000        0x0 metro_device.o
 tolower        0x00000000        0x0 metro_device.o
 toupper        0x00000000        0x0 metro_device.o
 _ZNKSt8_Locinfo9_GetctypeEv
                0x00000000        0x0 metro_device.o
 _ZSt8_ToloweriPKSt9_Ctypevec
                0x00000000        0x0 metro_device.o
 _ZSt8_ToupperiPKSt9_Ctypevec
                0x00000000        0x0 metro_device.o
 _ZNSt6locale2idcvjEv
                0x00000000        0x0 metro_device.o
 _ZNSt6locale5facet7_IncrefEv
                0x00000000        0x0 metro_device.o
 _ZNSt6locale5facet7_DecrefEv
                0x00000000        0x0 metro_device.o
 _ZNSt6locale5facetD2Ev
                0x00000000        0x0 metro_device.o
 _ZNSt6locale5facetD1Ev
                0x00000000        0x0 metro_device.o
 _ZNSt6locale5facetD0Ev
                0x00000000        0x0 metro_device.o
 _ZNSt6locale5facetC2Ej
                0x00000000        0x0 metro_device.o
 _ZNSt8_LocbaseIiEC2Ev
                0x00000000        0x0 metro_device.o
 _ZNSt6localeC1ERKS_
                0x00000000        0x0 metro_device.o
 _ZNSt6localeD1Ev
                0x00000000        0x0 metro_device.o
 _ZNSt10ctype_baseC2Ej
                0x00000000        0x0 metro_device.o
 _ZNSt10ctype_baseD2Ev
                0x00000000        0x0 metro_device.o
 _ZNSt10ctype_baseD1Ev
                0x00000000        0x0 metro_device.o
 _ZNSt10ctype_baseD0Ev
                0x00000000        0x0 metro_device.o
 _ZNKSt5ctypeIcE5widenEc
                0x00000000        0x0 metro_device.o
 _ZNSt5ctypeIcEC1EPKsbj
                0x00000000        0x0 metro_device.o
 _ZNSt5ctypeIcE7_GetcatEPPKNSt6locale5facetE
                0x00000000        0x0 metro_device.o
 _ZNSt5ctypeIcED1Ev
                0x00000000        0x0 metro_device.o
 _ZNSt5ctypeIcED0Ev
                0x00000000        0x0 metro_device.o
 _ZNSt5ctypeIcE5_InitERKSt8_Locinfo
                0x00000000        0x0 metro_device.o
 _ZNSt5ctypeIcE5_TidyEv
                0x00000000        0x0 metro_device.o
 _ZNKSt5ctypeIcE10do_tolowerEc
                0x00000000        0x0 metro_device.o
 _ZNKSt5ctypeIcE10do_tolowerEPcPKc
                0x00000000        0x0 metro_device.o
 _ZNKSt5ctypeIcE10do_toupperEc
                0x00000000        0x0 metro_device.o
 _ZNKSt5ctypeIcE10do_toupperEPcPKc
                0x00000000        0x0 metro_device.o
 _ZNKSt5ctypeIcE8do_widenEc
                0x00000000        0x0 metro_device.o
 _ZNKSt5ctypeIcE8do_widenEPKcS2_Pc
                0x00000000        0x0 metro_device.o
 _ZNKSt5ctypeIcE9do_narrowEcc
                0x00000000        0x0 metro_device.o
 _ZNKSt5ctypeIcE9do_narrowEPKcS2_cPc
                0x00000000        0x0 metro_device.o
 _ZNKSt8ios_base7rdstateEv
                0x00000000        0x0 metro_device.o
 _ZNKSt8ios_base4goodEv
                0x00000000        0x0 metro_device.o
 _ZNKSt8ios_base4failEv
                0x00000000        0x0 metro_device.o
 _ZNKSt8ios_base5flagsEv
                0x00000000        0x0 metro_device.o
 _ZNKSt8ios_base5widthEv
                0x00000000        0x0 metro_device.o
 _ZNSt8ios_base5widthEi
                0x00000000        0x0 metro_device.o
 _ZNKSt8ios_base6getlocEv
                0x00000000        0x0 metro_device.o
 _ZNSt5_IosbIiEC2Ev
                0x00000000        0x0 metro_device.o
 _ZNSt8ios_baseC2Ev
                0x00000000        0x0 metro_device.o
 _ZStanNSt5_IosbIiE9_FmtflagsES1_
                0x00000000        0x0 metro_device.o
 _ZStoRRNSt5_IosbIiE8_IostateES1_
                0x00000000        0x0 metro_device.o
 _ZStanNSt5_IosbIiE9_OpenmodeES1_
                0x00000000        0x0 metro_device.o
 _ZStorNSt5_IosbIiE9_OpenmodeES1_
                0x00000000        0x0 metro_device.o
 _ZN12metro_device22metro_device_exceptionC1ESs
                0x00000000        0x0 metro_device.o
 _ZN12metro_device22metro_device_exceptionD1Ev
                0x00000000        0x0 metro_device.o
 _ZNSsC1ERKSs   0x00000000        0x0 metro_device.o
 _ZNSsD1Ev      0x00000000        0x0 metro_device.o
 _ZNKSs5c_strEv
                0x00000000        0x0 metro_device.o
 _ZNSt8bad_castD1Ev
                0x00000000        0x0 metro_device.o
 _ZNSt8bad_castD0Ev
                0x00000000        0x0 metro_device.o
 _ZSt9use_facetISt5ctypeIcEERKT_RKSt6locale
                0x00000000        0x0 metro_device.o
 _ZNSt6vectorIhSaIhEEC1ERKS1_
                0x00000000        0x0 metro_device.o
 _ZNSt6vectorIhSaIhEED1Ev
                0x00000000        0x0 metro_device.o
 _ZNSt6vectorIS_IhSaIhEESaIS1_EED1Ev
                0x00000000        0x0 metro_device.o
 _ZNKSt6vectorIhSaIhEE4sizeEv
                0x00000000        0x0 metro_device.o
 _ZNSt6vectorIhSaIhEEC1Ej
                0x00000000        0x0 metro_device.o
 _ZNSt6vectorIhSaIhEEC1Ev
                0x00000000        0x0 metro_device.o
 _ZNSt6vectorIS_IhSaIhEESaIS1_EEC1Ev
                0x00000000        0x0 metro_device.o
 _ZNSt19basic_ostringstreamIcSt11char_traitsIcESaIcEEC1ENSt5_IosbIiE9_OpenmodeE
                0x00000000        0x0 metro_device.o
 _ZNSt19basic_ostringstreamIcSt11char_traitsIcESaIcEED1Ev
                0x00000000        0x0 metro_device.o
 _ZNSt19basic_ostringstreamIcSt11char_traitsIcESaIcEED0Ev
                0x00000000        0x0 metro_device.o
 _ZStlsISt11char_traitsIcEERSt13basic_ostreamIcT_ES5_PKc
                0x00000000        0x0 metro_device.o
 _ZNKSt19basic_ostringstreamIcSt11char_traitsIcESaIcEE3strEv
                0x00000000        0x0 metro_device.o
 _ZNSt6vectorIhSaIhEE3endEv
                0x00000000        0x0 metro_device.o
 _ZNSt6vectorIhSaIhEE5beginEv
                0x00000000        0x0 metro_device.o
 _ZNSt6vectorIhSaIhEE6insertISt16_Vector_iteratorIhS0_EEEvS4_T_S5_
                0x00000000        0x0 metro_device.o
 _ZSt7advanceISt16_Vector_iteratorIhSaIhEEjEvRT_T0_
                0x00000000        0x0 metro_device.o
 _ZNSt6vectorIhSaIhEE5eraseESt16_Vector_iteratorIhS0_ES3_
                0x00000000        0x0 metro_device.o
 _ZNSt6vectorIhSaIhEE9push_backERKh
                0x00000000        0x0 metro_device.o
 _ZN16program_settings13bytes_of_typeItEESt6vectorIhSaIhEET_b
                0x00000000        0x0 metro_device.o
 _ZNSt15_Allocator_baseIcEC2Ev
                0x00000000        0x0 metro_device.o
 _ZNSaIcEC1ERKS_
                0x00000000        0x0 metro_device.o
 _ZNSt15_Container_baseC2Ev
                0x00000000        0x0 metro_device.o
 _ZNSt12_String_baseC2Ev
                0x00000000        0x0 metro_device.o
 _ZNSt11_String_valIcSaIcEEC2ES0_
                0x00000000        0x0 metro_device.o
 _ZNSs5_TidyEbj
                0x00000000        0x0 metro_device.o
 _ZNSs6assignERKSsjj
                0x00000000        0x0 metro_device.o
 _ZNKSs6_MyptrEv
                0x00000000        0x0 metro_device.o
 _ZNSt6vectorIS_IhSaIhEESaIS1_EE8_DestroyEPS1_S4_
                0x00000000        0x0 metro_device.o
 _ZNSaISt6vectorIhSaIhEEE10deallocateEPS1_j
                0x00000000        0x0 metro_device.o
 _ZNSt6vectorIS_IhSaIhEESaIS1_EE4_BuyEj
                0x00000000        0x0 metro_device.o
 _ZSt4copyIPhS0_ET0_T_S2_S1_
                0x00000000        0x0 metro_device.o
 _ZNSt6vectorIhSaIhEE8_DestroyEPhS2_
                0x00000000        0x0 metro_device.o
 _ZNKSt6vectorIhSaIhEE8capacityEv
                0x00000000        0x0 metro_device.o
 _ZNSt6vectorIhSaIhEE6_UcopyIPhEES3_T_S4_S3_
                0x00000000        0x0 metro_device.o
 _ZNSaIhE10deallocateEPhj
                0x00000000        0x0 metro_device.o
 _ZNSt6vectorIhSaIhEE4_BuyEj
                0x00000000        0x0 metro_device.o
 _ZNSt15_Allocator_baseIhEC2Ev
                0x00000000        0x0 metro_device.o
 _ZNSaIhEC1ERKS_
                0x00000000        0x0 metro_device.o
 _ZNSt11_Vector_valIhSaIhEEC2ES0_
                0x00000000        0x0 metro_device.o
 _ZNKSt6vectorIhSaIhEE5beginEv
                0x00000000        0x0 metro_device.o
 _ZNKSt6vectorIhSaIhEE3endEv
                0x00000000        0x0 metro_device.o
 _ZNSt6vectorIhSaIhEE6_UcopyISt22_Vector_const_iteratorIhS0_EEEPhT_S6_S5_
                0x00000000        0x0 metro_device.o
 _ZNSt6vectorIhSaIhEE5_TidyEv
                0x00000000        0x0 metro_device.o
 _ZNSt15_Allocator_baseISt6vectorIhSaIhEEEC2Ev
                0x00000000        0x0 metro_device.o
 _ZNSaISt6vectorIhSaIhEEEC1ERKS2_
                0x00000000        0x0 metro_device.o
 _ZNSt11_Vector_valISt6vectorIhSaIhEESaIS2_EEC2ES3_
                0x00000000        0x0 metro_device.o
 _ZNSt6vectorIS_IhSaIhEESaIS1_EE5_TidyEv
                0x00000000        0x0 metro_device.o
 _ZNSaIhEC1Ev   0x00000000        0x0 metro_device.o
 _ZNSt6vectorIhSaIhEE12_Construct_nEjRKh
                0x00000000        0x0 metro_device.o
 _ZNSaISt6vectorIhSaIhEEEC1Ev
                0x00000000        0x0 metro_device.o
 _ZNSt9basic_iosIcSt11char_traitsIcEEC2Ev
                0x00000000        0x0 metro_device.o
 _ZNSt9basic_iosIcSt11char_traitsIcEED2Ev
                0x00000000        0x0 metro_device.o
 _ZNSt9basic_iosIcSt11char_traitsIcEED1Ev
                0x00000000        0x0 metro_device.o
 _ZNSt9basic_iosIcSt11char_traitsIcEED0Ev
                0x00000000        0x0 metro_device.o
 _ZNSoC2EPSt15basic_streambufIcSt11char_traitsIcEEb
                0x00000000        0x0 metro_device.o
 _ZNSoD2Ev      0x00000000        0x0 metro_device.o
 _ZNSoD1Ev      0x00000000        0x0 metro_device.o
 _ZNSoD0Ev      0x00000000        0x0 metro_device.o
 _ZNSt15basic_stringbufIcSt11char_traitsIcESaIcEEC1ENSt5_IosbIiE9_OpenmodeE
                0x00000000        0x0 metro_device.o
 _ZNSt15basic_stringbufIcSt11char_traitsIcESaIcEED1Ev
                0x00000000        0x0 metro_device.o
 _ZNSt15basic_stringbufIcSt11char_traitsIcESaIcEED0Ev
                0x00000000        0x0 metro_device.o
 _ZNSo6sentryC1ERSo
                0x00000000        0x0 metro_device.o
 _ZNSo6sentryD1Ev
                0x00000000        0x0 metro_device.o
 _ZNKSo6sentrycvbEv
                0x00000000        0x0 metro_device.o
 _ZNKSt9basic_iosIcSt11char_traitsIcEE5rdbufEv
                0x00000000        0x0 metro_device.o
 _ZNKSt9basic_iosIcSt11char_traitsIcEE4fillEv
                0x00000000        0x0 metro_device.o
 _ZNSt15basic_streambufIcSt11char_traitsIcEE5sputcEc
                0x00000000        0x0 metro_device.o
 _ZNSt15basic_streambufIcSt11char_traitsIcEE5sputnEPKci
                0x00000000        0x0 metro_device.o
 _ZNSt9basic_iosIcSt11char_traitsIcEE8setstateENSt5_IosbIiE8_IostateEb
                0x00000000        0x0 metro_device.o
 _ZNKSt15basic_stringbufIcSt11char_traitsIcESaIcEE3strEv
                0x00000000        0x0 metro_device.o
 _ZNSt16_Vector_iteratorIhSaIhEEC1EPh
                0x00000000        0x0 metro_device.o
 _ZSt9_Iter_catISt16_Vector_iteratorIhSaIhEEENSt15iterator_traitsIT_E17iterator_categoryERKS4_
                0x00000000        0x0 metro_device.o
 _ZNSt6vectorIhSaIhEE7_InsertISt16_Vector_iteratorIhS0_EEEvS4_T_S5_St20forward_iterator_tag
                0x00000000        0x0 metro_device.o
 _ZSt8_AdvanceISt16_Vector_iteratorIhSaIhEEjEvRT_T0_St26random_access_iterator_tag
                0x00000000        0x0 metro_device.o
 _ZNKSt22_Vector_const_iteratorIhSaIhEEneERKS1_
                0x00000000        0x0 metro_device.o
 _ZNSt6vectorIhSaIhEE6_UfillEPhjRKh
                0x00000000        0x0 metro_device.o
 _ZNSt6vectorIhSaIhEE6insertESt16_Vector_iteratorIhS0_ERKh
                0x00000000        0x0 metro_device.o
 _ZNSt6vectorIhSaIhEEixEj
                0x00000000        0x0 metro_device.o
 _ZNSaIcE10deallocateEPcj
                0x00000000        0x0 metro_device.o
 _ZNSs4_EosEj   0x00000000        0x0 metro_device.o
 _ZNKSs4sizeEv  0x00000000        0x0 metro_device.o
 _ZNSs5eraseEjj
                0x00000000        0x0 metro_device.o
 _ZNSs5_GrowEjb
                0x00000000        0x0 metro_device.o
 _ZNSs6_MyptrEv
                0x00000000        0x0 metro_device.o
 _ZSt8_Ptr_catIPSt6vectorIhSaIhEES3_ESt27_Nonscalar_ptr_iterator_tagRT_RT0_
                0x00000000        0x0 metro_device.o
 _ZSt14_Destroy_rangeISt6vectorIhSaIhEESaIS2_EEvPT_S5_RT0_
                0x00000000        0x0 metro_device.o
 _ZNKSt6vectorIS_IhSaIhEESaIS1_EE8max_sizeEv
                0x00000000        0x0 metro_device.o
 _ZNKSt6vectorIS_IhSaIhEESaIS1_EE5_XlenEv
                0x00000000        0x0 metro_device.o
 _ZNSaISt6vectorIhSaIhEEE8allocateEj
                0x00000000        0x0 metro_device.o
 _ZSt9_Copy_optIPhS0_ET0_T_S2_S1_St24_Scalar_ptr_iterator_tag
                0x00000000        0x0 metro_device.o
 _ZSt14_Destroy_rangeIhSaIhEEvPT_S2_RT0_
                0x00000000        0x0 metro_device.o
 _ZSt19_Uninitialized_copyIPhS0_SaIhEET0_T_S3_S2_RT1_
                0x00000000        0x0 metro_device.o
 _ZNKSt6vectorIhSaIhEE8max_sizeEv
                0x00000000        0x0 metro_device.o
 _ZNKSt6vectorIhSaIhEE5_XlenEv
                0x00000000        0x0 metro_device.o
 _ZNSaIhE8allocateEj
                0x00000000        0x0 metro_device.o
 _ZNSt14_Iterator_baseC2Ev
                0x00000000        0x0 metro_device.o
 _ZNSt8iteratorISt26random_access_iterator_taghiPKhRS1_EC2Ev
                0x00000000        0x0 metro_device.o
 _ZNSt6_RanitIhiPKhRS0_EC2Ev
                0x00000000        0x0 metro_device.o
 _ZNSt22_Vector_const_iteratorIhSaIhEEC2EPh
                0x00000000        0x0 metro_device.o
 _ZNSt22_Vector_const_iteratorIhSaIhEEC1EPh
                0x00000000        0x0 metro_device.o
 _ZSt19_Uninitialized_copyISt22_Vector_const_iteratorIhSaIhEEPhS1_ET0_T_S5_S4_RT1_
                0x00000000        0x0 metro_device.o
 _ZNSt9basic_iosIcSt11char_traitsIcEE4initEPSt15basic_streambufIcS1_Eb
                0x00000000        0x0 metro_device.o
 _ZNSt15basic_streambufIcSt11char_traitsIcEEC2Ev
                0x00000000        0x0 metro_device.o
 _ZNSt15basic_streambufIcSt11char_traitsIcEED2Ev
                0x00000000        0x0 metro_device.o
 _ZNSt15basic_streambufIcSt11char_traitsIcEED1Ev
                0x00000000        0x0 metro_device.o
 _ZNSt15basic_streambufIcSt11char_traitsIcEED0Ev
                0x00000000        0x0 metro_device.o
 _ZNSaIcEC1Ev   0x00000000        0x0 metro_device.o
 _ZNSt15basic_stringbufIcSt11char_traitsIcESaIcEE5_InitEPKcji
                0x00000000        0x0 metro_device.o
 _ZNSt15basic_stringbufIcSt11char_traitsIcESaIcEE9_GetstateENSt5_IosbIiE9_OpenmodeE
                0x00000000        0x0 metro_device.o
 _ZNSt15basic_stringbufIcSt11char_traitsIcESaIcEE5_TidyEv
                0x00000000        0x0 metro_device.o
 _ZNSo12_Sentry_baseC2ERSo
                0x00000000        0x0 metro_device.o
 _ZNSo12_Sentry_baseD2Ev
                0x00000000        0x0 metro_device.o
 _ZNKSt9basic_iosIcSt11char_traitsIcEE3tieEv
                0x00000000        0x0 metro_device.o
 _ZNSo5flushEv  0x00000000        0x0 metro_device.o
 _ZNSo5_OsfxEv  0x00000000        0x0 metro_device.o
 _ZNSt15basic_streambufIcSt11char_traitsIcEE8overflowEi
                0x00000000        0x0 metro_device.o
 _ZNSt15basic_streambufIcSt11char_traitsIcEE6_PnincEv
                0x00000000        0x0 metro_device.o
 _ZNKSt15basic_streambufIcSt11char_traitsIcEE8_PnavailEv
                0x00000000        0x0 metro_device.o
 _ZNSt15basic_streambufIcSt11char_traitsIcEE6xsputnEPKci
                0x00000000        0x0 metro_device.o
 _ZNSt9basic_iosIcSt11char_traitsIcEE5clearENSt5_IosbIiE8_IostateEb
                0x00000000        0x0 metro_device.o
 _ZNKSt15basic_streambufIcSt11char_traitsIcEE4pptrEv
                0x00000000        0x0 metro_device.o
 _ZNKSt15basic_streambufIcSt11char_traitsIcEE5pbaseEv
                0x00000000        0x0 metro_device.o
 _ZNSsC1EPKcj   0x00000000        0x0 metro_device.o
 _ZNKSt15basic_streambufIcSt11char_traitsIcEE4gptrEv
                0x00000000        0x0 metro_device.o
 _ZNKSt15basic_streambufIcSt11char_traitsIcEE5ebackEv
                0x00000000        0x0 metro_device.o
 _ZNKSt15basic_streambufIcSt11char_traitsIcEE5egptrEv
                0x00000000        0x0 metro_device.o
 _ZNSsC1Ev      0x00000000        0x0 metro_device.o
 _ZSt9_DistanceISt16_Vector_iteratorIhSaIhEEjEvT_S3_RT0_
                0x00000000        0x0 metro_device.o
 _ZNSt6vectorIhSaIhEE6_UcopyISt16_Vector_iteratorIhS0_EEEPhT_S6_S5_
                0x00000000        0x0 metro_device.o
 _ZNKSt16_Vector_iteratorIhSaIhEEmiERKSt22_Vector_const_iteratorIhS0_E
                0x00000000        0x0 metro_device.o
 _ZSt7advanceISt16_Vector_iteratorIhSaIhEEiEvRT_T0_
                0x00000000        0x0 metro_device.o
 _ZSt4copyISt16_Vector_iteratorIhSaIhEEPhET0_T_S5_S4_
                0x00000000        0x0 metro_device.o
 _ZSt13copy_backwardIPhS0_ET0_T_S2_S1_
                0x00000000        0x0 metro_device.o
 _ZNSt16_Vector_iteratorIhSaIhEEpLEi
                0x00000000        0x0 metro_device.o
 _ZNKSt22_Vector_const_iteratorIhSaIhEEeqERKS1_
                0x00000000        0x0 metro_device.o
 _ZSt21_Uninitialized_fill_nIPhjhSaIhEEvT_T0_RKT1_RT2_
                0x00000000        0x0 metro_device.o
 _ZNSt6vectorIhSaIhEE9_Insert_nESt16_Vector_iteratorIhS0_EjRKh
                0x00000000        0x0 metro_device.o
 _ZNKSt16_Vector_iteratorIhSaIhEEplEi
                0x00000000        0x0 metro_device.o
 _ZNKSt16_Vector_iteratorIhSaIhEEdeEv
                0x00000000        0x0 metro_device.o
 _ZNKSs8max_sizeEv
                0x00000000        0x0 metro_device.o
 _ZNSs5_CopyEjj
                0x00000000        0x0 metro_device.o
 _ZSt14_Destroy_rangeISt6vectorIhSaIhEESaIS2_EEvPT_S5_RT0_St27_Nonscalar_ptr_iterator_tag
                0x00000000        0x0 metro_device.o
 _ZNKSaISt6vectorIhSaIhEEE8max_sizeEv
                0x00000000        0x0 metro_device.o
 _ZNSsC1EPKc    0x00000000        0x0 metro_device.o
 _ZSt9_AllocateISt6vectorIhSaIhEEEPT_jS4_
                0x00000000        0x0 metro_device.o
 _ZSt14_Destroy_rangeIhSaIhEEvPT_S2_RT0_St24_Scalar_ptr_iterator_tag
                0x00000000        0x0 metro_device.o
 _ZSt12_Uninit_copyIhhEPT0_PT_S3_S1_RSaIS0_ESt24_Scalar_ptr_iterator_tag
                0x00000000        0x0 metro_device.o
 _ZNKSaIhE8max_sizeEv
                0x00000000        0x0 metro_device.o
 _ZSt9_AllocateIhEPT_jS1_
                0x00000000        0x0 metro_device.o
 _ZSt8_Ptr_catISt22_Vector_const_iteratorIhSaIhEEPhESt27_Nonscalar_ptr_iterator_tagRT_RT0_
                0x00000000        0x0 metro_device.o
 _ZSt12_Uninit_copyISt22_Vector_const_iteratorIhSaIhEEPhS1_ET0_T_S5_S4_RT1_St27_Nonscalar_ptr_iterator_tag
                0x00000000        0x0 metro_device.o
 _ZNKSt9basic_iosIcSt11char_traitsIcEE5widenEc
                0x00000000        0x0 metro_device.o
 _ZNSt15basic_streambufIcSt11char_traitsIcEE5_InitEv
                0x00000000        0x0 metro_device.o
 _ZNSaIcE8allocateEj
                0x00000000        0x0 metro_device.o
 _ZNSt15basic_streambufIcSt11char_traitsIcEE4setgEPcS3_S3_
                0x00000000        0x0 metro_device.o
 _ZNSt15basic_streambufIcSt11char_traitsIcEE4setpEPcS3_
                0x00000000        0x0 metro_device.o
 _ZNKSt15basic_streambufIcSt11char_traitsIcEE5epptrEv
                0x00000000        0x0 metro_device.o
 _ZNSt15basic_streambufIcSt11char_traitsIcEE5_LockEv
                0x00000000        0x0 metro_device.o
 _ZNSt15basic_streambufIcSt11char_traitsIcEE7_UnlockEv
                0x00000000        0x0 metro_device.o
 _ZNSt15basic_streambufIcSt11char_traitsIcEE7pubsyncEv
                0x00000000        0x0 metro_device.o
 _ZNSt15basic_streambufIcSt11char_traitsIcEE5pbumpEi
                0x00000000        0x0 metro_device.o
 _ZNSs6assignEPKcj
                0x00000000        0x0 metro_device.o
 _ZSt10_Distance2ISt16_Vector_iteratorIhSaIhEEjEvT_S3_RT0_St26random_access_iterator_tag
                0x00000000        0x0 metro_device.o
 _ZSt19_Uninitialized_copyISt16_Vector_iteratorIhSaIhEEPhS1_ET0_T_S5_S4_RT1_
                0x00000000        0x0 metro_device.o
 _ZNKSt22_Vector_const_iteratorIhSaIhEEmiERKS1_
                0x00000000        0x0 metro_device.o
 _ZSt8_AdvanceISt16_Vector_iteratorIhSaIhEEiEvRT_T0_St26random_access_iterator_tag
                0x00000000        0x0 metro_device.o
 _ZSt8_Ptr_catISt16_Vector_iteratorIhSaIhEEPhESt27_Nonscalar_ptr_iterator_tagRT_RT0_
                0x00000000        0x0 metro_device.o
 _ZSt9_Copy_optISt16_Vector_iteratorIhSaIhEEPhET0_T_S5_S4_St27_Nonscalar_ptr_iterator_tag
                0x00000000        0x0 metro_device.o
 _ZSt18_Copy_backward_optIPhS0_ET0_T_S2_S1_St24_Scalar_ptr_iterator_tag
                0x00000000        0x0 metro_device.o
 _ZSt14_Uninit_fill_nIhjhEvPT_T0_RKT1_RSaIS0_ESt24_Scalar_ptr_iterator_tag
                0x00000000        0x0 metro_device.o
 _ZSt4fillIPhhEvT_S1_RKT0_
                0x00000000        0x0 metro_device.o
 _ZNKSt22_Vector_const_iteratorIhSaIhEEdeEv
                0x00000000        0x0 metro_device.o
 _ZNKSaIcE8max_sizeEv
                0x00000000        0x0 metro_device.o
 _ZNSaISt6vectorIhSaIhEEE7destroyEPS1_
                0x00000000        0x0 metro_device.o
 _ZNSs6assignEPKc
                0x00000000        0x0 metro_device.o
 _ZNSt22_Vector_const_iteratorIhSaIhEEppEv
                0x00000000        0x0 metro_device.o
 _ZNSaIhE9constructEPhRKh
                0x00000000        0x0 metro_device.o
 _ZNSaIhE7destroyEPh
                0x00000000        0x0 metro_device.o
 _ZSt9_AllocateIcEPT_jS1_
                0x00000000        0x0 metro_device.o
 _ZNSt15basic_streambufIcSt11char_traitsIcEE4syncEv
                0x00000000        0x0 metro_device.o
 _ZNSs7_InsideEPKc
                0x00000000        0x0 metro_device.o
 _ZSt12_Uninit_copyISt16_Vector_iteratorIhSaIhEEPhS1_ET0_T_S5_S4_RT1_St27_Nonscalar_ptr_iterator_tag
                0x00000000        0x0 metro_device.o
 _ZNSt16_Vector_iteratorIhSaIhEEppEv
                0x00000000        0x0 metro_device.o
 _ZSt6fill_nIPhjhEvT_T0_RKT1_
                0x00000000        0x0 metro_device.o
 _ZSt8_DestroyISt6vectorIhSaIhEEEvPT_
                0x00000000        0x0 metro_device.o
 _ZSt10_ConstructIhhEvPT_RKT0_
                0x00000000        0x0 metro_device.o
 _ZSt8_DestroyIhEvPT_
                0x00000000        0x0 metro_device.o
 _ZTV12metro_device
                0x00000000        0x0 metro_device.o
 _ZTVSt19basic_ostringstreamIcSt11char_traitsIcESaIcEE
                0x00000000        0x0 metro_device.o
 _ZTVSt15basic_stringbufIcSt11char_traitsIcESaIcEE
                0x00000000        0x0 metro_device.o
 _ZTVSt15basic_streambufIcSt11char_traitsIcEE
                0x00000000        0x0 metro_device.o
 _ZTVSo         0x00000000        0x0 metro_device.o
 _ZTVSt9basic_iosIcSt11char_traitsIcEE
                0x00000000        0x0 metro_device.o
 _ZTVSt5ctypeIcE
                0x00000000        0x0 metro_device.o
 _ZTVSt10ctype_base
                0x00000000        0x0 metro_device.o
 _ZTVNSt6locale5facetE
                0x00000000        0x0 metro_device.o
 _ZTVSt8bad_cast
                0x00000000        0x0 metro_device.o
 _ZTVSt12length_error
                0x00000000        0x0 metro_device.o
 _ZTVSt11logic_error
                0x00000000        0x0 metro_device.o
 _ZTSN12metro_device22metro_device_exceptionE
                0x00000000        0x0 metro_device.o
 _ZTIN12metro_device22metro_device_exceptionE
                0x00000000        0x0 metro_device.o
 _ZTSSt19basic_ostringstreamIcSt11char_traitsIcESaIcEE
                0x00000000        0x0 metro_device.o
 _ZTISt19basic_ostringstreamIcSt11char_traitsIcESaIcEE
                0x00000000        0x0 metro_device.o
 _ZTSSt15basic_stringbufIcSt11char_traitsIcESaIcEE
                0x00000000        0x0 metro_device.o
 _ZTISt15basic_stringbufIcSt11char_traitsIcESaIcEE
                0x00000000        0x0 metro_device.o
 _ZTSSt15basic_streambufIcSt11char_traitsIcEE
                0x00000000        0x0 metro_device.o
 _ZTISt15basic_streambufIcSt11char_traitsIcEE
                0x00000000        0x0 metro_device.o
 _ZTSSo         0x00000000        0x0 metro_device.o
 _ZTISo         0x00000000        0x0 metro_device.o
 _ZTSSt9basic_iosIcSt11char_traitsIcEE
                0x00000000        0x0 metro_device.o
 _ZTISt9basic_iosIcSt11char_traitsIcEE
                0x00000000        0x0 metro_device.o
 _ZTI12metro_device
                0x00000000        0x0 metro_device.o
 _ZTS12metro_device
                0x00000000        0x0 metro_device.o
 _ZTSSt5ctypeIcE
                0x00000000        0x0 metro_device.o
 _ZTISt5ctypeIcE
                0x00000000        0x0 metro_device.o
 _ZTSSt10ctype_base
                0x00000000        0x0 metro_device.o
 _ZTISt10ctype_base
                0x00000000        0x0 metro_device.o
 _ZTSNSt6locale5facetE
                0x00000000        0x0 metro_device.o
 _ZTINSt6locale5facetE
                0x00000000        0x0 metro_device.o
 _ZTSSt8bad_cast
                0x00000000        0x0 metro_device.o
 _ZTISt8bad_cast
                0x00000000        0x0 metro_device.o
 _ZTSSt12length_error
                0x00000000        0x0 metro_device.o
 _ZTISt12length_error
                0x00000000        0x0 metro_device.o
 _ZTSSt11logic_error
                0x00000000        0x0 metro_device.o
 _ZTISt11logic_error
                0x00000000        0x0 metro_device.o
 _ZNSt9_FacetptrISt5ctypeIcEE6_PsaveE
                0x00000000        0x0 metro_device.o
 _ZNSt15basic_stringbufIcSt11char_traitsIcESaIcEE8overflowEi
                0x00000000        0x0 metro_device.o
 _ZNSt15basic_stringbufIcSt11char_traitsIcESaIcEE9pbackfailEi
                0x00000000        0x0 metro_device.o
 _ZNSt15basic_streambufIcSt11char_traitsIcEE9showmanycEv
                0x00000000        0x0 metro_device.o
 _ZNSt15basic_stringbufIcSt11char_traitsIcESaIcEE9underflowEv
                0x00000000        0x0 metro_device.o
 _ZNSt15basic_streambufIcSt11char_traitsIcEE5uflowEv
                0x00000000        0x0 metro_device.o
 _ZNSt15basic_streambufIcSt11char_traitsIcEE6xsgetnEPci
                0x00000000        0x0 metro_device.o
 _ZNSt15basic_stringbufIcSt11char_traitsIcESaIcEE7seekoffElNSt5_IosbIiE8_SeekdirENS5_9_OpenmodeE
                0x00000000        0x0 metro_device.o
 _ZNSt15basic_stringbufIcSt11char_traitsIcESaIcEE7seekposESt4fposI9_MbstatetENSt5_IosbIiE9_OpenmodeE
                0x00000000        0x0 metro_device.o
 _ZNSt15basic_streambufIcSt11char_traitsIcEE6setbufEPci
                0x00000000        0x0 metro_device.o
 _ZNSt15basic_streambufIcSt11char_traitsIcEE5imbueERKSt6locale
                0x00000000        0x0 metro_device.o
 _ZNSt15basic_streambufIcSt11char_traitsIcEE9pbackfailEi
                0x00000000        0x0 metro_device.o
 _ZNSt15basic_streambufIcSt11char_traitsIcEE9underflowEv
                0x00000000        0x0 metro_device.o
 _ZNSt15basic_streambufIcSt11char_traitsIcEE7seekoffElNSt5_IosbIiE8_SeekdirENS4_9_OpenmodeE
                0x00000000        0x0 metro_device.o
 _ZNSt15basic_streambufIcSt11char_traitsIcEE7seekposESt4fposI9_MbstatetENSt5_IosbIiE9_OpenmodeE
                0x00000000        0x0 metro_device.o
 _ZNSt15basic_streambufIcSt11char_traitsIcEE4setpEPcS3_S3_
                0x00000000        0x0 metro_device.o
 _ZNSt15basic_streambufIcSt11char_traitsIcEE5gbumpEi
                0x00000000        0x0 metro_device.o
 _ZNSt15basic_streambufIcSt11char_traitsIcEE6_GnincEv
                0x00000000        0x0 metro_device.o
 _ZNKSt15basic_streambufIcSt11char_traitsIcEE8_GnavailEv
                0x00000000        0x0 metro_device.o
 _ZNSt4fposI9_MbstatetEC1El
                0x00000000        0x0 metro_device.o
 _ZNKSt4fposI9_MbstatetEcvlEv
                0x00000000        0x0 metro_device.o
 _ZNSt4fposI9_MbstatetE4_StzE
                0x00000000        0x0 metro_device.o
 .text._ZNSt9exceptionC2Ev
                0x00000000        0x0 metro_device.o
 .text._ZnwjPv  0x00000000        0x0 metro_device.o
 .text._ZNSt11char_traitsIcE6assignERcRKc
                0x00000000        0x0 metro_device.o
 .text._ZNSt11char_traitsIcE6lengthEPKc
                0x00000000        0x0 metro_device.o
 .text._ZNSt11char_traitsIcE4copyEPcPKcj
                0x00000000        0x0 metro_device.o
 .text._ZNSt11char_traitsIcE4moveEPcPKcj
                0x00000000        0x0 metro_device.o
 .text._ZNSt11logic_errorC2ERKSs
                0x00000000        0x0 metro_device.o
 .text._ZNSt11logic_errorD2Ev
                0x00000000        0x0 metro_device.o
 .text._ZNSt11logic_errorD1Ev
                0x00000000        0x0 metro_device.o
 .text._ZNSt11logic_errorD0Ev
                0x00000000        0x0 metro_device.o
 .text._ZNKSt11logic_error4whatEv
                0x00000000        0x0 metro_device.o
 .text._ZNSt12length_errorC1ERKSs
                0x00000000        0x0 metro_device.o
 .text._ZNSt12length_errorD1Ev
                0x00000000        0x0 metro_device.o
 .text._ZNSt12length_errorD0Ev
                0x00000000        0x0 metro_device.o
 .text._ZNSsC1ERKSs
                0x00000000        0x0 metro_device.o
 .text._ZNSsD1Ev
                0x00000000        0x0 metro_device.o
 .text._ZNKSs5c_strEv
                0x00000000        0x0 metro_device.o
 .text._ZNKSt6vectorIhSaIhEE4sizeEv
                0x00000000        0x0 metro_device.o
 .text._ZNSt6vectorIhSaIhEE3endEv
                0x00000000        0x0 metro_device.o
 .text._ZNSt6vectorIhSaIhEE5beginEv
                0x00000000        0x0 metro_device.o
 .text._ZNSt15_Allocator_baseIcEC2Ev
                0x00000000        0x0 metro_device.o
 .text._ZNSaIcEC1ERKS_
                0x00000000        0x0 metro_device.o
 .text._ZNSt15_Container_baseC2Ev
                0x00000000        0x0 metro_device.o
 .text._ZNSt12_String_baseC2Ev
                0x00000000        0x0 metro_device.o
 .text._ZNSt11_String_valIcSaIcEEC2ES0_
                0x00000000        0x0 metro_device.o
 .text._ZNSs5_TidyEbj
                0x00000000        0x0 metro_device.o
 .text._ZNSs6assignERKSsjj
                0x00000000        0x0 metro_device.o
 .text._ZNKSs6_MyptrEv
                0x00000000        0x0 metro_device.o
 .text._ZNSt16_Vector_iteratorIhSaIhEEC1EPh
                0x00000000        0x0 metro_device.o
 .text._ZNKSt22_Vector_const_iteratorIhSaIhEEneERKS1_
                0x00000000        0x0 metro_device.o
 .text._ZNSaIcE10deallocateEPcj
                0x00000000        0x0 metro_device.o
 .text._ZNSs4_EosEj
                0x00000000        0x0 metro_device.o
 .text._ZNKSs4sizeEv
                0x00000000        0x0 metro_device.o
 .text._ZNSs5eraseEjj
                0x00000000        0x0 metro_device.o
 .text._ZNSs5_GrowEjb
                0x00000000        0x0 metro_device.o
 .text._ZNSs6_MyptrEv
                0x00000000        0x0 metro_device.o
 .text._ZNSt14_Iterator_baseC2Ev
                0x00000000        0x0 metro_device.o
 .text._ZNSt8iteratorISt26random_access_iterator_taghiPKhRS1_EC2Ev
                0x00000000        0x0 metro_device.o
 .text._ZNSt6_RanitIhiPKhRS0_EC2Ev
                0x00000000        0x0 metro_device.o
 .text._ZNSt22_Vector_const_iteratorIhSaIhEEC2EPh
                0x00000000        0x0 metro_device.o
 .text._ZNSaIcEC1Ev
                0x00000000        0x0 metro_device.o
 .text._ZNSsC1Ev
                0x00000000        0x0 metro_device.o
 .text._ZNKSt22_Vector_const_iteratorIhSaIhEEeqERKS1_
                0x00000000        0x0 metro_device.o
 .text._ZNKSt16_Vector_iteratorIhSaIhEEdeEv
                0x00000000        0x0 metro_device.o
 .text._ZNKSs8max_sizeEv
                0x00000000        0x0 metro_device.o
 .text._ZNSs5_CopyEjj
                0x00000000        0x0 metro_device.o
 .text._ZNSsC1EPKc
                0x00000000        0x0 metro_device.o
 .text._ZNSaIcE8allocateEj
                0x00000000        0x0 metro_device.o
 .text._ZNSs6assignEPKcj
                0x00000000        0x0 metro_device.o
 .text._ZNKSt22_Vector_const_iteratorIhSaIhEEdeEv
                0x00000000        0x0 metro_device.o
 .text._ZNKSaIcE8max_sizeEv
                0x00000000        0x0 metro_device.o
 .text._ZNSs6assignEPKc
                0x00000000        0x0 metro_device.o
 .text._ZSt9_AllocateIcEPT_jS1_
                0x00000000        0x0 metro_device.o
 .text._ZNSs7_InsideEPKc
                0x00000000        0x0 metro_device.o
 .text._ZNSt16_Vector_iteratorIhSaIhEEppEv
                0x00000000        0x0 metro_device.o
 .rodata._ZTVSt12length_error
                0x00000000        0x0 metro_device.o
 .rodata._ZTVSt11logic_error
                0x00000000        0x0 metro_device.o
 .rodata._ZTSSt12length_error
                0x00000000        0x0 metro_device.o
 .rodata._ZTISt12length_error
                0x00000000        0x0 metro_device.o
 .rodata._ZTSSt11logic_error
                0x00000000        0x0 metro_device.o
 .rodata._ZTISt11logic_error
                0x00000000        0x0 metro_device.o
 _ZNSt7_LockitC1Ei
                0x00000000        0x0 main.o
 _ZNSt7_LockitD1Ev
                0x00000000        0x0 main.o
 _ZNSt9exceptionC2Ev
                0x00000000        0x0 main.o
 _ZnwjPv        0x00000000        0x0 main.o
 _ZNSt11char_traitsIcE6assignERcRKc
                0x00000000        0x0 main.o
 _ZNSt11char_traitsIcE2eqERKcS2_
                0x00000000        0x0 main.o
 _ZNSt11char_traitsIcE7compareEPKcS2_j
                0x00000000        0x0 main.o
 _ZNSt11char_traitsIcE6lengthEPKc
                0x00000000        0x0 main.o
 _ZNSt11char_traitsIcE4copyEPcPKcj
                0x00000000        0x0 main.o
 _ZNSt11char_traitsIcE4findEPKcjRS1_
                0x00000000        0x0 main.o
 _ZNSt11char_traitsIcE4moveEPcPKcj
                0x00000000        0x0 main.o
 _ZNSt11char_traitsIcE6assignEPcjc
                0x00000000        0x0 main.o
 _ZNSt11char_traitsIcE12to_char_typeERKi
                0x00000000        0x0 main.o
 _ZNSt11char_traitsIcE11to_int_typeERKc
                0x00000000        0x0 main.o
 _ZNSt11char_traitsIcE11eq_int_typeERKiS2_
                0x00000000        0x0 main.o
 _ZNSt11char_traitsIcE3eofEv
                0x00000000        0x0 main.o
 _ZNSt11char_traitsIcE7not_eofERKi
                0x00000000        0x0 main.o
 _ZSt8_Ptr_catPcS_
                0x00000000        0x0 main.o
 _ZSt8_Ptr_catPhS_
                0x00000000        0x0 main.o
 _ZNSt11logic_errorC2ERKSs
                0x00000000        0x0 main.o
 _ZNSt11logic_errorD2Ev
                0x00000000        0x0 main.o
 _ZNSt11logic_errorD1Ev
                0x00000000        0x0 main.o
 _ZNSt11logic_errorD0Ev
                0x00000000        0x0 main.o
 _ZNKSt11logic_error4whatEv
                0x00000000        0x0 main.o
 _ZNSt12length_errorC1ERKSs
                0x00000000        0x0 main.o
 _ZNSt12length_errorD1Ev
                0x00000000        0x0 main.o
 _ZNSt12length_errorD0Ev
                0x00000000        0x0 main.o
 _ZNSt8bad_castC1Ev
                0x00000000        0x0 main.o
 _ZNKSt8bad_cast4whatEv
                0x00000000        0x0 main.o
 tolower        0x00000000        0x0 main.o
 toupper        0x00000000        0x0 main.o
 localeconv     0x00000000        0x0 main.o
 _ZNKSt8_Locinfo9_GetctypeEv
                0x00000000        0x0 main.o
 _ZNKSt8_Locinfo7_GetcvtEv
                0x00000000        0x0 main.o
 _ZNKSt8_Locinfo9_GetlconvEv
                0x00000000        0x0 main.o
 _ZNKSt8_Locinfo9_GetfalseEv
                0x00000000        0x0 main.o
 _ZNKSt8_Locinfo8_GettrueEv
                0x00000000        0x0 main.o
 _ZSt8_ToloweriPKSt9_Ctypevec
                0x00000000        0x0 main.o
 _ZSt8_ToupperiPKSt9_Ctypevec
                0x00000000        0x0 main.o
 _ZNSt6locale2idC1Ej
                0x00000000        0x0 main.o
 _ZNSt6locale2idcvjEv
                0x00000000        0x0 main.o
 _ZNSt6locale5facet7_IncrefEv
                0x00000000        0x0 main.o
 _ZNSt6locale5facet7_DecrefEv
                0x00000000        0x0 main.o
 _ZNSt6locale5facetD2Ev
                0x00000000        0x0 main.o
 _ZNSt6locale5facetD1Ev
                0x00000000        0x0 main.o
 _ZNSt6locale5facetD0Ev
                0x00000000        0x0 main.o
 _ZNSt6locale5facetC2Ej
                0x00000000        0x0 main.o
 _ZNSt8_LocbaseIiEC2Ev
                0x00000000        0x0 main.o
 _ZNSt6localeC1ERKS_
                0x00000000        0x0 main.o
 _ZNSt6localeD1Ev
                0x00000000        0x0 main.o
 _ZNSt12codecvt_baseC2Ej
                0x00000000        0x0 main.o
 _ZNKSt12codecvt_base13always_noconvEv
                0x00000000        0x0 main.o
 _ZNSt12codecvt_baseD2Ev
                0x00000000        0x0 main.o
 _ZNSt12codecvt_baseD1Ev
                0x00000000        0x0 main.o
 _ZNSt12codecvt_baseD0Ev
                0x00000000        0x0 main.o
 _ZNKSt12codecvt_base16do_always_noconvEv
                0x00000000        0x0 main.o
 _ZNKSt12codecvt_base13do_max_lengthEv
                0x00000000        0x0 main.o
 _ZNKSt12codecvt_base11do_encodingEv
                0x00000000        0x0 main.o
 _ZNSt10ctype_baseC2Ej
                0x00000000        0x0 main.o
 _ZNSt10ctype_baseD2Ev
                0x00000000        0x0 main.o
 _ZNSt10ctype_baseD1Ev
                0x00000000        0x0 main.o
 _ZNSt10ctype_baseD0Ev
                0x00000000        0x0 main.o
 _ZNKSt5ctypeIcE2isEsc
                0x00000000        0x0 main.o
 _ZNKSt5ctypeIcE5widenEc
                0x00000000        0x0 main.o
 _ZNSt5ctypeIcEC1EPKsbj
                0x00000000        0x0 main.o
 _ZNSt5ctypeIcE7_GetcatEPPKNSt6locale5facetE
                0x00000000        0x0 main.o
 _ZNSt5ctypeIcED1Ev
                0x00000000        0x0 main.o
 _ZNSt5ctypeIcED0Ev
                0x00000000        0x0 main.o
 _ZNSt5ctypeIcE5_InitERKSt8_Locinfo
                0x00000000        0x0 main.o
 _ZNSt5ctypeIcE5_TidyEv
                0x00000000        0x0 main.o
 _ZNKSt5ctypeIcE10do_tolowerEc
                0x00000000        0x0 main.o
 _ZNKSt5ctypeIcE10do_tolowerEPcPKc
                0x00000000        0x0 main.o
 _ZNKSt5ctypeIcE10do_toupperEc
                0x00000000        0x0 main.o
 _ZNKSt5ctypeIcE10do_toupperEPcPKc
                0x00000000        0x0 main.o
 _ZNKSt5ctypeIcE8do_widenEc
                0x00000000        0x0 main.o
 _ZNKSt5ctypeIcE8do_widenEPKcS2_Pc
                0x00000000        0x0 main.o
 _ZNKSt5ctypeIcE9do_narrowEcc
                0x00000000        0x0 main.o
 _ZNKSt5ctypeIcE9do_narrowEPKcS2_cPc
                0x00000000        0x0 main.o
 _ZNKSt8ios_basecvPvEv
                0x00000000        0x0 main.o
 _ZNKSt8ios_base7rdstateEv
                0x00000000        0x0 main.o
 _ZNKSt8ios_base4goodEv
                0x00000000        0x0 main.o
 _ZNKSt8ios_base4failEv
                0x00000000        0x0 main.o
 _ZNKSt8ios_base5flagsEv
                0x00000000        0x0 main.o
 _ZNSt8ios_base4setfENSt5_IosbIiE9_FmtflagsES2_
                0x00000000        0x0 main.o
 _ZNKSt8ios_base9precisionEv
                0x00000000        0x0 main.o
 _ZNKSt8ios_base5widthEv
                0x00000000        0x0 main.o
 _ZNSt8ios_base5widthEi
                0x00000000        0x0 main.o
 _ZNKSt8ios_base6getlocEv
                0x00000000        0x0 main.o
 _ZNSt5_IosbIiEC2Ev
                0x00000000        0x0 main.o
 _ZNSt8ios_baseC2Ev
                0x00000000        0x0 main.o
 _ZStaNRNSt5_IosbIiE9_FmtflagsES1_
                0x00000000        0x0 main.o
 _ZStanNSt5_IosbIiE9_FmtflagsES1_
                0x00000000        0x0 main.o
 _ZStoRRNSt5_IosbIiE8_IostateES1_
                0x00000000        0x0 main.o
 _ZStanNSt5_IosbIiE9_OpenmodeES1_
                0x00000000        0x0 main.o
 _ZStorNSt5_IosbIiE9_OpenmodeES1_
                0x00000000        0x0 main.o
 _ZSt3hexRSt8ios_base
                0x00000000        0x0 main.o
 _ZSt6_FgetcIcEbRT_P6_Filet
                0x00000000        0x0 main.o
 _ZSt6_FputcIcEbT_P6_Filet
                0x00000000        0x0 main.o
 _ZSt7_UngetcIcEbRKT_P6_Filet
                0x00000000        0x0 main.o
 _ZN17comport_exceptionC1ESs
                0x00000000        0x0 main.o
 _ZN17comport_exception15get_descriptionEv
                0x00000000        0x0 main.o
 _ZN17comport_exceptionD1Ev
                0x00000000        0x0 main.o
 _ZN17comport_exceptionC1ERKS_
                0x00000000        0x0 main.o
 _ZNSsC1ERKSs   0x00000000        0x0 main.o
 _ZNSsD1Ev      0x00000000        0x0 main.o
 _ZNKSs5c_strEv
                0x00000000        0x0 main.o
 _ZNSt8bad_castD1Ev
                0x00000000        0x0 main.o
 _ZNSt8bad_castD0Ev
                0x00000000        0x0 main.o
 _ZSt9use_facetISt5ctypeIcEERKT_RKSt6locale
                0x00000000        0x0 main.o
 _ZNSt6vectorIhSaIhEEaSERKS1_
                0x00000000        0x0 main.o
 _ZNSt6vectorIhSaIhEEC1ERKS1_
                0x00000000        0x0 main.o
 _ZNSt6vectorIhSaIhEED1Ev
                0x00000000        0x0 main.o
 _ZNKSt6vectorIhSaIhEE4sizeEv
                0x00000000        0x0 main.o
 _ZNSt6vectorIhSaIhEEC1Ev
                0x00000000        0x0 main.o
 _ZNSt19basic_ostringstreamIcSt11char_traitsIcESaIcEEC1ENSt5_IosbIiE9_OpenmodeE
                0x00000000        0x0 main.o
 _ZNSt19basic_ostringstreamIcSt11char_traitsIcESaIcEED1Ev
                0x00000000        0x0 main.o
 _ZNSt19basic_ostringstreamIcSt11char_traitsIcESaIcEED0Ev
                0x00000000        0x0 main.o
 _ZStlsISt11char_traitsIcEERSt13basic_ostreamIcT_ES5_PKc
                0x00000000        0x0 main.o
 _ZNSt6vectorIcSaIcEEC1Ej
                0x00000000        0x0 main.o
 _ZNSt6vectorIcSaIcEED1Ev
                0x00000000        0x0 main.o
 _ZNSt6vectorIcSaIcEEixEj
                0x00000000        0x0 main.o
 _ZNKSt19basic_ostringstreamIcSt11char_traitsIcESaIcEE3strEv
                0x00000000        0x0 main.o
 _ZNSt14basic_ifstreamIcSt11char_traitsIcEEC1EPKcNSt5_IosbIiE9_OpenmodeEi
                0x00000000        0x0 main.o
 _ZNSt14basic_ifstreamIcSt11char_traitsIcEED1Ev
                0x00000000        0x0 main.o
 _ZNSt14basic_ifstreamIcSt11char_traitsIcEED0Ev
                0x00000000        0x0 main.o
 _ZNKSt14basic_ifstreamIcSt11char_traitsIcEE7is_openEv
                0x00000000        0x0 main.o
 _ZNSsC1Ev      0x00000000        0x0 main.o
 _ZSt7getlineIcSt11char_traitsIcESaIcEERSt13basic_istreamIT_T0_ES7_RSbIS4_S5_T1_E
                0x00000000        0x0 main.o
 _ZNKSs17find_first_not_ofEPKcj
                0x00000000        0x0 main.o
 _ZNKSs16find_last_not_ofEPKcj
                0x00000000        0x0 main.o
 _ZNKSs6substrEjj
                0x00000000        0x0 main.o
 _ZNKSs5emptyEv
                0x00000000        0x0 main.o
 _ZNSsixEj      0x00000000        0x0 main.o
 _ZNKSs6lengthEv
                0x00000000        0x0 main.o
 _ZSteqIcSt11char_traitsIcESaIcEEbRKSbIT_T0_T1_EPKS3_
                0x00000000        0x0 main.o
 _ZNSt19basic_istringstreamIcSt11char_traitsIcESaIcEEC1ERKSsNSt5_IosbIiE9_OpenmodeE
                0x00000000        0x0 main.o
 _ZNSt19basic_istringstreamIcSt11char_traitsIcESaIcEED1Ev
                0x00000000        0x0 main.o
 _ZNSt19basic_istringstreamIcSt11char_traitsIcESaIcEED0Ev
                0x00000000        0x0 main.o
 _ZNSirsEPFRSt8ios_baseS0_E
                0x00000000        0x0 main.o
 _ZNSi6sentryD1Ev
                0x00000000        0x0 main.o
 _ZNSirsERj     0x00000000        0x0 main.o
 _ZNSt6vectorIhSaIhEE9push_backERKh
                0x00000000        0x0 main.o
 _ZNSt14basic_ifstreamIcSt11char_traitsIcEE5closeEv
                0x00000000        0x0 main.o
 _ZNSt6vectorIhSaIhEE5clearEv
                0x00000000        0x0 main.o
 _ZNSolsEi      0x00000000        0x0 main.o
 _ZSt3minIiERKT_S2_S2_
                0x00000000        0x0 main.o
 _ZNSt6vectorIhSaIhEEixEj
                0x00000000        0x0 main.o
 _ZNSt6vectorIhSaIhEE6resizeEj
                0x00000000        0x0 main.o
 _ZNSsC1EPKc    0x00000000        0x0 main.o
 _ZStplIcSt11char_traitsIcESaIcEESbIT_T0_T1_ERKS6_S8_
                0x00000000        0x0 main.o
 _ZNSt16_Vector_iteratorIhSaIhEEC1Ev
                0x00000000        0x0 main.o
 _ZNSt6vectorIhSaIhEE5beginEv
                0x00000000        0x0 main.o
 _ZSt7advanceISt16_Vector_iteratorIhSaIhEEjEvRT_T0_
                0x00000000        0x0 main.o
 _ZNSt6vectorIhSaIhEEC1ISt16_Vector_iteratorIhS0_EEET_S5_
                0x00000000        0x0 main.o
 _ZN16program_settings13bytes_of_typeItEESt6vectorIhSaIhEET_b
                0x00000000        0x0 main.o
 _ZSt4endlIcSt11char_traitsIcEERSt13basic_ostreamIT_T0_ES6_
                0x00000000        0x0 main.o
 _ZNSolsEPFRSoS_E
                0x00000000        0x0 main.o
 _ZNKSt6vectorIhSaIhEE5emptyEv
                0x00000000        0x0 main.o
 _ZNSt6vectorIhSaIhEE3endEv
                0x00000000        0x0 main.o
 _ZNSt6vectorIhSaIhEE6insertISt16_Vector_iteratorIhS0_EEEvS4_T_S5_
                0x00000000        0x0 main.o
 _ZNSspLERKSs   0x00000000        0x0 main.o
 _ZNSspLEPKc    0x00000000        0x0 main.o
 _ZNSt15_Allocator_baseIcEC2Ev
                0x00000000        0x0 main.o
 _ZNSaIcEC1ERKS_
                0x00000000        0x0 main.o
 _ZNSt15_Container_baseC2Ev
                0x00000000        0x0 main.o
 _ZNSt12_String_baseC2Ev
                0x00000000        0x0 main.o
 _ZNSt11_String_valIcSaIcEEC2ES0_
                0x00000000        0x0 main.o
 _ZNSs5_TidyEbj
                0x00000000        0x0 main.o
 _ZNSs6assignERKSsjj
                0x00000000        0x0 main.o
 _ZNKSs6_MyptrEv
                0x00000000        0x0 main.o
 _ZSt4copyIPhS0_ET0_T_S2_S1_
                0x00000000        0x0 main.o
 _ZNSt6vectorIhSaIhEE8_DestroyEPhS2_
                0x00000000        0x0 main.o
 _ZNKSt6vectorIhSaIhEE8capacityEv
                0x00000000        0x0 main.o
 _ZNSt6vectorIhSaIhEE6_UcopyIPhEES3_T_S4_S3_
                0x00000000        0x0 main.o
 _ZNSaIhE10deallocateEPhj
                0x00000000        0x0 main.o
 _ZNSt6vectorIhSaIhEE4_BuyEj
                0x00000000        0x0 main.o
 _ZNSt15_Allocator_baseIhEC2Ev
                0x00000000        0x0 main.o
 _ZNSaIhEC1ERKS_
                0x00000000        0x0 main.o
 _ZNSt11_Vector_valIhSaIhEEC2ES0_
                0x00000000        0x0 main.o
 _ZNKSt6vectorIhSaIhEE5beginEv
                0x00000000        0x0 main.o
 _ZNKSt6vectorIhSaIhEE3endEv
                0x00000000        0x0 main.o
 _ZNSt6vectorIhSaIhEE6_UcopyISt22_Vector_const_iteratorIhS0_EEEPhT_S6_S5_
                0x00000000        0x0 main.o
 _ZNSt6vectorIhSaIhEE5_TidyEv
                0x00000000        0x0 main.o
 _ZNSaIhEC1Ev   0x00000000        0x0 main.o
 _ZNSt9basic_iosIcSt11char_traitsIcEEC2Ev
                0x00000000        0x0 main.o
 _ZNSt9basic_iosIcSt11char_traitsIcEED2Ev
                0x00000000        0x0 main.o
 _ZNSt9basic_iosIcSt11char_traitsIcEED1Ev
                0x00000000        0x0 main.o
 _ZNSt9basic_iosIcSt11char_traitsIcEED0Ev
                0x00000000        0x0 main.o
 _ZNSoC2EPSt15basic_streambufIcSt11char_traitsIcEEb
                0x00000000        0x0 main.o
 _ZNSoD2Ev      0x00000000        0x0 main.o
 _ZNSoD1Ev      0x00000000        0x0 main.o
 _ZNSoD0Ev      0x00000000        0x0 main.o
 _ZNSt15basic_stringbufIcSt11char_traitsIcESaIcEEC1ENSt5_IosbIiE9_OpenmodeE
                0x00000000        0x0 main.o
 _ZNSt15basic_stringbufIcSt11char_traitsIcESaIcEED1Ev
                0x00000000        0x0 main.o
 _ZNSt15basic_stringbufIcSt11char_traitsIcESaIcEED0Ev
                0x00000000        0x0 main.o
 _ZNSo6sentryC1ERSo
                0x00000000        0x0 main.o
 _ZNSo6sentryD1Ev
                0x00000000        0x0 main.o
 _ZNKSo6sentrycvbEv
                0x00000000        0x0 main.o
 _ZNKSt9basic_iosIcSt11char_traitsIcEE5rdbufEv
                0x00000000        0x0 main.o
 _ZNKSt9basic_iosIcSt11char_traitsIcEE4fillEv
                0x00000000        0x0 main.o
 _ZNSt15basic_streambufIcSt11char_traitsIcEE5sputcEc
                0x00000000        0x0 main.o
 _ZNSt15basic_streambufIcSt11char_traitsIcEE5sputnEPKci
                0x00000000        0x0 main.o
 _ZNSt9basic_iosIcSt11char_traitsIcEE8setstateENSt5_IosbIiE8_IostateEb
                0x00000000        0x0 main.o
 _ZNSaIcEC1Ev   0x00000000        0x0 main.o
 _ZNSt11_Vector_valIcSaIcEEC2ES0_
                0x00000000        0x0 main.o
 _ZNSt6vectorIcSaIcEE12_Construct_nEjRKc
                0x00000000        0x0 main.o
 _ZNSt6vectorIcSaIcEE5_TidyEv
                0x00000000        0x0 main.o
 _ZNSt6vectorIcSaIcEE5beginEv
                0x00000000        0x0 main.o
 _ZNKSt16_Vector_iteratorIcSaIcEEplEi
                0x00000000        0x0 main.o
 _ZNKSt16_Vector_iteratorIcSaIcEEdeEv
                0x00000000        0x0 main.o
 _ZNKSt15basic_stringbufIcSt11char_traitsIcESaIcEE3strEv
                0x00000000        0x0 main.o
 _ZNSiC2EPSt15basic_streambufIcSt11char_traitsIcEEbb
                0x00000000        0x0 main.o
 _ZNSiD2Ev      0x00000000        0x0 main.o
 _ZNSiD1Ev      0x00000000        0x0 main.o
 _ZNSiD0Ev      0x00000000        0x0 main.o
 _ZNSt13basic_filebufIcSt11char_traitsIcEEC1EP6_Filet
                0x00000000        0x0 main.o
 _ZNSt13basic_filebufIcSt11char_traitsIcEED1Ev
                0x00000000        0x0 main.o
 _ZNSt13basic_filebufIcSt11char_traitsIcEED0Ev
                0x00000000        0x0 main.o
 _ZNSt13basic_filebufIcSt11char_traitsIcEE4openEPKcNSt5_IosbIiE9_OpenmodeEi
                0x00000000        0x0 main.o
 _ZNKSt13basic_filebufIcSt11char_traitsIcEE7is_openEv
                0x00000000        0x0 main.o
 _ZNKSt9basic_iosIcSt11char_traitsIcEE5widenEc
                0x00000000        0x0 main.o
 _ZSt7getlineIcSt11char_traitsIcESaIcEERSt13basic_istreamIT_T0_ES7_RSbIS4_S5_T1_ES4_
                0x00000000        0x0 main.o
 _ZNKSs17find_first_not_ofEPKcjj
                0x00000000        0x0 main.o
 _ZNKSs16find_last_not_ofEPKcjj
                0x00000000        0x0 main.o
 _ZNSsC1ERKSsjj
                0x00000000        0x0 main.o
 _ZNSs6_MyptrEv
                0x00000000        0x0 main.o
 _ZNKSs7compareEPKc
                0x00000000        0x0 main.o
 _ZNSt15basic_stringbufIcSt11char_traitsIcESaIcEEC1ERKSsNSt5_IosbIiE9_OpenmodeE
                0x00000000        0x0 main.o
 _ZNSi6sentryC1ERSib
                0x00000000        0x0 main.o
 _ZNSi12_Sentry_baseD2Ev
                0x00000000        0x0 main.o
 _ZNKSi6sentrycvbEv
                0x00000000        0x0 main.o
 _ZSt9use_facetISt7num_getIcSt19istreambuf_iteratorIcSt11char_traitsIcEEEERKT_RKSt6locale
                0x00000000        0x0 main.o
 _ZNSt14_Iterator_baseC2Ev
                0x00000000        0x0 main.o
 _ZNSt8iteratorISt18input_iterator_tagclPcRcEC2Ev
                0x00000000        0x0 main.o
 _ZNSt19istreambuf_iteratorIcSt11char_traitsIcEEC1EPSt15basic_streambufIcS1_E
                0x00000000        0x0 main.o
 _ZNKSt7num_getIcSt19istreambuf_iteratorIcSt11char_traitsIcEEE3getES3_S3_RSt8ios_baseRNSt5_IosbIiE8_IostateERj
                0x00000000        0x0 main.o
 _ZNSt6vectorIhSaIhEE6_UfillEPhjRKh
                0x00000000        0x0 main.o
 _ZNSt6vectorIhSaIhEE6insertESt16_Vector_iteratorIhS0_ERKh
                0x00000000        0x0 main.o
 _ZNSt13basic_filebufIcSt11char_traitsIcEE5closeEv
                0x00000000        0x0 main.o
 _ZSt9use_facetISt7num_putIcSt19ostreambuf_iteratorIcSt11char_traitsIcEEEERKT_RKSt6locale
                0x00000000        0x0 main.o
 _ZNSt8iteratorISt19output_iterator_tagvvvvEC2Ev
                0x00000000        0x0 main.o
 _ZNSt6_OutitC2Ev
                0x00000000        0x0 main.o
 _ZNSt19ostreambuf_iteratorIcSt11char_traitsIcEEC1EPSt15basic_streambufIcS1_E
                0x00000000        0x0 main.o
 _ZNKSt7num_putIcSt19ostreambuf_iteratorIcSt11char_traitsIcEEE3putES3_RSt8ios_basecl
                0x00000000        0x0 main.o
 _ZNKSt19ostreambuf_iteratorIcSt11char_traitsIcEE6failedEv
                0x00000000        0x0 main.o
 _ZNKSt16_Vector_iteratorIhSaIhEEplEi
                0x00000000        0x0 main.o
 _ZNKSt16_Vector_iteratorIhSaIhEEdeEv
                0x00000000        0x0 main.o
 _ZNSt6vectorIhSaIhEE6resizeEjh
                0x00000000        0x0 main.o
 _ZNSs6assignEPKc
                0x00000000        0x0 main.o
 _ZNSt8iteratorISt26random_access_iterator_taghiPKhRS1_EC2Ev
                0x00000000        0x0 main.o
 _ZNSt6_RanitIhiPKhRS0_EC2Ev
                0x00000000        0x0 main.o
 _ZNSt22_Vector_const_iteratorIhSaIhEEC2Ev
                0x00000000        0x0 main.o
 _ZNSt16_Vector_iteratorIhSaIhEEC1EPh
                0x00000000        0x0 main.o
 _ZSt9_Iter_catISt16_Vector_iteratorIhSaIhEEENSt15iterator_traitsIT_E17iterator_categoryERKS4_
                0x00000000        0x0 main.o
 _ZSt8_AdvanceISt16_Vector_iteratorIhSaIhEEjEvRT_T0_St26random_access_iterator_tag
                0x00000000        0x0 main.o
 _ZNSt6vectorIhSaIhEE10_ConstructISt16_Vector_iteratorIhS0_EEEvT_S5_St18input_iterator_tag
                0x00000000        0x0 main.o
 _ZNSt6vectorIhSaIhEEC1Ej
                0x00000000        0x0 main.o
 _ZNSo3putEc    0x00000000        0x0 main.o
 _ZNSo5flushEv  0x00000000        0x0 main.o
 _ZNSt6vectorIhSaIhEE7_InsertISt16_Vector_iteratorIhS0_EEEvS4_T_S5_St20forward_iterator_tag
                0x00000000        0x0 main.o
 _ZNSs6appendERKSs
                0x00000000        0x0 main.o
 _ZNSs6appendEPKc
                0x00000000        0x0 main.o
 _ZNSaIcE10deallocateEPcj
                0x00000000        0x0 main.o
 _ZNSs4_EosEj   0x00000000        0x0 main.o
 _ZNKSs4sizeEv  0x00000000        0x0 main.o
 _ZNSs5eraseEjj
                0x00000000        0x0 main.o
 _ZNSs5_GrowEjb
                0x00000000        0x0 main.o
 _ZSt9_Copy_optIPhS0_ET0_T_S2_S1_St24_Scalar_ptr_iterator_tag
                0x00000000        0x0 main.o
 _ZSt14_Destroy_rangeIhSaIhEEvPT_S2_RT0_
                0x00000000        0x0 main.o
 _ZSt19_Uninitialized_copyIPhS0_SaIhEET0_T_S3_S2_RT1_
                0x00000000        0x0 main.o
 _ZNKSt6vectorIhSaIhEE8max_sizeEv
                0x00000000        0x0 main.o
 _ZNKSt6vectorIhSaIhEE5_XlenEv
                0x00000000        0x0 main.o
 _ZNSaIhE8allocateEj
                0x00000000        0x0 main.o
 _ZNSt22_Vector_const_iteratorIhSaIhEEC2EPh
                0x00000000        0x0 main.o
 _ZNSt22_Vector_const_iteratorIhSaIhEEC1EPh
                0x00000000        0x0 main.o
 _ZSt19_Uninitialized_copyISt22_Vector_const_iteratorIhSaIhEEPhS1_ET0_T_S5_S4_RT1_
                0x00000000        0x0 main.o
 _ZNSt9basic_iosIcSt11char_traitsIcEE4initEPSt15basic_streambufIcS1_Eb
                0x00000000        0x0 main.o
 _ZNSt15basic_streambufIcSt11char_traitsIcEEC2Ev
                0x00000000        0x0 main.o
 _ZNSt15basic_streambufIcSt11char_traitsIcEED2Ev
                0x00000000        0x0 main.o
 _ZNSt15basic_streambufIcSt11char_traitsIcEED1Ev
                0x00000000        0x0 main.o
 _ZNSt15basic_streambufIcSt11char_traitsIcEED0Ev
                0x00000000        0x0 main.o
 _ZNSt15basic_stringbufIcSt11char_traitsIcESaIcEE5_InitEPKcji
                0x00000000        0x0 main.o
 _ZNSt15basic_stringbufIcSt11char_traitsIcESaIcEE9_GetstateENSt5_IosbIiE9_OpenmodeE
                0x00000000        0x0 main.o
 _ZNSt15basic_stringbufIcSt11char_traitsIcESaIcEE5_TidyEv
                0x00000000        0x0 main.o
 _ZNSo12_Sentry_baseC2ERSo
                0x00000000        0x0 main.o
 _ZNSo12_Sentry_baseD2Ev
                0x00000000        0x0 main.o
 _ZNKSt9basic_iosIcSt11char_traitsIcEE3tieEv
                0x00000000        0x0 main.o
 _ZNSo5_OsfxEv  0x00000000        0x0 main.o
 _ZNSt15basic_streambufIcSt11char_traitsIcEE8overflowEi
                0x00000000        0x0 main.o
 _ZNSt15basic_streambufIcSt11char_traitsIcEE6_PnincEv
                0x00000000        0x0 main.o
 _ZNKSt15basic_streambufIcSt11char_traitsIcEE8_PnavailEv
                0x00000000        0x0 main.o
 _ZNSt15basic_streambufIcSt11char_traitsIcEE6xsputnEPKci
                0x00000000        0x0 main.o
 _ZNSt9basic_iosIcSt11char_traitsIcEE5clearENSt5_IosbIiE8_IostateEb
                0x00000000        0x0 main.o
 _ZNSt6vectorIcSaIcEE4_BuyEj
                0x00000000        0x0 main.o
 _ZNSt6vectorIcSaIcEE6_UfillEPcjRKc
                0x00000000        0x0 main.o
 _ZNSt6vectorIcSaIcEE8_DestroyEPcS2_
                0x00000000        0x0 main.o
 _ZNSt16_Vector_iteratorIcSaIcEEC1EPc
                0x00000000        0x0 main.o
 _ZNSt16_Vector_iteratorIcSaIcEEpLEi
                0x00000000        0x0 main.o
 _ZNKSt22_Vector_const_iteratorIcSaIcEEdeEv
                0x00000000        0x0 main.o
 _ZNKSt15basic_streambufIcSt11char_traitsIcEE4pptrEv
                0x00000000        0x0 main.o
 _ZNKSt15basic_streambufIcSt11char_traitsIcEE5pbaseEv
                0x00000000        0x0 main.o
 _ZNSsC1EPKcj   0x00000000        0x0 main.o
 _ZNKSt15basic_streambufIcSt11char_traitsIcEE4gptrEv
                0x00000000        0x0 main.o
 _ZNKSt15basic_streambufIcSt11char_traitsIcEE5ebackEv
                0x00000000        0x0 main.o
 _ZNKSt15basic_streambufIcSt11char_traitsIcEE5egptrEv
                0x00000000        0x0 main.o
 _ZNSt13basic_filebufIcSt11char_traitsIcEE5_InitEP6_FiletNS2_7_InitflE
                0x00000000        0x0 main.o
 _ZNSt13basic_filebufIcSt11char_traitsIcEE8_InitcvtEPSt7codecvtIcc9_MbstatetE
                0x00000000        0x0 main.o
 _ZNKSt15basic_streambufIcSt11char_traitsIcEE6getlocEv
                0x00000000        0x0 main.o
 _ZSt9use_facetISt7codecvtIcc9_MbstatetEERKT_RKSt6locale
                0x00000000        0x0 main.o
 _ZNSt15basic_streambufIcSt11char_traitsIcEE5sgetcEv
                0x00000000        0x0 main.o
 _ZNSt15basic_streambufIcSt11char_traitsIcEE6snextcEv
                0x00000000        0x0 main.o
 _ZNSt15basic_streambufIcSt11char_traitsIcEE6sbumpcEv
                0x00000000        0x0 main.o
 _ZNKSs8max_sizeEv
                0x00000000        0x0 main.o
 _ZNSspLEc      0x00000000        0x0 main.o
 _ZNKSs7compareEjjPKcj
                0x00000000        0x0 main.o
 _ZNSi12_Sentry_baseC2ERSi
                0x00000000        0x0 main.o
 _ZNSi5_IpfxEb  0x00000000        0x0 main.o
 _ZNSt15basic_streambufIcSt11char_traitsIcEE7_UnlockEv
                0x00000000        0x0 main.o
 _ZNSt7num_getIcSt19istreambuf_iteratorIcSt11char_traitsIcEEE7_GetcatEPPKNSt6locale5facetE
                0x00000000        0x0 main.o
 _ZNKSt7num_getIcSt19istreambuf_iteratorIcSt11char_traitsIcEEE6do_getES3_S3_RSt8ios_baseRNSt5_IosbIiE8_IostateERj
                0x00000000        0x0 main.o
 _ZSt21_Uninitialized_fill_nIPhjhSaIhEEvT_T0_RKT1_RT2_
                0x00000000        0x0 main.o
 _ZNKSt16_Vector_iteratorIhSaIhEEmiERKSt22_Vector_const_iteratorIhS0_E
                0x00000000        0x0 main.o
 _ZNSt6vectorIhSaIhEE9_Insert_nESt16_Vector_iteratorIhS0_EjRKh
                0x00000000        0x0 main.o
 _ZNSt13basic_filebufIcSt11char_traitsIcEE9_EndwriteEv
                0x00000000        0x0 main.o
 _ZNSt7num_putIcSt19ostreambuf_iteratorIcSt11char_traitsIcEEE7_GetcatEPPKNSt6locale5facetE
                0x00000000        0x0 main.o
 _ZNKSt7num_putIcSt19ostreambuf_iteratorIcSt11char_traitsIcEEE6do_putES3_RSt8ios_basecl
                0x00000000        0x0 main.o
 _ZNSt16_Vector_iteratorIhSaIhEEpLEi
                0x00000000        0x0 main.o
 _ZNKSt22_Vector_const_iteratorIhSaIhEEdeEv
                0x00000000        0x0 main.o
 _ZNSt6vectorIhSaIhEE5eraseESt16_Vector_iteratorIhS0_ES3_
                0x00000000        0x0 main.o
 _ZNSs6assignEPKcj
                0x00000000        0x0 main.o
 _ZNSt6vectorIhSaIhEE12_Construct_nEjRKh
                0x00000000        0x0 main.o
 _ZNSt15basic_streambufIcSt11char_traitsIcEE7pubsyncEv
                0x00000000        0x0 main.o
 _ZSt9_DistanceISt16_Vector_iteratorIhSaIhEEjEvT_S3_RT0_
                0x00000000        0x0 main.o
 _ZNSt6vectorIhSaIhEE6_UcopyISt16_Vector_iteratorIhS0_EEEPhT_S6_S5_
                0x00000000        0x0 main.o
 _ZSt7advanceISt16_Vector_iteratorIhSaIhEEiEvRT_T0_
                0x00000000        0x0 main.o
 _ZSt4copyISt16_Vector_iteratorIhSaIhEEPhET0_T_S5_S4_
                0x00000000        0x0 main.o
 _ZSt13copy_backwardIPhS0_ET0_T_S2_S1_
                0x00000000        0x0 main.o
 _ZNSs6appendERKSsjj
                0x00000000        0x0 main.o
 _ZNSs6appendEPKcj
                0x00000000        0x0 main.o
 _ZNSs5_CopyEjj
                0x00000000        0x0 main.o
 _ZSt14_Destroy_rangeIhSaIhEEvPT_S2_RT0_St24_Scalar_ptr_iterator_tag
                0x00000000        0x0 main.o
 _ZSt12_Uninit_copyIhhEPT0_PT_S3_S1_RSaIS0_ESt24_Scalar_ptr_iterator_tag
                0x00000000        0x0 main.o
 _ZNKSaIhE8max_sizeEv
                0x00000000        0x0 main.o
 _ZSt9_AllocateIhEPT_jS1_
                0x00000000        0x0 main.o
 _ZSt8_Ptr_catISt22_Vector_const_iteratorIhSaIhEEPhESt27_Nonscalar_ptr_iterator_tagRT_RT0_
                0x00000000        0x0 main.o
 _ZSt12_Uninit_copyISt22_Vector_const_iteratorIhSaIhEEPhS1_ET0_T_S5_S4_RT1_St27_Nonscalar_ptr_iterator_tag
                0x00000000        0x0 main.o
 _ZNSt15basic_streambufIcSt11char_traitsIcEE5_InitEv
                0x00000000        0x0 main.o
 _ZNSaIcE8allocateEj
                0x00000000        0x0 main.o
 _ZNSt15basic_streambufIcSt11char_traitsIcEE4setgEPcS3_S3_
                0x00000000        0x0 main.o
 _ZNSt15basic_streambufIcSt11char_traitsIcEE4setpEPcS3_
                0x00000000        0x0 main.o
 _ZNKSt15basic_streambufIcSt11char_traitsIcEE5epptrEv
                0x00000000        0x0 main.o
 _ZNSt15basic_streambufIcSt11char_traitsIcEE5_LockEv
                0x00000000        0x0 main.o
 _ZNSt15basic_streambufIcSt11char_traitsIcEE5pbumpEi
                0x00000000        0x0 main.o
 _ZNKSt6vectorIcSaIcEE8max_sizeEv
                0x00000000        0x0 main.o
 _ZNKSt6vectorIcSaIcEE5_XlenEv
                0x00000000        0x0 main.o
 _ZSt21_Uninitialized_fill_nIPcjcSaIcEEvT_T0_RKT1_RT2_
                0x00000000        0x0 main.o
 _ZSt14_Destroy_rangeIcSaIcEEvPT_S2_RT0_
                0x00000000        0x0 main.o
 _ZNSt8iteratorISt26random_access_iterator_tagciPKcRS1_EC2Ev
                0x00000000        0x0 main.o
 _ZNSt6_RanitIciPKcRS0_EC2Ev
                0x00000000        0x0 main.o
 _ZNSt22_Vector_const_iteratorIcSaIcEEC2EPc
                0x00000000        0x0 main.o
 _ZNSt15basic_streambufIcSt11char_traitsIcEE5_InitEPPcS4_S4_S4_S4_S4_
                0x00000000        0x0 main.o
 _ZNSt7codecvtIcc9_MbstatetE7_GetcatEPPKNSt6locale5facetE
                0x00000000        0x0 main.o
 _ZNSt15basic_streambufIcSt11char_traitsIcEE9underflowEv
                0x00000000        0x0 main.o
 _ZNKSt15basic_streambufIcSt11char_traitsIcEE8_GnavailEv
                0x00000000        0x0 main.o
 _ZNSt15basic_streambufIcSt11char_traitsIcEE9_GnpreincEv
                0x00000000        0x0 main.o
 _ZNSt15basic_streambufIcSt11char_traitsIcEE5uflowEv
                0x00000000        0x0 main.o
 _ZNSt15basic_streambufIcSt11char_traitsIcEE6_GnincEv
                0x00000000        0x0 main.o
 _ZNKSaIcE8max_sizeEv
                0x00000000        0x0 main.o
 _ZNSs6appendEjc
                0x00000000        0x0 main.o
 _ZNSt7num_getIcSt19istreambuf_iteratorIcSt11char_traitsIcEEEC1Ej
                0x00000000        0x0 main.o
 _ZNKSt7num_getIcSt19istreambuf_iteratorIcSt11char_traitsIcEEE8_GetifldEPcRS3_S6_NSt5_IosbIiE9_FmtflagsERKSt6locale
                0x00000000        0x0 main.o
 _ZSteqIcSt11char_traitsIcEEbRKSt19istreambuf_iteratorIT_T0_ES7_
                0x00000000        0x0 main.o
 _ZSt14_Uninit_fill_nIhjhEvPT_T0_RKT1_RSaIS0_ESt24_Scalar_ptr_iterator_tag
                0x00000000        0x0 main.o
 _ZNKSt22_Vector_const_iteratorIhSaIhEEmiERKS1_
                0x00000000        0x0 main.o
 _ZSt4fillIPhhEvT_S1_RKT0_
                0x00000000        0x0 main.o
 _ZNSt13basic_filebufIcSt11char_traitsIcEE8overflowEi
                0x00000000        0x0 main.o
 _ZNSsC1Ejc     0x00000000        0x0 main.o
 _ZNSs5beginEv  0x00000000        0x0 main.o
 _ZNKSt16_String_iteratorIcSt11char_traitsIcESaIcEEdeEv
                0x00000000        0x0 main.o
 _ZNKSt7codecvtIcc9_MbstatetE7unshiftERS0_PcS3_RS3_
                0x00000000        0x0 main.o
 _ZNSt7num_putIcSt19ostreambuf_iteratorIcSt11char_traitsIcEEEC1Ej
                0x00000000        0x0 main.o
 _ZNKSt7num_putIcSt19ostreambuf_iteratorIcSt11char_traitsIcEEE5_IputES3_RSt8ios_basecPcj
                0x00000000        0x0 main.o
 _ZNKSt7num_putIcSt19ostreambuf_iteratorIcSt11char_traitsIcEEE5_IfmtEPcPKcNSt5_IosbIiE9_FmtflagsE
                0x00000000        0x0 main.o
 _ZNKSt22_Vector_const_iteratorIhSaIhEEneERKS1_
                0x00000000        0x0 main.o
 _ZNSs7_InsideEPKc
                0x00000000        0x0 main.o
 _ZNSt15basic_streambufIcSt11char_traitsIcEE4syncEv
                0x00000000        0x0 main.o
 _ZSt10_Distance2ISt16_Vector_iteratorIhSaIhEEjEvT_S3_RT0_St26random_access_iterator_tag
                0x00000000        0x0 main.o
 _ZSt19_Uninitialized_copyISt16_Vector_iteratorIhSaIhEEPhS1_ET0_T_S5_S4_RT1_
                0x00000000        0x0 main.o
 _ZSt8_AdvanceISt16_Vector_iteratorIhSaIhEEiEvRT_T0_St26random_access_iterator_tag
                0x00000000        0x0 main.o
 _ZSt8_Ptr_catISt16_Vector_iteratorIhSaIhEEPhESt27_Nonscalar_ptr_iterator_tagRT_RT0_
                0x00000000        0x0 main.o
 _ZSt9_Copy_optISt16_Vector_iteratorIhSaIhEEPhET0_T_S5_S4_St27_Nonscalar_ptr_iterator_tag
                0x00000000        0x0 main.o
 _ZSt18_Copy_backward_optIPhS0_ET0_T_S2_S1_St24_Scalar_ptr_iterator_tag
                0x00000000        0x0 main.o
 _ZNSt22_Vector_const_iteratorIhSaIhEEppEv
                0x00000000        0x0 main.o
 _ZNSaIhE9constructEPhRKh
                0x00000000        0x0 main.o
 _ZNSaIhE7destroyEPh
                0x00000000        0x0 main.o
 _ZSt9_AllocateIcEPT_jS1_
                0x00000000        0x0 main.o
 _ZSt14_Uninit_fill_nIcjcEvPT_T0_RKT1_RSaIS0_ESt24_Scalar_ptr_iterator_tag
                0x00000000        0x0 main.o
 _ZSt14_Destroy_rangeIcSaIcEEvPT_S2_RT0_St24_Scalar_ptr_iterator_tag
                0x00000000        0x0 main.o
 _ZNSt7codecvtIcc9_MbstatetEC1Ej
                0x00000000        0x0 main.o
 _ZNSs9_ChassignEjjc
                0x00000000        0x0 main.o
 _ZNSt7num_getIcSt19istreambuf_iteratorIcSt11char_traitsIcEEE5_InitERKSt8_Locinfo
                0x00000000        0x0 main.o
 _ZSt9use_facetISt8numpunctIcEERKT_RKSt6locale
                0x00000000        0x0 main.o
 _ZNKSt8numpunctIcE8groupingEv
                0x00000000        0x0 main.o
 _ZNKSt8numpunctIcE13thousands_sepEv
                0x00000000        0x0 main.o
 _ZSt10_MaklocchrIcET_cPS0_RKSt7_Cvtvec
                0x00000000        0x0 main.o
 _ZNKSt19istreambuf_iteratorIcSt11char_traitsIcEEdeEv
                0x00000000        0x0 main.o
 _ZNSt19istreambuf_iteratorIcSt11char_traitsIcEEppEv
                0x00000000        0x0 main.o
 _ZStneIcSt11char_traitsIcEEbRKSt19istreambuf_iteratorIT_T0_ES7_
                0x00000000        0x0 main.o
 _ZSt11_MaklocbyteIcEcT_RKSt7_Cvtvec
                0x00000000        0x0 main.o
 _ZNKSt19istreambuf_iteratorIcSt11char_traitsIcEE5equalERKS2_
                0x00000000        0x0 main.o
 _ZSt6fill_nIPhjhEvT_T0_RKT1_
                0x00000000        0x0 main.o
 _ZNKSt7codecvtIcc9_MbstatetE3outERS0_PKcS4_RS4_PcS6_RS6_
                0x00000000        0x0 main.o
 _ZNSs6assignEjc
                0x00000000        0x0 main.o
 _ZNSt16_String_iteratorIcSt11char_traitsIcESaIcEEC1EPc
                0x00000000        0x0 main.o
 _ZNKSt22_String_const_iteratorIcSt11char_traitsIcESaIcEEdeEv
                0x00000000        0x0 main.o
 _ZNKSt7codecvtIcc9_MbstatetE10do_unshiftERS0_PcS3_RS3_
                0x00000000        0x0 main.o
 _ZNSt7num_putIcSt19ostreambuf_iteratorIcSt11char_traitsIcEEE5_InitERKSt8_Locinfo
                0x00000000        0x0 main.o
 _ZNKSt7num_putIcSt19ostreambuf_iteratorIcSt11char_traitsIcEEE4_RepES3_cj
                0x00000000        0x0 main.o
 _ZNKSt7num_putIcSt19ostreambuf_iteratorIcSt11char_traitsIcEEE5_PutcES3_PKcj
                0x00000000        0x0 main.o
 _ZNKSt7num_putIcSt19ostreambuf_iteratorIcSt11char_traitsIcEEE11_PutgroupedES3_PKcjc
                0x00000000        0x0 main.o
 _ZNKSt22_Vector_const_iteratorIhSaIhEEeqERKS1_
                0x00000000        0x0 main.o
 _ZSt12_Uninit_copyISt16_Vector_iteratorIhSaIhEEPhS1_ET0_T_S5_S4_RT1_St27_Nonscalar_ptr_iterator_tag
                0x00000000        0x0 main.o
 _ZNSt16_Vector_iteratorIhSaIhEEppEv
                0x00000000        0x0 main.o
 _ZSt10_ConstructIhhEvPT_RKT0_
                0x00000000        0x0 main.o
 _ZSt8_DestroyIhEvPT_
                0x00000000        0x0 main.o
 _ZSt6fill_nIPcjcEvT_T0_RKT1_
                0x00000000        0x0 main.o
 _ZNSt7codecvtIcc9_MbstatetE5_InitERKSt8_Locinfo
                0x00000000        0x0 main.o
 _ZNSt8numpunctIcE7_GetcatEPPKNSt6locale5facetE
                0x00000000        0x0 main.o
 _ZNKSt8numpunctIcE11do_groupingEv
                0x00000000        0x0 main.o
 _ZNKSt8numpunctIcE16do_thousands_sepEv
                0x00000000        0x0 main.o
 _ZNSt19istreambuf_iteratorIcSt11char_traitsIcEE5_PeekEv
                0x00000000        0x0 main.o
 _ZNSt19istreambuf_iteratorIcSt11char_traitsIcEE4_IncEv
                0x00000000        0x0 main.o
 _ZNKSt7codecvtIcc9_MbstatetE6do_outERS0_PKcS4_RS4_PcS6_RS6_
                0x00000000        0x0 main.o
 _ZNSt22_String_const_iteratorIcSt11char_traitsIcESaIcEEC2EPKc
                0x00000000        0x0 main.o
 _ZNSt19ostreambuf_iteratorIcSt11char_traitsIcEEppEv
                0x00000000        0x0 main.o
 _ZNSt19ostreambuf_iteratorIcSt11char_traitsIcEEdeEv
                0x00000000        0x0 main.o
 _ZNSt19ostreambuf_iteratorIcSt11char_traitsIcEEaSEc
                0x00000000        0x0 main.o
 _ZNSt8numpunctIcEC1Ej
                0x00000000        0x0 main.o
 _ZNSt8numpunctIcE5_InitERKSt8_Locinfo
                0x00000000        0x0 main.o
 _ZSt10_MaklocstrIcEPT_PKcS1_RKSt7_Cvtvec
                0x00000000        0x0 main.o
 _ZNSt8numpunctIcE5_TidyEv
                0x00000000        0x0 main.o
 _ZTVSt8numpunctIcE
                0x00000000        0x0 main.o
 _ZTVSt7codecvtIcc9_MbstatetE
                0x00000000        0x0 main.o
 _ZTVSt7num_putIcSt19ostreambuf_iteratorIcSt11char_traitsIcEEE
                0x00000000        0x0 main.o
 _ZTVSt7num_getIcSt19istreambuf_iteratorIcSt11char_traitsIcEEE
                0x00000000        0x0 main.o
 _ZTVSt19basic_istringstreamIcSt11char_traitsIcESaIcEE
                0x00000000        0x0 main.o
 _ZTVSt14basic_ifstreamIcSt11char_traitsIcEE
                0x00000000        0x0 main.o
 _ZTVSt13basic_filebufIcSt11char_traitsIcEE
                0x00000000        0x0 main.o
 _ZTVSi         0x00000000        0x0 main.o
 _ZTVSt19basic_ostringstreamIcSt11char_traitsIcESaIcEE
                0x00000000        0x0 main.o
 _ZTVSt15basic_stringbufIcSt11char_traitsIcESaIcEE
                0x00000000        0x0 main.o
 _ZTVSt15basic_streambufIcSt11char_traitsIcEE
                0x00000000        0x0 main.o
 _ZTVSo         0x00000000        0x0 main.o
 _ZTVSt9basic_iosIcSt11char_traitsIcEE
                0x00000000        0x0 main.o
 _ZTVSt5ctypeIcE
                0x00000000        0x0 main.o
 _ZTVSt10ctype_base
                0x00000000        0x0 main.o
 _ZTVSt12codecvt_base
                0x00000000        0x0 main.o
 _ZTVNSt6locale5facetE
                0x00000000        0x0 main.o
 _ZTVSt8bad_cast
                0x00000000        0x0 main.o
 _ZTVSt12length_error
                0x00000000        0x0 main.o
 _ZTVSt11logic_error
                0x00000000        0x0 main.o
 _ZTSSt8numpunctIcE
                0x00000000        0x0 main.o
 _ZTISt8numpunctIcE
                0x00000000        0x0 main.o
 _ZTSSt7codecvtIcc9_MbstatetE
                0x00000000        0x0 main.o
 _ZTISt7codecvtIcc9_MbstatetE
                0x00000000        0x0 main.o
 _ZTSSt7num_putIcSt19ostreambuf_iteratorIcSt11char_traitsIcEEE
                0x00000000        0x0 main.o
 _ZTISt7num_putIcSt19ostreambuf_iteratorIcSt11char_traitsIcEEE
                0x00000000        0x0 main.o
 _ZTSSt7num_getIcSt19istreambuf_iteratorIcSt11char_traitsIcEEE
                0x00000000        0x0 main.o
 _ZTISt7num_getIcSt19istreambuf_iteratorIcSt11char_traitsIcEEE
                0x00000000        0x0 main.o
 _ZTS17comport_exception
                0x00000000        0x0 main.o
 _ZTI17comport_exception
                0x00000000        0x0 main.o
 _ZTSSt19basic_istringstreamIcSt11char_traitsIcESaIcEE
                0x00000000        0x0 main.o
 _ZTISt19basic_istringstreamIcSt11char_traitsIcESaIcEE
                0x00000000        0x0 main.o
 _ZTSSt14basic_ifstreamIcSt11char_traitsIcEE
                0x00000000        0x0 main.o
 _ZTISt14basic_ifstreamIcSt11char_traitsIcEE
                0x00000000        0x0 main.o
 _ZTSSt13basic_filebufIcSt11char_traitsIcEE
                0x00000000        0x0 main.o
 _ZTISt13basic_filebufIcSt11char_traitsIcEE
                0x00000000        0x0 main.o
 _ZTSSi         0x00000000        0x0 main.o
 _ZTISi         0x00000000        0x0 main.o
 _ZTSSt19basic_ostringstreamIcSt11char_traitsIcESaIcEE
                0x00000000        0x0 main.o
 _ZTISt19basic_ostringstreamIcSt11char_traitsIcESaIcEE
                0x00000000        0x0 main.o
 _ZTSSt15basic_stringbufIcSt11char_traitsIcESaIcEE
                0x00000000        0x0 main.o
 _ZTISt15basic_stringbufIcSt11char_traitsIcESaIcEE
                0x00000000        0x0 main.o
 _ZTSSt15basic_streambufIcSt11char_traitsIcEE
                0x00000000        0x0 main.o
 _ZTISt15basic_streambufIcSt11char_traitsIcEE
                0x00000000        0x0 main.o
 _ZTSSo         0x00000000        0x0 main.o
 _ZTISo         0x00000000        0x0 main.o
 _ZTSSt9basic_iosIcSt11char_traitsIcEE
                0x00000000        0x0 main.o
 _ZTISt9basic_iosIcSt11char_traitsIcEE
                0x00000000        0x0 main.o
 _ZTSSt5ctypeIcE
                0x00000000        0x0 main.o
 _ZTISt5ctypeIcE
                0x00000000        0x0 main.o
 _ZTSSt10ctype_base
                0x00000000        0x0 main.o
 _ZTISt10ctype_base
                0x00000000        0x0 main.o
 _ZTSSt12codecvt_base
                0x00000000        0x0 main.o
 _ZTISt12codecvt_base
                0x00000000        0x0 main.o
 _ZTSNSt6locale5facetE
                0x00000000        0x0 main.o
 _ZTINSt6locale5facetE
                0x00000000        0x0 main.o
 _ZTSSt8bad_cast
                0x00000000        0x0 main.o
 _ZTISt8bad_cast
                0x00000000        0x0 main.o
 _ZTSSt12length_error
                0x00000000        0x0 main.o
 _ZTISt12length_error
                0x00000000        0x0 main.o
 _ZTSSt11logic_error
                0x00000000        0x0 main.o
 _ZTISt11logic_error
                0x00000000        0x0 main.o
 _ZNSt7num_getIcSt19istreambuf_iteratorIcSt11char_traitsIcEEE2idE
                0x00000000        0x0 main.o
 _ZNSt7num_putIcSt19ostreambuf_iteratorIcSt11char_traitsIcEEE2idE
                0x00000000        0x0 main.o
 _ZNSt7codecvtIcc9_MbstatetE2idE
                0x00000000        0x0 main.o
 _ZNSt8numpunctIcE2idE
                0x00000000        0x0 main.o
 _ZGVNSt7num_getIcSt19istreambuf_iteratorIcSt11char_traitsIcEEE2idE
                0x00000000        0x0 main.o
 _ZGVNSt7num_putIcSt19ostreambuf_iteratorIcSt11char_traitsIcEEE2idE
                0x00000000        0x0 main.o
 _ZGVNSt7codecvtIcc9_MbstatetE2idE
                0x00000000        0x0 main.o
 _ZGVNSt8numpunctIcE2idE
                0x00000000        0x0 main.o
 _ZNSt9_FacetptrISt5ctypeIcEE6_PsaveE
                0x00000000        0x0 main.o
 _ZNSt9_FacetptrISt7num_getIcSt19istreambuf_iteratorIcSt11char_traitsIcEEEE6_PsaveE
                0x00000000        0x0 main.o
 _ZNSt9_FacetptrISt7num_putIcSt19ostreambuf_iteratorIcSt11char_traitsIcEEEE6_PsaveE
                0x00000000        0x0 main.o
 _ZNSt9_FacetptrISt7codecvtIcc9_MbstatetEE6_PsaveE
                0x00000000        0x0 main.o
 _ZNSt9_FacetptrISt8numpunctIcEE6_PsaveE
                0x00000000        0x0 main.o
 _ZNSt8numpunctIcED1Ev
                0x00000000        0x0 main.o
 _ZNSt8numpunctIcED0Ev
                0x00000000        0x0 main.o
 _ZNKSt8numpunctIcE16do_decimal_pointEv
                0x00000000        0x0 main.o
 _ZNKSt8numpunctIcE12do_falsenameEv
                0x00000000        0x0 main.o
 _ZNKSt8numpunctIcE11do_truenameEv
                0x00000000        0x0 main.o
 _ZNSt7codecvtIcc9_MbstatetED1Ev
                0x00000000        0x0 main.o
 _ZNSt7codecvtIcc9_MbstatetED0Ev
                0x00000000        0x0 main.o
 _ZNKSt7codecvtIcc9_MbstatetE5do_inERS0_PKcS4_RS4_PcS6_RS6_
                0x00000000        0x0 main.o
 _ZNKSt7codecvtIcc9_MbstatetE9do_lengthERKS0_PKcS5_j
                0x00000000        0x0 main.o
 _ZNSt7num_putIcSt19ostreambuf_iteratorIcSt11char_traitsIcEEED1Ev
                0x00000000        0x0 main.o
 _ZNSt7num_putIcSt19ostreambuf_iteratorIcSt11char_traitsIcEEED0Ev
                0x00000000        0x0 main.o
 _ZNKSt7num_putIcSt19ostreambuf_iteratorIcSt11char_traitsIcEEE6do_putES3_RSt8ios_basecb
                0x00000000        0x0 main.o
 _ZNKSt7num_putIcSt19ostreambuf_iteratorIcSt11char_traitsIcEEE6do_putES3_RSt8ios_basecm
                0x00000000        0x0 main.o
 _ZNKSt7num_putIcSt19ostreambuf_iteratorIcSt11char_traitsIcEEE6do_putES3_RSt8ios_basecx
                0x00000000        0x0 main.o
 _ZNKSt7num_putIcSt19ostreambuf_iteratorIcSt11char_traitsIcEEE6do_putES3_RSt8ios_basecy
                0x00000000        0x0 main.o
 _ZNKSt7num_putIcSt19ostreambuf_iteratorIcSt11char_traitsIcEEE6do_putES3_RSt8ios_basecd
                0x00000000        0x0 main.o
 _ZNKSt7num_putIcSt19ostreambuf_iteratorIcSt11char_traitsIcEEE6do_putES3_RSt8ios_basece
                0x00000000        0x0 main.o
 _ZNKSt7num_putIcSt19ostreambuf_iteratorIcSt11char_traitsIcEEE6do_putES3_RSt8ios_basecPKv
                0x00000000        0x0 main.o
 _ZNSt7num_getIcSt19istreambuf_iteratorIcSt11char_traitsIcEEED1Ev
                0x00000000        0x0 main.o
 _ZNSt7num_getIcSt19istreambuf_iteratorIcSt11char_traitsIcEEED0Ev
                0x00000000        0x0 main.o
 _ZNKSt7num_getIcSt19istreambuf_iteratorIcSt11char_traitsIcEEE6do_getES3_S3_RSt8ios_baseRNSt5_IosbIiE8_IostateERb
                0x00000000        0x0 main.o
 _ZNKSt7num_getIcSt19istreambuf_iteratorIcSt11char_traitsIcEEE6do_getES3_S3_RSt8ios_baseRNSt5_IosbIiE8_IostateERt
                0x00000000        0x0 main.o
 _ZNKSt7num_getIcSt19istreambuf_iteratorIcSt11char_traitsIcEEE6do_getES3_S3_RSt8ios_baseRNSt5_IosbIiE8_IostateERl
                0x00000000        0x0 main.o
 _ZNKSt7num_getIcSt19istreambuf_iteratorIcSt11char_traitsIcEEE6do_getES3_S3_RSt8ios_baseRNSt5_IosbIiE8_IostateERm
                0x00000000        0x0 main.o
 _ZNKSt7num_getIcSt19istreambuf_iteratorIcSt11char_traitsIcEEE6do_getES3_S3_RSt8ios_baseRNSt5_IosbIiE8_IostateERx
                0x00000000        0x0 main.o
 _ZNKSt7num_getIcSt19istreambuf_iteratorIcSt11char_traitsIcEEE6do_getES3_S3_RSt8ios_baseRNSt5_IosbIiE8_IostateERy
                0x00000000        0x0 main.o
 _ZNKSt7num_getIcSt19istreambuf_iteratorIcSt11char_traitsIcEEE6do_getES3_S3_RSt8ios_baseRNSt5_IosbIiE8_IostateERf
                0x00000000        0x0 main.o
 _ZNKSt7num_getIcSt19istreambuf_iteratorIcSt11char_traitsIcEEE6do_getES3_S3_RSt8ios_baseRNSt5_IosbIiE8_IostateERd
                0x00000000        0x0 main.o
 _ZNKSt7num_getIcSt19istreambuf_iteratorIcSt11char_traitsIcEEE6do_getES3_S3_RSt8ios_baseRNSt5_IosbIiE8_IostateERe
                0x00000000        0x0 main.o
 _ZNKSt7num_getIcSt19istreambuf_iteratorIcSt11char_traitsIcEEE6do_getES3_S3_RSt8ios_baseRNSt5_IosbIiE8_IostateERPv
                0x00000000        0x0 main.o
 _ZNSt13basic_filebufIcSt11char_traitsIcEE9pbackfailEi
                0x00000000        0x0 main.o
 _ZNSt15basic_streambufIcSt11char_traitsIcEE9showmanycEv
                0x00000000        0x0 main.o
 _ZNSt13basic_filebufIcSt11char_traitsIcEE9underflowEv
                0x00000000        0x0 main.o
 _ZNSt13basic_filebufIcSt11char_traitsIcEE5uflowEv
                0x00000000        0x0 main.o
 _ZNSt15basic_streambufIcSt11char_traitsIcEE6xsgetnEPci
                0x00000000        0x0 main.o
 _ZNSt13basic_filebufIcSt11char_traitsIcEE7seekoffElNSt5_IosbIiE8_SeekdirENS4_9_OpenmodeE
                0x00000000        0x0 main.o
 _ZNSt13basic_filebufIcSt11char_traitsIcEE7seekposESt4fposI9_MbstatetENSt5_IosbIiE9_OpenmodeE
                0x00000000        0x0 main.o
 _ZNSt13basic_filebufIcSt11char_traitsIcEE6setbufEPci
                0x00000000        0x0 main.o
 _ZNSt13basic_filebufIcSt11char_traitsIcEE4syncEv
                0x00000000        0x0 main.o
 _ZNSt13basic_filebufIcSt11char_traitsIcEE5imbueERKSt6locale
                0x00000000        0x0 main.o
 _ZNSt15basic_stringbufIcSt11char_traitsIcESaIcEE8overflowEi
                0x00000000        0x0 main.o
 _ZNSt15basic_stringbufIcSt11char_traitsIcESaIcEE9pbackfailEi
                0x00000000        0x0 main.o
 _ZNSt15basic_stringbufIcSt11char_traitsIcESaIcEE9underflowEv
                0x00000000        0x0 main.o
 _ZNSt15basic_stringbufIcSt11char_traitsIcESaIcEE7seekoffElNSt5_IosbIiE8_SeekdirENS5_9_OpenmodeE
                0x00000000        0x0 main.o
 _ZNSt15basic_stringbufIcSt11char_traitsIcESaIcEE7seekposESt4fposI9_MbstatetENSt5_IosbIiE9_OpenmodeE
                0x00000000        0x0 main.o
 _ZNSt15basic_streambufIcSt11char_traitsIcEE6setbufEPci
                0x00000000        0x0 main.o
 _ZNSt15basic_streambufIcSt11char_traitsIcEE5imbueERKSt6locale
                0x00000000        0x0 main.o
 _ZNSt15basic_streambufIcSt11char_traitsIcEE9pbackfailEi
                0x00000000        0x0 main.o
 _ZNSt15basic_streambufIcSt11char_traitsIcEE7seekoffElNSt5_IosbIiE8_SeekdirENS4_9_OpenmodeE
                0x00000000        0x0 main.o
 _ZNSt15basic_streambufIcSt11char_traitsIcEE7seekposESt4fposI9_MbstatetENSt5_IosbIiE9_OpenmodeE
                0x00000000        0x0 main.o
 _ZNKSt8numpunctIcE8truenameEv
                0x00000000        0x0 main.o
 _ZNSs6assignERKSs
                0x00000000        0x0 main.o
 _ZNKSt8numpunctIcE9falsenameEv
                0x00000000        0x0 main.o
 _ZNKSt7num_putIcSt19ostreambuf_iteratorIcSt11char_traitsIcEEE4_PutES3_PKcj
                0x00000000        0x0 main.o
 _ZNKSt7num_putIcSt19ostreambuf_iteratorIcSt11char_traitsIcEEE5_FputES3_RSt8ios_basecPKcjjjj
                0x00000000        0x0 main.o
 _ZNKSt7num_putIcSt19ostreambuf_iteratorIcSt11char_traitsIcEEE5_FfmtEPccNSt5_IosbIiE9_FmtflagsE
                0x00000000        0x0 main.o
 _ZSt10_GetloctxtIcSt19istreambuf_iteratorIcSt11char_traitsIcEEEiRT0_S5_jPKT_
                0x00000000        0x0 main.o
 _ZNKSt7num_getIcSt19istreambuf_iteratorIcSt11char_traitsIcEEE8_GetffldEPcRS3_S6_RKSt6locale
                0x00000000        0x0 main.o
 _ZNSt15basic_streambufIcSt11char_traitsIcEE6_GndecEv
                0x00000000        0x0 main.o
 _ZNKSt7codecvtIcc9_MbstatetE2inERS0_PKcS4_RS4_PcS6_RS6_
                0x00000000        0x0 main.o
 _ZNSt15basic_streambufIcSt11char_traitsIcEE5gbumpEi
                0x00000000        0x0 main.o
 _ZNSt4fposI9_MbstatetEC1El
                0x00000000        0x0 main.o
 _ZNSt4fposI9_MbstatetEC1ES0_6_Fpost
                0x00000000        0x0 main.o
 _ZNKSt4fposI9_MbstatetE7seekposEv
                0x00000000        0x0 main.o
 _ZNKSt4fposI9_MbstatetEcvlEv
                0x00000000        0x0 main.o
 _ZNKSt4fposI9_MbstatetE5stateEv
                0x00000000        0x0 main.o
 _ZNSt15basic_streambufIcSt11char_traitsIcEE4setpEPcS3_S3_
                0x00000000        0x0 main.o
 _ZNSs6insertEjjc
                0x00000000        0x0 main.o
 _ZNKSt8numpunctIcE13decimal_pointEv
                0x00000000        0x0 main.o
 _ZNSt4fposI9_MbstatetE4_StzE
                0x00000000        0x0 main.o
 _ZZNSt13basic_filebufIcSt11char_traitsIcEE5_InitEP6_FiletNS2_7_InitflEE7_Stinit
                0x00000000        0x0 main.o
 .text._ZNSt7_LockitC1Ei
                0x00000000        0x0 main.o
 .text._ZNSt7_LockitD1Ev
                0x00000000        0x0 main.o
 .text._ZNSt9exceptionC2Ev
                0x00000000        0x0 main.o
 .text._ZnwjPv  0x00000000        0x0 main.o
 .text._ZNSt11char_traitsIcE6assignERcRKc
                0x00000000        0x0 main.o
 .text._ZNSt11char_traitsIcE2eqERKcS2_
                0x00000000        0x0 main.o
 .text._ZNSt11char_traitsIcE6lengthEPKc
                0x00000000        0x0 main.o
 .text._ZNSt11char_traitsIcE4copyEPcPKcj
                0x00000000        0x0 main.o
 .text._ZNSt11char_traitsIcE4moveEPcPKcj
                0x00000000        0x0 main.o
 .text._ZNSt11char_traitsIcE12to_char_typeERKi
                0x00000000        0x0 main.o
 .text._ZNSt11char_traitsIcE11to_int_typeERKc
                0x00000000        0x0 main.o
 .text._ZNSt11char_traitsIcE11eq_int_typeERKiS2_
                0x00000000        0x0 main.o
 .text._ZNSt11char_traitsIcE3eofEv
                0x00000000        0x0 main.o
 .text._ZNSt11char_traitsIcE7not_eofERKi
                0x00000000        0x0 main.o
 .text._ZSt8_Ptr_catPhS_
                0x00000000        0x0 main.o
 .text._ZNSt11logic_errorC2ERKSs
                0x00000000        0x0 main.o
 .text._ZNSt11logic_errorD2Ev
                0x00000000        0x0 main.o
 .text._ZNSt11logic_errorD1Ev
                0x00000000        0x0 main.o
 .text._ZNSt11logic_errorD0Ev
                0x00000000        0x0 main.o
 .text._ZNKSt11logic_error4whatEv
                0x00000000        0x0 main.o
 .text._ZNSt12length_errorC1ERKSs
                0x00000000        0x0 main.o
 .text._ZNSt12length_errorD1Ev
                0x00000000        0x0 main.o
 .text._ZNSt12length_errorD0Ev
                0x00000000        0x0 main.o
 .text._ZNSt8bad_castC1Ev
                0x00000000        0x0 main.o
 .text._ZNKSt8bad_cast4whatEv
                0x00000000        0x0 main.o
 .text.tolower  0x00000000        0x0 main.o
 .text.toupper  0x00000000        0x0 main.o
 .text._ZNKSt8_Locinfo9_GetctypeEv
                0x00000000        0x0 main.o
 .text._ZSt8_ToloweriPKSt9_Ctypevec
                0x00000000        0x0 main.o
 .text._ZSt8_ToupperiPKSt9_Ctypevec
                0x00000000        0x0 main.o
 .text._ZNSt6locale2idcvjEv
                0x00000000        0x0 main.o
 .text._ZNSt6locale5facet7_IncrefEv
                0x00000000        0x0 main.o
 .text._ZNSt6locale5facet7_DecrefEv
                0x00000000        0x0 main.o
 .text._ZNSt6locale5facetD2Ev
                0x00000000        0x0 main.o
 .text._ZNSt6locale5facetD1Ev
                0x00000000        0x0 main.o
 .text._ZNSt6locale5facetD0Ev
                0x00000000        0x0 main.o
 .text._ZNSt6locale5facetC2Ej
                0x00000000        0x0 main.o
 .text._ZNSt8_LocbaseIiEC2Ev
                0x00000000        0x0 main.o
 .text._ZNSt6localeC1ERKS_
                0x00000000        0x0 main.o
 .text._ZNSt6localeD1Ev
                0x00000000        0x0 main.o
 .text._ZNSt10ctype_baseC2Ej
                0x00000000        0x0 main.o
 .text._ZNSt10ctype_baseD2Ev
                0x00000000        0x0 main.o
 .text._ZNSt10ctype_baseD1Ev
                0x00000000        0x0 main.o
 .text._ZNSt10ctype_baseD0Ev
                0x00000000        0x0 main.o
 .text._ZNKSt5ctypeIcE5widenEc
                0x00000000        0x0 main.o
 .text._ZNSt5ctypeIcEC1EPKsbj
                0x00000000        0x0 main.o
 .text._ZNSt5ctypeIcE7_GetcatEPPKNSt6locale5facetE
                0x00000000        0x0 main.o
 .text._ZNSt5ctypeIcED1Ev
                0x00000000        0x0 main.o
 .text._ZNSt5ctypeIcED0Ev
                0x00000000        0x0 main.o
 .text._ZNSt5ctypeIcE5_InitERKSt8_Locinfo
                0x00000000        0x0 main.o
 .text._ZNSt5ctypeIcE5_TidyEv
                0x00000000        0x0 main.o
 .text._ZNKSt5ctypeIcE10do_tolowerEc
                0x00000000        0x0 main.o
 .text._ZNKSt5ctypeIcE10do_tolowerEPcPKc
                0x00000000        0x0 main.o
 .text._ZNKSt5ctypeIcE10do_toupperEc
                0x00000000        0x0 main.o
 .text._ZNKSt5ctypeIcE10do_toupperEPcPKc
                0x00000000        0x0 main.o
 .text._ZNKSt5ctypeIcE8do_widenEc
                0x00000000        0x0 main.o
 .text._ZNKSt5ctypeIcE8do_widenEPKcS2_Pc
                0x00000000        0x0 main.o
 .text._ZNKSt5ctypeIcE9do_narrowEcc
                0x00000000        0x0 main.o
 .text._ZNKSt5ctypeIcE9do_narrowEPKcS2_cPc
                0x00000000        0x0 main.o
 .text._ZNKSt8ios_base7rdstateEv
                0x00000000        0x0 main.o
 .text._ZNKSt8ios_base4goodEv
                0x00000000        0x0 main.o
 .text._ZNKSt8ios_base4failEv
                0x00000000        0x0 main.o
 .text._ZNKSt8ios_base5flagsEv
                0x00000000        0x0 main.o
 .text._ZNKSt8ios_base5widthEv
                0x00000000        0x0 main.o
 .text._ZNSt8ios_base5widthEi
                0x00000000        0x0 main.o
 .text._ZNKSt8ios_base6getlocEv
                0x00000000        0x0 main.o
 .text._ZNSt5_IosbIiEC2Ev
                0x00000000        0x0 main.o
 .text._ZNSt8ios_baseC2Ev
                0x00000000        0x0 main.o
 .text._ZStanNSt5_IosbIiE9_FmtflagsES1_
                0x00000000        0x0 main.o
 .text._ZStoRRNSt5_IosbIiE8_IostateES1_
                0x00000000        0x0 main.o
 .text._ZStanNSt5_IosbIiE9_OpenmodeES1_
                0x00000000        0x0 main.o
 .text._ZStorNSt5_IosbIiE9_OpenmodeES1_
                0x00000000        0x0 main.o
 .text._ZNSsC1ERKSs
                0x00000000        0x0 main.o
 .text._ZNSsD1Ev
                0x00000000        0x0 main.o
 .text._ZNKSs5c_strEv
                0x00000000        0x0 main.o
 .text._ZNSt8bad_castD1Ev
                0x00000000        0x0 main.o
 .text._ZNSt8bad_castD0Ev
                0x00000000        0x0 main.o
 .text._ZSt9use_facetISt5ctypeIcEERKT_RKSt6locale
                0x00000000        0x0 main.o
 .text._ZNSt6vectorIhSaIhEEC1ERKS1_
                0x00000000        0x0 main.o
 .text._ZNSt6vectorIhSaIhEED1Ev
                0x00000000        0x0 main.o
 .text._ZNKSt6vectorIhSaIhEE4sizeEv
                0x00000000        0x0 main.o
 .text._ZNSt6vectorIhSaIhEEC1Ev
                0x00000000        0x0 main.o
 .text._ZNSt19basic_ostringstreamIcSt11char_traitsIcESaIcEEC1ENSt5_IosbIiE9_OpenmodeE
                0x00000000        0x0 main.o
 .text._ZNSt19basic_ostringstreamIcSt11char_traitsIcESaIcEED1Ev
                0x00000000        0x0 main.o
 .text._ZNSt19basic_ostringstreamIcSt11char_traitsIcESaIcEED0Ev
                0x00000000        0x0 main.o
 .text._ZStlsISt11char_traitsIcEERSt13basic_ostreamIcT_ES5_PKc
                0x00000000        0x0 main.o
 .text._ZNKSt19basic_ostringstreamIcSt11char_traitsIcESaIcEE3strEv
                0x00000000        0x0 main.o
 .text._ZNSsC1Ev
                0x00000000        0x0 main.o
 .text._ZNSt6vectorIhSaIhEE9push_backERKh
                0x00000000        0x0 main.o
 .text._ZNSt6vectorIhSaIhEEixEj
                0x00000000        0x0 main.o
 .text._ZNSsC1EPKc
                0x00000000        0x0 main.o
 .text._ZNSt6vectorIhSaIhEE5beginEv
                0x00000000        0x0 main.o
 .text._ZSt7advanceISt16_Vector_iteratorIhSaIhEEjEvRT_T0_
                0x00000000        0x0 main.o
 .text._ZN16program_settings13bytes_of_typeItEESt6vectorIhSaIhEET_b
                0x00000000        0x0 main.o
 .text._ZNKSt6vectorIhSaIhEE5emptyEv
                0x00000000        0x0 main.o
 .text._ZNSt6vectorIhSaIhEE3endEv
                0x00000000        0x0 main.o
 .text._ZNSt6vectorIhSaIhEE6insertISt16_Vector_iteratorIhS0_EEEvS4_T_S5_
                0x00000000        0x0 main.o
 .text._ZNSspLERKSs
                0x00000000        0x0 main.o
 .text._ZNSspLEPKc
                0x00000000        0x0 main.o
 .text._ZNSt15_Allocator_baseIcEC2Ev
                0x00000000        0x0 main.o
 .text._ZNSaIcEC1ERKS_
                0x00000000        0x0 main.o
 .text._ZNSt15_Container_baseC2Ev
                0x00000000        0x0 main.o
 .text._ZNSt12_String_baseC2Ev
                0x00000000        0x0 main.o
 .text._ZNSt11_String_valIcSaIcEEC2ES0_
                0x00000000        0x0 main.o
 .text._ZNSs5_TidyEbj
                0x00000000        0x0 main.o
 .text._ZNSs6assignERKSsjj
                0x00000000        0x0 main.o
 .text._ZNKSs6_MyptrEv
                0x00000000        0x0 main.o
 .text._ZSt4copyIPhS0_ET0_T_S2_S1_
                0x00000000        0x0 main.o
 .text._ZNSt6vectorIhSaIhEE8_DestroyEPhS2_
                0x00000000        0x0 main.o
 .text._ZNKSt6vectorIhSaIhEE8capacityEv
                0x00000000        0x0 main.o
 .text._ZNSt6vectorIhSaIhEE6_UcopyIPhEES3_T_S4_S3_
                0x00000000        0x0 main.o
 .text._ZNSaIhE10deallocateEPhj
                0x00000000        0x0 main.o
 .text._ZNSt6vectorIhSaIhEE4_BuyEj
                0x00000000        0x0 main.o
 .text._ZNSt15_Allocator_baseIhEC2Ev
                0x00000000        0x0 main.o
 .text._ZNSaIhEC1ERKS_
                0x00000000        0x0 main.o
 .text._ZNSt11_Vector_valIhSaIhEEC2ES0_
                0x00000000        0x0 main.o
 .text._ZNKSt6vectorIhSaIhEE5beginEv
                0x00000000        0x0 main.o
 .text._ZNKSt6vectorIhSaIhEE3endEv
                0x00000000        0x0 main.o
 .text._ZNSt6vectorIhSaIhEE6_UcopyISt22_Vector_const_iteratorIhS0_EEEPhT_S6_S5_
                0x00000000        0x0 main.o
 .text._ZNSt6vectorIhSaIhEE5_TidyEv
                0x00000000        0x0 main.o
 .text._ZNSaIhEC1Ev
                0x00000000        0x0 main.o
 .text._ZNSt9basic_iosIcSt11char_traitsIcEEC2Ev
                0x00000000        0x0 main.o
 .text._ZNSt9basic_iosIcSt11char_traitsIcEED2Ev
                0x00000000        0x0 main.o
 .text._ZNSt9basic_iosIcSt11char_traitsIcEED1Ev
                0x00000000        0x0 main.o
 .text._ZNSt9basic_iosIcSt11char_traitsIcEED0Ev
                0x00000000        0x0 main.o
 .text._ZNSoC2EPSt15basic_streambufIcSt11char_traitsIcEEb
                0x00000000        0x0 main.o
 .text._ZNSoD2Ev
                0x00000000        0x0 main.o
 .text._ZNSoD1Ev
                0x00000000        0x0 main.o
 .text._ZNSoD0Ev
                0x00000000        0x0 main.o
 .text._ZNSt15basic_stringbufIcSt11char_traitsIcESaIcEEC1ENSt5_IosbIiE9_OpenmodeE
                0x00000000        0x0 main.o
 .text._ZNSt15basic_stringbufIcSt11char_traitsIcESaIcEED1Ev
                0x00000000        0x0 main.o
 .text._ZNSt15basic_stringbufIcSt11char_traitsIcESaIcEED0Ev
                0x00000000        0x0 main.o
 .text._ZNSo6sentryC1ERSo
                0x00000000        0x0 main.o
 .text._ZNSo6sentryD1Ev
                0x00000000        0x0 main.o
 .text._ZNKSo6sentrycvbEv
                0x00000000        0x0 main.o
 .text._ZNKSt9basic_iosIcSt11char_traitsIcEE5rdbufEv
                0x00000000        0x0 main.o
 .text._ZNKSt9basic_iosIcSt11char_traitsIcEE4fillEv
                0x00000000        0x0 main.o
 .text._ZNSt15basic_streambufIcSt11char_traitsIcEE5sputcEc
                0x00000000        0x0 main.o
 .text._ZNSt15basic_streambufIcSt11char_traitsIcEE5sputnEPKci
                0x00000000        0x0 main.o
 .text._ZNSt9basic_iosIcSt11char_traitsIcEE8setstateENSt5_IosbIiE8_IostateEb
                0x00000000        0x0 main.o
 .text._ZNSaIcEC1Ev
                0x00000000        0x0 main.o
 .text._ZNKSt15basic_stringbufIcSt11char_traitsIcESaIcEE3strEv
                0x00000000        0x0 main.o
 .text._ZNKSt9basic_iosIcSt11char_traitsIcEE5widenEc
                0x00000000        0x0 main.o
 .text._ZNSs6_MyptrEv
                0x00000000        0x0 main.o
 .text._ZNSt14_Iterator_baseC2Ev
                0x00000000        0x0 main.o
 .text._ZNSt6vectorIhSaIhEE6_UfillEPhjRKh
                0x00000000        0x0 main.o
 .text._ZNSt6vectorIhSaIhEE6insertESt16_Vector_iteratorIhS0_ERKh
                0x00000000        0x0 main.o
 .text._ZNKSt16_Vector_iteratorIhSaIhEEplEi
                0x00000000        0x0 main.o
 .text._ZNKSt16_Vector_iteratorIhSaIhEEdeEv
                0x00000000        0x0 main.o
 .text._ZNSs6assignEPKc
                0x00000000        0x0 main.o
 .text._ZNSt8iteratorISt26random_access_iterator_taghiPKhRS1_EC2Ev
                0x00000000        0x0 main.o
 .text._ZNSt6_RanitIhiPKhRS0_EC2Ev
                0x00000000        0x0 main.o
 .text._ZNSt16_Vector_iteratorIhSaIhEEC1EPh
                0x00000000        0x0 main.o
 .text._ZSt9_Iter_catISt16_Vector_iteratorIhSaIhEEENSt15iterator_traitsIT_E17iterator_categoryERKS4_
                0x00000000        0x0 main.o
 .text._ZSt8_AdvanceISt16_Vector_iteratorIhSaIhEEjEvRT_T0_St26random_access_iterator_tag
                0x00000000        0x0 main.o
 .text._ZNSt6vectorIhSaIhEEC1Ej
                0x00000000        0x0 main.o
 .text._ZNSo5flushEv
                0x00000000        0x0 main.o
 .text._ZNSt6vectorIhSaIhEE7_InsertISt16_Vector_iteratorIhS0_EEEvS4_T_S5_St20forward_iterator_tag
                0x00000000        0x0 main.o
 .text._ZNSs6appendERKSs
                0x00000000        0x0 main.o
 .text._ZNSs6appendEPKc
                0x00000000        0x0 main.o
 .text._ZNSaIcE10deallocateEPcj
                0x00000000        0x0 main.o
 .text._ZNSs4_EosEj
                0x00000000        0x0 main.o
 .text._ZNKSs4sizeEv
                0x00000000        0x0 main.o
 .text._ZNSs5eraseEjj
                0x00000000        0x0 main.o
 .text._ZNSs5_GrowEjb
                0x00000000        0x0 main.o
 .text._ZSt9_Copy_optIPhS0_ET0_T_S2_S1_St24_Scalar_ptr_iterator_tag
                0x00000000        0x0 main.o
 .text._ZSt14_Destroy_rangeIhSaIhEEvPT_S2_RT0_
                0x00000000        0x0 main.o
 .text._ZSt19_Uninitialized_copyIPhS0_SaIhEET0_T_S3_S2_RT1_
                0x00000000        0x0 main.o
 .text._ZNKSt6vectorIhSaIhEE8max_sizeEv
                0x00000000        0x0 main.o
 .text._ZNKSt6vectorIhSaIhEE5_XlenEv
                0x00000000        0x0 main.o
 .text._ZNSaIhE8allocateEj
                0x00000000        0x0 main.o
 .text._ZNSt22_Vector_const_iteratorIhSaIhEEC2EPh
                0x00000000        0x0 main.o
 .text._ZNSt22_Vector_const_iteratorIhSaIhEEC1EPh
                0x00000000        0x0 main.o
 .text._ZSt19_Uninitialized_copyISt22_Vector_const_iteratorIhSaIhEEPhS1_ET0_T_S5_S4_RT1_
                0x00000000        0x0 main.o
 .text._ZNSt9basic_iosIcSt11char_traitsIcEE4initEPSt15basic_streambufIcS1_Eb
                0x00000000        0x0 main.o
 .text._ZNSt15basic_streambufIcSt11char_traitsIcEEC2Ev
                0x00000000        0x0 main.o
 .text._ZNSt15basic_streambufIcSt11char_traitsIcEED2Ev
                0x00000000        0x0 main.o
 .text._ZNSt15basic_streambufIcSt11char_traitsIcEED1Ev
                0x00000000        0x0 main.o
 .text._ZNSt15basic_streambufIcSt11char_traitsIcEED0Ev
                0x00000000        0x0 main.o
 .text._ZNSt15basic_stringbufIcSt11char_traitsIcESaIcEE5_InitEPKcji
                0x00000000        0x0 main.o
 .text._ZNSt15basic_stringbufIcSt11char_traitsIcESaIcEE9_GetstateENSt5_IosbIiE9_OpenmodeE
                0x00000000        0x0 main.o
 .text._ZNSt15basic_stringbufIcSt11char_traitsIcESaIcEE5_TidyEv
                0x00000000        0x0 main.o
 .text._ZNSo12_Sentry_baseC2ERSo
                0x00000000        0x0 main.o
 .text._ZNSo12_Sentry_baseD2Ev
                0x00000000        0x0 main.o
 .text._ZNKSt9basic_iosIcSt11char_traitsIcEE3tieEv
                0x00000000        0x0 main.o
 .text._ZNSo5_OsfxEv
                0x00000000        0x0 main.o
 .text._ZNSt15basic_streambufIcSt11char_traitsIcEE8overflowEi
                0x00000000        0x0 main.o
 .text._ZNSt15basic_streambufIcSt11char_traitsIcEE6_PnincEv
                0x00000000        0x0 main.o
 .text._ZNKSt15basic_streambufIcSt11char_traitsIcEE8_PnavailEv
                0x00000000        0x0 main.o
 .text._ZNSt15basic_streambufIcSt11char_traitsIcEE6xsputnEPKci
                0x00000000        0x0 main.o
 .text._ZNSt9basic_iosIcSt11char_traitsIcEE5clearENSt5_IosbIiE8_IostateEb
                0x00000000        0x0 main.o
 .text._ZNKSt15basic_streambufIcSt11char_traitsIcEE4pptrEv
                0x00000000        0x0 main.o
 .text._ZNKSt15basic_streambufIcSt11char_traitsIcEE5pbaseEv
                0x00000000        0x0 main.o
 .text._ZNSsC1EPKcj
                0x00000000        0x0 main.o
 .text._ZNKSt15basic_streambufIcSt11char_traitsIcEE4gptrEv
                0x00000000        0x0 main.o
 .text._ZNKSt15basic_streambufIcSt11char_traitsIcEE5ebackEv
                0x00000000        0x0 main.o
 .text._ZNKSt15basic_streambufIcSt11char_traitsIcEE5egptrEv
                0x00000000        0x0 main.o
 .text._ZNKSs8max_sizeEv
                0x00000000        0x0 main.o
 .text._ZNSt15basic_streambufIcSt11char_traitsIcEE7_UnlockEv
                0x00000000        0x0 main.o
 .text._ZSt21_Uninitialized_fill_nIPhjhSaIhEEvT_T0_RKT1_RT2_
                0x00000000        0x0 main.o
 .text._ZNKSt16_Vector_iteratorIhSaIhEEmiERKSt22_Vector_const_iteratorIhS0_E
                0x00000000        0x0 main.o
 .text._ZNSt6vectorIhSaIhEE9_Insert_nESt16_Vector_iteratorIhS0_EjRKh
                0x00000000        0x0 main.o
 .text._ZNSt16_Vector_iteratorIhSaIhEEpLEi
                0x00000000        0x0 main.o
 .text._ZNKSt22_Vector_const_iteratorIhSaIhEEdeEv
                0x00000000        0x0 main.o
 .text._ZNSt6vectorIhSaIhEE5eraseESt16_Vector_iteratorIhS0_ES3_
                0x00000000        0x0 main.o
 .text._ZNSs6assignEPKcj
                0x00000000        0x0 main.o
 .text._ZNSt6vectorIhSaIhEE12_Construct_nEjRKh
                0x00000000        0x0 main.o
 .text._ZNSt15basic_streambufIcSt11char_traitsIcEE7pubsyncEv
                0x00000000        0x0 main.o
 .text._ZSt9_DistanceISt16_Vector_iteratorIhSaIhEEjEvT_S3_RT0_
                0x00000000        0x0 main.o
 .text._ZNSt6vectorIhSaIhEE6_UcopyISt16_Vector_iteratorIhS0_EEEPhT_S6_S5_
                0x00000000        0x0 main.o
 .text._ZSt7advanceISt16_Vector_iteratorIhSaIhEEiEvRT_T0_
                0x00000000        0x0 main.o
 .text._ZSt4copyISt16_Vector_iteratorIhSaIhEEPhET0_T_S5_S4_
                0x00000000        0x0 main.o
 .text._ZSt13copy_backwardIPhS0_ET0_T_S2_S1_
                0x00000000        0x0 main.o
 .text._ZNSs6appendERKSsjj
                0x00000000        0x0 main.o
 .text._ZNSs6appendEPKcj
                0x00000000        0x0 main.o
 .text._ZNSs5_CopyEjj
                0x00000000        0x0 main.o
 .text._ZSt14_Destroy_rangeIhSaIhEEvPT_S2_RT0_St24_Scalar_ptr_iterator_tag
                0x00000000        0x0 main.o
 .text._ZSt12_Uninit_copyIhhEPT0_PT_S3_S1_RSaIS0_ESt24_Scalar_ptr_iterator_tag
                0x00000000        0x0 main.o
 .text._ZNKSaIhE8max_sizeEv
                0x00000000        0x0 main.o
 .text._ZSt9_AllocateIhEPT_jS1_
                0x00000000        0x0 main.o
 .text._ZSt8_Ptr_catISt22_Vector_const_iteratorIhSaIhEEPhESt27_Nonscalar_ptr_iterator_tagRT_RT0_
                0x00000000        0x0 main.o
 .text._ZSt12_Uninit_copyISt22_Vector_const_iteratorIhSaIhEEPhS1_ET0_T_S5_S4_RT1_St27_Nonscalar_ptr_iterator_tag
                0x00000000        0x0 main.o
 .text._ZNSt15basic_streambufIcSt11char_traitsIcEE5_InitEv
                0x00000000        0x0 main.o
 .text._ZNSaIcE8allocateEj
                0x00000000        0x0 main.o
 .text._ZNSt15basic_streambufIcSt11char_traitsIcEE4setgEPcS3_S3_
                0x00000000        0x0 main.o
 .text._ZNSt15basic_streambufIcSt11char_traitsIcEE4setpEPcS3_
                0x00000000        0x0 main.o
 .text._ZNKSt15basic_streambufIcSt11char_traitsIcEE5epptrEv
                0x00000000        0x0 main.o
 .text._ZNSt15basic_streambufIcSt11char_traitsIcEE5_LockEv
                0x00000000        0x0 main.o
 .text._ZNSt15basic_streambufIcSt11char_traitsIcEE5pbumpEi
                0x00000000        0x0 main.o
 .text._ZNSt15basic_streambufIcSt11char_traitsIcEE9underflowEv
                0x00000000        0x0 main.o
 .text._ZNKSt15basic_streambufIcSt11char_traitsIcEE8_GnavailEv
                0x00000000        0x0 main.o
 .text._ZNSt15basic_streambufIcSt11char_traitsIcEE5uflowEv
                0x00000000        0x0 main.o
 .text._ZNSt15basic_streambufIcSt11char_traitsIcEE6_GnincEv
                0x00000000        0x0 main.o
 .text._ZNKSaIcE8max_sizeEv
                0x00000000        0x0 main.o
 .text._ZSt14_Uninit_fill_nIhjhEvPT_T0_RKT1_RSaIS0_ESt24_Scalar_ptr_iterator_tag
                0x00000000        0x0 main.o
 .text._ZNKSt22_Vector_const_iteratorIhSaIhEEmiERKS1_
                0x00000000        0x0 main.o
 .text._ZSt4fillIPhhEvT_S1_RKT0_
                0x00000000        0x0 main.o
 .text._ZNKSt22_Vector_const_iteratorIhSaIhEEneERKS1_
                0x00000000        0x0 main.o
 .text._ZNSs7_InsideEPKc
                0x00000000        0x0 main.o
 .text._ZNSt15basic_streambufIcSt11char_traitsIcEE4syncEv
                0x00000000        0x0 main.o
 .text._ZSt10_Distance2ISt16_Vector_iteratorIhSaIhEEjEvT_S3_RT0_St26random_access_iterator_tag
                0x00000000        0x0 main.o
 .text._ZSt19_Uninitialized_copyISt16_Vector_iteratorIhSaIhEEPhS1_ET0_T_S5_S4_RT1_
                0x00000000        0x0 main.o
 .text._ZSt8_AdvanceISt16_Vector_iteratorIhSaIhEEiEvRT_T0_St26random_access_iterator_tag
                0x00000000        0x0 main.o
 .text._ZSt8_Ptr_catISt16_Vector_iteratorIhSaIhEEPhESt27_Nonscalar_ptr_iterator_tagRT_RT0_
                0x00000000        0x0 main.o
 .text._ZSt9_Copy_optISt16_Vector_iteratorIhSaIhEEPhET0_T_S5_S4_St27_Nonscalar_ptr_iterator_tag
                0x00000000        0x0 main.o
 .text._ZSt18_Copy_backward_optIPhS0_ET0_T_S2_S1_St24_Scalar_ptr_iterator_tag
                0x00000000        0x0 main.o
 .text._ZNSt22_Vector_const_iteratorIhSaIhEEppEv
                0x00000000        0x0 main.o
 .text._ZNSaIhE9constructEPhRKh
                0x00000000        0x0 main.o
 .text._ZNSaIhE7destroyEPh
                0x00000000        0x0 main.o
 .text._ZSt9_AllocateIcEPT_jS1_
                0x00000000        0x0 main.o
 .text._ZSt6fill_nIPhjhEvT_T0_RKT1_
                0x00000000        0x0 main.o
 .text._ZNKSt22_Vector_const_iteratorIhSaIhEEeqERKS1_
                0x00000000        0x0 main.o
 .text._ZSt12_Uninit_copyISt16_Vector_iteratorIhSaIhEEPhS1_ET0_T_S5_S4_RT1_St27_Nonscalar_ptr_iterator_tag
                0x00000000        0x0 main.o
 .text._ZNSt16_Vector_iteratorIhSaIhEEppEv
                0x00000000        0x0 main.o
 .text._ZSt10_ConstructIhhEvPT_RKT0_
                0x00000000        0x0 main.o
 .text._ZSt8_DestroyIhEvPT_
                0x00000000        0x0 main.o
 .rodata._ZTVSt19basic_ostringstreamIcSt11char_traitsIcESaIcEE
                0x00000000        0x0 main.o
 .rodata._ZTTSt19basic_ostringstreamIcSt11char_traitsIcESaIcEE
                0x00000000        0x0 main.o
 .rodata._ZTCSt19basic_ostringstreamIcSt11char_traitsIcESaIcEE0_So
                0x00000000        0x0 main.o
 .rodata._ZTVSt15basic_stringbufIcSt11char_traitsIcESaIcEE
                0x00000000        0x0 main.o
 .rodata._ZTVSt15basic_streambufIcSt11char_traitsIcEE
                0x00000000        0x0 main.o
 .rodata._ZTVSo
                0x00000000        0x0 main.o
 .rodata._ZTTSo
                0x00000000        0x0 main.o
 .rodata._ZTVSt9basic_iosIcSt11char_traitsIcEE
                0x00000000        0x0 main.o
 .rodata._ZTVSt5ctypeIcE
                0x00000000        0x0 main.o
 .rodata._ZTVSt10ctype_base
                0x00000000        0x0 main.o
 .rodata._ZTVNSt6locale5facetE
                0x00000000        0x0 main.o
 .rodata._ZTVSt8bad_cast
                0x00000000        0x0 main.o
 .rodata._ZTVSt12length_error
                0x00000000        0x0 main.o
 .rodata._ZTVSt11logic_error
                0x00000000        0x0 main.o
 .rodata._ZTSSt19basic_ostringstreamIcSt11char_traitsIcESaIcEE
                0x00000000        0x0 main.o
 .rodata._ZTISt19basic_ostringstreamIcSt11char_traitsIcESaIcEE
                0x00000000        0x0 main.o
 .rodata._ZTSSt15basic_stringbufIcSt11char_traitsIcESaIcEE
                0x00000000        0x0 main.o
 .rodata._ZTISt15basic_stringbufIcSt11char_traitsIcESaIcEE
                0x00000000        0x0 main.o
 .rodata._ZTSSt15basic_streambufIcSt11char_traitsIcEE
                0x00000000        0x0 main.o
 .rodata._ZTISt15basic_streambufIcSt11char_traitsIcEE
                0x00000000        0x0 main.o
 .rodata._ZTSSo
                0x00000000        0x0 main.o
 .rodata._ZTISo
                0x00000000        0x0 main.o
 .rodata._ZTSSt9basic_iosIcSt11char_traitsIcEE
                0x00000000        0x0 main.o
 .rodata._ZTISt9basic_iosIcSt11char_traitsIcEE
                0x00000000        0x0 main.o
 .rodata._ZTSSt5ctypeIcE
                0x00000000        0x0 main.o
 .rodata._ZTISt5ctypeIcE
                0x00000000        0x0 main.o
 .rodata._ZTSSt10ctype_base
                0x00000000        0x0 main.o
 .rodata._ZTISt10ctype_base
                0x00000000        0x0 main.o
 .rodata._ZTSNSt6locale5facetE
                0x00000000        0x0 main.o
 .rodata._ZTINSt6locale5facetE
                0x00000000        0x0 main.o
 .rodata._ZTSSt8bad_cast
                0x00000000        0x0 main.o
 .rodata._ZTISt8bad_cast
                0x00000000        0x0 main.o
 .rodata._ZTSSt12length_error
                0x00000000        0x0 main.o
 .rodata._ZTISt12length_error
                0x00000000        0x0 main.o
 .rodata._ZTSSt11logic_error
                0x00000000        0x0 main.o
 .rodata._ZTISt11logic_error
                0x00000000        0x0 main.o
 .bss._ZNSt9_FacetptrISt5ctypeIcEE6_PsaveE
                0x00000000        0x0 main.o
 .text._ZNSt15basic_streambufIcSt11char_traitsIcEE9showmanycEv
                0x00000000        0x0 main.o
 .text._ZNSt15basic_streambufIcSt11char_traitsIcEE6xsgetnEPci
                0x00000000        0x0 main.o
 .text._ZNSt15basic_stringbufIcSt11char_traitsIcESaIcEE8overflowEi
                0x00000000        0x0 main.o
 .text._ZNSt15basic_stringbufIcSt11char_traitsIcESaIcEE9pbackfailEi
                0x00000000        0x0 main.o
 .text._ZNSt15basic_stringbufIcSt11char_traitsIcESaIcEE9underflowEv
                0x00000000        0x0 main.o
 .text._ZNSt15basic_stringbufIcSt11char_traitsIcESaIcEE7seekoffElNSt5_IosbIiE8_SeekdirENS5_9_OpenmodeE
                0x00000000        0x0 main.o
 .text._ZNSt15basic_stringbufIcSt11char_traitsIcESaIcEE7seekposESt4fposI9_MbstatetENSt5_IosbIiE9_OpenmodeE
                0x00000000        0x0 main.o
 .text._ZNSt15basic_streambufIcSt11char_traitsIcEE6setbufEPci
                0x00000000        0x0 main.o
 .text._ZNSt15basic_streambufIcSt11char_traitsIcEE5imbueERKSt6locale
                0x00000000        0x0 main.o
 .text._ZNSt15basic_streambufIcSt11char_traitsIcEE9pbackfailEi
                0x00000000        0x0 main.o
 .text._ZNSt15basic_streambufIcSt11char_traitsIcEE7seekoffElNSt5_IosbIiE8_SeekdirENS4_9_OpenmodeE
                0x00000000        0x0 main.o
 .text._ZNSt15basic_streambufIcSt11char_traitsIcEE7seekposESt4fposI9_MbstatetENSt5_IosbIiE9_OpenmodeE
                0x00000000        0x0 main.o
 .text._ZNSs6assignERKSs
                0x00000000        0x0 main.o
 .text._ZNSt15basic_streambufIcSt11char_traitsIcEE5gbumpEi
                0x00000000        0x0 main.o
 .text._ZNSt4fposI9_MbstatetEC1El
                0x00000000        0x0 main.o
 .text._ZNKSt4fposI9_MbstatetEcvlEv
                0x00000000        0x0 main.o
 .text._ZNSt15basic_streambufIcSt11char_traitsIcEE4setpEPcS3_S3_
                0x00000000        0x0 main.o
 .bss._ZNSt4fposI9_MbstatetE4_StzE
                0x00000000        0x0 main.o

Memory Configuration

Name             Origin             Length             Attributes
*default*        0x00000000         0xffffffff

Linker script and memory map

TARGET(elf32-i386)
LOAD /usr/qnx650/target/qnx6/x86/lib/crt1.o
LOAD /usr/qnx650/target/qnx6/x86/lib/crti.o
LOAD /usr/qnx650/host/qnx6/x86/usr/lib/gcc/i486-pc-nto-qnx6.5.0/4.4.2/crtbegin.o
LOAD program_settings.o
LOAD system_settings.o
LOAD metro_device.o
LOAD main.o
LOAD /usr/qnx650/target/qnx6/x86/lib//libm.so
LOAD /usr/qnx650/target/qnx6/x86/usr/lib/libph.so
LOAD /usr/qnx650/target/qnx6/x86/usr/lib/libphexlib.so
LOAD /usr/qnx650/target/qnx6/x86/lib/gcc/4.4.2/libcpp.so
LOAD /usr/qnx650/target/qnx6/x86/lib/gcc/4.4.2/libcpp.so
LOAD /usr/qnx650/target/qnx6/x86/lib/gcc/4.4.2/libcxa.a
LOAD /usr/qnx650/host/qnx6/x86/usr/lib/gcc/i486-pc-nto-qnx6.5.0/4.4.2//libgcc.a
LOAD /usr/qnx650/target/qnx6/x86/lib/gcc/4.4.2/libcxa.a
LOAD /usr/qnx650/target/qnx6/x86/lib//libc.so
LOAD /usr/qnx650/target/qnx6/x86/lib//libc.a
LOAD /usr/qnx650/host/qnx6/x86/usr/lib/gcc/i486-pc-nto-qnx6.5.0/4.4.2//libgcc.a
LOAD /usr/qnx650/host/qnx6/x86/usr/lib/gcc/i486-pc-nto-qnx6.5.0/4.4.2/crtend.o
LOAD /usr/qnx650/target/qnx6/x86/lib/crtn.o
                0x08048000                PROVIDE (__executable_start, 0x8048000)
                0x080480f4                . = (0x8048000 + SIZEOF_HEADERS)

.interp         0x080480f4       0x14
 *(.interp)
 .interp        0x080480f4       0x14 /usr/qnx650/target/qnx6/x86/lib/crt1.o

.note           0x08048108       0x18
 .note          0x08048108       0x18 /usr/qnx650/target/qnx6/x86/lib/crtn.o

.note.gnu.build-id
 *(.note.gnu.build-id)

.hash           0x08048120      0x99c
 *(.hash)
 .hash          0x08048120      0x99c /usr/qnx650/target/qnx6/x86/lib/crt1.o

.gnu.hash
 *(.gnu.hash)

.dynsym         0x08048abc     0x15e0
 *(.dynsym)
 .dynsym        0x08048abc     0x15e0 /usr/qnx650/target/qnx6/x86/lib/crt1.o

.dynstr         0x0804a09c     0x2b3a
 *(.dynstr)
 .dynstr        0x0804a09c     0x2b3a /usr/qnx650/target/qnx6/x86/lib/crt1.o

.gnu.version    0x0804cbd6        0x0
 *(.gnu.version)
 .gnu.version   0x00000000        0x0 /usr/qnx650/target/qnx6/x86/lib/crt1.o

.gnu.version_d  0x0804cbd8        0x0 load address 0x0804cbd6
 *(.gnu.version_d)
 .gnu.version_d
                0x00000000        0x0 /usr/qnx650/target/qnx6/x86/lib/crt1.o

.gnu.version_r  0x0804cbd8        0x0 load address 0x0804cbd6
 *(.gnu.version_r)
 .gnu.version_r
                0x00000000        0x0 /usr/qnx650/target/qnx6/x86/lib/crt1.o

.rel.dyn        0x0804cbd8       0xb8
 *(.rel.init)
 *(.rel.text .rel.text.* .rel.gnu.linkonce.t.*)
 .rel.text      0x00000000        0x0 /usr/qnx650/target/qnx6/x86/lib/crt1.o
 .rel.text._ZNSt11char_traitsIcE6lengthEPKc
                0x00000000        0x0 /usr/qnx650/target/qnx6/x86/lib/crt1.o
 .rel.text._ZNSt11char_traitsIcE4copyEPcPKcj
                0x00000000        0x0 /usr/qnx650/target/qnx6/x86/lib/crt1.o
 .rel.text._ZNSt11char_traitsIcE4moveEPcPKcj
                0x00000000        0x0 /usr/qnx650/target/qnx6/x86/lib/crt1.o
 .rel.text._ZNSsC1ERKSs
                0x00000000        0x0 /usr/qnx650/target/qnx6/x86/lib/crt1.o
 .rel.text._ZNSsD1Ev
                0x00000000        0x0 /usr/qnx650/target/qnx6/x86/lib/crt1.o
 .rel.text._ZNKSs5c_strEv
                0x00000000        0x0 /usr/qnx650/target/qnx6/x86/lib/crt1.o
 .rel.text._ZNSsC1EPKc
                0x00000000        0x0 /usr/qnx650/target/qnx6/x86/lib/crt1.o
 .rel.text._ZNSsC1Ev
                0x00000000        0x0 /usr/qnx650/target/qnx6/x86/lib/crt1.o
 .rel.text._ZNSs7reserveEj
                0x00000000        0x0 /usr/qnx650/target/qnx6/x86/lib/crt1.o
 .rel.text._ZStplIcSt11char_traitsIcESaIcEESbIT_T0_T1_ERKS6_PKS3_
                0x00000000        0x0 /usr/qnx650/target/qnx6/x86/lib/crt1.o
 .rel.text._ZNSsaSERKSs
                0x00000000        0x0 /usr/qnx650/target/qnx6/x86/lib/crt1.o
 .rel.text._ZNSspLERKSs
                0x00000000        0x0 /usr/qnx650/target/qnx6/x86/lib/crt1.o
 .rel.text._ZNKSt6vectorIhSaIhEE5emptyEv
                0x00000000        0x0 /usr/qnx650/target/qnx6/x86/lib/crt1.o
 .rel.text._ZNSt6vectorIhSaIhEE5beginEv
                0x00000000        0x0 /usr/qnx650/target/qnx6/x86/lib/crt1.o
 .rel.text._ZNSt6vectorIhSaIhEE3endEv
                0x00000000        0x0 /usr/qnx650/target/qnx6/x86/lib/crt1.o
 .rel.text._ZNKSt22_Vector_const_iteratorIhSaIhEEneERKS1_
                0x00000000        0x0 /usr/qnx650/target/qnx6/x86/lib/crt1.o
 .rel.text._ZNSt16_Vector_iteratorIhSaIhEEppEi
                0x00000000        0x0 /usr/qnx650/target/qnx6/x86/lib/crt1.o
 .rel.text._ZNKSt16_Vector_iteratorIhSaIhEEdeEv
                0x00000000        0x0 /usr/qnx650/target/qnx6/x86/lib/crt1.o
 .rel.text._ZNSaIcEC1ERKS_
                0x00000000        0x0 /usr/qnx650/target/qnx6/x86/lib/crt1.o
 .rel.text._ZNSt12_String_baseC2Ev
                0x00000000        0x0 /usr/qnx650/target/qnx6/x86/lib/crt1.o
 .rel.text._ZNSt11_String_valIcSaIcEEC2ES0_
                0x00000000        0x0 /usr/qnx650/target/qnx6/x86/lib/crt1.o
 .rel.text._ZNSs5_TidyEbj
                0x00000000        0x0 /usr/qnx650/target/qnx6/x86/lib/crt1.o
 .rel.text._ZNSs6assignERKSsjj
                0x00000000        0x0 /usr/qnx650/target/qnx6/x86/lib/crt1.o
 .rel.text._ZNSaIcEC1Ev
                0x00000000        0x0 /usr/qnx650/target/qnx6/x86/lib/crt1.o
 .rel.text._ZNSs6assignEPKc
                0x00000000        0x0 /usr/qnx650/target/qnx6/x86/lib/crt1.o
 .rel.text._ZNSs5_GrowEjb
                0x00000000        0x0 /usr/qnx650/target/qnx6/x86/lib/crt1.o
 .rel.text._ZNSs4_EosEj
                0x00000000        0x0 /usr/qnx650/target/qnx6/x86/lib/crt1.o
 .rel.text._ZNSspLEPKc
                0x00000000        0x0 /usr/qnx650/target/qnx6/x86/lib/crt1.o
 .rel.text._ZNSs6assignERKSs
                0x00000000        0x0 /usr/qnx650/target/qnx6/x86/lib/crt1.o
 .rel.text._ZNSs6appendERKSs
                0x00000000        0x0 /usr/qnx650/target/qnx6/x86/lib/crt1.o
 .rel.text._ZNSt16_Vector_iteratorIhSaIhEEC1EPh
                0x00000000        0x0 /usr/qnx650/target/qnx6/x86/lib/crt1.o
 .rel.text._ZNSaIcE10deallocateEPcj
                0x00000000        0x0 /usr/qnx650/target/qnx6/x86/lib/crt1.o
 .rel.text._ZNSs5eraseEjj
                0x00000000        0x0 /usr/qnx650/target/qnx6/x86/lib/crt1.o
 .rel.text._ZNSs6assignEPKcj
                0x00000000        0x0 /usr/qnx650/target/qnx6/x86/lib/crt1.o
 .rel.text._ZNKSs8max_sizeEv
                0x00000000        0x0 /usr/qnx650/target/qnx6/x86/lib/crt1.o
 .rel.text._ZNSs5_CopyEjj
                0x00000000        0x0 /usr/qnx650/target/qnx6/x86/lib/crt1.o
 .rel.text._ZNSs6appendEPKc
                0x00000000        0x0 /usr/qnx650/target/qnx6/x86/lib/crt1.o
 .rel.text._ZNSs6appendERKSsjj
                0x00000000        0x0 /usr/qnx650/target/qnx6/x86/lib/crt1.o
 .rel.text._ZNSt8iteratorISt26random_access_iterator_taghiPKhRS1_EC2Ev
                0x00000000        0x0 /usr/qnx650/target/qnx6/x86/lib/crt1.o
 .rel.text._ZNSt6_RanitIhiPKhRS0_EC2Ev
                0x00000000        0x0 /usr/qnx650/target/qnx6/x86/lib/crt1.o
 .rel.text._ZNSt22_Vector_const_iteratorIhSaIhEEC2EPh
                0x00000000        0x0 /usr/qnx650/target/qnx6/x86/lib/crt1.o
 .rel.text._ZNSs7_InsideEPKc
                0x00000000        0x0 /usr/qnx650/target/qnx6/x86/lib/crt1.o
 .rel.text._ZNSaIcE8allocateEj
                0x00000000        0x0 /usr/qnx650/target/qnx6/x86/lib/crt1.o
 .rel.text._ZNSs6appendEPKcj
                0x00000000        0x0 /usr/qnx650/target/qnx6/x86/lib/crt1.o
 .rel.text._ZSt9_AllocateIcEPT_jS1_
                0x00000000        0x0 /usr/qnx650/target/qnx6/x86/lib/crt1.o
 .rel.text._ZNSt9exceptionC2Ev
                0x00000000        0x0 /usr/qnx650/target/qnx6/x86/lib/crt1.o
 .rel.text._ZNSt11logic_errorC2ERKSs
                0x00000000        0x0 /usr/qnx650/target/qnx6/x86/lib/crt1.o
 .rel.text._ZNSt11logic_errorD2Ev
                0x00000000        0x0 /usr/qnx650/target/qnx6/x86/lib/crt1.o
 .rel.text._ZNSt11logic_errorD1Ev
                0x00000000        0x0 /usr/qnx650/target/qnx6/x86/lib/crt1.o
 .rel.text._ZNSt11logic_errorD0Ev
                0x00000000        0x0 /usr/qnx650/target/qnx6/x86/lib/crt1.o
 .rel.text._ZNKSt11logic_error4whatEv
                0x00000000        0x0 /usr/qnx650/target/qnx6/x86/lib/crt1.o
 .rel.text._ZNSt12length_errorC1ERKSs
                0x00000000        0x0 /usr/qnx650/target/qnx6/x86/lib/crt1.o
 .rel.text._ZNSt12length_errorD1Ev
                0x00000000        0x0 /usr/qnx650/target/qnx6/x86/lib/crt1.o
 .rel.text._ZNSt12length_errorD0Ev
                0x00000000        0x0 /usr/qnx650/target/qnx6/x86/lib/crt1.o
 .rel.text._ZN16spider_exceptionC1ESs
                0x00000000        0x0 /usr/qnx650/target/qnx6/x86/lib/crt1.o
 .rel.text._ZN15system_settingsD1Ev
                0x00000000        0x0 /usr/qnx650/target/qnx6/x86/lib/crt1.o
 .rel.text._ZN15system_settingsD0Ev
                0x00000000        0x0 /usr/qnx650/target/qnx6/x86/lib/crt1.o
 .rel.text._ZN16spider_exceptionD1Ev
                0x00000000        0x0 /usr/qnx650/target/qnx6/x86/lib/crt1.o
 .rel.text._ZNSt6vectorISsSaISsEED1Ev
                0x00000000        0x0 /usr/qnx650/target/qnx6/x86/lib/crt1.o
 .rel.text._ZNSt6vectorISsSaISsEEixEj
                0x00000000        0x0 /usr/qnx650/target/qnx6/x86/lib/crt1.o
 .rel.text._ZNSt6vectorISsSaISsEEC1Ej
                0x00000000        0x0 /usr/qnx650/target/qnx6/x86/lib/crt1.o
 .rel.text._ZNSsaSEPKc
                0x00000000        0x0 /usr/qnx650/target/qnx6/x86/lib/crt1.o
 .rel.text._ZNSt6vectorISsSaISsEE5_TidyEv
                0x00000000        0x0 /usr/qnx650/target/qnx6/x86/lib/crt1.o
 .rel.text._ZNSaISsEC1ERKS_
                0x00000000        0x0 /usr/qnx650/target/qnx6/x86/lib/crt1.o
 .rel.text._ZNSt11_Vector_valISsSaISsEEC2ES0_
                0x00000000        0x0 /usr/qnx650/target/qnx6/x86/lib/crt1.o
 .rel.text._ZNSt6vectorISsSaISsEE4_BuyEj
                0x00000000        0x0 /usr/qnx650/target/qnx6/x86/lib/crt1.o
 .rel.text._ZNSt6vectorISsSaISsEE5beginEv
                0x00000000        0x0 /usr/qnx650/target/qnx6/x86/lib/crt1.o
 .rel.text._ZNKSt16_Vector_iteratorISsSaISsEEplEi
                0x00000000        0x0 /usr/qnx650/target/qnx6/x86/lib/crt1.o
 .rel.text._ZNKSt16_Vector_iteratorISsSaISsEEdeEv
                0x00000000        0x0 /usr/qnx650/target/qnx6/x86/lib/crt1.o
 .rel.text._ZNSaISsEC1Ev
                0x00000000        0x0 /usr/qnx650/target/qnx6/x86/lib/crt1.o
 .rel.text._ZNSt6vectorISsSaISsEE12_Construct_nEjRKSs
                0x00000000        0x0 /usr/qnx650/target/qnx6/x86/lib/crt1.o
 .rel.text._ZNSt6vectorISsSaISsEE8_DestroyEPSsS2_
                0x00000000        0x0 /usr/qnx650/target/qnx6/x86/lib/crt1.o
 .rel.text._ZNSaISsE10deallocateEPSsj
                0x00000000        0x0 /usr/qnx650/target/qnx6/x86/lib/crt1.o
 .rel.text._ZNKSt6vectorISsSaISsEE8max_sizeEv
                0x00000000        0x0 /usr/qnx650/target/qnx6/x86/lib/crt1.o
 .rel.text._ZNKSt6vectorISsSaISsEE5_XlenEv
                0x00000000        0x0 /usr/qnx650/target/qnx6/x86/lib/crt1.o
 .rel.text._ZNSaISsE8allocateEj
                0x00000000        0x0 /usr/qnx650/target/qnx6/x86/lib/crt1.o
 .rel.text._ZNSt8iteratorISt26random_access_iterator_tagSsiPKSsRS1_EC2Ev
                0x00000000        0x0 /usr/qnx650/target/qnx6/x86/lib/crt1.o
 .rel.text._ZNSt6_RanitISsiPKSsRS0_EC2Ev
                0x00000000        0x0 /usr/qnx650/target/qnx6/x86/lib/crt1.o
 .rel.text._ZNSt22_Vector_const_iteratorISsSaISsEEC2EPSs
                0x00000000        0x0 /usr/qnx650/target/qnx6/x86/lib/crt1.o
 .rel.text._ZNSt16_Vector_iteratorISsSaISsEEC1EPSs
                0x00000000        0x0 /usr/qnx650/target/qnx6/x86/lib/crt1.o
 .rel.text._ZNSt6vectorISsSaISsEE6_UfillEPSsjRKSs
                0x00000000        0x0 /usr/qnx650/target/qnx6/x86/lib/crt1.o
 .rel.text._ZSt14_Destroy_rangeISsSaISsEEvPT_S2_RT0_
                0x00000000        0x0 /usr/qnx650/target/qnx6/x86/lib/crt1.o
 .rel.text._ZSt9_AllocateISsEPT_jS1_
                0x00000000        0x0 /usr/qnx650/target/qnx6/x86/lib/crt1.o
 .rel.text._ZSt21_Uninitialized_fill_nIPSsjSsSaISsEEvT_T0_RKT1_RT2_
                0x00000000        0x0 /usr/qnx650/target/qnx6/x86/lib/crt1.o
 .rel.text._ZSt14_Destroy_rangeISsSaISsEEvPT_S2_RT0_St27_Nonscalar_ptr_iterator_tag
                0x00000000        0x0 /usr/qnx650/target/qnx6/x86/lib/crt1.o
 .rel.text._ZNSaISsE9constructEPSsRKSs
                0x00000000        0x0 /usr/qnx650/target/qnx6/x86/lib/crt1.o
 .rel.text._ZNSaISsE7destroyEPSs
                0x00000000        0x0 /usr/qnx650/target/qnx6/x86/lib/crt1.o
 .rel.text._ZSt14_Uninit_fill_nIPSsjSsSaISsEEvT_T0_RKT1_RT2_St27_Nonscalar_ptr_iterator_tag
                0x00000000        0x0 /usr/qnx650/target/qnx6/x86/lib/crt1.o
 .rel.text._ZSt10_ConstructISsSsEvPT_RKT0_
                0x00000000        0x0 /usr/qnx650/target/qnx6/x86/lib/crt1.o
 .rel.text._ZSt8_DestroyISsEvPT_
                0x00000000        0x0 /usr/qnx650/target/qnx6/x86/lib/crt1.o
 .rel.text._ZNSt7_LockitC1Ei
                0x00000000        0x0 /usr/qnx650/target/qnx6/x86/lib/crt1.o
 .rel.text._ZNSt7_LockitD1Ev
                0x00000000        0x0 /usr/qnx650/target/qnx6/x86/lib/crt1.o
 .rel.text._ZNSt11char_traitsIcE7not_eofERKi
                0x00000000        0x0 /usr/qnx650/target/qnx6/x86/lib/crt1.o
 .rel.text._ZNSt8bad_castC1Ev
                0x00000000        0x0 /usr/qnx650/target/qnx6/x86/lib/crt1.o
 .rel.text.tolower
                0x00000000        0x0 /usr/qnx650/target/qnx6/x86/lib/crt1.o
 .rel.text.toupper
                0x00000000        0x0 /usr/qnx650/target/qnx6/x86/lib/crt1.o
 .rel.text._ZNKSt8_Locinfo9_GetctypeEv
                0x00000000        0x0 /usr/qnx650/target/qnx6/x86/lib/crt1.o
 .rel.text._ZSt8_ToloweriPKSt9_Ctypevec
                0x00000000        0x0 /usr/qnx650/target/qnx6/x86/lib/crt1.o
 .rel.text._ZSt8_ToupperiPKSt9_Ctypevec
                0x00000000        0x0 /usr/qnx650/target/qnx6/x86/lib/crt1.o
 .rel.text._ZNSt6locale2idcvjEv
                0x00000000        0x0 /usr/qnx650/target/qnx6/x86/lib/crt1.o
 .rel.text._ZNSt6locale5facet7_IncrefEv
                0x00000000        0x0 /usr/qnx650/target/qnx6/x86/lib/crt1.o
 .rel.text._ZNSt6locale5facet7_DecrefEv
                0x00000000        0x0 /usr/qnx650/target/qnx6/x86/lib/crt1.o
 .rel.text._ZNSt6locale5facetD2Ev
                0x00000000        0x0 /usr/qnx650/target/qnx6/x86/lib/crt1.o
 .rel.text._ZNSt6locale5facetD1Ev
                0x00000000        0x0 /usr/qnx650/target/qnx6/x86/lib/crt1.o
 .rel.text._ZNSt6locale5facetD0Ev
                0x00000000        0x0 /usr/qnx650/target/qnx6/x86/lib/crt1.o
 .rel.text._ZNSt6locale5facetC2Ej
                0x00000000        0x0 /usr/qnx650/target/qnx6/x86/lib/crt1.o
 .rel.text._ZNSt6localeC1ERKS_
                0x00000000        0x0 /usr/qnx650/target/qnx6/x86/lib/crt1.o
 .rel.text._ZNSt6localeD1Ev
                0x00000000        0x0 /usr/qnx650/target/qnx6/x86/lib/crt1.o
 .rel.text._ZNSt10ctype_baseC2Ej
                0x00000000        0x0 /usr/qnx650/target/qnx6/x86/lib/crt1.o
 .rel.text._ZNSt10ctype_baseD2Ev
                0x00000000        0x0 /usr/qnx650/target/qnx6/x86/lib/crt1.o
 .rel.text._ZNSt10ctype_baseD1Ev
                0x00000000        0x0 /usr/qnx650/target/qnx6/x86/lib/crt1.o
 .rel.text._ZNSt10ctype_baseD0Ev
                0x00000000        0x0 /usr/qnx650/target/qnx6/x86/lib/crt1.o
 .rel.text._ZNSt5ctypeIcEC1EPKsbj
                0x00000000        0x0 /usr/qnx650/target/qnx6/x86/lib/crt1.o
 .rel.text._ZNSt5ctypeIcE7_GetcatEPPKNSt6locale5facetE
                0x00000000        0x0 /usr/qnx650/target/qnx6/x86/lib/crt1.o
 .rel.text._ZNSt5ctypeIcED1Ev
                0x00000000        0x0 /usr/qnx650/target/qnx6/x86/lib/crt1.o
 .rel.text._ZNSt5ctypeIcED0Ev
                0x00000000        0x0 /usr/qnx650/target/qnx6/x86/lib/crt1.o
 .rel.text._ZNSt5ctypeIcE5_InitERKSt8_Locinfo
                0x00000000        0x0 /usr/qnx650/target/qnx6/x86/lib/crt1.o
 .rel.text._ZNSt5ctypeIcE5_TidyEv
                0x00000000        0x0 /usr/qnx650/target/qnx6/x86/lib/crt1.o
 .rel.text._ZNKSt5ctypeIcE10do_tolowerEc
                0x00000000        0x0 /usr/qnx650/target/qnx6/x86/lib/crt1.o
 .rel.text._ZNKSt5ctypeIcE10do_tolowerEPcPKc
                0x00000000        0x0 /usr/qnx650/target/qnx6/x86/lib/crt1.o
 .rel.text._ZNKSt5ctypeIcE10do_toupperEc
                0x00000000        0x0 /usr/qnx650/target/qnx6/x86/lib/crt1.o
 .rel.text._ZNKSt5ctypeIcE10do_toupperEPcPKc
                0x00000000        0x0 /usr/qnx650/target/qnx6/x86/lib/crt1.o
 .rel.text._ZNKSt5ctypeIcE8do_widenEPKcS2_Pc
                0x00000000        0x0 /usr/qnx650/target/qnx6/x86/lib/crt1.o
 .rel.text._ZNKSt5ctypeIcE9do_narrowEPKcS2_cPc
                0x00000000        0x0 /usr/qnx650/target/qnx6/x86/lib/crt1.o
 .rel.text._ZNKSt8ios_base4goodEv
                0x00000000        0x0 /usr/qnx650/target/qnx6/x86/lib/crt1.o
 .rel.text._ZNKSt8ios_base4failEv
                0x00000000        0x0 /usr/qnx650/target/qnx6/x86/lib/crt1.o
 .rel.text._ZNKSt8ios_base6getlocEv
                0x00000000        0x0 /usr/qnx650/target/qnx6/x86/lib/crt1.o
 .rel.text._ZNSt8ios_baseC2Ev
                0x00000000        0x0 /usr/qnx650/target/qnx6/x86/lib/crt1.o
 .rel.text._ZN12metro_device22metro_device_exceptionC1ESs
                0x00000000        0x0 /usr/qnx650/target/qnx6/x86/lib/crt1.o
 .rel.text._ZN12metro_device22metro_device_exceptionD1Ev
                0x00000000        0x0 /usr/qnx650/target/qnx6/x86/lib/crt1.o
 .rel.text._ZNSt8bad_castD1Ev
                0x00000000        0x0 /usr/qnx650/target/qnx6/x86/lib/crt1.o
 .rel.text._ZNSt8bad_castD0Ev
                0x00000000        0x0 /usr/qnx650/target/qnx6/x86/lib/crt1.o
 .rel.text._ZSt9use_facetISt5ctypeIcEERKT_RKSt6locale
                0x00000000        0x0 /usr/qnx650/target/qnx6/x86/lib/crt1.o
 .rel.text._ZNSt6vectorIhSaIhEEC1ERKS1_
                0x00000000        0x0 /usr/qnx650/target/qnx6/x86/lib/crt1.o
 .rel.text._ZNSt6vectorIhSaIhEED1Ev
                0x00000000        0x0 /usr/qnx650/target/qnx6/x86/lib/crt1.o
 .rel.text._ZNSt6vectorIS_IhSaIhEESaIS1_EED1Ev
                0x00000000        0x0 /usr/qnx650/target/qnx6/x86/lib/crt1.o
 .rel.text._ZNSt6vectorIhSaIhEEC1Ej
                0x00000000        0x0 /usr/qnx650/target/qnx6/x86/lib/crt1.o
 .rel.text._ZNSt6vectorIhSaIhEEC1Ev
                0x00000000        0x0 /usr/qnx650/target/qnx6/x86/lib/crt1.o
 .rel.text._ZNSt6vectorIS_IhSaIhEESaIS1_EEC1Ev
                0x00000000        0x0 /usr/qnx650/target/qnx6/x86/lib/crt1.o
 .rel.text._ZNSt19basic_ostringstreamIcSt11char_traitsIcESaIcEEC1ENSt5_IosbIiE9_OpenmodeE
                0x00000000        0x0 /usr/qnx650/target/qnx6/x86/lib/crt1.o
 .rel.text._ZNSt19basic_ostringstreamIcSt11char_traitsIcESaIcEED1Ev
                0x00000000        0x0 /usr/qnx650/target/qnx6/x86/lib/crt1.o
 .rel.text._ZNSt19basic_ostringstreamIcSt11char_traitsIcESaIcEED0Ev
                0x00000000        0x0 /usr/qnx650/target/qnx6/x86/lib/crt1.o
 .rel.text._ZStlsISt11char_traitsIcEERSt13basic_ostreamIcT_ES5_PKc
                0x00000000        0x0 /usr/qnx650/target/qnx6/x86/lib/crt1.o
 .rel.text._ZNKSt19basic_ostringstreamIcSt11char_traitsIcESaIcEE3strEv
                0x00000000        0x0 /usr/qnx650/target/qnx6/x86/lib/crt1.o
 .rel.text._ZNSt6vectorIhSaIhEE6insertISt16_Vector_iteratorIhS0_EEEvS4_T_S5_
                0x00000000        0x0 /usr/qnx650/target/qnx6/x86/lib/crt1.o
 .rel.text._ZSt7advanceISt16_Vector_iteratorIhSaIhEEjEvRT_T0_
                0x00000000        0x0 /usr/qnx650/target/qnx6/x86/lib/crt1.o
 .rel.text._ZNSt6vectorIhSaIhEE5eraseESt16_Vector_iteratorIhS0_ES3_
                0x00000000        0x0 /usr/qnx650/target/qnx6/x86/lib/crt1.o
 .rel.text._ZNSt6vectorIhSaIhEE9push_backERKh
                0x00000000        0x0 /usr/qnx650/target/qnx6/x86/lib/crt1.o
 .rel.text._ZN16program_settings13bytes_of_typeItEESt6vectorIhSaIhEET_b
                0x00000000        0x0 /usr/qnx650/target/qnx6/x86/lib/crt1.o
 .rel.text._ZNSt6vectorIS_IhSaIhEESaIS1_EE8_DestroyEPS1_S4_
                0x00000000        0x0 /usr/qnx650/target/qnx6/x86/lib/crt1.o
 .rel.text._ZNSaISt6vectorIhSaIhEEE10deallocateEPS1_j
                0x00000000        0x0 /usr/qnx650/target/qnx6/x86/lib/crt1.o
 .rel.text._ZNSt6vectorIS_IhSaIhEESaIS1_EE4_BuyEj
                0x00000000        0x0 /usr/qnx650/target/qnx6/x86/lib/crt1.o
 .rel.text._ZSt4copyIPhS0_ET0_T_S2_S1_
                0x00000000        0x0 /usr/qnx650/target/qnx6/x86/lib/crt1.o
 .rel.text._ZNSt6vectorIhSaIhEE8_DestroyEPhS2_
                0x00000000        0x0 /usr/qnx650/target/qnx6/x86/lib/crt1.o
 .rel.text._ZNSt6vectorIhSaIhEE6_UcopyIPhEES3_T_S4_S3_
                0x00000000        0x0 /usr/qnx650/target/qnx6/x86/lib/crt1.o
 .rel.text._ZNSaIhE10deallocateEPhj
                0x00000000        0x0 /usr/qnx650/target/qnx6/x86/lib/crt1.o
 .rel.text._ZNSt6vectorIhSaIhEE4_BuyEj
                0x00000000        0x0 /usr/qnx650/target/qnx6/x86/lib/crt1.o
 .rel.text._ZNSaIhEC1ERKS_
                0x00000000        0x0 /usr/qnx650/target/qnx6/x86/lib/crt1.o
 .rel.text._ZNSt11_Vector_valIhSaIhEEC2ES0_
                0x00000000        0x0 /usr/qnx650/target/qnx6/x86/lib/crt1.o
 .rel.text._ZNKSt6vectorIhSaIhEE5beginEv
                0x00000000        0x0 /usr/qnx650/target/qnx6/x86/lib/crt1.o
 .rel.text._ZNKSt6vectorIhSaIhEE3endEv
                0x00000000        0x0 /usr/qnx650/target/qnx6/x86/lib/crt1.o
 .rel.text._ZNSt6vectorIhSaIhEE6_UcopyISt22_Vector_const_iteratorIhS0_EEEPhT_S6_S5_
                0x00000000        0x0 /usr/qnx650/target/qnx6/x86/lib/crt1.o
 .rel.text._ZNSt6vectorIhSaIhEE5_TidyEv
                0x00000000        0x0 /usr/qnx650/target/qnx6/x86/lib/crt1.o
 .rel.text._ZNSaISt6vectorIhSaIhEEEC1ERKS2_
                0x00000000        0x0 /usr/qnx650/target/qnx6/x86/lib/crt1.o
 .rel.text._ZNSt11_Vector_valISt6vectorIhSaIhEESaIS2_EEC2ES3_
                0x00000000        0x0 /usr/qnx650/target/qnx6/x86/lib/crt1.o
 .rel.text._ZNSt6vectorIS_IhSaIhEESaIS1_EE5_TidyEv
                0x00000000        0x0 /usr/qnx650/target/qnx6/x86/lib/crt1.o
 .rel.text._ZNSaIhEC1Ev
                0x00000000        0x0 /usr/qnx650/target/qnx6/x86/lib/crt1.o
 .rel.text._ZNSt6vectorIhSaIhEE12_Construct_nEjRKh
                0x00000000        0x0 /usr/qnx650/target/qnx6/x86/lib/crt1.o
 .rel.text._ZNSaISt6vectorIhSaIhEEEC1Ev
                0x00000000        0x0 /usr/qnx650/target/qnx6/x86/lib/crt1.o
 .rel.text._ZNSt9basic_iosIcSt11char_traitsIcEEC2Ev
                0x00000000        0x0 /usr/qnx650/target/qnx6/x86/lib/crt1.o
 .rel.text._ZNSt9basic_iosIcSt11char_traitsIcEED2Ev
                0x00000000        0x0 /usr/qnx650/target/qnx6/x86/lib/crt1.o
 .rel.text._ZNSt9basic_iosIcSt11char_traitsIcEED1Ev
                0x00000000        0x0 /usr/qnx650/target/qnx6/x86/lib/crt1.o
 .rel.text._ZNSt9basic_iosIcSt11char_traitsIcEED0Ev
                0x00000000        0x0 /usr/qnx650/target/qnx6/x86/lib/crt1.o
 .rel.text._ZNSoC2EPSt15basic_streambufIcSt11char_traitsIcEEb
                0x00000000        0x0 /usr/qnx650/target/qnx6/x86/lib/crt1.o
 .rel.text._ZNSoD2Ev
                0x00000000        0x0 /usr/qnx650/target/qnx6/x86/lib/crt1.o
 .rel.text._ZNSoD1Ev
                0x00000000        0x0 /usr/qnx650/target/qnx6/x86/lib/crt1.o
 .rel.text._ZNSoD0Ev
                0x00000000        0x0 /usr/qnx650/target/qnx6/x86/lib/crt1.o
 .rel.text._ZNSt15basic_stringbufIcSt11char_traitsIcESaIcEEC1ENSt5_IosbIiE9_OpenmodeE
                0x00000000        0x0 /usr/qnx650/target/qnx6/x86/lib/crt1.o
 .rel.text._ZNSt15basic_stringbufIcSt11char_traitsIcESaIcEED1Ev
                0x00000000        0x0 /usr/qnx650/target/qnx6/x86/lib/crt1.o
 .rel.text._ZNSt15basic_stringbufIcSt11char_traitsIcESaIcEED0Ev
                0x00000000        0x0 /usr/qnx650/target/qnx6/x86/lib/crt1.o
 .rel.text._ZNSo6sentryC1ERSo
                0x00000000        0x0 /usr/qnx650/target/qnx6/x86/lib/crt1.o
 .rel.text._ZNSo6sentryD1Ev
                0x00000000        0x0 /usr/qnx650/target/qnx6/x86/lib/crt1.o
 .rel.text._ZNSt15basic_streambufIcSt11char_traitsIcEE5sputcEc
                0x00000000        0x0 /usr/qnx650/target/qnx6/x86/lib/crt1.o
 .rel.text._ZNSt9basic_iosIcSt11char_traitsIcEE8setstateENSt5_IosbIiE8_IostateEb
                0x00000000        0x0 /usr/qnx650/target/qnx6/x86/lib/crt1.o
 .rel.text._ZNKSt15basic_stringbufIcSt11char_traitsIcESaIcEE3strEv
                0x00000000        0x0 /usr/qnx650/target/qnx6/x86/lib/crt1.o
 .rel.text._ZNSt6vectorIhSaIhEE7_InsertISt16_Vector_iteratorIhS0_EEEvS4_T_S5_St20forward_iterator_tag
                0x00000000        0x0 /usr/qnx650/target/qnx6/x86/lib/crt1.o
 .rel.text._ZSt8_AdvanceISt16_Vector_iteratorIhSaIhEEjEvRT_T0_St26random_access_iterator_tag
                0x00000000        0x0 /usr/qnx650/target/qnx6/x86/lib/crt1.o
 .rel.text._ZNSt6vectorIhSaIhEE6_UfillEPhjRKh
                0x00000000        0x0 /usr/qnx650/target/qnx6/x86/lib/crt1.o
 .rel.text._ZNSt6vectorIhSaIhEE6insertESt16_Vector_iteratorIhS0_ERKh
                0x00000000        0x0 /usr/qnx650/target/qnx6/x86/lib/crt1.o
 .rel.text._ZNSt6vectorIhSaIhEEixEj
                0x00000000        0x0 /usr/qnx650/target/qnx6/x86/lib/crt1.o
 .rel.text._ZSt14_Destroy_rangeISt6vectorIhSaIhEESaIS2_EEvPT_S5_RT0_
                0x00000000        0x0 /usr/qnx650/target/qnx6/x86/lib/crt1.o
 .rel.text._ZNKSt6vectorIS_IhSaIhEESaIS1_EE8max_sizeEv
                0x00000000        0x0 /usr/qnx650/target/qnx6/x86/lib/crt1.o
 .rel.text._ZNKSt6vectorIS_IhSaIhEESaIS1_EE5_XlenEv
                0x00000000        0x0 /usr/qnx650/target/qnx6/x86/lib/crt1.o
 .rel.text._ZNSaISt6vectorIhSaIhEEE8allocateEj
                0x00000000        0x0 /usr/qnx650/target/qnx6/x86/lib/crt1.o
 .rel.text._ZSt9_Copy_optIPhS0_ET0_T_S2_S1_St24_Scalar_ptr_iterator_tag
                0x00000000        0x0 /usr/qnx650/target/qnx6/x86/lib/crt1.o
 .rel.text._ZSt14_Destroy_rangeIhSaIhEEvPT_S2_RT0_
                0x00000000        0x0 /usr/qnx650/target/qnx6/x86/lib/crt1.o
 .rel.text._ZSt19_Uninitialized_copyIPhS0_SaIhEET0_T_S3_S2_RT1_
                0x00000000        0x0 /usr/qnx650/target/qnx6/x86/lib/crt1.o
 .rel.text._ZNKSt6vectorIhSaIhEE8max_sizeEv
                0x00000000        0x0 /usr/qnx650/target/qnx6/x86/lib/crt1.o
 .rel.text._ZNKSt6vectorIhSaIhEE5_XlenEv
                0x00000000        0x0 /usr/qnx650/target/qnx6/x86/lib/crt1.o
 .rel.text._ZNSaIhE8allocateEj
                0x00000000        0x0 /usr/qnx650/target/qnx6/x86/lib/crt1.o
 .rel.text._ZNSt22_Vector_const_iteratorIhSaIhEEC1EPh
                0x00000000        0x0 /usr/qnx650/target/qnx6/x86/lib/crt1.o
 .rel.text._ZSt19_Uninitialized_copyISt22_Vector_const_iteratorIhSaIhEEPhS1_ET0_T_S5_S4_RT1_
                0x00000000        0x0 /usr/qnx650/target/qnx6/x86/lib/crt1.o
 .rel.text._ZNSt9basic_iosIcSt11char_traitsIcEE4initEPSt15basic_streambufIcS1_Eb
                0x00000000        0x0 /usr/qnx650/target/qnx6/x86/lib/crt1.o
 .rel.text._ZNSt15basic_streambufIcSt11char_traitsIcEEC2Ev
                0x00000000        0x0 /usr/qnx650/target/qnx6/x86/lib/crt1.o
 .rel.text._ZNSt15basic_streambufIcSt11char_traitsIcEED2Ev
                0x00000000        0x0 /usr/qnx650/target/qnx6/x86/lib/crt1.o
 .rel.text._ZNSt15basic_streambufIcSt11char_traitsIcEED1Ev
                0x00000000        0x0 /usr/qnx650/target/qnx6/x86/lib/crt1.o
 .rel.text._ZNSt15basic_streambufIcSt11char_traitsIcEED0Ev
                0x00000000        0x0 /usr/qnx650/target/qnx6/x86/lib/crt1.o
 .rel.text._ZNSt15basic_stringbufIcSt11char_traitsIcESaIcEE5_InitEPKcji
                0x00000000        0x0 /usr/qnx650/target/qnx6/x86/lib/crt1.o
 .rel.text._ZNSt15basic_stringbufIcSt11char_traitsIcESaIcEE9_GetstateENSt5_IosbIiE9_OpenmodeE
                0x00000000        0x0 /usr/qnx650/target/qnx6/x86/lib/crt1.o
 .rel.text._ZNSt15basic_stringbufIcSt11char_traitsIcESaIcEE5_TidyEv
                0x00000000        0x0 /usr/qnx650/target/qnx6/x86/lib/crt1.o
 .rel.text._ZNSo12_Sentry_baseC2ERSo
                0x00000000        0x0 /usr/qnx650/target/qnx6/x86/lib/crt1.o
 .rel.text._ZNSo12_Sentry_baseD2Ev
                0x00000000        0x0 /usr/qnx650/target/qnx6/x86/lib/crt1.o
 .rel.text._ZNSo5flushEv
                0x00000000        0x0 /usr/qnx650/target/qnx6/x86/lib/crt1.o
 .rel.text._ZNSo5_OsfxEv
                0x00000000        0x0 /usr/qnx650/target/qnx6/x86/lib/crt1.o
 .rel.text._ZNSt15basic_streambufIcSt11char_traitsIcEE8overflowEi
                0x00000000        0x0 /usr/qnx650/target/qnx6/x86/lib/crt1.o
 .rel.text._ZNSt15basic_streambufIcSt11char_traitsIcEE6xsputnEPKci
                0x00000000        0x0 /usr/qnx650/target/qnx6/x86/lib/crt1.o
 .rel.text._ZNSt9basic_iosIcSt11char_traitsIcEE5clearENSt5_IosbIiE8_IostateEb
                0x00000000        0x0 /usr/qnx650/target/qnx6/x86/lib/crt1.o
 .rel.text._ZNSsC1EPKcj
                0x00000000        0x0 /usr/qnx650/target/qnx6/x86/lib/crt1.o
 .rel.text._ZSt9_DistanceISt16_Vector_iteratorIhSaIhEEjEvT_S3_RT0_
                0x00000000        0x0 /usr/qnx650/target/qnx6/x86/lib/crt1.o
 .rel.text._ZNSt6vectorIhSaIhEE6_UcopyISt16_Vector_iteratorIhS0_EEEPhT_S6_S5_
                0x00000000        0x0 /usr/qnx650/target/qnx6/x86/lib/crt1.o
 .rel.text._ZNKSt16_Vector_iteratorIhSaIhEEmiERKSt22_Vector_const_iteratorIhS0_E
                0x00000000        0x0 /usr/qnx650/target/qnx6/x86/lib/crt1.o
 .rel.text._ZSt7advanceISt16_Vector_iteratorIhSaIhEEiEvRT_T0_
                0x00000000        0x0 /usr/qnx650/target/qnx6/x86/lib/crt1.o
 .rel.text._ZSt4copyISt16_Vector_iteratorIhSaIhEEPhET0_T_S5_S4_
                0x00000000        0x0 /usr/qnx650/target/qnx6/x86/lib/crt1.o
 .rel.text._ZSt13copy_backwardIPhS0_ET0_T_S2_S1_
                0x00000000        0x0 /usr/qnx650/target/qnx6/x86/lib/crt1.o
 .rel.text._ZSt21_Uninitialized_fill_nIPhjhSaIhEEvT_T0_RKT1_RT2_
                0x00000000        0x0 /usr/qnx650/target/qnx6/x86/lib/crt1.o
 .rel.text._ZNSt6vectorIhSaIhEE9_Insert_nESt16_Vector_iteratorIhS0_EjRKh
                0x00000000        0x0 /usr/qnx650/target/qnx6/x86/lib/crt1.o
 .rel.text._ZNKSt16_Vector_iteratorIhSaIhEEplEi
                0x00000000        0x0 /usr/qnx650/target/qnx6/x86/lib/crt1.o
 .rel.text._ZSt14_Destroy_rangeISt6vectorIhSaIhEESaIS2_EEvPT_S5_RT0_St27_Nonscalar_ptr_iterator_tag
                0x00000000        0x0 /usr/qnx650/target/qnx6/x86/lib/crt1.o
 .rel.text._ZSt9_AllocateISt6vectorIhSaIhEEEPT_jS4_
                0x00000000        0x0 /usr/qnx650/target/qnx6/x86/lib/crt1.o
 .rel.text._ZSt12_Uninit_copyIhhEPT0_PT_S3_S1_RSaIS0_ESt24_Scalar_ptr_iterator_tag
                0x00000000        0x0 /usr/qnx650/target/qnx6/x86/lib/crt1.o
 .rel.text._ZSt9_AllocateIhEPT_jS1_
                0x00000000        0x0 /usr/qnx650/target/qnx6/x86/lib/crt1.o
 .rel.text._ZSt12_Uninit_copyISt22_Vector_const_iteratorIhSaIhEEPhS1_ET0_T_S5_S4_RT1_St27_Nonscalar_ptr_iterator_tag
                0x00000000        0x0 /usr/qnx650/target/qnx6/x86/lib/crt1.o
 .rel.text._ZNKSt9basic_iosIcSt11char_traitsIcEE5widenEc
                0x00000000        0x0 /usr/qnx650/target/qnx6/x86/lib/crt1.o
 .rel.text._ZNSt15basic_streambufIcSt11char_traitsIcEE5_InitEv
                0x00000000        0x0 /usr/qnx650/target/qnx6/x86/lib/crt1.o
 .rel.text._ZNSt15basic_streambufIcSt11char_traitsIcEE5_LockEv
                0x00000000        0x0 /usr/qnx650/target/qnx6/x86/lib/crt1.o
 .rel.text._ZNSt15basic_streambufIcSt11char_traitsIcEE7_UnlockEv
                0x00000000        0x0 /usr/qnx650/target/qnx6/x86/lib/crt1.o
 .rel.text._ZSt10_Distance2ISt16_Vector_iteratorIhSaIhEEjEvT_S3_RT0_St26random_access_iterator_tag
                0x00000000        0x0 /usr/qnx650/target/qnx6/x86/lib/crt1.o
 .rel.text._ZSt19_Uninitialized_copyISt16_Vector_iteratorIhSaIhEEPhS1_ET0_T_S5_S4_RT1_
                0x00000000        0x0 /usr/qnx650/target/qnx6/x86/lib/crt1.o
 .rel.text._ZSt8_AdvanceISt16_Vector_iteratorIhSaIhEEiEvRT_T0_St26random_access_iterator_tag
                0x00000000        0x0 /usr/qnx650/target/qnx6/x86/lib/crt1.o
 .rel.text._ZSt9_Copy_optISt16_Vector_iteratorIhSaIhEEPhET0_T_S5_S4_St27_Nonscalar_ptr_iterator_tag
                0x00000000        0x0 /usr/qnx650/target/qnx6/x86/lib/crt1.o
 .rel.text._ZSt18_Copy_backward_optIPhS0_ET0_T_S2_S1_St24_Scalar_ptr_iterator_tag
                0x00000000        0x0 /usr/qnx650/target/qnx6/x86/lib/crt1.o
 .rel.text._ZSt14_Uninit_fill_nIhjhEvPT_T0_RKT1_RSaIS0_ESt24_Scalar_ptr_iterator_tag
                0x00000000        0x0 /usr/qnx650/target/qnx6/x86/lib/crt1.o
 .rel.text._ZNSaISt6vectorIhSaIhEEE7destroyEPS1_
                0x00000000        0x0 /usr/qnx650/target/qnx6/x86/lib/crt1.o
 .rel.text._ZNSaIhE9constructEPhRKh
                0x00000000        0x0 /usr/qnx650/target/qnx6/x86/lib/crt1.o
 .rel.text._ZNSaIhE7destroyEPh
                0x00000000        0x0 /usr/qnx650/target/qnx6/x86/lib/crt1.o
 .rel.text._ZSt12_Uninit_copyISt16_Vector_iteratorIhSaIhEEPhS1_ET0_T_S5_S4_RT1_St27_Nonscalar_ptr_iterator_tag
                0x00000000        0x0 /usr/qnx650/target/qnx6/x86/lib/crt1.o
 .rel.text._ZSt8_DestroyISt6vectorIhSaIhEEEvPT_
                0x00000000        0x0 /usr/qnx650/target/qnx6/x86/lib/crt1.o
 .rel.text._ZSt10_ConstructIhhEvPT_RKT0_
                0x00000000        0x0 /usr/qnx650/target/qnx6/x86/lib/crt1.o
 .rel.text._ZNSt15basic_stringbufIcSt11char_traitsIcESaIcEE8overflowEi
                0x00000000        0x0 /usr/qnx650/target/qnx6/x86/lib/crt1.o
 .rel.text._ZNSt15basic_stringbufIcSt11char_traitsIcESaIcEE9pbackfailEi
                0x00000000        0x0 /usr/qnx650/target/qnx6/x86/lib/crt1.o
 .rel.text._ZNSt15basic_stringbufIcSt11char_traitsIcESaIcEE9underflowEv
                0x00000000        0x0 /usr/qnx650/target/qnx6/x86/lib/crt1.o
 .rel.text._ZNSt15basic_streambufIcSt11char_traitsIcEE5uflowEv
                0x00000000        0x0 /usr/qnx650/target/qnx6/x86/lib/crt1.o
 .rel.text._ZNSt15basic_streambufIcSt11char_traitsIcEE6xsgetnEPci
                0x00000000        0x0 /usr/qnx650/target/qnx6/x86/lib/crt1.o
 .rel.text._ZNSt15basic_stringbufIcSt11char_traitsIcESaIcEE7seekoffElNSt5_IosbIiE8_SeekdirENS5_9_OpenmodeE
                0x00000000        0x0 /usr/qnx650/target/qnx6/x86/lib/crt1.o
 .rel.text._ZNSt15basic_stringbufIcSt11char_traitsIcESaIcEE7seekposESt4fposI9_MbstatetENSt5_IosbIiE9_OpenmodeE
                0x00000000        0x0 /usr/qnx650/target/qnx6/x86/lib/crt1.o
 .rel.text._ZNSt15basic_streambufIcSt11char_traitsIcEE9pbackfailEi
                0x00000000        0x0 /usr/qnx650/target/qnx6/x86/lib/crt1.o
 .rel.text._ZNSt15basic_streambufIcSt11char_traitsIcEE9underflowEv
                0x00000000        0x0 /usr/qnx650/target/qnx6/x86/lib/crt1.o
 .rel.text._ZNSt15basic_streambufIcSt11char_traitsIcEE7seekoffElNSt5_IosbIiE8_SeekdirENS4_9_OpenmodeE
                0x00000000        0x0 /usr/qnx650/target/qnx6/x86/lib/crt1.o
 .rel.text._ZNSt15basic_streambufIcSt11char_traitsIcEE7seekposESt4fposI9_MbstatetENSt5_IosbIiE9_OpenmodeE
                0x00000000        0x0 /usr/qnx650/target/qnx6/x86/lib/crt1.o
 .rel.text._ZNSt4fposI9_MbstatetEC1El
                0x00000000        0x0 /usr/qnx650/target/qnx6/x86/lib/crt1.o
 .rel.text._ZNSt11char_traitsIcE7compareEPKcS2_j
                0x00000000        0x0 /usr/qnx650/target/qnx6/x86/lib/crt1.o
 .rel.text._ZNSt11char_traitsIcE4findEPKcjRS1_
                0x00000000        0x0 /usr/qnx650/target/qnx6/x86/lib/crt1.o
 .rel.text._ZNSt11char_traitsIcE6assignEPcjc
                0x00000000        0x0 /usr/qnx650/target/qnx6/x86/lib/crt1.o
 .rel.text.localeconv
                0x00000000        0x0 /usr/qnx650/target/qnx6/x86/lib/crt1.o
 .rel.text._ZNKSt8_Locinfo9_GetlconvEv
                0x00000000        0x0 /usr/qnx650/target/qnx6/x86/lib/crt1.o
 .rel.text._ZNSt12codecvt_baseC2Ej
                0x00000000        0x0 /usr/qnx650/target/qnx6/x86/lib/crt1.o
 .rel.text._ZNKSt12codecvt_base13always_noconvEv
                0x00000000        0x0 /usr/qnx650/target/qnx6/x86/lib/crt1.o
 .rel.text._ZNSt12codecvt_baseD2Ev
                0x00000000        0x0 /usr/qnx650/target/qnx6/x86/lib/crt1.o
 .rel.text._ZNSt12codecvt_baseD1Ev
                0x00000000        0x0 /usr/qnx650/target/qnx6/x86/lib/crt1.o
 .rel.text._ZNSt12codecvt_baseD0Ev
                0x00000000        0x0 /usr/qnx650/target/qnx6/x86/lib/crt1.o
 .rel.text._ZNKSt8ios_basecvPvEv
                0x00000000        0x0 /usr/qnx650/target/qnx6/x86/lib/crt1.o
 .rel.text._ZSt3hexRSt8ios_base
                0x00000000        0x0 /usr/qnx650/target/qnx6/x86/lib/crt1.o
 .rel.text._ZSt6_FgetcIcEbRT_P6_Filet
                0x00000000        0x0 /usr/qnx650/target/qnx6/x86/lib/crt1.o
 .rel.text._ZSt6_FputcIcEbT_P6_Filet
                0x00000000        0x0 /usr/qnx650/target/qnx6/x86/lib/crt1.o
 .rel.text._ZSt7_UngetcIcEbRKT_P6_Filet
                0x00000000        0x0 /usr/qnx650/target/qnx6/x86/lib/crt1.o
 .rel.text._ZN17comport_exceptionC1ESs
                0x00000000        0x0 /usr/qnx650/target/qnx6/x86/lib/crt1.o
 .rel.text._ZN17comport_exception15get_descriptionEv
                0x00000000        0x0 /usr/qnx650/target/qnx6/x86/lib/crt1.o
 .rel.text._ZN17comport_exceptionD1Ev
                0x00000000        0x0 /usr/qnx650/target/qnx6/x86/lib/crt1.o
 .rel.text._ZN17comport_exceptionC1ERKS_
                0x00000000        0x0 /usr/qnx650/target/qnx6/x86/lib/crt1.o
 .rel.text._ZNSt6vectorIhSaIhEEaSERKS1_
                0x00000000        0x0 /usr/qnx650/target/qnx6/x86/lib/crt1.o
 .rel.text._ZNSt6vectorIcSaIcEEC1Ej
                0x00000000        0x0 /usr/qnx650/target/qnx6/x86/lib/crt1.o
 .rel.text._ZNSt6vectorIcSaIcEED1Ev
                0x00000000        0x0 /usr/qnx650/target/qnx6/x86/lib/crt1.o
 .rel.text._ZNSt6vectorIcSaIcEEixEj
                0x00000000        0x0 /usr/qnx650/target/qnx6/x86/lib/crt1.o
 .rel.text._ZNSt14basic_ifstreamIcSt11char_traitsIcEEC1EPKcNSt5_IosbIiE9_OpenmodeEi
                0x00000000        0x0 /usr/qnx650/target/qnx6/x86/lib/crt1.o
 .rel.text._ZNSt14basic_ifstreamIcSt11char_traitsIcEED1Ev
                0x00000000        0x0 /usr/qnx650/target/qnx6/x86/lib/crt1.o
 .rel.text._ZNSt14basic_ifstreamIcSt11char_traitsIcEED0Ev
                0x00000000        0x0 /usr/qnx650/target/qnx6/x86/lib/crt1.o
 .rel.text._ZNKSt14basic_ifstreamIcSt11char_traitsIcEE7is_openEv
                0x00000000        0x0 /usr/qnx650/target/qnx6/x86/lib/crt1.o
 .rel.text._ZSt7getlineIcSt11char_traitsIcESaIcEERSt13basic_istreamIT_T0_ES7_RSbIS4_S5_T1_E
                0x00000000        0x0 /usr/qnx650/target/qnx6/x86/lib/crt1.o
 .rel.text._ZNKSs17find_first_not_ofEPKcj
                0x00000000        0x0 /usr/qnx650/target/qnx6/x86/lib/crt1.o
 .rel.text._ZNKSs16find_last_not_ofEPKcj
                0x00000000        0x0 /usr/qnx650/target/qnx6/x86/lib/crt1.o
 .rel.text._ZNKSs6substrEjj
                0x00000000        0x0 /usr/qnx650/target/qnx6/x86/lib/crt1.o
 .rel.text._ZNSsixEj
                0x00000000        0x0 /usr/qnx650/target/qnx6/x86/lib/crt1.o
 .rel.text._ZSteqIcSt11char_traitsIcESaIcEEbRKSbIT_T0_T1_EPKS3_
                0x00000000        0x0 /usr/qnx650/target/qnx6/x86/lib/crt1.o
 .rel.text._ZNSt19basic_istringstreamIcSt11char_traitsIcESaIcEEC1ERKSsNSt5_IosbIiE9_OpenmodeE
                0x00000000        0x0 /usr/qnx650/target/qnx6/x86/lib/crt1.o
 .rel.text._ZNSt19basic_istringstreamIcSt11char_traitsIcESaIcEED1Ev
                0x00000000        0x0 /usr/qnx650/target/qnx6/x86/lib/crt1.o
 .rel.text._ZNSt19basic_istringstreamIcSt11char_traitsIcESaIcEED0Ev
                0x00000000        0x0 /usr/qnx650/target/qnx6/x86/lib/crt1.o
 .rel.text._ZNSi6sentryD1Ev
                0x00000000        0x0 /usr/qnx650/target/qnx6/x86/lib/crt1.o
 .rel.text._ZNSirsERj
                0x00000000        0x0 /usr/qnx650/target/qnx6/x86/lib/crt1.o
 .rel.text._ZNSt14basic_ifstreamIcSt11char_traitsIcEE5closeEv
                0x00000000        0x0 /usr/qnx650/target/qnx6/x86/lib/crt1.o
 .rel.text._ZNSt6vectorIhSaIhEE5clearEv
                0x00000000        0x0 /usr/qnx650/target/qnx6/x86/lib/crt1.o
 .rel.text._ZNSolsEi
                0x00000000        0x0 /usr/qnx650/target/qnx6/x86/lib/crt1.o
 .rel.text._ZNSt6vectorIhSaIhEE6resizeEj
                0x00000000        0x0 /usr/qnx650/target/qnx6/x86/lib/crt1.o
 .rel.text._ZStplIcSt11char_traitsIcESaIcEESbIT_T0_T1_ERKS6_S8_
                0x00000000        0x0 /usr/qnx650/target/qnx6/x86/lib/crt1.o
 .rel.text._ZNSt16_Vector_iteratorIhSaIhEEC1Ev
                0x00000000        0x0 /usr/qnx650/target/qnx6/x86/lib/crt1.o
 .rel.text._ZNSt6vectorIhSaIhEEC1ISt16_Vector_iteratorIhS0_EEET_S5_
                0x00000000        0x0 /usr/qnx650/target/qnx6/x86/lib/crt1.o
 .rel.text._ZSt4endlIcSt11char_traitsIcEERSt13basic_ostreamIT_T0_ES6_
                0x00000000        0x0 /usr/qnx650/target/qnx6/x86/lib/crt1.o
 .rel.text._ZNSt11_Vector_valIcSaIcEEC2ES0_
                0x00000000        0x0 /usr/qnx650/target/qnx6/x86/lib/crt1.o
 .rel.text._ZNSt6vectorIcSaIcEE12_Construct_nEjRKc
                0x00000000        0x0 /usr/qnx650/target/qnx6/x86/lib/crt1.o
 .rel.text._ZNSt6vectorIcSaIcEE5_TidyEv
                0x00000000        0x0 /usr/qnx650/target/qnx6/x86/lib/crt1.o
 .rel.text._ZNSt6vectorIcSaIcEE5beginEv
                0x00000000        0x0 /usr/qnx650/target/qnx6/x86/lib/crt1.o
 .rel.text._ZNKSt16_Vector_iteratorIcSaIcEEplEi
                0x00000000        0x0 /usr/qnx650/target/qnx6/x86/lib/crt1.o
 .rel.text._ZNKSt16_Vector_iteratorIcSaIcEEdeEv
                0x00000000        0x0 /usr/qnx650/target/qnx6/x86/lib/crt1.o
 .rel.text._ZNSiC2EPSt15basic_streambufIcSt11char_traitsIcEEbb
                0x00000000        0x0 /usr/qnx650/target/qnx6/x86/lib/crt1.o
 .rel.text._ZNSiD2Ev
                0x00000000        0x0 /usr/qnx650/target/qnx6/x86/lib/crt1.o
 .rel.text._ZNSiD1Ev
                0x00000000        0x0 /usr/qnx650/target/qnx6/x86/lib/crt1.o
 .rel.text._ZNSiD0Ev
                0x00000000        0x0 /usr/qnx650/target/qnx6/x86/lib/crt1.o
 .rel.text._ZNSt13basic_filebufIcSt11char_traitsIcEEC1EP6_Filet
                0x00000000        0x0 /usr/qnx650/target/qnx6/x86/lib/crt1.o
 .rel.text._ZNSt13basic_filebufIcSt11char_traitsIcEED1Ev
                0x00000000        0x0 /usr/qnx650/target/qnx6/x86/lib/crt1.o
 .rel.text._ZNSt13basic_filebufIcSt11char_traitsIcEED0Ev
                0x00000000        0x0 /usr/qnx650/target/qnx6/x86/lib/crt1.o
 .rel.text._ZNSt13basic_filebufIcSt11char_traitsIcEE4openEPKcNSt5_IosbIiE9_OpenmodeEi
                0x00000000        0x0 /usr/qnx650/target/qnx6/x86/lib/crt1.o
 .rel.text._ZSt7getlineIcSt11char_traitsIcESaIcEERSt13basic_istreamIT_T0_ES7_RSbIS4_S5_T1_ES4_
                0x00000000        0x0 /usr/qnx650/target/qnx6/x86/lib/crt1.o
 .rel.text._ZNKSs17find_first_not_ofEPKcjj
                0x00000000        0x0 /usr/qnx650/target/qnx6/x86/lib/crt1.o
 .rel.text._ZNKSs16find_last_not_ofEPKcjj
                0x00000000        0x0 /usr/qnx650/target/qnx6/x86/lib/crt1.o
 .rel.text._ZNSsC1ERKSsjj
                0x00000000        0x0 /usr/qnx650/target/qnx6/x86/lib/crt1.o
 .rel.text._ZNKSs7compareEPKc
                0x00000000        0x0 /usr/qnx650/target/qnx6/x86/lib/crt1.o
 .rel.text._ZNSt15basic_stringbufIcSt11char_traitsIcESaIcEEC1ERKSsNSt5_IosbIiE9_OpenmodeE
                0x00000000        0x0 /usr/qnx650/target/qnx6/x86/lib/crt1.o
 .rel.text._ZNSi6sentryC1ERSib
                0x00000000        0x0 /usr/qnx650/target/qnx6/x86/lib/crt1.o
 .rel.text._ZNSi12_Sentry_baseD2Ev
                0x00000000        0x0 /usr/qnx650/target/qnx6/x86/lib/crt1.o
 .rel.text._ZSt9use_facetISt7num_getIcSt19istreambuf_iteratorIcSt11char_traitsIcEEEERKT_RKSt6locale
                0x00000000        0x0 /usr/qnx650/target/qnx6/x86/lib/crt1.o
 .rel.text._ZNSt8iteratorISt18input_iterator_tagclPcRcEC2Ev
                0x00000000        0x0 /usr/qnx650/target/qnx6/x86/lib/crt1.o
 .rel.text._ZNSt19istreambuf_iteratorIcSt11char_traitsIcEEC1EPSt15basic_streambufIcS1_E
                0x00000000        0x0 /usr/qnx650/target/qnx6/x86/lib/crt1.o
 .rel.text._ZNSt13basic_filebufIcSt11char_traitsIcEE5closeEv
                0x00000000        0x0 /usr/qnx650/target/qnx6/x86/lib/crt1.o
 .rel.text._ZSt9use_facetISt7num_putIcSt19ostreambuf_iteratorIcSt11char_traitsIcEEEERKT_RKSt6locale
                0x00000000        0x0 /usr/qnx650/target/qnx6/x86/lib/crt1.o
 .rel.text._ZNSt8iteratorISt19output_iterator_tagvvvvEC2Ev
                0x00000000        0x0 /usr/qnx650/target/qnx6/x86/lib/crt1.o
 .rel.text._ZNSt6_OutitC2Ev
                0x00000000        0x0 /usr/qnx650/target/qnx6/x86/lib/crt1.o
 .rel.text._ZNSt19ostreambuf_iteratorIcSt11char_traitsIcEEC1EPSt15basic_streambufIcS1_E
                0x00000000        0x0 /usr/qnx650/target/qnx6/x86/lib/crt1.o
 .rel.text._ZNSt6vectorIhSaIhEE6resizeEjh
                0x00000000        0x0 /usr/qnx650/target/qnx6/x86/lib/crt1.o
 .rel.text._ZNSt22_Vector_const_iteratorIhSaIhEEC2Ev
                0x00000000        0x0 /usr/qnx650/target/qnx6/x86/lib/crt1.o
 .rel.text._ZNSt6vectorIhSaIhEE10_ConstructISt16_Vector_iteratorIhS0_EEEvT_S5_St18input_iterator_tag
                0x00000000        0x0 /usr/qnx650/target/qnx6/x86/lib/crt1.o
 .rel.text._ZNSo3putEc
                0x00000000        0x0 /usr/qnx650/target/qnx6/x86/lib/crt1.o
 .rel.text._ZNSt6vectorIcSaIcEE4_BuyEj
                0x00000000        0x0 /usr/qnx650/target/qnx6/x86/lib/crt1.o
 .rel.text._ZNSt6vectorIcSaIcEE6_UfillEPcjRKc
                0x00000000        0x0 /usr/qnx650/target/qnx6/x86/lib/crt1.o
 .rel.text._ZNSt6vectorIcSaIcEE8_DestroyEPcS2_
                0x00000000        0x0 /usr/qnx650/target/qnx6/x86/lib/crt1.o
 .rel.text._ZNSt16_Vector_iteratorIcSaIcEEC1EPc
                0x00000000        0x0 /usr/qnx650/target/qnx6/x86/lib/crt1.o
 .rel.text._ZNSt13basic_filebufIcSt11char_traitsIcEE5_InitEP6_FiletNS2_7_InitflE
                0x00000000        0x0 /usr/qnx650/target/qnx6/x86/lib/crt1.o
 .rel.text._ZNSt13basic_filebufIcSt11char_traitsIcEE8_InitcvtEPSt7codecvtIcc9_MbstatetE
                0x00000000        0x0 /usr/qnx650/target/qnx6/x86/lib/crt1.o
 .rel.text._ZNKSt15basic_streambufIcSt11char_traitsIcEE6getlocEv
                0x00000000        0x0 /usr/qnx650/target/qnx6/x86/lib/crt1.o
 .rel.text._ZSt9use_facetISt7codecvtIcc9_MbstatetEERKT_RKSt6locale
                0x00000000        0x0 /usr/qnx650/target/qnx6/x86/lib/crt1.o
 .rel.text._ZNSt15basic_streambufIcSt11char_traitsIcEE5sgetcEv
                0x00000000        0x0 /usr/qnx650/target/qnx6/x86/lib/crt1.o
 .rel.text._ZNSt15basic_streambufIcSt11char_traitsIcEE6snextcEv
                0x00000000        0x0 /usr/qnx650/target/qnx6/x86/lib/crt1.o
 .rel.text._ZNSt15basic_streambufIcSt11char_traitsIcEE6sbumpcEv
                0x00000000        0x0 /usr/qnx650/target/qnx6/x86/lib/crt1.o
 .rel.text._ZNSspLEc
                0x00000000        0x0 /usr/qnx650/target/qnx6/x86/lib/crt1.o
 .rel.text._ZNKSs7compareEjjPKcj
                0x00000000        0x0 /usr/qnx650/target/qnx6/x86/lib/crt1.o
 .rel.text._ZNSi12_Sentry_baseC2ERSi
                0x00000000        0x0 /usr/qnx650/target/qnx6/x86/lib/crt1.o
 .rel.text._ZNSi5_IpfxEb
                0x00000000        0x0 /usr/qnx650/target/qnx6/x86/lib/crt1.o
 .rel.text._ZNSt7num_getIcSt19istreambuf_iteratorIcSt11char_traitsIcEEE7_GetcatEPPKNSt6locale5facetE
                0x00000000        0x0 /usr/qnx650/target/qnx6/x86/lib/crt1.o
 .rel.text._ZNKSt7num_getIcSt19istreambuf_iteratorIcSt11char_traitsIcEEE6do_getES3_S3_RSt8ios_baseRNSt5_IosbIiE8_IostateERj
                0x00000000        0x0 /usr/qnx650/target/qnx6/x86/lib/crt1.o
 .rel.text._ZNSt13basic_filebufIcSt11char_traitsIcEE9_EndwriteEv
                0x00000000        0x0 /usr/qnx650/target/qnx6/x86/lib/crt1.o
 .rel.text._ZNSt7num_putIcSt19ostreambuf_iteratorIcSt11char_traitsIcEEE7_GetcatEPPKNSt6locale5facetE
                0x00000000        0x0 /usr/qnx650/target/qnx6/x86/lib/crt1.o
 .rel.text._ZNKSt7num_putIcSt19ostreambuf_iteratorIcSt11char_traitsIcEEE6do_putES3_RSt8ios_basecl
                0x00000000        0x0 /usr/qnx650/target/qnx6/x86/lib/crt1.o
 .rel.text._ZNKSt6vectorIcSaIcEE8max_sizeEv
                0x00000000        0x0 /usr/qnx650/target/qnx6/x86/lib/crt1.o
 .rel.text._ZNKSt6vectorIcSaIcEE5_XlenEv
                0x00000000        0x0 /usr/qnx650/target/qnx6/x86/lib/crt1.o
 .rel.text._ZSt21_Uninitialized_fill_nIPcjcSaIcEEvT_T0_RKT1_RT2_
                0x00000000        0x0 /usr/qnx650/target/qnx6/x86/lib/crt1.o
 .rel.text._ZSt14_Destroy_rangeIcSaIcEEvPT_S2_RT0_
                0x00000000        0x0 /usr/qnx650/target/qnx6/x86/lib/crt1.o
 .rel.text._ZNSt8iteratorISt26random_access_iterator_tagciPKcRS1_EC2Ev
                0x00000000        0x0 /usr/qnx650/target/qnx6/x86/lib/crt1.o
 .rel.text._ZNSt6_RanitIciPKcRS0_EC2Ev
                0x00000000        0x0 /usr/qnx650/target/qnx6/x86/lib/crt1.o
 .rel.text._ZNSt22_Vector_const_iteratorIcSaIcEEC2EPc
                0x00000000        0x0 /usr/qnx650/target/qnx6/x86/lib/crt1.o
 .rel.text._ZNSt7codecvtIcc9_MbstatetE7_GetcatEPPKNSt6locale5facetE
                0x00000000        0x0 /usr/qnx650/target/qnx6/x86/lib/crt1.o
 .rel.text._ZNSs6appendEjc
                0x00000000        0x0 /usr/qnx650/target/qnx6/x86/lib/crt1.o
 .rel.text._ZNSt7num_getIcSt19istreambuf_iteratorIcSt11char_traitsIcEEEC1Ej
                0x00000000        0x0 /usr/qnx650/target/qnx6/x86/lib/crt1.o
 .rel.text._ZNKSt7num_getIcSt19istreambuf_iteratorIcSt11char_traitsIcEEE8_GetifldEPcRS3_S6_NSt5_IosbIiE9_FmtflagsERKSt6locale
                0x00000000        0x0 /usr/qnx650/target/qnx6/x86/lib/crt1.o
 .rel.text._ZSteqIcSt11char_traitsIcEEbRKSt19istreambuf_iteratorIT_T0_ES7_
                0x00000000        0x0 /usr/qnx650/target/qnx6/x86/lib/crt1.o
 .rel.text._ZNSt13basic_filebufIcSt11char_traitsIcEE8overflowEi
                0x00000000        0x0 /usr/qnx650/target/qnx6/x86/lib/crt1.o
 .rel.text._ZNSsC1Ejc
                0x00000000        0x0 /usr/qnx650/target/qnx6/x86/lib/crt1.o
 .rel.text._ZNSs5beginEv
                0x00000000        0x0 /usr/qnx650/target/qnx6/x86/lib/crt1.o
 .rel.text._ZNKSt16_String_iteratorIcSt11char_traitsIcESaIcEEdeEv
                0x00000000        0x0 /usr/qnx650/target/qnx6/x86/lib/crt1.o
 .rel.text._ZNSt7num_putIcSt19ostreambuf_iteratorIcSt11char_traitsIcEEEC1Ej
                0x00000000        0x0 /usr/qnx650/target/qnx6/x86/lib/crt1.o
 .rel.text._ZNKSt7num_putIcSt19ostreambuf_iteratorIcSt11char_traitsIcEEE5_IputES3_RSt8ios_basecPcj
                0x00000000        0x0 /usr/qnx650/target/qnx6/x86/lib/crt1.o
 .rel.text._ZNKSt7num_putIcSt19ostreambuf_iteratorIcSt11char_traitsIcEEE5_IfmtEPcPKcNSt5_IosbIiE9_FmtflagsE
                0x00000000        0x0 /usr/qnx650/target/qnx6/x86/lib/crt1.o
 .rel.text._ZSt14_Uninit_fill_nIcjcEvPT_T0_RKT1_RSaIS0_ESt24_Scalar_ptr_iterator_tag
                0x00000000        0x0 /usr/qnx650/target/qnx6/x86/lib/crt1.o
 .rel.text._ZNSt7codecvtIcc9_MbstatetEC1Ej
                0x00000000        0x0 /usr/qnx650/target/qnx6/x86/lib/crt1.o
 .rel.text._ZNSs9_ChassignEjjc
                0x00000000        0x0 /usr/qnx650/target/qnx6/x86/lib/crt1.o
 .rel.text._ZNSt7num_getIcSt19istreambuf_iteratorIcSt11char_traitsIcEEE5_InitERKSt8_Locinfo
                0x00000000        0x0 /usr/qnx650/target/qnx6/x86/lib/crt1.o
 .rel.text._ZSt9use_facetISt8numpunctIcEERKT_RKSt6locale
                0x00000000        0x0 /usr/qnx650/target/qnx6/x86/lib/crt1.o
 .rel.text._ZNKSt19istreambuf_iteratorIcSt11char_traitsIcEEdeEv
                0x00000000        0x0 /usr/qnx650/target/qnx6/x86/lib/crt1.o
 .rel.text._ZNSt19istreambuf_iteratorIcSt11char_traitsIcEEppEv
                0x00000000        0x0 /usr/qnx650/target/qnx6/x86/lib/crt1.o
 .rel.text._ZStneIcSt11char_traitsIcEEbRKSt19istreambuf_iteratorIT_T0_ES7_
                0x00000000        0x0 /usr/qnx650/target/qnx6/x86/lib/crt1.o
 .rel.text._ZNKSt19istreambuf_iteratorIcSt11char_traitsIcEE5equalERKS2_
                0x00000000        0x0 /usr/qnx650/target/qnx6/x86/lib/crt1.o
 .rel.text._ZNSs6assignEjc
                0x00000000        0x0 /usr/qnx650/target/qnx6/x86/lib/crt1.o
 .rel.text._ZNSt16_String_iteratorIcSt11char_traitsIcESaIcEEC1EPc
                0x00000000        0x0 /usr/qnx650/target/qnx6/x86/lib/crt1.o
 .rel.text._ZNSt7num_putIcSt19ostreambuf_iteratorIcSt11char_traitsIcEEE5_InitERKSt8_Locinfo
                0x00000000        0x0 /usr/qnx650/target/qnx6/x86/lib/crt1.o
 .rel.text._ZNKSt7num_putIcSt19ostreambuf_iteratorIcSt11char_traitsIcEEE4_RepES3_cj
                0x00000000        0x0 /usr/qnx650/target/qnx6/x86/lib/crt1.o
 .rel.text._ZNKSt7num_putIcSt19ostreambuf_iteratorIcSt11char_traitsIcEEE5_PutcES3_PKcj
                0x00000000        0x0 /usr/qnx650/target/qnx6/x86/lib/crt1.o
 .rel.text._ZNKSt7num_putIcSt19ostreambuf_iteratorIcSt11char_traitsIcEEE11_PutgroupedES3_PKcjc
                0x00000000        0x0 /usr/qnx650/target/qnx6/x86/lib/crt1.o
 .rel.text._ZNSt8numpunctIcE7_GetcatEPPKNSt6locale5facetE
                0x00000000        0x0 /usr/qnx650/target/qnx6/x86/lib/crt1.o
 .rel.text._ZNKSt8numpunctIcE11do_groupingEv
                0x00000000        0x0 /usr/qnx650/target/qnx6/x86/lib/crt1.o
 .rel.text._ZNSt19istreambuf_iteratorIcSt11char_traitsIcEE5_PeekEv
                0x00000000        0x0 /usr/qnx650/target/qnx6/x86/lib/crt1.o
 .rel.text._ZNSt19istreambuf_iteratorIcSt11char_traitsIcEE4_IncEv
                0x00000000        0x0 /usr/qnx650/target/qnx6/x86/lib/crt1.o
 .rel.text._ZNSt22_String_const_iteratorIcSt11char_traitsIcESaIcEEC2EPKc
                0x00000000        0x0 /usr/qnx650/target/qnx6/x86/lib/crt1.o
 .rel.text._ZNSt19ostreambuf_iteratorIcSt11char_traitsIcEEaSEc
                0x00000000        0x0 /usr/qnx650/target/qnx6/x86/lib/crt1.o
 .rel.text._ZNSt8numpunctIcEC1Ej
                0x00000000        0x0 /usr/qnx650/target/qnx6/x86/lib/crt1.o
 .rel.text._ZNSt8numpunctIcE5_InitERKSt8_Locinfo
                0x00000000        0x0 /usr/qnx650/target/qnx6/x86/lib/crt1.o
 .rel.text._ZSt10_MaklocstrIcEPT_PKcS1_RKSt7_Cvtvec
                0x00000000        0x0 /usr/qnx650/target/qnx6/x86/lib/crt1.o
 .rel.text._ZNSt8numpunctIcE5_TidyEv
                0x00000000        0x0 /usr/qnx650/target/qnx6/x86/lib/crt1.o
 .rel.text._ZNSt8numpunctIcED1Ev
                0x00000000        0x0 /usr/qnx650/target/qnx6/x86/lib/crt1.o
 .rel.text._ZNSt8numpunctIcED0Ev
                0x00000000        0x0 /usr/qnx650/target/qnx6/x86/lib/crt1.o
 .rel.text._ZNKSt8numpunctIcE12do_falsenameEv
                0x00000000        0x0 /usr/qnx650/target/qnx6/x86/lib/crt1.o
 .rel.text._ZNKSt8numpunctIcE11do_truenameEv
                0x00000000        0x0 /usr/qnx650/target/qnx6/x86/lib/crt1.o
 .rel.text._ZNSt7codecvtIcc9_MbstatetED1Ev
                0x00000000        0x0 /usr/qnx650/target/qnx6/x86/lib/crt1.o
 .rel.text._ZNSt7codecvtIcc9_MbstatetED0Ev
                0x00000000        0x0 /usr/qnx650/target/qnx6/x86/lib/crt1.o
 .rel.text._ZNSt7num_putIcSt19ostreambuf_iteratorIcSt11char_traitsIcEEED1Ev
                0x00000000        0x0 /usr/qnx650/target/qnx6/x86/lib/crt1.o
 .rel.text._ZNSt7num_putIcSt19ostreambuf_iteratorIcSt11char_traitsIcEEED0Ev
                0x00000000        0x0 /usr/qnx650/target/qnx6/x86/lib/crt1.o
 .rel.text._ZNKSt7num_putIcSt19ostreambuf_iteratorIcSt11char_traitsIcEEE6do_putES3_RSt8ios_basecb
                0x00000000        0x0 /usr/qnx650/target/qnx6/x86/lib/crt1.o
 .rel.text._ZNKSt7num_putIcSt19ostreambuf_iteratorIcSt11char_traitsIcEEE6do_putES3_RSt8ios_basecm
                0x00000000        0x0 /usr/qnx650/target/qnx6/x86/lib/crt1.o
 .rel.text._ZNKSt7num_putIcSt19ostreambuf_iteratorIcSt11char_traitsIcEEE6do_putES3_RSt8ios_basecx
                0x00000000        0x0 /usr/qnx650/target/qnx6/x86/lib/crt1.o
 .rel.text._ZNKSt7num_putIcSt19ostreambuf_iteratorIcSt11char_traitsIcEEE6do_putES3_RSt8ios_basecy
                0x00000000        0x0 /usr/qnx650/target/qnx6/x86/lib/crt1.o
 .rel.text._ZNKSt7num_putIcSt19ostreambuf_iteratorIcSt11char_traitsIcEEE6do_putES3_RSt8ios_basecd
                0x00000000        0x0 /usr/qnx650/target/qnx6/x86/lib/crt1.o
 .rel.text._ZNKSt7num_putIcSt19ostreambuf_iteratorIcSt11char_traitsIcEEE6do_putES3_RSt8ios_basece
                0x00000000        0x0 /usr/qnx650/target/qnx6/x86/lib/crt1.o
 .rel.text._ZNKSt7num_putIcSt19ostreambuf_iteratorIcSt11char_traitsIcEEE6do_putES3_RSt8ios_basecPKv
                0x00000000        0x0 /usr/qnx650/target/qnx6/x86/lib/crt1.o
 .rel.text._ZNSt7num_getIcSt19istreambuf_iteratorIcSt11char_traitsIcEEED1Ev
                0x00000000        0x0 /usr/qnx650/target/qnx6/x86/lib/crt1.o
 .rel.text._ZNSt7num_getIcSt19istreambuf_iteratorIcSt11char_traitsIcEEED0Ev
                0x00000000        0x0 /usr/qnx650/target/qnx6/x86/lib/crt1.o
 .rel.text._ZNKSt7num_getIcSt19istreambuf_iteratorIcSt11char_traitsIcEEE6do_getES3_S3_RSt8ios_baseRNSt5_IosbIiE8_IostateERb
                0x00000000        0x0 /usr/qnx650/target/qnx6/x86/lib/crt1.o
 .rel.text._ZNKSt7num_getIcSt19istreambuf_iteratorIcSt11char_traitsIcEEE6do_getES3_S3_RSt8ios_baseRNSt5_IosbIiE8_IostateERt
                0x00000000        0x0 /usr/qnx650/target/qnx6/x86/lib/crt1.o
 .rel.text._ZNKSt7num_getIcSt19istreambuf_iteratorIcSt11char_traitsIcEEE6do_getES3_S3_RSt8ios_baseRNSt5_IosbIiE8_IostateERl
                0x00000000        0x0 /usr/qnx650/target/qnx6/x86/lib/crt1.o
 .rel.text._ZNKSt7num_getIcSt19istreambuf_iteratorIcSt11char_traitsIcEEE6do_getES3_S3_RSt8ios_baseRNSt5_IosbIiE8_IostateERm
                0x00000000        0x0 /usr/qnx650/target/qnx6/x86/lib/crt1.o
 .rel.text._ZNKSt7num_getIcSt19istreambuf_iteratorIcSt11char_traitsIcEEE6do_getES3_S3_RSt8ios_baseRNSt5_IosbIiE8_IostateERx
                0x00000000        0x0 /usr/qnx650/target/qnx6/x86/lib/crt1.o
 .rel.text._ZNKSt7num_getIcSt19istreambuf_iteratorIcSt11char_traitsIcEEE6do_getES3_S3_RSt8ios_baseRNSt5_IosbIiE8_IostateERy
                0x00000000        0x0 /usr/qnx650/target/qnx6/x86/lib/crt1.o
 .rel.text._ZNKSt7num_getIcSt19istreambuf_iteratorIcSt11char_traitsIcEEE6do_getES3_S3_RSt8ios_baseRNSt5_IosbIiE8_IostateERf
                0x00000000        0x0 /usr/qnx650/target/qnx6/x86/lib/crt1.o
 .rel.text._ZNKSt7num_getIcSt19istreambuf_iteratorIcSt11char_traitsIcEEE6do_getES3_S3_RSt8ios_baseRNSt5_IosbIiE8_IostateERd
                0x00000000        0x0 /usr/qnx650/target/qnx6/x86/lib/crt1.o
 .rel.text._ZNKSt7num_getIcSt19istreambuf_iteratorIcSt11char_traitsIcEEE6do_getES3_S3_RSt8ios_baseRNSt5_IosbIiE8_IostateERe
                0x00000000        0x0 /usr/qnx650/target/qnx6/x86/lib/crt1.o
 .rel.text._ZNKSt7num_getIcSt19istreambuf_iteratorIcSt11char_traitsIcEEE6do_getES3_S3_RSt8ios_baseRNSt5_IosbIiE8_IostateERPv
                0x00000000        0x0 /usr/qnx650/target/qnx6/x86/lib/crt1.o
 .rel.text._ZNSt13basic_filebufIcSt11char_traitsIcEE9pbackfailEi
                0x00000000        0x0 /usr/qnx650/target/qnx6/x86/lib/crt1.o
 .rel.text._ZNSt13basic_filebufIcSt11char_traitsIcEE9underflowEv
                0x00000000        0x0 /usr/qnx650/target/qnx6/x86/lib/crt1.o
 .rel.text._ZNSt13basic_filebufIcSt11char_traitsIcEE5uflowEv
                0x00000000        0x0 /usr/qnx650/target/qnx6/x86/lib/crt1.o
 .rel.text._ZNSt13basic_filebufIcSt11char_traitsIcEE7seekoffElNSt5_IosbIiE8_SeekdirENS4_9_OpenmodeE
                0x00000000        0x0 /usr/qnx650/target/qnx6/x86/lib/crt1.o
 .rel.text._ZNSt13basic_filebufIcSt11char_traitsIcEE7seekposESt4fposI9_MbstatetENSt5_IosbIiE9_OpenmodeE
                0x00000000        0x0 /usr/qnx650/target/qnx6/x86/lib/crt1.o
 .rel.text._ZNSt13basic_filebufIcSt11char_traitsIcEE6setbufEPci
                0x00000000        0x0 /usr/qnx650/target/qnx6/x86/lib/crt1.o
 .rel.text._ZNSt13basic_filebufIcSt11char_traitsIcEE4syncEv
                0x00000000        0x0 /usr/qnx650/target/qnx6/x86/lib/crt1.o
 .rel.text._ZNSt13basic_filebufIcSt11char_traitsIcEE5imbueERKSt6locale
                0x00000000        0x0 /usr/qnx650/target/qnx6/x86/lib/crt1.o
 .rel.text._ZNKSt7num_putIcSt19ostreambuf_iteratorIcSt11char_traitsIcEEE4_PutES3_PKcj
                0x00000000        0x0 /usr/qnx650/target/qnx6/x86/lib/crt1.o
 .rel.text._ZNKSt7num_putIcSt19ostreambuf_iteratorIcSt11char_traitsIcEEE5_FputES3_RSt8ios_basecPKcjjjj
                0x00000000        0x0 /usr/qnx650/target/qnx6/x86/lib/crt1.o
 .rel.text._ZNKSt7num_putIcSt19ostreambuf_iteratorIcSt11char_traitsIcEEE5_FfmtEPccNSt5_IosbIiE9_FmtflagsE
                0x00000000        0x0 /usr/qnx650/target/qnx6/x86/lib/crt1.o
 .rel.text._ZSt10_GetloctxtIcSt19istreambuf_iteratorIcSt11char_traitsIcEEEiRT0_S5_jPKT_
                0x00000000        0x0 /usr/qnx650/target/qnx6/x86/lib/crt1.o
 .rel.text._ZNKSt7num_getIcSt19istreambuf_iteratorIcSt11char_traitsIcEEE8_GetffldEPcRS3_S6_RKSt6locale
                0x00000000        0x0 /usr/qnx650/target/qnx6/x86/lib/crt1.o
 .rel.text._ZNSs6insertEjjc
                0x00000000        0x0 /usr/qnx650/target/qnx6/x86/lib/crt1.o
 *(.rel.fini)
 *(.rel.rodata .rel.rodata.* .rel.gnu.linkonce.r.*)
 .rel.rodata._ZTV15system_settings
                0x00000000        0x0 /usr/qnx650/target/qnx6/x86/lib/crt1.o
 .rel.rodata._ZTVSt12length_error
                0x00000000        0x0 /usr/qnx650/target/qnx6/x86/lib/crt1.o
 .rel.rodata._ZTVSt11logic_error
                0x00000000        0x0 /usr/qnx650/target/qnx6/x86/lib/crt1.o
 .rel.rodata._ZTI16spider_exception
                0x00000000        0x0 /usr/qnx650/target/qnx6/x86/lib/crt1.o
 .rel.rodata._ZTI15system_settings
                0x00000000        0x0 /usr/qnx650/target/qnx6/x86/lib/crt1.o
 .rel.rodata._ZTISt12length_error
                0x00000000        0x0 /usr/qnx650/target/qnx6/x86/lib/crt1.o
 .rel.rodata._ZTISt11logic_error
                0x00000000        0x0 /usr/qnx650/target/qnx6/x86/lib/crt1.o
 .rel.rodata._ZTV12metro_device
                0x00000000        0x0 /usr/qnx650/target/qnx6/x86/lib/crt1.o
 .rel.rodata._ZTVSt19basic_ostringstreamIcSt11char_traitsIcESaIcEE
                0x00000000        0x0 /usr/qnx650/target/qnx6/x86/lib/crt1.o
 .rel.rodata._ZTTSt19basic_ostringstreamIcSt11char_traitsIcESaIcEE
                0x00000000        0x0 /usr/qnx650/target/qnx6/x86/lib/crt1.o
 .rel.rodata._ZTCSt19basic_ostringstreamIcSt11char_traitsIcESaIcEE0_So
                0x00000000        0x0 /usr/qnx650/target/qnx6/x86/lib/crt1.o
 .rel.rodata._ZTVSt15basic_stringbufIcSt11char_traitsIcESaIcEE
                0x00000000        0x0 /usr/qnx650/target/qnx6/x86/lib/crt1.o
 .rel.rodata._ZTVSt15basic_streambufIcSt11char_traitsIcEE
                0x00000000        0x0 /usr/qnx650/target/qnx6/x86/lib/crt1.o
 .rel.rodata._ZTVSo
                0x00000000        0x0 /usr/qnx650/target/qnx6/x86/lib/crt1.o
 .rel.rodata._ZTTSo
                0x00000000        0x0 /usr/qnx650/target/qnx6/x86/lib/crt1.o
 .rel.rodata._ZTVSt9basic_iosIcSt11char_traitsIcEE
                0x00000000        0x0 /usr/qnx650/target/qnx6/x86/lib/crt1.o
 .rel.rodata._ZTVSt5ctypeIcE
                0x00000000        0x0 /usr/qnx650/target/qnx6/x86/lib/crt1.o
 .rel.rodata._ZTVSt10ctype_base
                0x00000000        0x0 /usr/qnx650/target/qnx6/x86/lib/crt1.o
 .rel.rodata._ZTVNSt6locale5facetE
                0x00000000        0x0 /usr/qnx650/target/qnx6/x86/lib/crt1.o
 .rel.rodata._ZTVSt8bad_cast
                0x00000000        0x0 /usr/qnx650/target/qnx6/x86/lib/crt1.o
 .rel.rodata._ZTIN12metro_device22metro_device_exceptionE
                0x00000000        0x0 /usr/qnx650/target/qnx6/x86/lib/crt1.o
 .rel.rodata._ZTISt19basic_ostringstreamIcSt11char_traitsIcESaIcEE
                0x00000000        0x0 /usr/qnx650/target/qnx6/x86/lib/crt1.o
 .rel.rodata._ZTISt15basic_stringbufIcSt11char_traitsIcESaIcEE
                0x00000000        0x0 /usr/qnx650/target/qnx6/x86/lib/crt1.o
 .rel.rodata._ZTISt15basic_streambufIcSt11char_traitsIcEE
                0x00000000        0x0 /usr/qnx650/target/qnx6/x86/lib/crt1.o
 .rel.rodata._ZTISo
                0x00000000        0x0 /usr/qnx650/target/qnx6/x86/lib/crt1.o
 .rel.rodata._ZTISt9basic_iosIcSt11char_traitsIcEE
                0x00000000        0x0 /usr/qnx650/target/qnx6/x86/lib/crt1.o
 .rel.rodata._ZTI12metro_device
                0x00000000        0x0 /usr/qnx650/target/qnx6/x86/lib/crt1.o
 .rel.rodata._ZTISt5ctypeIcE
                0x00000000        0x0 /usr/qnx650/target/qnx6/x86/lib/crt1.o
 .rel.rodata._ZTISt10ctype_base
                0x00000000        0x0 /usr/qnx650/target/qnx6/x86/lib/crt1.o
 .rel.rodata._ZTINSt6locale5facetE
                0x00000000        0x0 /usr/qnx650/target/qnx6/x86/lib/crt1.o
 .rel.rodata._ZTISt8bad_cast
                0x00000000        0x0 /usr/qnx650/target/qnx6/x86/lib/crt1.o
 .rel.rodata._ZTVSt8numpunctIcE
                0x00000000        0x0 /usr/qnx650/target/qnx6/x86/lib/crt1.o
 .rel.rodata._ZTVSt7codecvtIcc9_MbstatetE
                0x00000000        0x0 /usr/qnx650/target/qnx6/x86/lib/crt1.o
 .rel.rodata._ZTVSt7num_putIcSt19ostreambuf_iteratorIcSt11char_traitsIcEEE
                0x00000000        0x0 /usr/qnx650/target/qnx6/x86/lib/crt1.o
 .rel.rodata._ZTVSt7num_getIcSt19istreambuf_iteratorIcSt11char_traitsIcEEE
                0x00000000        0x0 /usr/qnx650/target/qnx6/x86/lib/crt1.o
 .rel.rodata._ZTVSt19basic_istringstreamIcSt11char_traitsIcESaIcEE
                0x00000000        0x0 /usr/qnx650/target/qnx6/x86/lib/crt1.o
 .rel.rodata._ZTTSt19basic_istringstreamIcSt11char_traitsIcESaIcEE
                0x00000000        0x0 /usr/qnx650/target/qnx6/x86/lib/crt1.o
 .rel.rodata._ZTCSt19basic_istringstreamIcSt11char_traitsIcESaIcEE0_Si
                0x00000000        0x0 /usr/qnx650/target/qnx6/x86/lib/crt1.o
 .rel.rodata._ZTVSt14basic_ifstreamIcSt11char_traitsIcEE
                0x00000000        0x0 /usr/qnx650/target/qnx6/x86/lib/crt1.o
 .rel.rodata._ZTTSt14basic_ifstreamIcSt11char_traitsIcEE
                0x00000000        0x0 /usr/qnx650/target/qnx6/x86/lib/crt1.o
 .rel.rodata._ZTCSt14basic_ifstreamIcSt11char_traitsIcEE0_Si
                0x00000000        0x0 /usr/qnx650/target/qnx6/x86/lib/crt1.o
 .rel.rodata._ZTVSt13basic_filebufIcSt11char_traitsIcEE
                0x00000000        0x0 /usr/qnx650/target/qnx6/x86/lib/crt1.o
 .rel.rodata._ZTVSi
                0x00000000        0x0 /usr/qnx650/target/qnx6/x86/lib/crt1.o
 .rel.rodata._ZTTSi
                0x00000000        0x0 /usr/qnx650/target/qnx6/x86/lib/crt1.o
 .rel.rodata._ZTVSt12codecvt_base
                0x00000000        0x0 /usr/qnx650/target/qnx6/x86/lib/crt1.o
 .rel.rodata._ZTISt8numpunctIcE
                0x00000000        0x0 /usr/qnx650/target/qnx6/x86/lib/crt1.o
 .rel.rodata._ZTISt7codecvtIcc9_MbstatetE
                0x00000000        0x0 /usr/qnx650/target/qnx6/x86/lib/crt1.o
 .rel.rodata._ZTISt7num_putIcSt19ostreambuf_iteratorIcSt11char_traitsIcEEE
                0x00000000        0x0 /usr/qnx650/target/qnx6/x86/lib/crt1.o
 .rel.rodata._ZTISt7num_getIcSt19istreambuf_iteratorIcSt11char_traitsIcEEE
                0x00000000        0x0 /usr/qnx650/target/qnx6/x86/lib/crt1.o
 .rel.rodata._ZTI17comport_exception
                0x00000000        0x0 /usr/qnx650/target/qnx6/x86/lib/crt1.o
 .rel.rodata._ZTISt19basic_istringstreamIcSt11char_traitsIcESaIcEE
                0x00000000        0x0 /usr/qnx650/target/qnx6/x86/lib/crt1.o
 .rel.rodata._ZTISt14basic_ifstreamIcSt11char_traitsIcEE
                0x00000000        0x0 /usr/qnx650/target/qnx6/x86/lib/crt1.o
 .rel.rodata._ZTISt13basic_filebufIcSt11char_traitsIcEE
                0x00000000        0x0 /usr/qnx650/target/qnx6/x86/lib/crt1.o
 .rel.rodata._ZTISi
                0x00000000        0x0 /usr/qnx650/target/qnx6/x86/lib/crt1.o
 .rel.rodata._ZTISt12codecvt_base
                0x00000000        0x0 /usr/qnx650/target/qnx6/x86/lib/crt1.o
 *(.rel.data.rel.ro* .rel.gnu.linkonce.d.rel.ro.*)
 *(.rel.data .rel.data.* .rel.gnu.linkonce.d.*)
 *(.rel.tdata .rel.tdata.* .rel.gnu.linkonce.td.*)
 *(.rel.tbss .rel.tbss.* .rel.gnu.linkonce.tb.*)
 *(.rel.ctors)
 *(.rel.dtors)
 *(.rel.got)
 .rel.got       0x0804cbd8       0x20 /usr/qnx650/target/qnx6/x86/lib/crt1.o
 *(.rel.sdata .rel.sdata.* .rel.gnu.linkonce.s.*)
 *(.rel.sbss .rel.sbss.* .rel.gnu.linkonce.sb.*)
 *(.rel.sdata2 .rel.sdata2.* .rel.gnu.linkonce.s2.*)
 *(.rel.sbss2 .rel.sbss2.* .rel.gnu.linkonce.sb2.*)
 *(.rel.bss .rel.bss.* .rel.gnu.linkonce.b.*)
 .rel.bss       0x0804cbf8       0x98 /usr/qnx650/target/qnx6/x86/lib/crt1.o
 .rel.eh_frame  0x00000000        0x0 /usr/qnx650/target/qnx6/x86/lib/crt1.o
 .rel.gcc_except_table
                0x00000000        0x0 /usr/qnx650/target/qnx6/x86/lib/crt1.o

.rela.dyn
 *(.rela.init)
 *(.rela.text .rela.text.* .rela.gnu.linkonce.t.*)
 *(.rela.fini)
 *(.rela.rodata .rela.rodata.* .rela.gnu.linkonce.r.*)
 *(.rela.data .rela.data.* .rela.gnu.linkonce.d.*)
 *(.rela.tdata .rela.tdata.* .rela.gnu.linkonce.td.*)
 *(.rela.tbss .rela.tbss.* .rela.gnu.linkonce.tb.*)
 *(.rela.ctors)
 *(.rela.dtors)
 *(.rela.got)
 *(.rela.sdata .rela.sdata.* .rela.gnu.linkonce.s.*)
 *(.rela.sbss .rela.sbss.* .rela.gnu.linkonce.sb.*)
 *(.rela.sdata2 .rela.sdata2.* .rela.gnu.linkonce.s2.*)
 *(.rela.sbss2 .rela.sbss2.* .rela.gnu.linkonce.sb2.*)
 *(.rela.bss .rela.bss.* .rela.gnu.linkonce.b.*)

.rel.plt        0x0804cc90      0x3c8
 *(.rel.plt)
 .rel.plt       0x0804cc90      0x3c8 /usr/qnx650/target/qnx6/x86/lib/crt1.o

.rela.plt
 *(.rela.plt)

.init           0x0804d058        0xd
 *(.init)
 .init          0x0804d058        0x0 /usr/qnx650/target/qnx6/x86/lib/crti.o
                0x0804d058                _init
 .init          0x0804d058        0x5 /usr/qnx650/host/qnx6/x86/usr/lib/gcc/i486-pc-nto-qnx6.5.0/4.4.2/crtbegin.o
 .init          0x0804d05d        0x5 /usr/qnx650/host/qnx6/x86/usr/lib/gcc/i486-pc-nto-qnx6.5.0/4.4.2/crtend.o
 .init          0x0804d062        0x3 /usr/qnx650/target/qnx6/x86/lib/crtn.o

.plt            0x0804d068      0x7a0
 *(.plt)
 .plt           0x0804d068      0x7a0 /usr/qnx650/target/qnx6/x86/lib/crt1.o
                0x0804d078                iofunc_close_ocb_default
                0x0804d088                iofunc_write_verify
                0x0804d098                __cxa_get_exception_ptr
                0x0804d0a8                itoa
                0x0804d0b8                __register_frame_info
                0x0804d0c8                std::locale::facet::_Register()
                0x0804d0d8                __cxa_free_exception
                0x0804d0e8                operator new[](unsigned int)
                0x0804d0f8                dispatch_context_free
                0x0804d108                __cxa_begin_catch
                0x0804d118                open
                0x0804d128                pthread_attr_setdetachstate
                0x0804d138                fwrite
                0x0804d148                operator delete[](void*)
                0x0804d158                std::_Mutex::~_Mutex()
                0x0804d168                memcpy
                0x0804d178                std::_Fiopen(char const*, std::_Iosb<int>::_Openmode, int)
                0x0804d188                iofunc_open_default
                0x0804d198                pthread_mutex_init
                0x0804d1a8                resmgr_attach
                0x0804d1b8                MsgRead
                0x0804d1c8                iofunc_ocb_calloc
                0x0804d1d8                pthread_attr_init
                0x0804d1e8                __cxa_finalize
                0x0804d1f8                operator delete(void*)
                0x0804d208                _init_array
                0x0804d218                __get_errno_ptr
                0x0804d228                dispatch_block
                0x0804d238                strlen
                0x0804d248                pthread_mutex_lock
                0x0804d258                __cxa_call_unexpected
                0x0804d268                std::locale::locale()
                0x0804d278                __cxa_atexit
                0x0804d288                pthread_once
                0x0804d298                std::uncaught_exception()
                0x0804d2a8                __cxa_pure_virtual
                0x0804d2b8                std::_Locinfo::~_Locinfo()
                0x0804d2c8                atexit
                0x0804d2d8                cfsetispeed
                0x0804d2e8                __cxa_allocate_exception
                0x0804d2f8                std::ios_base::_Addstd()
                0x0804d308                __gxx_personality_v0
                0x0804d318                _Unwind_Resume
                0x0804d328                pthread_mutex_destroy
                0x0804d338                memmove
                0x0804d348                fclose
                0x0804d358                std::_String_base::_Xlen() const
                0x0804d368                std::ios_base::clear(std::_Iosb<int>::_Iostate, bool)
                0x0804d378                cfsetospeed
                0x0804d388                _Stoulx
                0x0804d398                cfgetispeed
                0x0804d3a8                dispatch_create
                0x0804d3b8                fgetc
                0x0804d3c8                __cxa_throw
                0x0804d3d8                _Locksyslock
                0x0804d3e8                pthread_create
                0x0804d3f8                write
                0x0804d408                setvbuf
                0x0804d418                _init_libc
                0x0804d428                _Stofx
                0x0804d438                std::_Mutex::_Unlock()
                0x0804d448                pthread_cond_signal
                0x0804d458                std::_String_base::_Xran() const
                0x0804d468                close
                0x0804d478                fputc
                0x0804d488                std::ios_base::Init::~Init()
                0x0804d498                dispatch_handler
                0x0804d4a8                dispatch_context_alloc
                0x0804d4b8                std::_Mutex::_Mutex()
                0x0804d4c8                iofunc_devctl_default
                0x0804d4d8                pthread_cond_init
                0x0804d4e8                __cxa_end_catch
                0x0804d4f8                dispatch_destroy
                0x0804d508                _Stoldx
                0x0804d518                MsgSendv
                0x0804d528                fsetpos
                0x0804d538                _Stodx
                0x0804d548                _Stollx
                0x0804d558                fflush
                0x0804d568                memset
                0x0804d578                std::ios_base::Init::Init()
                0x0804d588                pthread_atfork
                0x0804d598                std::ios_base::~ios_base()
                0x0804d5a8                iofunc_read_verify
                0x0804d5b8                strcspn
                0x0804d5c8                memcmp
                0x0804d5d8                vsnprintf
                0x0804d5e8                sprintf
                0x0804d5f8                _fini_array
                0x0804d608                iofunc_attr_init
                0x0804d618                iofunc_func_init
                0x0804d628                _preinit_array
                0x0804d638                fseek
                0x0804d648                std::exception::~exception()
                0x0804d658                _Unlocksyslock
                0x0804d668                memchr
                0x0804d678                __stackavail
                0x0804d688                _Stolx
                0x0804d698                exit
                0x0804d6a8                std::locale::_Getfacet(unsigned int) const
                0x0804d6b8                pthread_cond_broadcast
                0x0804d6c8                pthread_mutex_unlock
                0x0804d6d8                fgetpos
                0x0804d6e8                pthread_cond_destroy
                0x0804d6f8                std::ios_base::_Init()
                0x0804d708                ungetc
                0x0804d718                free
                0x0804d728                atoi
                0x0804d738                std::_Locinfo::_Locinfo(char const*)
                0x0804d748                operator delete(void*, void*)
                0x0804d758                strerror
                0x0804d768                __cxa_rethrow
                0x0804d778                pthread_cond_wait
                0x0804d788                operator new(unsigned int)
                0x0804d798                _Getctyptab
                0x0804d7a8                iofunc_ocb_free
                0x0804d7b8                _Stoullx
                0x0804d7c8                std::terminate()
                0x0804d7d8                std::_Mutex::_Lock()
                0x0804d7e8                __deregister_frame_info
                0x0804d7f8                pthread_join

.text           0x0804d810    0x15bf0
                0x0804d810                _btext = .
 *(.text .stub .text.* .gnu.linkonce.t.*)
 .text          0x0804d810       0x91 /usr/qnx650/target/qnx6/x86/lib/crt1.o
                0x0804d818                _start
 *fill*         0x0804d8a1        0x3 9090
 .text          0x0804d8a4        0x0 /usr/qnx650/target/qnx6/x86/lib/crti.o
 *fill*         0x0804d8a4        0xc 9090
 .text          0x0804d8b0      0x10e /usr/qnx650/host/qnx6/x86/usr/lib/gcc/i486-pc-nto-qnx6.5.0/4.4.2/crtbegin.o
 *fill*         0x0804d9be        0x2 9090
 .text          0x0804d9c0      0x4b7 program_settings.o
                0x0804d9c6                program_settings::program_settings()
                0x0804d9c0                program_settings::program_settings()
                0x0804dd1c                program_settings::crc(std::vector<unsigned char, std::allocator<unsigned char> >)
                0x0804d9cc                program_settings::get_instance()
                0x0804da06                program_settings::sys_message(program_settings::msg_type, std::string)
 .text._ZNSt11char_traitsIcE6assignERcRKc
                0x0804de77       0x10 program_settings.o
                0x0804de77                std::char_traits<char>::assign(char&, char const&)
 .text._ZNSt11char_traitsIcE6lengthEPKc
                0x0804de87       0x13 program_settings.o
                0x0804de87                std::char_traits<char>::length(char const*)
 .text._ZNSt11char_traitsIcE4copyEPcPKcj
                0x0804de9a       0x21 program_settings.o
                0x0804de9a                std::char_traits<char>::copy(char*, char const*, unsigned int)
 .text._ZNSt11char_traitsIcE4moveEPcPKcj
                0x0804debb       0x21 program_settings.o
                0x0804debb                std::char_traits<char>::move(char*, char const*, unsigned int)
 .text._ZNSsC1ERKSs
                0x0804dedc       0x69 program_settings.o
                0x0804dedc                std::basic_string<char, std::char_traits<char>, std::allocator<char> >::basic_string(std::string const&)
 *fill*         0x0804df45        0x1 9090
 .text._ZNSsD1Ev
                0x0804df46       0x23 program_settings.o
                0x0804df46                std::basic_string<char, std::char_traits<char>, std::allocator<char> >::~basic_string()
 *fill*         0x0804df69        0x1 9090
 .text._ZNKSs5c_strEv
                0x0804df6a       0x13 program_settings.o
                0x0804df6a                std::string::c_str() const
 *fill*         0x0804df7d        0x1 9090
 .text._ZNSsC1EPKc
                0x0804df7e       0x52 program_settings.o
                0x0804df7e                std::basic_string<char, std::char_traits<char>, std::allocator<char> >::basic_string(char const*)
 .text._ZNSsC1Ev
                0x0804dfd0       0x40 program_settings.o
                0x0804dfd0                std::basic_string<char, std::char_traits<char>, std::allocator<char> >::basic_string()
 .text._ZNKSs4sizeEv
                0x0804e010        0xb program_settings.o
                0x0804e010                std::string::size() const
 *fill*         0x0804e01b        0x1 9090
 .text._ZNSs7reserveEj
                0x0804e01c       0x57 program_settings.o
                0x0804e01c                std::string::reserve(unsigned int)
 .text._ZStplIcSt11char_traitsIcESaIcEESbIT_T0_T1_ERKS6_PKS3_
                0x0804e073       0x70 program_settings.o
                0x0804e073                std::basic_string<char, std::char_traits<char>, std::allocator<char> > std::operator+<char, std::char_traits<char>, std::allocator<char> >(std::basic_string<char, std::char_traits<char>, std::allocator<char> > const&, char const*)
 *fill*         0x0804e0e3        0x1 9090
 .text._ZNSsaSERKSs
                0x0804e0e4       0x1a program_settings.o
                0x0804e0e4                std::string::operator=(std::string const&)
 .text._ZNSspLERKSs
                0x0804e0fe       0x1a program_settings.o
                0x0804e0fe                std::string::operator+=(std::string const&)
 .text._ZNKSt6vectorIhSaIhEE5emptyEv
                0x0804e118       0x18 program_settings.o
                0x0804e118                std::vector<unsigned char, std::allocator<unsigned char> >::empty() const
 .text._ZNSt6vectorIhSaIhEE5beginEv
                0x0804e130       0x26 program_settings.o
                0x0804e130                std::vector<unsigned char, std::allocator<unsigned char> >::begin()
 .text._ZNSt6vectorIhSaIhEE3endEv
                0x0804e156       0x26 program_settings.o
                0x0804e156                std::vector<unsigned char, std::allocator<unsigned char> >::end()
 .text._ZNKSt22_Vector_const_iteratorIhSaIhEEneERKS1_
                0x0804e17c       0x1d program_settings.o
                0x0804e17c                std::_Vector_const_iterator<unsigned char, std::allocator<unsigned char> >::operator!=(std::_Vector_const_iterator<unsigned char, std::allocator<unsigned char> > const&) const
 *fill*         0x0804e199        0x1 9090
 .text._ZNSt16_Vector_iteratorIhSaIhEEppEi
                0x0804e19a       0x36 program_settings.o
                0x0804e19a                std::_Vector_iterator<unsigned char, std::allocator<unsigned char> >::operator++(int)
 .text._ZNKSt16_Vector_iteratorIhSaIhEEdeEv
                0x0804e1d0       0x13 program_settings.o
                0x0804e1d0                std::_Vector_iterator<unsigned char, std::allocator<unsigned char> >::operator*() const
 *fill*         0x0804e1e3        0x1 9090
 .text._ZNSt15_Allocator_baseIcEC2Ev
                0x0804e1e4        0x5 program_settings.o
                0x0804e1e4                std::_Allocator_base<char>::_Allocator_base()
 *fill*         0x0804e1e9        0x1 9090
 .text._ZNSaIcEC1ERKS_
                0x0804e1ea       0x13 program_settings.o
                0x0804e1ea                std::allocator<char>::allocator(std::allocator<char> const&)
 *fill*         0x0804e1fd        0x1 9090
 .text._ZNSt15_Container_baseC2Ev
                0x0804e1fe        0x5 program_settings.o
                0x0804e1fe                std::_Container_base::_Container_base()
 *fill*         0x0804e203        0x1 9090
 .text._ZNSt12_String_baseC2Ev
                0x0804e204       0x13 program_settings.o
                0x0804e204                std::_String_base::_String_base()
 *fill*         0x0804e217        0x1 9090
 .text._ZNSt11_String_valIcSaIcEEC2ES0_
                0x0804e218       0x25 program_settings.o
                0x0804e218                std::_String_val<char, std::allocator<char> >::_String_val(std::allocator<char>)
 *fill*         0x0804e23d        0x1 9090
 .text._ZNSs5_TidyEbj
                0x0804e23e       0x8a program_settings.o
                0x0804e23e                std::string::_Tidy(bool, unsigned int)
 .text._ZNSs6assignERKSsjj
                0x0804e2c8       0xf1 program_settings.o
                0x0804e2c8                std::string::assign(std::string const&, unsigned int, unsigned int)
 *fill*         0x0804e3b9        0x1 9090
 .text._ZNKSs6_MyptrEv
                0x0804e3ba       0x1e program_settings.o
                0x0804e3ba                std::string::_Myptr() const
 .text._ZNSaIcEC1Ev
                0x0804e3d8       0x13 program_settings.o
                0x0804e3d8                std::allocator<char>::allocator()
 *fill*         0x0804e3eb        0x1 9090
 .text._ZNSs6assignEPKc
                0x0804e3ec       0x29 program_settings.o
                0x0804e3ec                std::string::assign(char const*)
 *fill*         0x0804e415        0x1 9090
 .text._ZNSs5_GrowEjb
                0x0804e416       0xb2 program_settings.o
                0x0804e416                std::string::_Grow(unsigned int, bool)
 .text._ZNSs4_EosEj
                0x0804e4c8       0x38 program_settings.o
                0x0804e4c8                std::string::_Eos(unsigned int)
 .text._ZNSspLEPKc
                0x0804e500       0x1a program_settings.o
                0x0804e500                std::string::operator+=(char const*)
 .text._ZNSs6assignERKSs
                0x0804e51a       0x2a program_settings.o
                0x0804e51a                std::string::assign(std::string const&)
 .text._ZNSs6appendERKSs
                0x0804e544       0x2a program_settings.o
                0x0804e544                std::string::append(std::string const&)
 .text._ZNKSt6vectorIhSaIhEE4sizeEv
                0x0804e56e       0x2a program_settings.o
                0x0804e56e                std::vector<unsigned char, std::allocator<unsigned char> >::size() const
 .text._ZNSt16_Vector_iteratorIhSaIhEEC1EPh
                0x0804e598       0x1a program_settings.o
                0x0804e598                std::_Vector_iterator<unsigned char, std::allocator<unsigned char> >::_Vector_iterator(unsigned char*)
 .text._ZNKSt22_Vector_const_iteratorIhSaIhEEeqERKS1_
                0x0804e5b2       0x14 program_settings.o
                0x0804e5b2                std::_Vector_const_iterator<unsigned char, std::allocator<unsigned char> >::operator==(std::_Vector_const_iterator<unsigned char, std::allocator<unsigned char> > const&) const
 .text._ZNSt16_Vector_iteratorIhSaIhEEppEv
                0x0804e5c6       0x15 program_settings.o
                0x0804e5c6                std::_Vector_iterator<unsigned char, std::allocator<unsigned char> >::operator++()
 *fill*         0x0804e5db        0x1 9090
 .text._ZNKSt22_Vector_const_iteratorIhSaIhEEdeEv
                0x0804e5dc        0xa program_settings.o
                0x0804e5dc                std::_Vector_const_iterator<unsigned char, std::allocator<unsigned char> >::operator*() const
 .text._ZNSaIcE10deallocateEPcj
                0x0804e5e6       0x13 program_settings.o
                0x0804e5e6                std::allocator<char>::deallocate(char*, unsigned int)
 *fill*         0x0804e5f9        0x1 9090
 .text._ZNSs5eraseEjj
                0x0804e5fa       0xa9 program_settings.o
                0x0804e5fa                std::string::erase(unsigned int, unsigned int)
 *fill*         0x0804e6a3        0x1 9090
 .text._ZNSs6_MyptrEv
                0x0804e6a4       0x1e program_settings.o
                0x0804e6a4                std::string::_Myptr()
 .text._ZNSs6assignEPKcj
                0x0804e6c2       0xaa program_settings.o
                0x0804e6c2                std::string::assign(char const*, unsigned int)
 .text._ZNKSs8max_sizeEv
                0x0804e76c       0x29 program_settings.o
                0x0804e76c                std::string::max_size() const
 *fill*         0x0804e795        0x1 9090
 .text._ZNSs5_CopyEjj
                0x0804e796      0x18d program_settings.o
                0x0804e796                std::string::_Copy(unsigned int, unsigned int)
 *fill*         0x0804e923        0x1 9090
 .text._ZNSs6appendEPKc
                0x0804e924       0x29 program_settings.o
                0x0804e924                std::string::append(char const*)
 *fill*         0x0804e94d        0x1 9090
 .text._ZNSs6appendERKSsjj
                0x0804e94e       0xf0 program_settings.o
                0x0804e94e                std::string::append(std::string const&, unsigned int, unsigned int)
 .text._ZNSt14_Iterator_baseC2Ev
                0x0804ea3e        0x5 program_settings.o
                0x0804ea3e                std::_Iterator_base::_Iterator_base()
 *fill*         0x0804ea43        0x1 9090
 .text._ZNSt8iteratorISt26random_access_iterator_taghiPKhRS1_EC2Ev
                0x0804ea44       0x13 program_settings.o
                0x0804ea44                std::iterator<std::random_access_iterator_tag, unsigned char, int, unsigned char const*, unsigned char const&>::iterator()
 *fill*         0x0804ea57        0x1 9090
 .text._ZNSt6_RanitIhiPKhRS0_EC2Ev
                0x0804ea58       0x13 program_settings.o
                0x0804ea58                std::_Ranit<unsigned char, int, unsigned char const*, unsigned char const&>::_Ranit()
 *fill*         0x0804ea6b        0x1 9090
 .text._ZNSt22_Vector_const_iteratorIhSaIhEEC2EPh
                0x0804ea6c       0x1b program_settings.o
                0x0804ea6c                std::_Vector_const_iterator<unsigned char, std::allocator<unsigned char> >::_Vector_const_iterator(unsigned char*)
 *fill*         0x0804ea87        0x1 9090
 .text._ZNSs7_InsideEPKc
                0x0804ea88       0x4c program_settings.o
                0x0804ea88                std::string::_Inside(char const*)
 .text._ZNKSaIcE8max_sizeEv
                0x0804ead4       0x1f program_settings.o
                0x0804ead4                std::allocator<char>::max_size() const
 *fill*         0x0804eaf3        0x1 9090
 .text._ZNSaIcE8allocateEj
                0x0804eaf4       0x1b program_settings.o
                0x0804eaf4                std::allocator<char>::allocate(unsigned int)
 *fill*         0x0804eb0f        0x1 9090
 .text._ZNSs6appendEPKcj
                0x0804eb10       0xf0 program_settings.o
                0x0804eb10                std::string::append(char const*, unsigned int)
 .text._ZSt9_AllocateIcEPT_jS1_
                0x0804ec00       0x13 program_settings.o
                0x0804ec00                char* std::_Allocate<char>(unsigned int, char*)
 *fill*         0x0804ec13        0x1 9090
 .text          0x0804ec14     0x22ec system_settings.o
                0x08050d80                system_settings::decode_to_binary_decimal_notation(unsigned char)
                0x0804fad8                system_settings::system_settings()
                0x0804ec14                system_settings::system_settings()
                0x0805099c                system_settings::sys_message(int, std::string)
                0x08050cb2                system_settings::crc(std::vector<unsigned char, std::allocator<unsigned char> >)
 .text._ZNSt9exceptionC2Ev
                0x08050f00        0xe system_settings.o
                0x08050f00                std::exception::exception()
 .text._ZnwjPv  0x08050f0e        0x8 system_settings.o
                0x08050f0e                operator new(unsigned int, void*)
 .text._ZNSt11logic_errorC2ERKSs
                0x08050f16       0x55 system_settings.o
                0x08050f16                std::logic_error::logic_error(std::string const&)
 *fill*         0x08050f6b        0x1 9090
 .text._ZNSt11logic_errorD2Ev
                0x08050f6c       0x62 system_settings.o
                0x08050f6c                std::logic_error::~logic_error()
 .text._ZNSt11logic_errorD1Ev
                0x08050fce       0x62 system_settings.o
                0x08050fce                std::logic_error::~logic_error()
 .text._ZNSt11logic_errorD0Ev
                0x08051030       0x62 system_settings.o
                0x08051030                std::logic_error::~logic_error()
 .text._ZNKSt11logic_error4whatEv
                0x08051092       0x2b system_settings.o
                0x08051092                std::logic_error::what() const
 *fill*         0x080510bd        0x1 9090
 .text._ZNSt12length_errorC1ERKSs
                0x080510be       0x23 system_settings.o
                0x080510be                std::length_error::length_error(std::string const&)
 *fill*         0x080510e1        0x1 9090
 .text._ZNSt12length_errorD1Ev
                0x080510e2       0x30 system_settings.o
                0x080510e2                std::length_error::~length_error()
 .text._ZNSt12length_errorD0Ev
                0x08051112       0x30 system_settings.o
                0x08051112                std::length_error::~length_error()
 .text._ZN16spider_exceptionC1ESs
                0x08051142       0x1a system_settings.o
                0x08051142                spider_exception::spider_exception(std::string)
 .text._ZN15system_settingsD1Ev
                0x0805115c      0x30e system_settings.o
                0x0805115c                system_settings::~system_settings()
 .text._ZN15system_settingsD0Ev
                0x0805146a      0x30e system_settings.o
                0x0805146a                system_settings::~system_settings()
 .text._ZN16spider_exceptionD1Ev
                0x08051778       0x13 system_settings.o
                0x08051778                spider_exception::~spider_exception()
 *fill*         0x0805178b        0x1 9090
 .text._ZNSt6vectorISsSaISsEED1Ev
                0x0805178c       0x13 system_settings.o
                0x0805178c                std::vector<std::string, std::allocator<std::string> >::~vector()
 *fill*         0x0805179f        0x1 9090
 .text._ZNSt6vectorISsSaISsEEixEj
                0x080517a0       0x48 system_settings.o
                0x080517a0                std::vector<std::string, std::allocator<std::string> >::operator[](unsigned int)
 .text._ZNSt6vectorISsSaISsEEC1Ej
                0x080517e8       0x76 system_settings.o
                0x080517e8                std::vector<std::string, std::allocator<std::string> >::vector(unsigned int)
 .text._ZNSsaSEPKc
                0x0805185e       0x1a system_settings.o
                0x0805185e                std::string::operator=(char const*)
 .text._ZNSt6vectorISsSaISsEE5_TidyEv
                0x08051878       0x87 system_settings.o
                0x08051878                std::vector<std::string, std::allocator<std::string> >::_Tidy()
 *fill*         0x080518ff        0x1 9090
 .text._ZNSt15_Allocator_baseISsEC2Ev
                0x08051900        0x5 system_settings.o
                0x08051900                std::_Allocator_base<std::string>::_Allocator_base()
 *fill*         0x08051905        0x1 9090
 .text._ZNSaISsEC1ERKS_
                0x08051906       0x13 system_settings.o
                0x08051906                std::allocator<std::string>::allocator(std::allocator<std::string> const&)
 *fill*         0x08051919        0x1 9090
 .text._ZNSt11_Vector_valISsSaISsEEC2ES0_
                0x0805191a       0x25 system_settings.o
                0x0805191a                std::_Vector_val<std::string, std::allocator<std::string> >::_Vector_val(std::allocator<std::string>)
 *fill*         0x0805193f        0x1 9090
 .text._ZNSt6vectorISsSaISsEE4_BuyEj
                0x08051940       0xa4 system_settings.o
                0x08051940                std::vector<std::string, std::allocator<std::string> >::_Buy(unsigned int)
 .text._ZNSt6vectorISsSaISsEE5beginEv
                0x080519e4       0x26 system_settings.o
                0x080519e4                std::vector<std::string, std::allocator<std::string> >::begin()
 .text._ZNKSt16_Vector_iteratorISsSaISsEEplEi
                0x08051a0a       0x42 system_settings.o
                0x08051a0a                std::_Vector_iterator<std::string, std::allocator<std::string> >::operator+(int) const
 .text._ZNKSt16_Vector_iteratorISsSaISsEEdeEv
                0x08051a4c       0x13 system_settings.o
                0x08051a4c                std::_Vector_iterator<std::string, std::allocator<std::string> >::operator*() const
 *fill*         0x08051a5f        0x1 9090
 .text._ZNSaISsEC1Ev
                0x08051a60       0x13 system_settings.o
                0x08051a60                std::allocator<std::string>::allocator()
 *fill*         0x08051a73        0x1 9090
 .text._ZNSt6vectorISsSaISsEE12_Construct_nEjRKSs
                0x08051a74       0x7d system_settings.o
                0x08051a74                std::vector<std::string, std::allocator<std::string> >::_Construct_n(unsigned int, std::string const&)
 *fill*         0x08051af1        0x1 9090
 .text._ZNSt6vectorISsSaISsEE8_DestroyEPSsS2_
                0x08051af2       0x21 system_settings.o
                0x08051af2                std::vector<std::string, std::allocator<std::string> >::_Destroy(std::string*, std::string*)
 *fill*         0x08051b13        0x1 9090
 .text._ZNSaISsE10deallocateEPSsj
                0x08051b14       0x13 system_settings.o
                0x08051b14                std::allocator<std::string>::deallocate(std::string*, unsigned int)
 *fill*         0x08051b27        0x1 9090
 .text._ZNKSt6vectorISsSaISsEE8max_sizeEv
                0x08051b28       0x13 system_settings.o
                0x08051b28                std::vector<std::string, std::allocator<std::string> >::max_size() const
 *fill*         0x08051b3b        0x1 9090
 .text._ZNKSt6vectorISsSaISsEE5_XlenEv
                0x08051b3c       0xaf system_settings.o
                0x08051b3c                std::vector<std::string, std::allocator<std::string> >::_Xlen() const
 *fill*         0x08051beb        0x1 9090
 .text._ZNSaISsE8allocateEj
                0x08051bec       0x1b system_settings.o
                0x08051bec                std::allocator<std::string>::allocate(unsigned int)
 *fill*         0x08051c07        0x1 9090
 .text._ZNSt8iteratorISt26random_access_iterator_tagSsiPKSsRS1_EC2Ev
                0x08051c08       0x13 system_settings.o
                0x08051c08                std::iterator<std::random_access_iterator_tag, std::string, int, std::string const*, std::string const&>::iterator()
 *fill*         0x08051c1b        0x1 9090
 .text._ZNSt6_RanitISsiPKSsRS0_EC2Ev
                0x08051c1c       0x13 system_settings.o
                0x08051c1c                std::_Ranit<std::string, int, std::string const*, std::string const&>::_Ranit()
 *fill*         0x08051c2f        0x1 9090
 .text._ZNSt22_Vector_const_iteratorISsSaISsEEC2EPSs
                0x08051c30       0x1b system_settings.o
                0x08051c30                std::_Vector_const_iterator<std::string, std::allocator<std::string> >::_Vector_const_iterator(std::string*)
 *fill*         0x08051c4b        0x1 9090
 .text._ZNSt16_Vector_iteratorISsSaISsEEC1EPSs
                0x08051c4c       0x1a system_settings.o
                0x08051c4c                std::_Vector_iterator<std::string, std::allocator<std::string> >::_Vector_iterator(std::string*)
 .text._ZNSt16_Vector_iteratorISsSaISsEEpLEi
                0x08051c66       0x29 system_settings.o
                0x08051c66                std::_Vector_iterator<std::string, std::allocator<std::string> >::operator+=(int)
 *fill*         0x08051c8f        0x1 9090
 .text._ZNKSt22_Vector_const_iteratorISsSaISsEEdeEv
                0x08051c90        0xa system_settings.o
                0x08051c90                std::_Vector_const_iterator<std::string, std::allocator<std::string> >::operator*() const
 .text._ZNSt6vectorISsSaISsEE6_UfillEPSsjRKSs
                0x08051c9a       0x3e system_settings.o
                0x08051c9a                std::vector<std::string, std::allocator<std::string> >::_Ufill(std::string*, unsigned int, std::string const&)
 .text._ZSt14_Destroy_rangeISsSaISsEEvPT_S2_RT0_
                0x08051cd8       0x45 system_settings.o
                0x08051cd8                void std::_Destroy_range<std::string, std::allocator<std::string> >(std::string*, std::string*, std::allocator<std::string>&)
 *fill*         0x08051d1d        0x1 9090
 .text._ZNKSaISsE8max_sizeEv
                0x08051d1e       0x1f system_settings.o
                0x08051d1e                std::allocator<std::string>::max_size() const
 .text._ZSt9_AllocateISsEPT_jS1_
                0x08051d3d       0x23 system_settings.o
                0x08051d3d                std::string* std::_Allocate<std::string>(unsigned int, std::string*)
 .text._ZSt21_Uninitialized_fill_nIPSsjSsSaISsEEvT_T0_RKT1_RT2_
                0x08051d60       0x4c system_settings.o
                0x08051d60                void std::_Uninitialized_fill_n<std::string*, unsigned int, std::string, std::allocator<std::string> >(std::string*, unsigned int, std::string const&, std::allocator<std::string>&)
 .text._ZSt8_Ptr_catIPSsS0_ESt27_Nonscalar_ptr_iterator_tagRT_RT0_
                0x08051dac        0xd system_settings.o
                0x08051dac                std::_Nonscalar_ptr_iterator_tag std::_Ptr_cat<std::string*, std::string*>(std::string*&, std::string*&)
 .text._ZSt14_Destroy_rangeISsSaISsEEvPT_S2_RT0_St27_Nonscalar_ptr_iterator_tag
                0x08051db9       0x2d system_settings.o
                0x08051db9                void std::_Destroy_range<std::string, std::allocator<std::string> >(std::string*, std::string*, std::allocator<std::string>&, std::_Nonscalar_ptr_iterator_tag)
 .text._ZNSaISsE9constructEPSsRKSs
                0x08051de6       0x1a system_settings.o
                0x08051de6                std::allocator<std::string>::construct(std::string*, std::string const&)
 .text._ZNSaISsE7destroyEPSs
                0x08051e00       0x13 system_settings.o
                0x08051e00                std::allocator<std::string>::destroy(std::string*)
 .text._ZSt14_Uninit_fill_nIPSsjSsSaISsEEvT_T0_RKT1_RT2_St27_Nonscalar_ptr_iterator_tag
                0x08051e13       0x8c system_settings.o
                0x08051e13                void std::_Uninit_fill_n<std::string*, unsigned int, std::string, std::allocator<std::string> >(std::string*, unsigned int, std::string const&, std::allocator<std::string>&, std::_Nonscalar_ptr_iterator_tag)
 .text._ZSt10_ConstructISsSsEvPT_RKT0_
                0x08051e9f       0x63 system_settings.o
                0x08051e9f                void std::_Construct<std::string, std::string>(std::string*, std::string const&)
 .text._ZSt8_DestroyISsEvPT_
                0x08051f02       0x13 system_settings.o
                0x08051f02                void std::_Destroy<std::string>(std::string*)
 *fill*         0x08051f15        0x3 9090
 .text          0x08051f18     0x1055 metro_device.o
                0x08052cca                metro_device::add_messages_fifo(std::vector<unsigned char, std::allocator<unsigned char> >)
                0x080529ac                metro_device::~metro_device()
                0x08052bc0                metro_device::~metro_device()
                0x08051f18                metro_device::metro_device(int, bool)
                0x08052ab6                metro_device::~metro_device()
                0x08052e02                metro_device::generate_error_answer_for_function(int, int, int)
                0x08052462                metro_device::metro_device(int, bool)
 *fill*         0x08052f6d        0x1 9090
 .text._ZNSt7_LockitC1Ei
                0x08052f6e       0x1d metro_device.o
                0x08052f6e                std::_Lockit::_Lockit(int)
 *fill*         0x08052f8b        0x1 9090
 .text._ZNSt7_LockitD1Ev
                0x08052f8c       0x15 metro_device.o
                0x08052f8c                std::_Lockit::~_Lockit()
 .text._ZNSt11char_traitsIcE2eqERKcS2_
                0x08052fa1       0x16 metro_device.o
                0x08052fa1                std::char_traits<char>::eq(char const&, char const&)
 .text._ZNSt11char_traitsIcE12to_char_typeERKi
                0x08052fb7        0xa metro_device.o
                0x08052fb7                std::char_traits<char>::to_char_type(int const&)
 .text._ZNSt11char_traitsIcE11to_int_typeERKc
                0x08052fc1        0xe metro_device.o
                0x08052fc1                std::char_traits<char>::to_int_type(char const&)
 .text._ZNSt11char_traitsIcE11eq_int_typeERKiS2_
                0x08052fcf       0x14 metro_device.o
                0x08052fcf                std::char_traits<char>::eq_int_type(int const&, int const&)
 .text._ZNSt11char_traitsIcE3eofEv
                0x08052fe3        0xa metro_device.o
                0x08052fe3                std::char_traits<char>::eof()
 .text._ZNSt11char_traitsIcE7not_eofERKi
                0x08052fed       0x2f metro_device.o
                0x08052fed                std::char_traits<char>::not_eof(int const&)
 .text._ZSt8_Ptr_catPhS_
                0x0805301c        0xd metro_device.o
                0x0805301c                std::_Ptr_cat(unsigned char*, unsigned char*)
 *fill*         0x08053029        0x1 9090
 .text._ZNSt8bad_castC1Ev
                0x0805302a       0x1c metro_device.o
                0x0805302a                std::bad_cast::bad_cast()
 .text._ZNKSt8bad_cast4whatEv
                0x08053046        0xa metro_device.o
                0x08053046                std::bad_cast::what() const
 .text.tolower  0x08053050       0x15 metro_device.o
                0x08053050                tolower
 .text.toupper  0x08053065       0x15 metro_device.o
                0x08053065                toupper
 .text._ZNKSt8_Locinfo9_GetctypeEv
                0x0805307a       0x2f metro_device.o
                0x0805307a                std::_Locinfo::_Getctype() const
 .text._ZSt8_ToloweriPKSt9_Ctypevec
                0x080530a9       0x18 metro_device.o
                0x080530a9                std::_Tolower(int, std::_Ctypevec const*)
 .text._ZSt8_ToupperiPKSt9_Ctypevec
                0x080530c1       0x18 metro_device.o
                0x080530c1                std::_Toupper(int, std::_Ctypevec const*)
 *fill*         0x080530d9        0x1 9090
 .text._ZNSt6locale2idcvjEv
                0x080530da       0x56 metro_device.o
                0x080530da                std::locale::id::operator unsigned int()
 .text._ZNSt6locale5facet7_IncrefEv
                0x08053130       0x40 metro_device.o
                0x08053130                std::locale::facet::_Incref()
 .text._ZNSt6locale5facet7_DecrefEv
                0x08053170       0x67 metro_device.o
                0x08053170                std::locale::facet::_Decref()
 *fill*         0x080531d7        0x1 9090
 .text._ZNSt6locale5facetD2Ev
                0x080531d8       0x25 metro_device.o
                0x080531d8                std::locale::facet::~facet()
 *fill*         0x080531fd        0x1 9090
 .text._ZNSt6locale5facetD1Ev
                0x080531fe       0x25 metro_device.o
                0x080531fe                std::locale::facet::~facet()
 *fill*         0x08053223        0x1 9090
 .text._ZNSt6locale5facetD0Ev
                0x08053224       0x25 metro_device.o
                0x08053224                std::locale::facet::~facet()
 *fill*         0x08053249        0x1 9090
 .text._ZNSt6locale5facetC2Ej
                0x0805324a       0x23 metro_device.o
                0x0805324a                std::locale::facet::facet(unsigned int)
 *fill*         0x0805326d        0x1 9090
 .text._ZNSt8_LocbaseIiEC2Ev
                0x0805326e        0x5 metro_device.o
                0x0805326e                std::_Locbase<int>::_Locbase()
 *fill*         0x08053273        0x1 9090
 .text._ZNSt6localeC1ERKS_
                0x08053274       0x41 metro_device.o
                0x08053274                std::locale::locale(std::locale const&)
 *fill*         0x080532b5        0x1 9090
 .text._ZNSt6localeD1Ev
                0x080532b6       0x49 metro_device.o
                0x080532b6                std::locale::~locale()
 *fill*         0x080532ff        0x1 9090
 .text._ZNSt10ctype_baseC2Ej
                0x08053300       0x23 metro_device.o
                0x08053300                std::ctype_base::ctype_base(unsigned int)
 *fill*         0x08053323        0x1 9090
 .text._ZNSt10ctype_baseD2Ev
                0x08053324       0x30 metro_device.o
                0x08053324                std::ctype_base::~ctype_base()
 .text._ZNSt10ctype_baseD1Ev
                0x08053354       0x30 metro_device.o
                0x08053354                std::ctype_base::~ctype_base()
 .text._ZNSt10ctype_baseD0Ev
                0x08053384       0x30 metro_device.o
                0x08053384                std::ctype_base::~ctype_base()
 .text._ZNKSt5ctypeIcE5widenEc
                0x080533b4       0x28 metro_device.o
                0x080533b4                std::ctype<char>::widen(char) const
 .text._ZNSt5ctypeIcEC1EPKsbj
                0x080533dc       0xc7 metro_device.o
                0x080533dc                std::ctype<char>::ctype(short const*, bool, unsigned int)
 .text._ZNSt5ctypeIcE7_GetcatEPPKNSt6locale5facetE
                0x080534a3       0x76 metro_device.o
                0x080534a3                std::ctype<char>::_Getcat(std::locale::facet const**)
 *fill*         0x08053519        0x1 9090
 .text._ZNSt5ctypeIcED1Ev
                0x0805351a       0x3b metro_device.o
                0x0805351a                std::ctype<char>::~ctype()
 *fill*         0x08053555        0x1 9090
 .text._ZNSt5ctypeIcED0Ev
                0x08053556       0x3b metro_device.o
                0x08053556                std::ctype<char>::~ctype()
 *fill*         0x08053591        0x1 9090
 .text._ZNSt5ctypeIcE5_InitERKSt8_Locinfo
                0x08053592       0x30 metro_device.o
                0x08053592                std::ctype<char>::_Init(std::_Locinfo const&)
 .text._ZNSt5ctypeIcE5_TidyEv
                0x080535c2       0x44 metro_device.o
                0x080535c2                std::ctype<char>::_Tidy()
 .text._ZNKSt5ctypeIcE10do_tolowerEc
                0x08053606       0x27 metro_device.o
                0x08053606                std::ctype<char>::do_tolower(char) const
 *fill*         0x0805362d        0x1 9090
 .text._ZNKSt5ctypeIcE10do_tolowerEPcPKc
                0x0805362e       0x40 metro_device.o
                0x0805362e                std::ctype<char>::do_tolower(char*, char const*) const
 .text._ZNKSt5ctypeIcE10do_toupperEc
                0x0805366e       0x27 metro_device.o
                0x0805366e                std::ctype<char>::do_toupper(char) const
 *fill*         0x08053695        0x1 9090
 .text._ZNKSt5ctypeIcE10do_toupperEPcPKc
                0x08053696       0x40 metro_device.o
                0x08053696                std::ctype<char>::do_toupper(char*, char const*) const
 .text._ZNKSt5ctypeIcE8do_widenEc
                0x080536d6       0x12 metro_device.o
                0x080536d6                std::ctype<char>::do_widen(char) const
 .text._ZNKSt5ctypeIcE8do_widenEPKcS2_Pc
                0x080536e8       0x2d metro_device.o
                0x080536e8                std::ctype<char>::do_widen(char const*, char const*, char*) const
 *fill*         0x08053715        0x1 9090
 .text._ZNKSt5ctypeIcE9do_narrowEcc
                0x08053716       0x18 metro_device.o
                0x08053716                std::ctype<char>::do_narrow(char, char) const
 .text._ZNKSt5ctypeIcE9do_narrowEPKcS2_cPc
                0x0805372e       0x33 metro_device.o
                0x0805372e                std::ctype<char>::do_narrow(char const*, char const*, char, char*) const
 *fill*         0x08053761        0x1 9090
 .text._ZNKSt8ios_base7rdstateEv
                0x08053762        0xb metro_device.o
                0x08053762                std::ios_base::rdstate() const
 *fill*         0x0805376d        0x1 9090
 .text._ZNKSt8ios_base4goodEv
                0x0805376e       0x18 metro_device.o
                0x0805376e                std::ios_base::good() const
 .text._ZNKSt8ios_base4failEv
                0x08053786       0x1b metro_device.o
                0x08053786                std::ios_base::fail() const
 *fill*         0x080537a1        0x1 9090
 .text._ZNKSt8ios_base5flagsEv
                0x080537a2        0xb metro_device.o
                0x080537a2                std::ios_base::flags() const
 *fill*         0x080537ad        0x1 9090
 .text._ZNKSt8ios_base5widthEv
                0x080537ae        0xb metro_device.o
                0x080537ae                std::ios_base::width() const
 *fill*         0x080537b9        0x1 9090
 .text._ZNSt8ios_base5widthEi
                0x080537ba       0x1d metro_device.o
                0x080537ba                std::ios_base::width(int)
 *fill*         0x080537d7        0x1 9090
 .text._ZNKSt8ios_base6getlocEv
                0x080537d8       0x2a metro_device.o
                0x080537d8                std::ios_base::getloc() const
 .text._ZNSt5_IosbIiEC2Ev
                0x08053802        0x5 metro_device.o
                0x08053802                std::_Iosb<int>::_Iosb()
 *fill*         0x08053807        0x1 9090
 .text._ZNSt8ios_baseC2Ev
                0x08053808       0x1c metro_device.o
                0x08053808                std::ios_base::ios_base()
 .text._ZStanNSt5_IosbIiE9_FmtflagsES1_
                0x08053824        0xd metro_device.o
                0x08053824                std::operator&(std::_Iosb<int>::_Fmtflags, std::_Iosb<int>::_Fmtflags)
 .text._ZStoRRNSt5_IosbIiE8_IostateES1_
                0x08053831       0x1b metro_device.o
                0x08053831                std::operator|=(std::_Iosb<int>::_Iostate&, std::_Iosb<int>::_Iostate)
 .text._ZStanNSt5_IosbIiE9_OpenmodeES1_
                0x0805384c        0xd metro_device.o
                0x0805384c                std::operator&(std::_Iosb<int>::_Openmode, std::_Iosb<int>::_Openmode)
 .text._ZStorNSt5_IosbIiE9_OpenmodeES1_
                0x08053859        0xd metro_device.o
                0x08053859                std::operator|(std::_Iosb<int>::_Openmode, std::_Iosb<int>::_Openmode)
 .text._ZN12metro_device22metro_device_exceptionC1ESs
                0x08053866       0x1a metro_device.o
                0x08053866                metro_device::metro_device_exception::metro_device_exception(std::string)
 .text._ZN12metro_device22metro_device_exceptionD1Ev
                0x08053880       0x13 metro_device.o
                0x08053880                metro_device::metro_device_exception::~metro_device_exception()
 *fill*         0x08053893        0x1 9090
 .text._ZNSt8bad_castD1Ev
                0x08053894       0x30 metro_device.o
                0x08053894                std::bad_cast::~bad_cast()
 .text._ZNSt8bad_castD0Ev
                0x080538c4       0x30 metro_device.o
                0x080538c4                std::bad_cast::~bad_cast()
 .text._ZSt9use_facetISt5ctypeIcEERKT_RKSt6locale
                0x080538f4       0xfd metro_device.o
                0x080538f4                std::ctype<char> const& std::use_facet<std::ctype<char> >(std::locale const&)
 *fill*         0x080539f1        0x1 9090
 .text._ZNSt6vectorIhSaIhEEC1ERKS1_
                0x080539f2       0xda metro_device.o
                0x080539f2                std::vector<unsigned char, std::allocator<unsigned char> >::vector(std::vector<unsigned char, std::allocator<unsigned char> > const&)
 .text._ZNSt6vectorIhSaIhEED1Ev
                0x08053acc       0x13 metro_device.o
                0x08053acc                std::vector<unsigned char, std::allocator<unsigned char> >::~vector()
 *fill*         0x08053adf        0x1 9090
 .text._ZNSt6vectorIS_IhSaIhEESaIS1_EED1Ev
                0x08053ae0       0x13 metro_device.o
                0x08053ae0                std::vector<std::vector<unsigned char, std::allocator<unsigned char> >, std::allocator<std::vector<unsigned char, std::allocator<unsigned char> > > >::~vector()
 *fill*         0x08053af3        0x1 9090
 .text._ZNSt6vectorIhSaIhEEC1Ej
                0x08053af4       0x42 metro_device.o
                0x08053af4                std::vector<unsigned char, std::allocator<unsigned char> >::vector(unsigned int)
 .text._ZNSt6vectorIhSaIhEEC1Ev
                0x08053b36       0x38 metro_device.o
                0x08053b36                std::vector<unsigned char, std::allocator<unsigned char> >::vector()
 .text._ZNSt6vectorIS_IhSaIhEESaIS1_EEC1Ev
                0x08053b6e       0x38 metro_device.o
                0x08053b6e                std::vector<std::vector<unsigned char, std::allocator<unsigned char> >, std::allocator<std::vector<unsigned char, std::allocator<unsigned char> > > >::vector()
 .text._ZNSt19basic_ostringstreamIcSt11char_traitsIcESaIcEEC1ENSt5_IosbIiE9_OpenmodeE
                0x08053ba6       0xc7 metro_device.o
                0x08053ba6                std::basic_ostringstream<char, std::char_traits<char>, std::allocator<char> >::basic_ostringstream(std::_Iosb<int>::_Openmode)
 *fill*         0x08053c6d        0x1 9090
 .text._ZNSt19basic_ostringstreamIcSt11char_traitsIcESaIcEED1Ev
                0x08053c6e       0xd6 metro_device.o
                0x08053c7e                std::basic_ostringstream<char, std::char_traits<char>, std::allocator<char> >::~basic_ostringstream()
                0x08053c6e                virtual thunk to std::basic_ostringstream<char, std::char_traits<char>, std::allocator<char> >::~basic_ostringstream()
 .text._ZNSt19basic_ostringstreamIcSt11char_traitsIcESaIcEED0Ev
                0x08053d44       0xd6 metro_device.o
                0x08053d44                virtual thunk to std::basic_ostringstream<char, std::char_traits<char>, std::allocator<char> >::~basic_ostringstream()
                0x08053d54                std::basic_ostringstream<char, std::char_traits<char>, std::allocator<char> >::~basic_ostringstream()
 .text._ZStlsISt11char_traitsIcEERSt13basic_ostreamIcT_ES5_PKc
                0x08053e1a      0x32a metro_device.o
                0x08053e1a                std::basic_ostream<char, std::char_traits<char> >& std::operator<< <std::char_traits<char> >(std::basic_ostream<char, std::char_traits<char> >&, char const*)
 .text._ZNKSt19basic_ostringstreamIcSt11char_traitsIcESaIcEE3strEv
                0x08054144       0x2c metro_device.o
                0x08054144                std::basic_ostringstream<char, std::char_traits<char>, std::allocator<char> >::str() const
 .text._ZNSt6vectorIhSaIhEE6insertISt16_Vector_iteratorIhS0_EEEvS4_T_S5_
                0x08054170       0x45 metro_device.o
                0x08054170                void std::vector<unsigned char, std::allocator<unsigned char> >::insert<std::_Vector_iterator<unsigned char, std::allocator<unsigned char> > >(std::_Vector_iterator<unsigned char, std::allocator<unsigned char> >, std::_Vector_iterator<unsigned char, std::allocator<unsigned char> >, std::_Vector_iterator<unsigned char, std::allocator<unsigned char> >)
 .text._ZSt7advanceISt16_Vector_iteratorIhSaIhEEjEvRT_T0_
                0x080541b5       0x37 metro_device.o
                0x080541b5                void std::advance<std::_Vector_iterator<unsigned char, std::allocator<unsigned char> >, unsigned int>(std::_Vector_iterator<unsigned char, std::allocator<unsigned char> >&, unsigned int)
 .text._ZNSt6vectorIhSaIhEE5eraseESt16_Vector_iteratorIhS0_ES3_
                0x080541ec       0x73 metro_device.o
                0x080541ec                std::vector<unsigned char, std::allocator<unsigned char> >::erase(std::_Vector_iterator<unsigned char, std::allocator<unsigned char> >, std::_Vector_iterator<unsigned char, std::allocator<unsigned char> >)
 *fill*         0x0805425f        0x1 9090
 .text._ZNSt6vectorIhSaIhEE9push_backERKh
                0x08054260       0x91 metro_device.o
                0x08054260                std::vector<unsigned char, std::allocator<unsigned char> >::push_back(unsigned char const&)
 .text._ZN16program_settings13bytes_of_typeItEESt6vectorIhSaIhEET_b
                0x080542f1      0x10c metro_device.o
                0x080542f1                std::vector<unsigned char, std::allocator<unsigned char> > program_settings::bytes_of_type<unsigned short>(unsigned short, bool)
 *fill*         0x080543fd        0x1 9090
 .text._ZNSt6vectorIS_IhSaIhEESaIS1_EE8_DestroyEPS1_S4_
                0x080543fe       0x21 metro_device.o
                0x080543fe                std::vector<std::vector<unsigned char, std::allocator<unsigned char> >, std::allocator<std::vector<unsigned char, std::allocator<unsigned char> > > >::_Destroy(std::vector<unsigned char, std::allocator<unsigned char> >*, std::vector<unsigned char, std::allocator<unsigned char> >*)
 *fill*         0x0805441f        0x1 9090
 .text._ZNSaISt6vectorIhSaIhEEE10deallocateEPS1_j
                0x08054420       0x13 metro_device.o
                0x08054420                std::allocator<std::vector<unsigned char, std::allocator<unsigned char> > >::deallocate(std::vector<unsigned char, std::allocator<unsigned char> >*, unsigned int)
 *fill*         0x08054433        0x1 9090
 .text._ZNSt6vectorIS_IhSaIhEESaIS1_EE4_BuyEj
                0x08054434       0x93 metro_device.o
                0x08054434                std::vector<std::vector<unsigned char, std::allocator<unsigned char> >, std::allocator<std::vector<unsigned char, std::allocator<unsigned char> > > >::_Buy(unsigned int)
 .text._ZSt4copyIPhS0_ET0_T_S2_S1_
                0x080544c7       0x45 metro_device.o
                0x080544c7                unsigned char* std::copy<unsigned char*, unsigned char*>(unsigned char*, unsigned char*, unsigned char*)
 .text._ZNSt6vectorIhSaIhEE8_DestroyEPhS2_
                0x0805450c       0x21 metro_device.o
                0x0805450c                std::vector<unsigned char, std::allocator<unsigned char> >::_Destroy(unsigned char*, unsigned char*)
 *fill*         0x0805452d        0x1 9090
 .text._ZNKSt6vectorIhSaIhEE8capacityEv
                0x0805452e       0x2a metro_device.o
                0x0805452e                std::vector<unsigned char, std::allocator<unsigned char> >::capacity() const
 .text._ZNSt6vectorIhSaIhEE6_UcopyIPhEES3_T_S4_S3_
                0x08054558       0x28 metro_device.o
                0x08054558                unsigned char* std::vector<unsigned char, std::allocator<unsigned char> >::_Ucopy<unsigned char*>(unsigned char*, unsigned char*, unsigned char*)
 .text._ZNSaIhE10deallocateEPhj
                0x08054580       0x13 metro_device.o
                0x08054580                std::allocator<unsigned char>::deallocate(unsigned char*, unsigned int)
 *fill*         0x08054593        0x1 9090
 .text._ZNSt6vectorIhSaIhEE4_BuyEj
                0x08054594       0x8f metro_device.o
                0x08054594                std::vector<unsigned char, std::allocator<unsigned char> >::_Buy(unsigned int)
 *fill*         0x08054623        0x1 9090
 .text._ZNSt15_Allocator_baseIhEC2Ev
                0x08054624        0x5 metro_device.o
                0x08054624                std::_Allocator_base<unsigned char>::_Allocator_base()
 *fill*         0x08054629        0x1 9090
 .text._ZNSaIhEC1ERKS_
                0x0805462a       0x13 metro_device.o
                0x0805462a                std::allocator<unsigned char>::allocator(std::allocator<unsigned char> const&)
 *fill*         0x0805463d        0x1 9090
 .text._ZNSt11_Vector_valIhSaIhEEC2ES0_
                0x0805463e       0x25 metro_device.o
                0x0805463e                std::_Vector_val<unsigned char, std::allocator<unsigned char> >::_Vector_val(std::allocator<unsigned char>)
 *fill*         0x08054663        0x1 9090
 .text._ZNKSt6vectorIhSaIhEE5beginEv
                0x08054664       0x26 metro_device.o
                0x08054664                std::vector<unsigned char, std::allocator<unsigned char> >::begin() const
 .text._ZNKSt6vectorIhSaIhEE3endEv
                0x0805468a       0x26 metro_device.o
                0x0805468a                std::vector<unsigned char, std::allocator<unsigned char> >::end() const
 .text._ZNSt6vectorIhSaIhEE6_UcopyISt22_Vector_const_iteratorIhS0_EEEPhT_S6_S5_
                0x080546b0       0x28 metro_device.o
                0x080546b0                unsigned char* std::vector<unsigned char, std::allocator<unsigned char> >::_Ucopy<std::_Vector_const_iterator<unsigned char, std::allocator<unsigned char> > >(std::_Vector_const_iterator<unsigned char, std::allocator<unsigned char> >, std::_Vector_const_iterator<unsigned char, std::allocator<unsigned char> >, unsigned char*)
 .text._ZNSt6vectorIhSaIhEE5_TidyEv
                0x080546d8       0x7e metro_device.o
                0x080546d8                std::vector<unsigned char, std::allocator<unsigned char> >::_Tidy()
 .text._ZNSt15_Allocator_baseISt6vectorIhSaIhEEEC2Ev
                0x08054756        0x5 metro_device.o
                0x08054756                std::_Allocator_base<std::vector<unsigned char, std::allocator<unsigned char> > >::_Allocator_base()
 *fill*         0x0805475b        0x1 9090
 .text._ZNSaISt6vectorIhSaIhEEEC1ERKS2_
                0x0805475c       0x13 metro_device.o
                0x0805475c                std::allocator<std::vector<unsigned char, std::allocator<unsigned char> > >::allocator(std::allocator<std::vector<unsigned char, std::allocator<unsigned char> > > const&)
 *fill*         0x0805476f        0x1 9090
 .text._ZNSt11_Vector_valISt6vectorIhSaIhEESaIS2_EEC2ES3_
                0x08054770       0x25 metro_device.o
                0x08054770                std::_Vector_val<std::vector<unsigned char, std::allocator<unsigned char> >, std::allocator<std::vector<unsigned char, std::allocator<unsigned char> > > >::_Vector_val(std::allocator<std::vector<unsigned char, std::allocator<unsigned char> > >)
 *fill*         0x08054795        0x1 9090
 .text._ZNSt6vectorIS_IhSaIhEESaIS1_EE5_TidyEv
                0x08054796       0x81 metro_device.o
                0x08054796                std::vector<std::vector<unsigned char, std::allocator<unsigned char> >, std::allocator<std::vector<unsigned char, std::allocator<unsigned char> > > >::_Tidy()
 *fill*         0x08054817        0x1 9090
 .text._ZNSaIhEC1Ev
                0x08054818       0x13 metro_device.o
                0x08054818                std::allocator<unsigned char>::allocator()
 *fill*         0x0805482b        0x1 9090
 .text._ZNSt6vectorIhSaIhEE12_Construct_nEjRKh
                0x0805482c       0x7d metro_device.o
                0x0805482c                std::vector<unsigned char, std::allocator<unsigned char> >::_Construct_n(unsigned int, unsigned char const&)
 *fill*         0x080548a9        0x1 9090
 .text._ZNSaISt6vectorIhSaIhEEEC1Ev
                0x080548aa       0x13 metro_device.o
                0x080548aa                std::allocator<std::vector<unsigned char, std::allocator<unsigned char> > >::allocator()
 *fill*         0x080548bd        0x1 9090
 .text._ZNSt9basic_iosIcSt11char_traitsIcEEC2Ev
                0x080548be       0x1c metro_device.o
                0x080548be                std::basic_ios<char, std::char_traits<char> >::basic_ios()
 .text._ZNSt9basic_iosIcSt11char_traitsIcEED2Ev
                0x080548da       0x30 metro_device.o
                0x080548da                std::basic_ios<char, std::char_traits<char> >::~basic_ios()
 .text._ZNSt9basic_iosIcSt11char_traitsIcEED1Ev
                0x0805490a       0x30 metro_device.o
                0x0805490a                std::basic_ios<char, std::char_traits<char> >::~basic_ios()
 .text._ZNSt9basic_iosIcSt11char_traitsIcEED0Ev
                0x0805493a       0x30 metro_device.o
                0x0805493a                std::basic_ios<char, std::char_traits<char> >::~basic_ios()
 .text._ZNSoC2EPSt15basic_streambufIcSt11char_traitsIcEEb
                0x0805496a       0x64 metro_device.o
                0x0805496a                std::basic_ostream<char, std::char_traits<char> >::basic_ostream(std::basic_streambuf<char, std::char_traits<char> >*, bool)
 .text._ZNSoD2Ev
                0x080549ce       0x58 metro_device.o
                0x080549ce                std::basic_ostream<char, std::char_traits<char> >::~basic_ostream()
 .text._ZNSoD1Ev
                0x08054a26       0x5e metro_device.o
                0x08054a26                virtual thunk to std::basic_ostream<char, std::char_traits<char> >::~basic_ostream()
                0x08054a36                std::basic_ostream<char, std::char_traits<char> >::~basic_ostream()
 .text._ZNSoD0Ev
                0x08054a84       0x5e metro_device.o
                0x08054a84                virtual thunk to std::basic_ostream<char, std::char_traits<char> >::~basic_ostream()
                0x08054a94                std::basic_ostream<char, std::char_traits<char> >::~basic_ostream()
 .text._ZNSt15basic_stringbufIcSt11char_traitsIcESaIcEEC1ENSt5_IosbIiE9_OpenmodeE
                0x08054ae2       0x7f metro_device.o
                0x08054ae2                std::basic_stringbuf<char, std::char_traits<char>, std::allocator<char> >::basic_stringbuf(std::_Iosb<int>::_Openmode)
 *fill*         0x08054b61        0x1 9090
 .text._ZNSt15basic_stringbufIcSt11char_traitsIcESaIcEED1Ev
                0x08054b62       0x5f metro_device.o
                0x08054b62                std::basic_stringbuf<char, std::char_traits<char>, std::allocator<char> >::~basic_stringbuf()
 *fill*         0x08054bc1        0x1 9090
 .text._ZNSt15basic_stringbufIcSt11char_traitsIcESaIcEED0Ev
                0x08054bc2       0x5f metro_device.o
                0x08054bc2                std::basic_stringbuf<char, std::char_traits<char>, std::allocator<char> >::~basic_stringbuf()
 *fill*         0x08054c21        0x1 9090
 .text._ZNSo6sentryC1ERSo
                0x08054c22       0xc2 metro_device.o
                0x08054c22                std::ostream::sentry::sentry(std::ostream&)
 .text._ZNSo6sentryD1Ev
                0x08054ce4       0x4e metro_device.o
                0x08054ce4                std::ostream::sentry::~sentry()
 .text._ZNKSo6sentrycvbEv
                0x08054d32        0xc metro_device.o
                0x08054d32                std::ostream::sentry::operator bool() const
 .text._ZNKSt9basic_iosIcSt11char_traitsIcEE5rdbufEv
                0x08054d3e        0xb metro_device.o
                0x08054d3e                std::basic_ios<char, std::char_traits<char> >::rdbuf() const
 *fill*         0x08054d49        0x1 9090
 .text._ZNKSt9basic_iosIcSt11char_traitsIcEE4fillEv
                0x08054d4a        0xc metro_device.o
                0x08054d4a                std::basic_ios<char, std::char_traits<char> >::fill() const
 .text._ZNSt15basic_streambufIcSt11char_traitsIcEE5sputcEc
                0x08054d56       0x5e metro_device.o
                0x08054d56                std::basic_streambuf<char, std::char_traits<char> >::sputc(char)
 .text._ZNSt15basic_streambufIcSt11char_traitsIcEE5sputnEPKci
                0x08054db4       0x28 metro_device.o
                0x08054db4                std::basic_streambuf<char, std::char_traits<char> >::sputn(char const*, int)
 .text._ZNSt9basic_iosIcSt11char_traitsIcEE8setstateENSt5_IosbIiE8_IostateEb
                0x08054ddc       0x42 metro_device.o
                0x08054ddc                std::basic_ios<char, std::char_traits<char> >::setstate(std::_Iosb<int>::_Iostate, bool)
 .text._ZNKSt15basic_stringbufIcSt11char_traitsIcESaIcEE3strEv
                0x08054e1e      0x1c8 metro_device.o
                0x08054e1e                std::basic_stringbuf<char, std::char_traits<char>, std::allocator<char> >::str() const
 .text._ZSt9_Iter_catISt16_Vector_iteratorIhSaIhEEENSt15iterator_traitsIT_E17iterator_categoryERKS4_
                0x08054fe6        0xd metro_device.o
                0x08054fe6                std::iterator_traits<std::_Vector_iterator<unsigned char, std::allocator<unsigned char> > >::iterator_category std::_Iter_cat<std::_Vector_iterator<unsigned char, std::allocator<unsigned char> > >(std::_Vector_iterator<unsigned char, std::allocator<unsigned char> > const&)
 *fill*         0x08054ff3        0x1 9090
 .text._ZNSt6vectorIhSaIhEE7_InsertISt16_Vector_iteratorIhS0_EEEvS4_T_S5_St20forward_iterator_tag
                0x08054ff4      0x415 metro_device.o
                0x08054ff4                void std::vector<unsigned char, std::allocator<unsigned char> >::_Insert<std::_Vector_iterator<unsigned char, std::allocator<unsigned char> > >(std::_Vector_iterator<unsigned char, std::allocator<unsigned char> >, std::_Vector_iterator<unsigned char, std::allocator<unsigned char> >, std::_Vector_iterator<unsigned char, std::allocator<unsigned char> >, std::forward_iterator_tag)
 .text._ZSt8_AdvanceISt16_Vector_iteratorIhSaIhEEjEvRT_T0_St26random_access_iterator_tag
                0x08055409       0x1a metro_device.o
                0x08055409                void std::_Advance<std::_Vector_iterator<unsigned char, std::allocator<unsigned char> >, unsigned int>(std::_Vector_iterator<unsigned char, std::allocator<unsigned char> >&, unsigned int, std::random_access_iterator_tag)
 *fill*         0x08055423        0x1 9090
 .text._ZNSt6vectorIhSaIhEE6_UfillEPhjRKh
                0x08055424       0x31 metro_device.o
                0x08055424                std::vector<unsigned char, std::allocator<unsigned char> >::_Ufill(unsigned char*, unsigned int, unsigned char const&)
 *fill*         0x08055455        0x1 9090
 .text._ZNSt6vectorIhSaIhEE6insertESt16_Vector_iteratorIhS0_ERKh
                0x08055456       0xa8 metro_device.o
                0x08055456                std::vector<unsigned char, std::allocator<unsigned char> >::insert(std::_Vector_iterator<unsigned char, std::allocator<unsigned char> >, unsigned char const&)
 .text._ZNSt6vectorIhSaIhEEixEj
                0x080554fe       0x48 metro_device.o
                0x080554fe                std::vector<unsigned char, std::allocator<unsigned char> >::operator[](unsigned int)
 .text._ZSt8_Ptr_catIPSt6vectorIhSaIhEES3_ESt27_Nonscalar_ptr_iterator_tagRT_RT0_
                0x08055546        0xd metro_device.o
                0x08055546                std::_Nonscalar_ptr_iterator_tag std::_Ptr_cat<std::vector<unsigned char, std::allocator<unsigned char> >*, std::vector<unsigned char, std::allocator<unsigned char> >*>(std::vector<unsigned char, std::allocator<unsigned char> >*&, std::vector<unsigned char, std::allocator<unsigned char> >*&)
 .text._ZSt14_Destroy_rangeISt6vectorIhSaIhEESaIS2_EEvPT_S5_RT0_
                0x08055553       0x45 metro_device.o
                0x08055553                void std::_Destroy_range<std::vector<unsigned char, std::allocator<unsigned char> >, std::allocator<std::vector<unsigned char, std::allocator<unsigned char> > > >(std::vector<unsigned char, std::allocator<unsigned char> >*, std::vector<unsigned char, std::allocator<unsigned char> >*, std::allocator<std::vector<unsigned char, std::allocator<unsigned char> > >&)
 .text._ZNKSt6vectorIS_IhSaIhEESaIS1_EE8max_sizeEv
                0x08055598       0x13 metro_device.o
                0x08055598                std::vector<std::vector<unsigned char, std::allocator<unsigned char> >, std::allocator<std::vector<unsigned char, std::allocator<unsigned char> > > >::max_size() const
 *fill*         0x080555ab        0x1 9090
 .text._ZNKSt6vectorIS_IhSaIhEESaIS1_EE5_XlenEv
                0x080555ac       0xaf metro_device.o
                0x080555ac                std::vector<std::vector<unsigned char, std::allocator<unsigned char> >, std::allocator<std::vector<unsigned char, std::allocator<unsigned char> > > >::_Xlen() const
 *fill*         0x0805565b        0x1 9090
 .text._ZNSaISt6vectorIhSaIhEEE8allocateEj
                0x0805565c       0x1b metro_device.o
                0x0805565c                std::allocator<std::vector<unsigned char, std::allocator<unsigned char> > >::allocate(unsigned int)
 .text._ZSt9_Copy_optIPhS0_ET0_T_S2_S1_St24_Scalar_ptr_iterator_tag
                0x08055677       0x38 metro_device.o
                0x08055677                unsigned char* std::_Copy_opt<unsigned char*, unsigned char*>(unsigned char*, unsigned char*, unsigned char*, std::_Scalar_ptr_iterator_tag)
 .text._ZSt14_Destroy_rangeIhSaIhEEvPT_S2_RT0_
                0x080556af       0x45 metro_device.o
                0x080556af                void std::_Destroy_range<unsigned char, std::allocator<unsigned char> >(unsigned char*, unsigned char*, std::allocator<unsigned char>&)
 .text._ZSt19_Uninitialized_copyIPhS0_SaIhEET0_T_S3_S2_RT1_
                0x080556f4       0x4c metro_device.o
                0x080556f4                unsigned char* std::_Uninitialized_copy<unsigned char*, unsigned char*, std::allocator<unsigned char> >(unsigned char*, unsigned char*, unsigned char*, std::allocator<unsigned char>&)
 .text._ZNKSt6vectorIhSaIhEE8max_sizeEv
                0x08055740       0x13 metro_device.o
                0x08055740                std::vector<unsigned char, std::allocator<unsigned char> >::max_size() const
 *fill*         0x08055753        0x1 9090
 .text._ZNKSt6vectorIhSaIhEE5_XlenEv
                0x08055754       0xaf metro_device.o
                0x08055754                std::vector<unsigned char, std::allocator<unsigned char> >::_Xlen() const
 *fill*         0x08055803        0x1 9090
 .text._ZNSaIhE8allocateEj
                0x08055804       0x1b metro_device.o
                0x08055804                std::allocator<unsigned char>::allocate(unsigned int)
 *fill*         0x0805581f        0x1 9090
 .text._ZNSt22_Vector_const_iteratorIhSaIhEEC1EPh
                0x08055820       0x1b metro_device.o
                0x08055820                std::_Vector_const_iterator<unsigned char, std::allocator<unsigned char> >::_Vector_const_iterator(unsigned char*)
 .text._ZSt19_Uninitialized_copyISt22_Vector_const_iteratorIhSaIhEEPhS1_ET0_T_S5_S4_RT1_
                0x0805583b       0x4c metro_device.o
                0x0805583b                unsigned char* std::_Uninitialized_copy<std::_Vector_const_iterator<unsigned char, std::allocator<unsigned char> >, unsigned char*, std::allocator<unsigned char> >(std::_Vector_const_iterator<unsigned char, std::allocator<unsigned char> >, std::_Vector_const_iterator<unsigned char, std::allocator<unsigned char> >, unsigned char*, std::allocator<unsigned char>&)
 *fill*         0x08055887        0x1 9090
 .text._ZNSt9basic_iosIcSt11char_traitsIcEE4initEPSt15basic_streambufIcS1_Eb
                0x08055888       0x87 metro_device.o
                0x08055888                std::basic_ios<char, std::char_traits<char> >::init(std::basic_streambuf<char, std::char_traits<char> >*, bool)
 *fill*         0x0805590f        0x1 9090
 .text._ZNSt15basic_streambufIcSt11char_traitsIcEEC2Ev
                0x08055910       0x71 metro_device.o
                0x08055910                std::basic_streambuf<char, std::char_traits<char> >::basic_streambuf()
 *fill*         0x08055981        0x1 9090
 .text._ZNSt15basic_streambufIcSt11char_traitsIcEED2Ev
                0x08055982       0x74 metro_device.o
                0x08055982                std::basic_streambuf<char, std::char_traits<char> >::~basic_streambuf()
 .text._ZNSt15basic_streambufIcSt11char_traitsIcEED1Ev
                0x080559f6       0x74 metro_device.o
                0x080559f6                std::basic_streambuf<char, std::char_traits<char> >::~basic_streambuf()
 .text._ZNSt15basic_streambufIcSt11char_traitsIcEED0Ev
                0x08055a6a       0x74 metro_device.o
                0x08055a6a                std::basic_streambuf<char, std::char_traits<char> >::~basic_streambuf()
 .text._ZNSt15basic_stringbufIcSt11char_traitsIcESaIcEE5_InitEPKcji
                0x08055ade      0x119 metro_device.o
                0x08055ade                std::basic_stringbuf<char, std::char_traits<char>, std::allocator<char> >::_Init(char const*, unsigned int, int)
 *fill*         0x08055bf7        0x1 9090
 .text._ZNSt15basic_stringbufIcSt11char_traitsIcESaIcEE9_GetstateENSt5_IosbIiE9_OpenmodeE
                0x08055bf8       0x72 metro_device.o
                0x08055bf8                std::basic_stringbuf<char, std::char_traits<char>, std::allocator<char> >::_Getstate(std::_Iosb<int>::_Openmode)
 .text._ZNSt15basic_stringbufIcSt11char_traitsIcESaIcEE5_TidyEv
                0x08055c6a       0xd0 metro_device.o
                0x08055c6a                std::basic_stringbuf<char, std::char_traits<char>, std::allocator<char> >::_Tidy()
 .text._ZNSo12_Sentry_baseC2ERSo
                0x08055d3a       0x61 metro_device.o
                0x08055d3a                std::ostream::_Sentry_base::_Sentry_base(std::ostream&)
 *fill*         0x08055d9b        0x1 9090
 .text._ZNSo12_Sentry_baseD2Ev
                0x08055d9c       0x59 metro_device.o
                0x08055d9c                std::ostream::_Sentry_base::~_Sentry_base()
 *fill*         0x08055df5        0x1 9090
 .text._ZNKSt9basic_iosIcSt11char_traitsIcEE3tieEv
                0x08055df6        0xb metro_device.o
                0x08055df6                std::basic_ios<char, std::char_traits<char> >::tie() const
 *fill*         0x08055e01        0x1 9090
 .text._ZNSo5flushEv
                0x08055e02       0xa0 metro_device.o
                0x08055e02                std::ostream::flush()
 .text._ZNSo5_OsfxEv
                0x08055ea2       0x44 metro_device.o
                0x08055ea2                std::ostream::_Osfx()
 .text._ZNSt15basic_streambufIcSt11char_traitsIcEE8overflowEi
                0x08055ee6        0xd metro_device.o
                0x08055ee6                std::basic_streambuf<char, std::char_traits<char> >::overflow(int)
 *fill*         0x08055ef3        0x1 9090
 .text._ZNSt15basic_streambufIcSt11char_traitsIcEE6_PnincEv
                0x08055ef4       0x16 metro_device.o
                0x08055ef4                std::basic_streambuf<char, std::char_traits<char> >::_Pninc()
 .text._ZNKSt15basic_streambufIcSt11char_traitsIcEE8_PnavailEv
                0x08055f0a       0x30 metro_device.o
                0x08055f0a                std::basic_streambuf<char, std::char_traits<char> >::_Pnavail() const
 .text._ZNSt15basic_streambufIcSt11char_traitsIcEE6xsputnEPKci
                0x08055f3a       0xea metro_device.o
                0x08055f3a                std::basic_streambuf<char, std::char_traits<char> >::xsputn(char const*, int)
 .text._ZNSt9basic_iosIcSt11char_traitsIcEE5clearENSt5_IosbIiE8_IostateEb
                0x08056024       0x3a metro_device.o
                0x08056024                std::basic_ios<char, std::char_traits<char> >::clear(std::_Iosb<int>::_Iostate, bool)
 .text._ZNKSt15basic_streambufIcSt11char_traitsIcEE4pptrEv
                0x0805605e        0xd metro_device.o
                0x0805605e                std::basic_streambuf<char, std::char_traits<char> >::pptr() const
 *fill*         0x0805606b        0x1 9090
 .text._ZNKSt15basic_streambufIcSt11char_traitsIcEE5pbaseEv
                0x0805606c        0xd metro_device.o
                0x0805606c                std::basic_streambuf<char, std::char_traits<char> >::pbase() const
 *fill*         0x08056079        0x1 9090
 .text._ZNSsC1EPKcj
                0x0805607a       0x59 metro_device.o
                0x0805607a                std::basic_string<char, std::char_traits<char>, std::allocator<char> >::basic_string(char const*, unsigned int)
 *fill*         0x080560d3        0x1 9090
 .text._ZNKSt15basic_streambufIcSt11char_traitsIcEE4gptrEv
                0x080560d4        0xd metro_device.o
                0x080560d4                std::basic_streambuf<char, std::char_traits<char> >::gptr() const
 *fill*         0x080560e1        0x1 9090
 .text._ZNKSt15basic_streambufIcSt11char_traitsIcEE5ebackEv
                0x080560e2        0xd metro_device.o
                0x080560e2                std::basic_streambuf<char, std::char_traits<char> >::eback() const
 *fill*         0x080560ef        0x1 9090
 .text._ZNKSt15basic_streambufIcSt11char_traitsIcEE5egptrEv
                0x080560f0        0xd metro_device.o
                0x080560f0                std::basic_streambuf<char, std::char_traits<char> >::egptr() const
 .text._ZSt9_DistanceISt16_Vector_iteratorIhSaIhEEjEvT_S3_RT0_
                0x080560fd       0x3e metro_device.o
                0x080560fd                void std::_Distance<std::_Vector_iterator<unsigned char, std::allocator<unsigned char> >, unsigned int>(std::_Vector_iterator<unsigned char, std::allocator<unsigned char> >, std::_Vector_iterator<unsigned char, std::allocator<unsigned char> >, unsigned int&)
 *fill*         0x0805613b        0x1 9090
 .text._ZNSt6vectorIhSaIhEE6_UcopyISt16_Vector_iteratorIhS0_EEEPhT_S6_S5_
                0x0805613c       0x28 metro_device.o
                0x0805613c                unsigned char* std::vector<unsigned char, std::allocator<unsigned char> >::_Ucopy<std::_Vector_iterator<unsigned char, std::allocator<unsigned char> > >(std::_Vector_iterator<unsigned char, std::allocator<unsigned char> >, std::_Vector_iterator<unsigned char, std::allocator<unsigned char> >, unsigned char*)
 .text._ZNKSt16_Vector_iteratorIhSaIhEEmiERKSt22_Vector_const_iteratorIhS0_E
                0x08056164       0x1a metro_device.o
                0x08056164                std::_Vector_iterator<unsigned char, std::allocator<unsigned char> >::operator-(std::_Vector_const_iterator<unsigned char, std::allocator<unsigned char> > const&) const
 .text._ZSt7advanceISt16_Vector_iteratorIhSaIhEEiEvRT_T0_
                0x0805617e       0x37 metro_device.o
                0x0805617e                void std::advance<std::_Vector_iterator<unsigned char, std::allocator<unsigned char> >, int>(std::_Vector_iterator<unsigned char, std::allocator<unsigned char> >&, int)
 .text._ZSt4copyISt16_Vector_iteratorIhSaIhEEPhET0_T_S5_S4_
                0x080561b5       0x45 metro_device.o
                0x080561b5                unsigned char* std::copy<std::_Vector_iterator<unsigned char, std::allocator<unsigned char> >, unsigned char*>(std::_Vector_iterator<unsigned char, std::allocator<unsigned char> >, std::_Vector_iterator<unsigned char, std::allocator<unsigned char> >, unsigned char*)
 .text._ZSt13copy_backwardIPhS0_ET0_T_S2_S1_
                0x080561fa       0x45 metro_device.o
                0x080561fa                unsigned char* std::copy_backward<unsigned char*, unsigned char*>(unsigned char*, unsigned char*, unsigned char*)
 *fill*         0x0805623f        0x1 9090
 .text._ZNSt16_Vector_iteratorIhSaIhEEpLEi
                0x08056240       0x17 metro_device.o
                0x08056240                std::_Vector_iterator<unsigned char, std::allocator<unsigned char> >::operator+=(int)
 .text._ZSt21_Uninitialized_fill_nIPhjhSaIhEEvT_T0_RKT1_RT2_
                0x08056257       0x4c metro_device.o
                0x08056257                void std::_Uninitialized_fill_n<unsigned char*, unsigned int, unsigned char, std::allocator<unsigned char> >(unsigned char*, unsigned int, unsigned char const&, std::allocator<unsigned char>&)
 *fill*         0x080562a3        0x1 9090
 .text._ZNSt6vectorIhSaIhEE9_Insert_nESt16_Vector_iteratorIhS0_EjRKh
                0x080562a4      0x3b3 metro_device.o
                0x080562a4                std::vector<unsigned char, std::allocator<unsigned char> >::_Insert_n(std::_Vector_iterator<unsigned char, std::allocator<unsigned char> >, unsigned int, unsigned char const&)
 *fill*         0x08056657        0x1 9090
 .text._ZNKSt16_Vector_iteratorIhSaIhEEplEi
                0x08056658       0x42 metro_device.o
                0x08056658                std::_Vector_iterator<unsigned char, std::allocator<unsigned char> >::operator+(int) const
 .text._ZSt14_Destroy_rangeISt6vectorIhSaIhEESaIS2_EEvPT_S5_RT0_St27_Nonscalar_ptr_iterator_tag
                0x0805669a       0x2d metro_device.o
                0x0805669a                void std::_Destroy_range<std::vector<unsigned char, std::allocator<unsigned char> >, std::allocator<std::vector<unsigned char, std::allocator<unsigned char> > > >(std::vector<unsigned char, std::allocator<unsigned char> >*, std::vector<unsigned char, std::allocator<unsigned char> >*, std::allocator<std::vector<unsigned char, std::allocator<unsigned char> > >&, std::_Nonscalar_ptr_iterator_tag)
 *fill*         0x080566c7        0x1 9090
 .text._ZNKSaISt6vectorIhSaIhEEE8max_sizeEv
                0x080566c8       0x1f metro_device.o
                0x080566c8                std::allocator<std::vector<unsigned char, std::allocator<unsigned char> > >::max_size() const
 .text._ZSt9_AllocateISt6vectorIhSaIhEEEPT_jS4_
                0x080566e7       0x16 metro_device.o
                0x080566e7                std::vector<unsigned char, std::allocator<unsigned char> >* std::_Allocate<std::vector<unsigned char, std::allocator<unsigned char> > >(unsigned int, std::vector<unsigned char, std::allocator<unsigned char> >*)
 .text._ZSt14_Destroy_rangeIhSaIhEEvPT_S2_RT0_St24_Scalar_ptr_iterator_tag
                0x080566fd        0x5 metro_device.o
                0x080566fd                void std::_Destroy_range<unsigned char, std::allocator<unsigned char> >(unsigned char*, unsigned char*, std::allocator<unsigned char>&, std::_Scalar_ptr_iterator_tag)
 .text._ZSt12_Uninit_copyIhhEPT0_PT_S3_S1_RSaIS0_ESt24_Scalar_ptr_iterator_tag
                0x08056702       0x33 metro_device.o
                0x08056702                unsigned char* std::_Uninit_copy<unsigned char, unsigned char>(unsigned char*, unsigned char*, unsigned char*, std::allocator<unsigned char>&, std::_Scalar_ptr_iterator_tag)
 *fill*         0x08056735        0x1 9090
 .text._ZNKSaIhE8max_sizeEv
                0x08056736       0x1f metro_device.o
                0x08056736                std::allocator<unsigned char>::max_size() const
 .text._ZSt9_AllocateIhEPT_jS1_
                0x08056755       0x13 metro_device.o
                0x08056755                unsigned char* std::_Allocate<unsigned char>(unsigned int, unsigned char*)
 .text._ZSt8_Ptr_catISt22_Vector_const_iteratorIhSaIhEEPhESt27_Nonscalar_ptr_iterator_tagRT_RT0_
                0x08056768        0xd metro_device.o
                0x08056768                std::_Nonscalar_ptr_iterator_tag std::_Ptr_cat<std::_Vector_const_iterator<unsigned char, std::allocator<unsigned char> >, unsigned char*>(std::_Vector_const_iterator<unsigned char, std::allocator<unsigned char> >&, unsigned char*&)
 .text._ZSt12_Uninit_copyISt22_Vector_const_iteratorIhSaIhEEPhS1_ET0_T_S5_S4_RT1_St27_Nonscalar_ptr_iterator_tag
                0x08056775       0xa7 metro_device.o
                0x08056775                unsigned char* std::_Uninit_copy<std::_Vector_const_iterator<unsigned char, std::allocator<unsigned char> >, unsigned char*, std::allocator<unsigned char> >(std::_Vector_const_iterator<unsigned char, std::allocator<unsigned char> >, std::_Vector_const_iterator<unsigned char, std::allocator<unsigned char> >, unsigned char*, std::allocator<unsigned char>&, std::_Nonscalar_ptr_iterator_tag)
 .text._ZNKSt9basic_iosIcSt11char_traitsIcEE5widenEc
                0x0805681c       0x74 metro_device.o
                0x0805681c                std::basic_ios<char, std::char_traits<char> >::widen(char) const
 .text._ZNSt15basic_streambufIcSt11char_traitsIcEE5_InitEv
                0x08056890       0x8e metro_device.o
                0x08056890                std::basic_streambuf<char, std::char_traits<char> >::_Init()
 .text._ZNSt15basic_streambufIcSt11char_traitsIcEE4setgEPcS3_S3_
                0x0805691e       0x26 metro_device.o
                0x0805691e                std::basic_streambuf<char, std::char_traits<char> >::setg(char*, char*, char*)
 .text._ZNSt15basic_streambufIcSt11char_traitsIcEE4setpEPcS3_
                0x08056944       0x26 metro_device.o
                0x08056944                std::basic_streambuf<char, std::char_traits<char> >::setp(char*, char*)
 .text._ZNKSt15basic_streambufIcSt11char_traitsIcEE5epptrEv
                0x0805696a        0xd metro_device.o
                0x0805696a                std::basic_streambuf<char, std::char_traits<char> >::epptr() const
 *fill*         0x08056977        0x1 9090
 .text._ZNSt15basic_streambufIcSt11char_traitsIcEE5_LockEv
                0x08056978       0x16 metro_device.o
                0x08056978                std::basic_streambuf<char, std::char_traits<char> >::_Lock()
 .text._ZNSt15basic_streambufIcSt11char_traitsIcEE7_UnlockEv
                0x0805698e       0x16 metro_device.o
                0x0805698e                std::basic_streambuf<char, std::char_traits<char> >::_Unlock()
 .text._ZNSt15basic_streambufIcSt11char_traitsIcEE7pubsyncEv
                0x080569a4       0x1a metro_device.o
                0x080569a4                std::basic_streambuf<char, std::char_traits<char> >::pubsync()
 .text._ZNSt15basic_streambufIcSt11char_traitsIcEE5pbumpEi
                0x080569be       0x1b metro_device.o
                0x080569be                std::basic_streambuf<char, std::char_traits<char> >::pbump(int)
 .text._ZSt10_Distance2ISt16_Vector_iteratorIhSaIhEEjEvT_S3_RT0_St26random_access_iterator_tag
                0x080569d9       0x2c metro_device.o
                0x080569d9                void std::_Distance2<std::_Vector_iterator<unsigned char, std::allocator<unsigned char> >, unsigned int>(std::_Vector_iterator<unsigned char, std::allocator<unsigned char> >, std::_Vector_iterator<unsigned char, std::allocator<unsigned char> >, unsigned int&, std::random_access_iterator_tag)
 .text._ZSt19_Uninitialized_copyISt16_Vector_iteratorIhSaIhEEPhS1_ET0_T_S5_S4_RT1_
                0x08056a05       0x4c metro_device.o
                0x08056a05                unsigned char* std::_Uninitialized_copy<std::_Vector_iterator<unsigned char, std::allocator<unsigned char> >, unsigned char*, std::allocator<unsigned char> >(std::_Vector_iterator<unsigned char, std::allocator<unsigned char> >, std::_Vector_iterator<unsigned char, std::allocator<unsigned char> >, unsigned char*, std::allocator<unsigned char>&)
 *fill*         0x08056a51        0x1 9090
 .text._ZNKSt22_Vector_const_iteratorIhSaIhEEmiERKS1_
                0x08056a52       0x17 metro_device.o
                0x08056a52                std::_Vector_const_iterator<unsigned char, std::allocator<unsigned char> >::operator-(std::_Vector_const_iterator<unsigned char, std::allocator<unsigned char> > const&) const
 .text._ZSt8_AdvanceISt16_Vector_iteratorIhSaIhEEiEvRT_T0_St26random_access_iterator_tag
                0x08056a69       0x1a metro_device.o
                0x08056a69                void std::_Advance<std::_Vector_iterator<unsigned char, std::allocator<unsigned char> >, int>(std::_Vector_iterator<unsigned char, std::allocator<unsigned char> >&, int, std::random_access_iterator_tag)
 .text._ZSt8_Ptr_catISt16_Vector_iteratorIhSaIhEEPhESt27_Nonscalar_ptr_iterator_tagRT_RT0_
                0x08056a83        0xd metro_device.o
                0x08056a83                std::_Nonscalar_ptr_iterator_tag std::_Ptr_cat<std::_Vector_iterator<unsigned char, std::allocator<unsigned char> >, unsigned char*>(std::_Vector_iterator<unsigned char, std::allocator<unsigned char> >&, unsigned char*&)
 .text._ZSt9_Copy_optISt16_Vector_iteratorIhSaIhEEPhET0_T_S5_S4_St27_Nonscalar_ptr_iterator_tag
                0x08056a90       0x45 metro_device.o
                0x08056a90                unsigned char* std::_Copy_opt<std::_Vector_iterator<unsigned char, std::allocator<unsigned char> >, unsigned char*>(std::_Vector_iterator<unsigned char, std::allocator<unsigned char> >, std::_Vector_iterator<unsigned char, std::allocator<unsigned char> >, unsigned char*, std::_Nonscalar_ptr_iterator_tag)
 .text._ZSt18_Copy_backward_optIPhS0_ET0_T_S2_S1_St24_Scalar_ptr_iterator_tag
                0x08056ad5       0x35 metro_device.o
                0x08056ad5                unsigned char* std::_Copy_backward_opt<unsigned char*, unsigned char*>(unsigned char*, unsigned char*, unsigned char*, std::_Scalar_ptr_iterator_tag)
 .text._ZSt14_Uninit_fill_nIhjhEvPT_T0_RKT1_RSaIS0_ESt24_Scalar_ptr_iterator_tag
                0x08056b0a       0x21 metro_device.o
                0x08056b0a                void std::_Uninit_fill_n<unsigned char, unsigned int, unsigned char>(unsigned char*, unsigned int, unsigned char const&, std::allocator<unsigned char>&, std::_Scalar_ptr_iterator_tag)
 .text._ZSt4fillIPhhEvT_S1_RKT0_
                0x08056b2b       0x23 metro_device.o
                0x08056b2b                void std::fill<unsigned char*, unsigned char>(unsigned char*, unsigned char*, unsigned char const&)
 .text._ZNSaISt6vectorIhSaIhEEE7destroyEPS1_
                0x08056b4e       0x13 metro_device.o
                0x08056b4e                std::allocator<std::vector<unsigned char, std::allocator<unsigned char> > >::destroy(std::vector<unsigned char, std::allocator<unsigned char> >*)
 *fill*         0x08056b61        0x1 9090
 .text._ZNSt22_Vector_const_iteratorIhSaIhEEppEv
                0x08056b62       0x15 metro_device.o
                0x08056b62                std::_Vector_const_iterator<unsigned char, std::allocator<unsigned char> >::operator++()
 *fill*         0x08056b77        0x1 9090
 .text._ZNSaIhE9constructEPhRKh
                0x08056b78       0x1a metro_device.o
                0x08056b78                std::allocator<unsigned char>::construct(unsigned char*, unsigned char const&)
 .text._ZNSaIhE7destroyEPh
                0x08056b92       0x13 metro_device.o
                0x08056b92                std::allocator<unsigned char>::destroy(unsigned char*)
 *fill*         0x08056ba5        0x1 9090
 .text._ZNSt15basic_streambufIcSt11char_traitsIcEE4syncEv
                0x08056ba6        0xa metro_device.o
                0x08056ba6                std::basic_streambuf<char, std::char_traits<char> >::sync()
 .text._ZSt12_Uninit_copyISt16_Vector_iteratorIhSaIhEEPhS1_ET0_T_S5_S4_RT1_St27_Nonscalar_ptr_iterator_tag
                0x08056bb0       0x59 metro_device.o
                0x08056bb0                unsigned char* std::_Uninit_copy<std::_Vector_iterator<unsigned char, std::allocator<unsigned char> >, unsigned char*, std::allocator<unsigned char> >(std::_Vector_iterator<unsigned char, std::allocator<unsigned char> >, std::_Vector_iterator<unsigned char, std::allocator<unsigned char> >, unsigned char*, std::allocator<unsigned char>&, std::_Nonscalar_ptr_iterator_tag)
 .text._ZSt6fill_nIPhjhEvT_T0_RKT1_
                0x08056c09       0x25 metro_device.o
                0x08056c09                void std::fill_n<unsigned char*, unsigned int, unsigned char>(unsigned char*, unsigned int, unsigned char const&)
 .text._ZSt8_DestroyISt6vectorIhSaIhEEEvPT_
                0x08056c2e       0x13 metro_device.o
                0x08056c2e                void std::_Destroy<std::vector<unsigned char, std::allocator<unsigned char> > >(std::vector<unsigned char, std::allocator<unsigned char> >*)
 .text._ZSt10_ConstructIhhEvPT_RKT0_
                0x08056c41       0x2f metro_device.o
                0x08056c41                void std::_Construct<unsigned char, unsigned char>(unsigned char*, unsigned char const&)
 .text._ZSt8_DestroyIhEvPT_
                0x08056c70        0x5 metro_device.o
                0x08056c70                void std::_Destroy<unsigned char>(unsigned char*)
 *fill*         0x08056c75        0x1 9090
 .text._ZNSt15basic_stringbufIcSt11char_traitsIcESaIcEE8overflowEi
                0x08056c76      0x3ea metro_device.o
                0x08056c76                std::basic_stringbuf<char, std::char_traits<char>, std::allocator<char> >::overflow(int)
 .text._ZNSt15basic_stringbufIcSt11char_traitsIcESaIcEE9pbackfailEi
                0x08057060      0x108 metro_device.o
                0x08057060                std::basic_stringbuf<char, std::char_traits<char>, std::allocator<char> >::pbackfail(int)
 .text._ZNSt15basic_streambufIcSt11char_traitsIcEE9showmanycEv
                0x08057168        0xa metro_device.o
                0x08057168                std::basic_streambuf<char, std::char_traits<char> >::showmanyc()
 .text._ZNSt15basic_stringbufIcSt11char_traitsIcESaIcEE9underflowEv
                0x08057172      0x13d metro_device.o
                0x08057172                std::basic_stringbuf<char, std::char_traits<char>, std::allocator<char> >::underflow()
 *fill*         0x080572af        0x1 9090
 .text._ZNSt15basic_streambufIcSt11char_traitsIcEE5uflowEv
                0x080572b0       0x55 metro_device.o
                0x080572b0                std::basic_streambuf<char, std::char_traits<char> >::uflow()
 *fill*         0x08057305        0x1 9090
 .text._ZNSt15basic_streambufIcSt11char_traitsIcEE6xsgetnEPci
                0x08057306       0xeb metro_device.o
                0x08057306                std::basic_streambuf<char, std::char_traits<char> >::xsgetn(char*, int)
 *fill*         0x080573f1        0x1 9090
 .text._ZNSt15basic_stringbufIcSt11char_traitsIcESaIcEE7seekoffElNSt5_IosbIiE8_SeekdirENS5_9_OpenmodeE
                0x080573f2      0x32c metro_device.o
                0x080573f2                std::basic_stringbuf<char, std::char_traits<char>, std::allocator<char> >::seekoff(long, std::_Iosb<int>::_Seekdir, std::_Iosb<int>::_Openmode)
 .text._ZNSt15basic_stringbufIcSt11char_traitsIcESaIcEE7seekposESt4fposI9_MbstatetENSt5_IosbIiE9_OpenmodeE
                0x0805771e      0x297 metro_device.o
                0x0805771e                std::basic_stringbuf<char, std::char_traits<char>, std::allocator<char> >::seekpos(std::fpos<_Mbstatet>, std::_Iosb<int>::_Openmode)
 *fill*         0x080579b5        0x1 9090
 .text._ZNSt15basic_streambufIcSt11char_traitsIcEE6setbufEPci
                0x080579b6        0x8 metro_device.o
                0x080579b6                std::basic_streambuf<char, std::char_traits<char> >::setbuf(char*, int)
 .text._ZNSt15basic_streambufIcSt11char_traitsIcEE5imbueERKSt6locale
                0x080579be        0x5 metro_device.o
                0x080579be                std::basic_streambuf<char, std::char_traits<char> >::imbue(std::locale const&)
 *fill*         0x080579c3        0x1 9090
 .text._ZNSt15basic_streambufIcSt11char_traitsIcEE9pbackfailEi
                0x080579c4        0xd metro_device.o
                0x080579c4                std::basic_streambuf<char, std::char_traits<char> >::pbackfail(int)
 *fill*         0x080579d1        0x1 9090
 .text._ZNSt15basic_streambufIcSt11char_traitsIcEE9underflowEv
                0x080579d2        0xd metro_device.o
                0x080579d2                std::basic_streambuf<char, std::char_traits<char> >::underflow()
 *fill*         0x080579df        0x1 9090
 .text._ZNSt15basic_streambufIcSt11char_traitsIcEE7seekoffElNSt5_IosbIiE8_SeekdirENS4_9_OpenmodeE
                0x080579e0       0x25 metro_device.o
                0x080579e0                std::basic_streambuf<char, std::char_traits<char> >::seekoff(long, std::_Iosb<int>::_Seekdir, std::_Iosb<int>::_Openmode)
 *fill*         0x08057a05        0x1 9090
 .text._ZNSt15basic_streambufIcSt11char_traitsIcEE7seekposESt4fposI9_MbstatetENSt5_IosbIiE9_OpenmodeE
                0x08057a06       0x55 metro_device.o
                0x08057a06                std::basic_streambuf<char, std::char_traits<char> >::seekpos(std::fpos<_Mbstatet>, std::_Iosb<int>::_Openmode)
 *fill*         0x08057a5b        0x1 9090
 .text._ZNSt15basic_streambufIcSt11char_traitsIcEE4setpEPcS3_S3_
                0x08057a5c       0x26 metro_device.o
                0x08057a5c                std::basic_streambuf<char, std::char_traits<char> >::setp(char*, char*, char*)
 .text._ZNSt15basic_streambufIcSt11char_traitsIcEE5gbumpEi
                0x08057a82       0x1b metro_device.o
                0x08057a82                std::basic_streambuf<char, std::char_traits<char> >::gbump(int)
 *fill*         0x08057a9d        0x1 9090
 .text._ZNSt15basic_streambufIcSt11char_traitsIcEE6_GnincEv
                0x08057a9e       0x16 metro_device.o
                0x08057a9e                std::basic_streambuf<char, std::char_traits<char> >::_Gninc()
 .text._ZNKSt15basic_streambufIcSt11char_traitsIcEE8_GnavailEv
                0x08057ab4       0x30 metro_device.o
                0x08057ab4                std::basic_streambuf<char, std::char_traits<char> >::_Gnavail() const
 .text._ZNSt4fposI9_MbstatetEC1El
                0x08057ae4       0x49 metro_device.o
                0x08057ae4                std::fpos<_Mbstatet>::fpos(long)
 *fill*         0x08057b2d        0x1 9090
 .text._ZNKSt4fposI9_MbstatetEcvlEv
                0x08057b2e       0x18 metro_device.o
                0x08057b2e                std::fpos<_Mbstatet>::operator long() const
 *fill*         0x08057b46        0x2 9090
 .text          0x08057b48     0x2bf7 main.o
                0x08058b20                io_devctl_handler(_resmgr_context*, io_devctl_t*, _iofunc_ocb*)
                0x08059e62                cleanup_resource_manager()
                0x08058d50                io_close_handler(_resmgr_context*, void*, _iofunc_ocb*)
                0x0805876d                io_read_handler(_resmgr_context*, io_read_t*, _iofunc_ocb*)
                0x08058956                io_write_handler(_resmgr_context*, io_write_t*, _iofunc_ocb*)
                0x080590b1                modbus_handler_thread(void*)
                0x0805868e                io_open_handler(_resmgr_context*, io_open_t*, _iofunc_attr*, void*)
                0x08058223                init_resource_manager(int, int, unsigned char, unsigned char, unsigned char)
                0x08058de7                resource_manager_thread(void*)
                0x08059ee4                main
 .text._ZNSt11char_traitsIcE7compareEPKcS2_j
                0x0805a73f       0x21 main.o
                0x0805a73f                std::char_traits<char>::compare(char const*, char const*, unsigned int)
 .text._ZNSt11char_traitsIcE4findEPKcjRS1_
                0x0805a760       0x27 main.o
                0x0805a760                std::char_traits<char>::find(char const*, unsigned int, char const&)
 .text._ZNSt11char_traitsIcE6assignEPcjc
                0x0805a787       0x28 main.o
                0x0805a787                std::char_traits<char>::assign(char*, unsigned int, char)
 .text._ZSt8_Ptr_catPcS_
                0x0805a7af        0xd main.o
                0x0805a7af                std::_Ptr_cat(char*, char*)
 .text.localeconv
                0x0805a7bc        0xa main.o
                0x0805a7bc                localeconv
 .text._ZNKSt8_Locinfo7_GetcvtEv
                0x0805a7c6       0x10 main.o
                0x0805a7c6                std::_Locinfo::_Getcvt() const
 .text._ZNKSt8_Locinfo9_GetlconvEv
                0x0805a7d6        0xd main.o
                0x0805a7d6                std::_Locinfo::_Getlconv() const
 *fill*         0x0805a7e3        0x1 9090
 .text._ZNKSt8_Locinfo9_GetfalseEv
                0x0805a7e4        0xa main.o
                0x0805a7e4                std::_Locinfo::_Getfalse() const
 .text._ZNKSt8_Locinfo8_GettrueEv
                0x0805a7ee        0xa main.o
                0x0805a7ee                std::_Locinfo::_Gettrue() const
 .text._ZNSt6locale2idC1Ej
                0x0805a7f8        0xd main.o
                0x0805a7f8                std::locale::id::id(unsigned int)
 *fill*         0x0805a805        0x1 9090
 .text._ZNSt12codecvt_baseC2Ej
                0x0805a806       0x23 main.o
                0x0805a806                std::codecvt_base::codecvt_base(unsigned int)
 *fill*         0x0805a829        0x1 9090
 .text._ZNKSt12codecvt_base13always_noconvEv
                0x0805a82a       0x2f main.o
                0x0805a82a                std::codecvt_base::always_noconv() const
 *fill*         0x0805a859        0x1 9090
 .text._ZNSt12codecvt_baseD2Ev
                0x0805a85a       0x30 main.o
                0x0805a85a                std::codecvt_base::~codecvt_base()
 .text._ZNSt12codecvt_baseD1Ev
                0x0805a88a       0x30 main.o
                0x0805a88a                std::codecvt_base::~codecvt_base()
 .text._ZNSt12codecvt_baseD0Ev
                0x0805a8ba       0x30 main.o
                0x0805a8ba                std::codecvt_base::~codecvt_base()
 .text._ZNKSt12codecvt_base16do_always_noconvEv
                0x0805a8ea        0xa main.o
                0x0805a8ea                std::codecvt_base::do_always_noconv() const
 .text._ZNKSt12codecvt_base13do_max_lengthEv
                0x0805a8f4        0xa main.o
                0x0805a8f4                std::codecvt_base::do_max_length() const
 .text._ZNKSt12codecvt_base11do_encodingEv
                0x0805a8fe        0xa main.o
                0x0805a8fe                std::codecvt_base::do_encoding() const
 .text._ZNKSt5ctypeIcE2isEsc
                0x0805a908       0x33 main.o
                0x0805a908                std::ctype<char>::is(short, char) const
 *fill*         0x0805a93b        0x1 9090
 .text._ZNKSt8ios_basecvPvEv
                0x0805a93c       0x21 main.o
                0x0805a93c                std::ios_base::operator void*() const
 *fill*         0x0805a95d        0x1 9090
 .text._ZNSt8ios_base4setfENSt5_IosbIiE9_FmtflagsES2_
                0x0805a95e       0x3a main.o
                0x0805a95e                std::ios_base::setf(std::_Iosb<int>::_Fmtflags, std::_Iosb<int>::_Fmtflags)
 .text._ZNKSt8ios_base9precisionEv
                0x0805a998        0xb main.o
                0x0805a998                std::ios_base::precision() const
 .text._ZStaNRNSt5_IosbIiE9_FmtflagsES1_
                0x0805a9a3       0x1b main.o
                0x0805a9a3                std::operator&=(std::_Iosb<int>::_Fmtflags&, std::_Iosb<int>::_Fmtflags)
 .text._ZSt3hexRSt8ios_base
                0x0805a9be       0x26 main.o
                0x0805a9be                std::hex(std::ios_base&)
 .text._ZSt6_FgetcIcEbRT_P6_Filet
                0x0805a9e4       0x37 main.o
                0x0805a9e4                bool std::_Fgetc<char>(char&, _Filet*)
 .text._ZSt6_FputcIcEbT_P6_Filet
                0x0805aa1b       0x27 main.o
                0x0805aa1b                bool std::_Fputc<char>(char, _Filet*)
 .text._ZSt7_UngetcIcEbRKT_P6_Filet
                0x0805aa42       0x26 main.o
                0x0805aa42                bool std::_Ungetc<char>(char const&, _Filet*)
 .text._ZN17comport_exceptionC1ESs
                0x0805aa68       0x1a main.o
                0x0805aa68                comport_exception::comport_exception(std::string)
 .text._ZN17comport_exception15get_descriptionEv
                0x0805aa82       0x27 main.o
                0x0805aa82                comport_exception::get_description()
 *fill*         0x0805aaa9        0x1 9090
 .text._ZN17comport_exceptionD1Ev
                0x0805aaaa       0x13 main.o
                0x0805aaaa                comport_exception::~comport_exception()
 *fill*         0x0805aabd        0x1 9090
 .text._ZN17comport_exceptionC1ERKS_
                0x0805aabe       0x1a main.o
                0x0805aabe                comport_exception::comport_exception(comport_exception const&)
 .text._ZNSt6vectorIhSaIhEEaSERKS1_
                0x0805aad8      0x1ee main.o
                0x0805aad8                std::vector<unsigned char, std::allocator<unsigned char> >::operator=(std::vector<unsigned char, std::allocator<unsigned char> > const&)
 .text._ZNSt6vectorIcSaIcEEC1Ej
                0x0805acc6       0x42 main.o
                0x0805acc6                std::vector<char, std::allocator<char> >::vector(unsigned int)
 .text._ZNSt6vectorIcSaIcEED1Ev
                0x0805ad08       0x13 main.o
                0x0805ad08                std::vector<char, std::allocator<char> >::~vector()
 *fill*         0x0805ad1b        0x1 9090
 .text._ZNSt6vectorIcSaIcEEixEj
                0x0805ad1c       0x48 main.o
                0x0805ad1c                std::vector<char, std::allocator<char> >::operator[](unsigned int)
 .text._ZNSt14basic_ifstreamIcSt11char_traitsIcEEC1EPKcNSt5_IosbIiE9_OpenmodeEi
                0x0805ad64      0x138 main.o
                0x0805ad64                std::basic_ifstream<char, std::char_traits<char> >::basic_ifstream(char const*, std::_Iosb<int>::_Openmode, int)
 .text._ZNSt14basic_ifstreamIcSt11char_traitsIcEED1Ev
                0x0805ae9c       0xd6 main.o
                0x0805aeac                std::basic_ifstream<char, std::char_traits<char> >::~basic_ifstream()
                0x0805ae9c                virtual thunk to std::basic_ifstream<char, std::char_traits<char> >::~basic_ifstream()
 .text._ZNSt14basic_ifstreamIcSt11char_traitsIcEED0Ev
                0x0805af72       0xd6 main.o
                0x0805af82                std::basic_ifstream<char, std::char_traits<char> >::~basic_ifstream()
                0x0805af72                virtual thunk to std::basic_ifstream<char, std::char_traits<char> >::~basic_ifstream()
 .text._ZNKSt14basic_ifstreamIcSt11char_traitsIcEE7is_openEv
                0x0805b048       0x16 main.o
                0x0805b048                std::basic_ifstream<char, std::char_traits<char> >::is_open() const
 .text._ZSt7getlineIcSt11char_traitsIcESaIcEERSt13basic_istreamIT_T0_ES7_RSbIS4_S5_T1_E
                0x0805b05e       0x41 main.o
                0x0805b05e                std::basic_istream<char, std::char_traits<char> >& std::getline<char, std::char_traits<char>, std::allocator<char> >(std::basic_istream<char, std::char_traits<char> >&, std::basic_string<char, std::char_traits<char>, std::allocator<char> >&)
 *fill*         0x0805b09f        0x1 9090
 .text._ZNKSs17find_first_not_ofEPKcj
                0x0805b0a0       0x30 main.o
                0x0805b0a0                std::string::find_first_not_of(char const*, unsigned int) const
 .text._ZNKSs16find_last_not_ofEPKcj
                0x0805b0d0       0x30 main.o
                0x0805b0d0                std::string::find_last_not_of(char const*, unsigned int) const
 .text._ZNKSs6substrEjj
                0x0805b100       0x35 main.o
                0x0805b100                std::string::substr(unsigned int, unsigned int) const
 *fill*         0x0805b135        0x1 9090
 .text._ZNKSs5emptyEv
                0x0805b136       0x10 main.o
                0x0805b136                std::string::empty() const
 .text._ZNSsixEj
                0x0805b146       0x16 main.o
                0x0805b146                std::string::operator[](unsigned int)
 .text._ZNKSs6lengthEv
                0x0805b15c        0xb main.o
                0x0805b15c                std::string::length() const
 .text._ZSteqIcSt11char_traitsIcESaIcEEbRKSbIT_T0_T1_EPKS3_
                0x0805b167       0x1f main.o
                0x0805b167                bool std::operator==<char, std::char_traits<char>, std::allocator<char> >(std::basic_string<char, std::char_traits<char>, std::allocator<char> > const&, char const*)
 .text._ZNSt19basic_istringstreamIcSt11char_traitsIcESaIcEEC1ERKSsNSt5_IosbIiE9_OpenmodeE
                0x0805b186       0xd6 main.o
                0x0805b186                std::basic_istringstream<char, std::char_traits<char>, std::allocator<char> >::basic_istringstream(std::string const&, std::_Iosb<int>::_Openmode)
 .text._ZNSt19basic_istringstreamIcSt11char_traitsIcESaIcEED1Ev
                0x0805b25c       0xd6 main.o
                0x0805b26c                std::basic_istringstream<char, std::char_traits<char>, std::allocator<char> >::~basic_istringstream()
                0x0805b25c                virtual thunk to std::basic_istringstream<char, std::char_traits<char>, std::allocator<char> >::~basic_istringstream()
 .text._ZNSt19basic_istringstreamIcSt11char_traitsIcESaIcEED0Ev
                0x0805b332       0xd6 main.o
                0x0805b332                virtual thunk to std::basic_istringstream<char, std::char_traits<char>, std::allocator<char> >::~basic_istringstream()
                0x0805b342                std::basic_istringstream<char, std::char_traits<char>, std::allocator<char> >::~basic_istringstream()
 .text._ZNSirsEPFRSt8ios_baseS0_E
                0x0805b408       0x23 main.o
                0x0805b408                std::istream::operator>>(std::ios_base& (*)(std::ios_base&))
 *fill*         0x0805b42b        0x1 9090
 .text._ZNSi6sentryD1Ev
                0x0805b42c       0x13 main.o
                0x0805b42c                std::istream::sentry::~sentry()
 *fill*         0x0805b43f        0x1 9090
 .text._ZNSirsERj
                0x0805b440      0x1c1 main.o
                0x0805b440                std::istream::operator>>(unsigned int&)
 *fill*         0x0805b601        0x1 9090
 .text._ZNSt14basic_ifstreamIcSt11char_traitsIcEE5closeEv
                0x0805b602       0x47 main.o
                0x0805b602                std::basic_ifstream<char, std::char_traits<char> >::close()
 *fill*         0x0805b649        0x1 9090
 .text._ZNSt6vectorIhSaIhEE5clearEv
                0x0805b64a       0x13 main.o
                0x0805b64a                std::vector<unsigned char, std::allocator<unsigned char> >::clear()
 *fill*         0x0805b65d        0x1 9090
 .text._ZNSolsEi
                0x0805b65e      0x204 main.o
                0x0805b65e                std::ostream::operator<<(int)
 .text._ZSt3minIiERKT_S2_S2_
                0x0805b862       0x1b main.o
                0x0805b862                int const& std::min<int>(int const&, int const&)
 *fill*         0x0805b87d        0x1 9090
 .text._ZNSt6vectorIhSaIhEE6resizeEj
                0x0805b87e       0x22 main.o
                0x0805b87e                std::vector<unsigned char, std::allocator<unsigned char> >::resize(unsigned int)
 .text._ZStplIcSt11char_traitsIcESaIcEESbIT_T0_T1_ERKS6_S8_
                0x0805b8a0       0x70 main.o
                0x0805b8a0                std::basic_string<char, std::char_traits<char>, std::allocator<char> > std::operator+<char, std::char_traits<char>, std::allocator<char> >(std::basic_string<char, std::char_traits<char>, std::allocator<char> > const&, std::basic_string<char, std::char_traits<char>, std::allocator<char> > const&)
 .text._ZNSt16_Vector_iteratorIhSaIhEEC1Ev
                0x0805b910       0x13 main.o
                0x0805b910                std::_Vector_iterator<unsigned char, std::allocator<unsigned char> >::_Vector_iterator()
 *fill*         0x0805b923        0x1 9090
 .text._ZNSt6vectorIhSaIhEEC1ISt16_Vector_iteratorIhS0_EEET_S5_
                0x0805b924       0x5b main.o
                0x0805b924                std::vector<unsigned char, std::allocator<unsigned char> >::vector<std::_Vector_iterator<unsigned char, std::allocator<unsigned char> > >(std::_Vector_iterator<unsigned char, std::allocator<unsigned char> >, std::_Vector_iterator<unsigned char, std::allocator<unsigned char> >)
 .text._ZSt4endlIcSt11char_traitsIcEERSt13basic_ostreamIT_T0_ES6_
                0x0805b97f       0x48 main.o
                0x0805b97f                std::basic_ostream<char, std::char_traits<char> >& std::endl<char, std::char_traits<char> >(std::basic_ostream<char, std::char_traits<char> >&)
 *fill*         0x0805b9c7        0x1 9090
 .text._ZNSolsEPFRSoS_E
                0x0805b9c8       0x13 main.o
                0x0805b9c8                std::ostream::operator<<(std::ostream& (*)(std::ostream&))
 *fill*         0x0805b9db        0x1 9090
 .text._ZNSt11_Vector_valIcSaIcEEC2ES0_
                0x0805b9dc       0x25 main.o
                0x0805b9dc                std::_Vector_val<char, std::allocator<char> >::_Vector_val(std::allocator<char>)
 *fill*         0x0805ba01        0x1 9090
 .text._ZNSt6vectorIcSaIcEE12_Construct_nEjRKc
                0x0805ba02       0x7d main.o
                0x0805ba02                std::vector<char, std::allocator<char> >::_Construct_n(unsigned int, char const&)
 *fill*         0x0805ba7f        0x1 9090
 .text._ZNSt6vectorIcSaIcEE5_TidyEv
                0x0805ba80       0x7e main.o
                0x0805ba80                std::vector<char, std::allocator<char> >::_Tidy()
 .text._ZNSt6vectorIcSaIcEE5beginEv
                0x0805bafe       0x26 main.o
                0x0805bafe                std::vector<char, std::allocator<char> >::begin()
 .text._ZNKSt16_Vector_iteratorIcSaIcEEplEi
                0x0805bb24       0x42 main.o
                0x0805bb24                std::_Vector_iterator<char, std::allocator<char> >::operator+(int) const
 .text._ZNKSt16_Vector_iteratorIcSaIcEEdeEv
                0x0805bb66       0x13 main.o
                0x0805bb66                std::_Vector_iterator<char, std::allocator<char> >::operator*() const
 *fill*         0x0805bb79        0x1 9090
 .text._ZNSiC2EPSt15basic_streambufIcSt11char_traitsIcEEbb
                0x0805bb7a       0x80 main.o
                0x0805bb7a                std::basic_istream<char, std::char_traits<char> >::basic_istream(std::basic_streambuf<char, std::char_traits<char> >*, bool, bool)
 .text._ZNSiD2Ev
                0x0805bbfa       0x58 main.o
                0x0805bbfa                std::basic_istream<char, std::char_traits<char> >::~basic_istream()
 .text._ZNSiD1Ev
                0x0805bc52       0x5e main.o
                0x0805bc62                std::basic_istream<char, std::char_traits<char> >::~basic_istream()
                0x0805bc52                virtual thunk to std::basic_istream<char, std::char_traits<char> >::~basic_istream()
 .text._ZNSiD0Ev
                0x0805bcb0       0x5e main.o
                0x0805bcc0                std::basic_istream<char, std::char_traits<char> >::~basic_istream()
                0x0805bcb0                virtual thunk to std::basic_istream<char, std::char_traits<char> >::~basic_istream()
 .text._ZNSt13basic_filebufIcSt11char_traitsIcEEC1EP6_Filet
                0x0805bd0e       0x5a main.o
                0x0805bd0e                std::basic_filebuf<char, std::char_traits<char> >::basic_filebuf(_Filet*)
 .text._ZNSt13basic_filebufIcSt11char_traitsIcEED1Ev
                0x0805bd68       0x6a main.o
                0x0805bd68                std::basic_filebuf<char, std::char_traits<char> >::~basic_filebuf()
 .text._ZNSt13basic_filebufIcSt11char_traitsIcEED0Ev
                0x0805bdd2       0x6a main.o
                0x0805bdd2                std::basic_filebuf<char, std::char_traits<char> >::~basic_filebuf()
 .text._ZNSt13basic_filebufIcSt11char_traitsIcEE4openEPKcNSt5_IosbIiE9_OpenmodeEi
                0x0805be3c       0xc9 main.o
                0x0805be3c                std::basic_filebuf<char, std::char_traits<char> >::open(char const*, std::_Iosb<int>::_Openmode, int)
 *fill*         0x0805bf05        0x1 9090
 .text._ZNKSt13basic_filebufIcSt11char_traitsIcEE7is_openEv
                0x0805bf06       0x10 main.o
                0x0805bf06                std::basic_filebuf<char, std::char_traits<char> >::is_open() const
 .text._ZSt7getlineIcSt11char_traitsIcESaIcEERSt13basic_istreamIT_T0_ES7_RSbIS4_S5_T1_ES4_
                0x0805bf16      0x247 main.o
                0x0805bf16                std::basic_istream<char, std::char_traits<char> >& std::getline<char, std::char_traits<char>, std::allocator<char> >(std::basic_istream<char, std::char_traits<char> >&, std::basic_string<char, std::char_traits<char>, std::allocator<char> >&, char)
 *fill*         0x0805c15d        0x1 9090
 .text._ZNKSs17find_first_not_ofEPKcjj
                0x0805c15e       0x8f main.o
                0x0805c15e                std::string::find_first_not_of(char const*, unsigned int, unsigned int) const
 *fill*         0x0805c1ed        0x1 9090
 .text._ZNKSs16find_last_not_ofEPKcjj
                0x0805c1ee       0xa0 main.o
                0x0805c1ee                std::string::find_last_not_of(char const*, unsigned int, unsigned int) const
 .text._ZNSsC1ERKSsjj
                0x0805c28e       0x60 main.o
                0x0805c28e                std::basic_string<char, std::char_traits<char>, std::allocator<char> >::basic_string(std::string const&, unsigned int, unsigned int)
 .text._ZNKSs7compareEPKc
                0x0805c2ee       0x3b main.o
                0x0805c2ee                std::string::compare(char const*) const
 *fill*         0x0805c329        0x1 9090
 .text._ZNSt15basic_stringbufIcSt11char_traitsIcESaIcEEC1ERKSsNSt5_IosbIiE9_OpenmodeE
                0x0805c32a       0x91 main.o
                0x0805c32a                std::basic_stringbuf<char, std::char_traits<char>, std::allocator<char> >::basic_stringbuf(std::string const&, std::_Iosb<int>::_Openmode)
 *fill*         0x0805c3bb        0x1 9090
 .text._ZNSi6sentryC1ERSib
                0x0805c3bc       0x5d main.o
                0x0805c3bc                std::istream::sentry::sentry(std::istream&, bool)
 *fill*         0x0805c419        0x1 9090
 .text._ZNSi12_Sentry_baseD2Ev
                0x0805c41a       0x59 main.o
                0x0805c41a                std::istream::_Sentry_base::~_Sentry_base()
 *fill*         0x0805c473        0x1 9090
 .text._ZNKSi6sentrycvbEv
                0x0805c474        0xc main.o
                0x0805c474                std::istream::sentry::operator bool() const
 .text._ZSt9use_facetISt7num_getIcSt19istreambuf_iteratorIcSt11char_traitsIcEEEERKT_RKSt6locale
                0x0805c480       0xfd main.o
                0x0805c480                std::num_get<char, std::istreambuf_iterator<char, std::char_traits<char> > > const& std::use_facet<std::num_get<char, std::istreambuf_iterator<char, std::char_traits<char> > > >(std::locale const&)
 *fill*         0x0805c57d        0x1 9090
 .text._ZNSt8iteratorISt18input_iterator_tagclPcRcEC2Ev
                0x0805c57e       0x13 main.o
                0x0805c57e                std::iterator<std::input_iterator_tag, char, long, char*, char&>::iterator()
 *fill*         0x0805c591        0x1 9090
 .text._ZNSt19istreambuf_iteratorIcSt11char_traitsIcEEC1EPSt15basic_streambufIcS1_E
                0x0805c592       0x28 main.o
                0x0805c592                std::istreambuf_iterator<char, std::char_traits<char> >::istreambuf_iterator(std::basic_streambuf<char, std::char_traits<char> >*)
 .text._ZNKSt7num_getIcSt19istreambuf_iteratorIcSt11char_traitsIcEEE3getES3_S3_RSt8ios_baseRNSt5_IosbIiE8_IostateERj
                0x0805c5ba       0x5d main.o
                0x0805c5ba                std::num_get<char, std::istreambuf_iterator<char, std::char_traits<char> > >::get(std::istreambuf_iterator<char, std::char_traits<char> >, std::istreambuf_iterator<char, std::char_traits<char> >, std::ios_base&, std::_Iosb<int>::_Iostate&, unsigned int&) const
 *fill*         0x0805c617        0x1 9090
 .text._ZNSt13basic_filebufIcSt11char_traitsIcEE5closeEv
                0x0805c618       0x76 main.o
                0x0805c618                std::basic_filebuf<char, std::char_traits<char> >::close()
 .text._ZSt9use_facetISt7num_putIcSt19ostreambuf_iteratorIcSt11char_traitsIcEEEERKT_RKSt6locale
                0x0805c68e       0xfd main.o
                0x0805c68e                std::num_put<char, std::ostreambuf_iterator<char, std::char_traits<char> > > const& std::use_facet<std::num_put<char, std::ostreambuf_iterator<char, std::char_traits<char> > > >(std::locale const&)
 *fill*         0x0805c78b        0x1 9090
 .text._ZNSt8iteratorISt19output_iterator_tagvvvvEC2Ev
                0x0805c78c       0x13 main.o
                0x0805c78c                std::iterator<std::output_iterator_tag, void, void, void, void>::iterator()
 *fill*         0x0805c79f        0x1 9090
 .text._ZNSt6_OutitC2Ev
                0x0805c7a0       0x13 main.o
                0x0805c7a0                std::_Outit::_Outit()
 *fill*         0x0805c7b3        0x1 9090
 .text._ZNSt19ostreambuf_iteratorIcSt11char_traitsIcEEC1EPSt15basic_streambufIcS1_E
                0x0805c7b4       0x22 main.o
                0x0805c7b4                std::ostreambuf_iterator<char, std::char_traits<char> >::ostreambuf_iterator(std::basic_streambuf<char, std::char_traits<char> >*)
 .text._ZNKSt7num_putIcSt19ostreambuf_iteratorIcSt11char_traitsIcEEE3putES3_RSt8ios_basecl
                0x0805c7d6       0x56 main.o
                0x0805c7d6                std::num_put<char, std::ostreambuf_iterator<char, std::char_traits<char> > >::put(std::ostreambuf_iterator<char, std::char_traits<char> >, std::ios_base&, char, long) const
 .text._ZNKSt19ostreambuf_iteratorIcSt11char_traitsIcEE6failedEv
                0x0805c82c        0xb main.o
                0x0805c82c                std::ostreambuf_iterator<char, std::char_traits<char> >::failed() const
 *fill*         0x0805c837        0x1 9090
 .text._ZNSt6vectorIhSaIhEE6resizeEjh
                0x0805c838       0xeb main.o
                0x0805c838                std::vector<unsigned char, std::allocator<unsigned char> >::resize(unsigned int, unsigned char)
 *fill*         0x0805c923        0x1 9090
 .text._ZNSt22_Vector_const_iteratorIhSaIhEEC2Ev
                0x0805c924       0x1c main.o
                0x0805c924                std::_Vector_const_iterator<unsigned char, std::allocator<unsigned char> >::_Vector_const_iterator()
 .text._ZNSt6vectorIhSaIhEE10_ConstructISt16_Vector_iteratorIhS0_EEEvT_S5_St18input_iterator_tag
                0x0805c940       0x89 main.o
                0x0805c940                void std::vector<unsigned char, std::allocator<unsigned char> >::_Construct<std::_Vector_iterator<unsigned char, std::allocator<unsigned char> > >(std::_Vector_iterator<unsigned char, std::allocator<unsigned char> >, std::_Vector_iterator<unsigned char, std::allocator<unsigned char> >, std::input_iterator_tag)
 *fill*         0x0805c9c9        0x1 9090
 .text._ZNSo3putEc
                0x0805c9ca      0x14f main.o
                0x0805c9ca                std::ostream::put(char)
 *fill*         0x0805cb19        0x1 9090
 .text._ZNSt6vectorIcSaIcEE4_BuyEj
                0x0805cb1a       0x8f main.o
                0x0805cb1a                std::vector<char, std::allocator<char> >::_Buy(unsigned int)
 *fill*         0x0805cba9        0x1 9090
 .text._ZNSt6vectorIcSaIcEE6_UfillEPcjRKc
                0x0805cbaa       0x31 main.o
                0x0805cbaa                std::vector<char, std::allocator<char> >::_Ufill(char*, unsigned int, char const&)
 *fill*         0x0805cbdb        0x1 9090
 .text._ZNSt6vectorIcSaIcEE8_DestroyEPcS2_
                0x0805cbdc       0x21 main.o
                0x0805cbdc                std::vector<char, std::allocator<char> >::_Destroy(char*, char*)
 *fill*         0x0805cbfd        0x1 9090
 .text._ZNSt16_Vector_iteratorIcSaIcEEC1EPc
                0x0805cbfe       0x1a main.o
                0x0805cbfe                std::_Vector_iterator<char, std::allocator<char> >::_Vector_iterator(char*)
 .text._ZNSt16_Vector_iteratorIcSaIcEEpLEi
                0x0805cc18       0x17 main.o
                0x0805cc18                std::_Vector_iterator<char, std::allocator<char> >::operator+=(int)
 *fill*         0x0805cc2f        0x1 9090
 .text._ZNKSt22_Vector_const_iteratorIcSaIcEEdeEv
                0x0805cc30        0xa main.o
                0x0805cc30                std::_Vector_const_iterator<char, std::allocator<char> >::operator*() const
 .text._ZNSt13basic_filebufIcSt11char_traitsIcEE5_InitEP6_FiletNS2_7_InitflE
                0x0805cc3a       0xbb main.o
                0x0805cc3a                std::basic_filebuf<char, std::char_traits<char> >::_Init(_Filet*, std::basic_filebuf<char, std::char_traits<char> >::_Initfl)
 *fill*         0x0805ccf5        0x1 9090
 .text._ZNSt13basic_filebufIcSt11char_traitsIcEE8_InitcvtEPSt7codecvtIcc9_MbstatetE
                0x0805ccf6       0x37 main.o
                0x0805ccf6                std::basic_filebuf<char, std::char_traits<char> >::_Initcvt(std::codecvt<char, char, _Mbstatet>*)
 *fill*         0x0805cd2d        0x1 9090
 .text._ZNKSt15basic_streambufIcSt11char_traitsIcEE6getlocEv
                0x0805cd2e       0x2a main.o
                0x0805cd2e                std::basic_streambuf<char, std::char_traits<char> >::getloc() const
 .text._ZSt9use_facetISt7codecvtIcc9_MbstatetEERKT_RKSt6locale
                0x0805cd58       0xfd main.o
                0x0805cd58                std::codecvt<char, char, _Mbstatet> const& std::use_facet<std::codecvt<char, char, _Mbstatet> >(std::locale const&)
 *fill*         0x0805ce55        0x1 9090
 .text._ZNSt15basic_streambufIcSt11char_traitsIcEE5sgetcEv
                0x0805ce56       0x3e main.o
                0x0805ce56                std::basic_streambuf<char, std::char_traits<char> >::sgetc()
 .text._ZNSt15basic_streambufIcSt11char_traitsIcEE6snextcEv
                0x0805ce94       0x6b main.o
                0x0805ce94                std::basic_streambuf<char, std::char_traits<char> >::snextc()
 *fill*         0x0805ceff        0x1 9090
 .text._ZNSt15basic_streambufIcSt11char_traitsIcEE6sbumpcEv
                0x0805cf00       0x3e main.o
                0x0805cf00                std::basic_streambuf<char, std::char_traits<char> >::sbumpc()
 .text._ZNSspLEc
                0x0805cf3e       0x29 main.o
                0x0805cf3e                std::string::operator+=(char)
 *fill*         0x0805cf67        0x1 9090
 .text._ZNKSs7compareEjjPKcj
                0x0805cf68       0xa4 main.o
                0x0805cf68                std::string::compare(unsigned int, unsigned int, char const*, unsigned int) const
 .text._ZNSi12_Sentry_baseC2ERSi
                0x0805d00c       0x61 main.o
                0x0805d00c                std::istream::_Sentry_base::_Sentry_base(std::istream&)
 *fill*         0x0805d06d        0x1 9090
 .text._ZNSi5_IpfxEb
                0x0805d06e      0x27a main.o
                0x0805d06e                std::istream::_Ipfx(bool)
 .text._ZNSt7num_getIcSt19istreambuf_iteratorIcSt11char_traitsIcEEE7_GetcatEPPKNSt6locale5facetE
                0x0805d2e8       0x66 main.o
                0x0805d2e8                std::num_get<char, std::istreambuf_iterator<char, std::char_traits<char> > >::_Getcat(std::locale::facet const**)
 .text._ZNKSt7num_getIcSt19istreambuf_iteratorIcSt11char_traitsIcEEE6do_getES3_S3_RSt8ios_baseRNSt5_IosbIiE8_IostateERj
                0x0805d34e      0x13e main.o
                0x0805d34e                std::num_get<char, std::istreambuf_iterator<char, std::char_traits<char> > >::do_get(std::istreambuf_iterator<char, std::char_traits<char> >, std::istreambuf_iterator<char, std::char_traits<char> >, std::ios_base&, std::_Iosb<int>::_Iostate&, unsigned int&) const
 .text._ZNSt13basic_filebufIcSt11char_traitsIcEE9_EndwriteEv
                0x0805d48c      0x239 main.o
                0x0805d48c                std::basic_filebuf<char, std::char_traits<char> >::_Endwrite()
 .text._ZNSt7num_putIcSt19ostreambuf_iteratorIcSt11char_traitsIcEEE7_GetcatEPPKNSt6locale5facetE
                0x0805d6c5       0x66 main.o
                0x0805d6c5                std::num_put<char, std::ostreambuf_iterator<char, std::char_traits<char> > >::_Getcat(std::locale::facet const**)
 *fill*         0x0805d72b        0x1 9090
 .text._ZNKSt7num_putIcSt19ostreambuf_iteratorIcSt11char_traitsIcEEE6do_putES3_RSt8ios_basecl
                0x0805d72c       0x97 main.o
                0x0805d72c                std::num_put<char, std::ostreambuf_iterator<char, std::char_traits<char> > >::do_put(std::ostreambuf_iterator<char, std::char_traits<char> >, std::ios_base&, char, long) const
 *fill*         0x0805d7c3        0x1 9090
 .text._ZNKSt6vectorIcSaIcEE8max_sizeEv
                0x0805d7c4       0x13 main.o
                0x0805d7c4                std::vector<char, std::allocator<char> >::max_size() const
 *fill*         0x0805d7d7        0x1 9090
 .text._ZNKSt6vectorIcSaIcEE5_XlenEv
                0x0805d7d8       0xaf main.o
                0x0805d7d8                std::vector<char, std::allocator<char> >::_Xlen() const
 .text._ZSt21_Uninitialized_fill_nIPcjcSaIcEEvT_T0_RKT1_RT2_
                0x0805d887       0x4c main.o
                0x0805d887                void std::_Uninitialized_fill_n<char*, unsigned int, char, std::allocator<char> >(char*, unsigned int, char const&, std::allocator<char>&)
 .text._ZSt14_Destroy_rangeIcSaIcEEvPT_S2_RT0_
                0x0805d8d3       0x45 main.o
                0x0805d8d3                void std::_Destroy_range<char, std::allocator<char> >(char*, char*, std::allocator<char>&)
 .text._ZNSt8iteratorISt26random_access_iterator_tagciPKcRS1_EC2Ev
                0x0805d918       0x13 main.o
                0x0805d918                std::iterator<std::random_access_iterator_tag, char, int, char const*, char const&>::iterator()
 *fill*         0x0805d92b        0x1 9090
 .text._ZNSt6_RanitIciPKcRS0_EC2Ev
                0x0805d92c       0x13 main.o
                0x0805d92c                std::_Ranit<char, int, char const*, char const&>::_Ranit()
 *fill*         0x0805d93f        0x1 9090
 .text._ZNSt22_Vector_const_iteratorIcSaIcEEC2EPc
                0x0805d940       0x1b main.o
                0x0805d940                std::_Vector_const_iterator<char, std::allocator<char> >::_Vector_const_iterator(char*)
 *fill*         0x0805d95b        0x1 9090
 .text._ZNSt15basic_streambufIcSt11char_traitsIcEE5_InitEPPcS4_S4_S4_S4_S4_
                0x0805d95c       0x3b main.o
                0x0805d95c                std::basic_streambuf<char, std::char_traits<char> >::_Init(char**, char**, char**, char**, char**, char**)
 .text._ZNSt7codecvtIcc9_MbstatetE7_GetcatEPPKNSt6locale5facetE
                0x0805d997       0x66 main.o
                0x0805d997                std::codecvt<char, char, _Mbstatet>::_Getcat(std::locale::facet const**)
 *fill*         0x0805d9fd        0x1 9090
 .text._ZNSt15basic_streambufIcSt11char_traitsIcEE9_GnpreincEv
                0x0805d9fe       0x14 main.o
                0x0805d9fe                std::basic_streambuf<char, std::char_traits<char> >::_Gnpreinc()
 .text._ZNSs6appendEjc
                0x0805da12       0x9f main.o
                0x0805da12                std::string::append(unsigned int, char)
 *fill*         0x0805dab1        0x1 9090
 .text._ZNSt7num_getIcSt19istreambuf_iteratorIcSt11char_traitsIcEEEC1Ej
                0x0805dab2       0x77 main.o
                0x0805dab2                std::num_get<char, std::istreambuf_iterator<char, std::char_traits<char> > >::num_get(unsigned int)
 *fill*         0x0805db29        0x1 9090
 .text._ZNKSt7num_getIcSt19istreambuf_iteratorIcSt11char_traitsIcEEE8_GetifldEPcRS3_S6_NSt5_IosbIiE9_FmtflagsERKSt6locale
                0x0805db2a      0x55a main.o
                0x0805db2a                std::num_get<char, std::istreambuf_iterator<char, std::char_traits<char> > >::_Getifld(char*, std::istreambuf_iterator<char, std::char_traits<char> >&, std::istreambuf_iterator<char, std::char_traits<char> >&, std::_Iosb<int>::_Fmtflags, std::locale const&) const
 .text._ZSteqIcSt11char_traitsIcEEbRKSt19istreambuf_iteratorIT_T0_ES7_
                0x0805e084       0x1a main.o
                0x0805e084                bool std::operator==<char, std::char_traits<char> >(std::istreambuf_iterator<char, std::char_traits<char> > const&, std::istreambuf_iterator<char, std::char_traits<char> > const&)
 .text._ZNSt13basic_filebufIcSt11char_traitsIcEE8overflowEi
                0x0805e09e      0x328 main.o
                0x0805e09e                std::basic_filebuf<char, std::char_traits<char> >::overflow(int)
 .text._ZNSsC1Ejc
                0x0805e3c6       0x60 main.o
                0x0805e3c6                std::basic_string<char, std::char_traits<char>, std::allocator<char> >::basic_string(unsigned int, char)
 .text._ZNSs5beginEv
                0x0805e426       0x2b main.o
                0x0805e426                std::string::begin()
 *fill*         0x0805e451        0x1 9090
 .text._ZNKSt16_String_iteratorIcSt11char_traitsIcESaIcEEdeEv
                0x0805e452       0x13 main.o
                0x0805e452                std::_String_iterator<char, std::char_traits<char>, std::allocator<char> >::operator*() const
 *fill*         0x0805e465        0x1 9090
 .text._ZNKSt7codecvtIcc9_MbstatetE7unshiftERS0_PcS3_RS3_
                0x0805e466       0x36 main.o
                0x0805e466                std::codecvt<char, char, _Mbstatet>::unshift(_Mbstatet&, char*, char*, char*&) const
 .text._ZNSt7num_putIcSt19ostreambuf_iteratorIcSt11char_traitsIcEEEC1Ej
                0x0805e49c       0x77 main.o
                0x0805e49c                std::num_put<char, std::ostreambuf_iterator<char, std::char_traits<char> > >::num_put(unsigned int)
 *fill*         0x0805e513        0x1 9090
 .text._ZNKSt7num_putIcSt19ostreambuf_iteratorIcSt11char_traitsIcEEE5_IputES3_RSt8ios_basecPcj
                0x0805e514      0x3b3 main.o
                0x0805e514                std::num_put<char, std::ostreambuf_iterator<char, std::char_traits<char> > >::_Iput(std::ostreambuf_iterator<char, std::char_traits<char> >, std::ios_base&, char, char*, unsigned int) const
 *fill*         0x0805e8c7        0x1 9090
 .text._ZNKSt7num_putIcSt19ostreambuf_iteratorIcSt11char_traitsIcEEE5_IfmtEPcPKcNSt5_IosbIiE9_FmtflagsE
                0x0805e8c8       0xfc main.o
                0x0805e8c8                std::num_put<char, std::ostreambuf_iterator<char, std::char_traits<char> > >::_Ifmt(char*, char const*, std::_Iosb<int>::_Fmtflags) const
 .text._ZSt14_Uninit_fill_nIcjcEvPT_T0_RKT1_RSaIS0_ESt24_Scalar_ptr_iterator_tag
                0x0805e9c4       0x21 main.o
                0x0805e9c4                void std::_Uninit_fill_n<char, unsigned int, char>(char*, unsigned int, char const&, std::allocator<char>&, std::_Scalar_ptr_iterator_tag)
 .text._ZSt14_Destroy_rangeIcSaIcEEvPT_S2_RT0_St24_Scalar_ptr_iterator_tag
                0x0805e9e5        0x5 main.o
                0x0805e9e5                void std::_Destroy_range<char, std::allocator<char> >(char*, char*, std::allocator<char>&, std::_Scalar_ptr_iterator_tag)
 .text._ZNSt7codecvtIcc9_MbstatetEC1Ej
                0x0805e9ea       0x77 main.o
                0x0805e9ea                std::codecvt<char, char, _Mbstatet>::codecvt(unsigned int)
 *fill*         0x0805ea61        0x1 9090
 .text._ZNSs9_ChassignEjjc
                0x0805ea62       0x60 main.o
                0x0805ea62                std::string::_Chassign(unsigned int, unsigned int, char)
 .text._ZNSt7num_getIcSt19istreambuf_iteratorIcSt11char_traitsIcEEE5_InitERKSt8_Locinfo
                0x0805eac2       0x2b main.o
                0x0805eac2                std::num_get<char, std::istreambuf_iterator<char, std::char_traits<char> > >::_Init(std::_Locinfo const&)
 .text._ZSt9use_facetISt8numpunctIcEERKT_RKSt6locale
                0x0805eaed       0xfd main.o
                0x0805eaed                std::numpunct<char> const& std::use_facet<std::numpunct<char> >(std::locale const&)
 .text._ZNKSt8numpunctIcE8groupingEv
                0x0805ebea       0x30 main.o
                0x0805ebea                std::numpunct<char>::grouping() const
 .text._ZNKSt8numpunctIcE13thousands_sepEv
                0x0805ec1a       0x1a main.o
                0x0805ec1a                std::numpunct<char>::thousands_sep() const
 .text._ZSt10_MaklocchrIcET_cPS0_RKSt7_Cvtvec
                0x0805ec34       0x12 main.o
                0x0805ec34                char std::_Maklocchr<char>(char, char*, std::_Cvtvec const&)
 .text._ZNKSt19istreambuf_iteratorIcSt11char_traitsIcEEdeEv
                0x0805ec46       0x28 main.o
                0x0805ec46                std::istreambuf_iterator<char, std::char_traits<char> >::operator*() const
 .text._ZNSt19istreambuf_iteratorIcSt11char_traitsIcEEppEv
                0x0805ec6e       0x16 main.o
                0x0805ec6e                std::istreambuf_iterator<char, std::char_traits<char> >::operator++()
 .text._ZStneIcSt11char_traitsIcEEbRKSt19istreambuf_iteratorIT_T0_ES7_
                0x0805ec84       0x1d main.o
                0x0805ec84                bool std::operator!=<char, std::char_traits<char> >(std::istreambuf_iterator<char, std::char_traits<char> > const&, std::istreambuf_iterator<char, std::char_traits<char> > const&)
 .text._ZSt11_MaklocbyteIcEcT_RKSt7_Cvtvec
                0x0805eca1       0x12 main.o
                0x0805eca1                char std::_Maklocbyte<char>(char, std::_Cvtvec const&)
 *fill*         0x0805ecb3        0x1 9090
 .text._ZNKSt19istreambuf_iteratorIcSt11char_traitsIcEE5equalERKS2_
                0x0805ecb4       0x6a main.o
                0x0805ecb4                std::istreambuf_iterator<char, std::char_traits<char> >::equal(std::istreambuf_iterator<char, std::char_traits<char> > const&) const
 .text._ZNKSt7codecvtIcc9_MbstatetE3outERS0_PKcS4_RS4_PcS6_RS6_
                0x0805ed1e       0x4b main.o
                0x0805ed1e                std::codecvt<char, char, _Mbstatet>::out(_Mbstatet&, char const*, char const*, char const*&, char*, char*, char*&) const
 *fill*         0x0805ed69        0x1 9090
 .text._ZNSs6assignEjc
                0x0805ed6a       0x74 main.o
                0x0805ed6a                std::string::assign(unsigned int, char)
 .text._ZNSt16_String_iteratorIcSt11char_traitsIcESaIcEEC1EPc
                0x0805edde       0x1a main.o
                0x0805edde                std::_String_iterator<char, std::char_traits<char>, std::allocator<char> >::_String_iterator(char*)
 .text._ZNKSt22_String_const_iteratorIcSt11char_traitsIcESaIcEEdeEv
                0x0805edf8        0xa main.o
                0x0805edf8                std::_String_const_iterator<char, std::char_traits<char>, std::allocator<char> >::operator*() const
 .text._ZNKSt7codecvtIcc9_MbstatetE10do_unshiftERS0_PcS3_RS3_
                0x0805ee02       0x12 main.o
                0x0805ee02                std::codecvt<char, char, _Mbstatet>::do_unshift(_Mbstatet&, char*, char*, char*&) const
 .text._ZNSt7num_putIcSt19ostreambuf_iteratorIcSt11char_traitsIcEEE5_InitERKSt8_Locinfo
                0x0805ee14       0x2b main.o
                0x0805ee14                std::num_put<char, std::ostreambuf_iterator<char, std::char_traits<char> > >::_Init(std::_Locinfo const&)
 *fill*         0x0805ee3f        0x1 9090
 .text._ZNKSt7num_putIcSt19ostreambuf_iteratorIcSt11char_traitsIcEEE4_RepES3_cj
                0x0805ee40       0x5e main.o
                0x0805ee40                std::num_put<char, std::ostreambuf_iterator<char, std::char_traits<char> > >::_Rep(std::ostreambuf_iterator<char, std::char_traits<char> >, char, unsigned int) const
 .text._ZNKSt7num_putIcSt19ostreambuf_iteratorIcSt11char_traitsIcEEE5_PutcES3_PKcj
                0x0805ee9e       0x7e main.o
                0x0805ee9e                std::num_put<char, std::ostreambuf_iterator<char, std::char_traits<char> > >::_Putc(std::ostreambuf_iterator<char, std::char_traits<char> >, char const*, unsigned int) const
 .text._ZNKSt7num_putIcSt19ostreambuf_iteratorIcSt11char_traitsIcEEE11_PutgroupedES3_PKcjc
                0x0805ef1c       0xfc main.o
                0x0805ef1c                std::num_put<char, std::ostreambuf_iterator<char, std::char_traits<char> > >::_Putgrouped(std::ostreambuf_iterator<char, std::char_traits<char> >, char const*, unsigned int, char) const
 .text._ZSt6fill_nIPcjcEvT_T0_RKT1_
                0x0805f018       0x25 main.o
                0x0805f018                void std::fill_n<char*, unsigned int, char>(char*, unsigned int, char const&)
 *fill*         0x0805f03d        0x1 9090
 .text._ZNSt7codecvtIcc9_MbstatetE5_InitERKSt8_Locinfo
                0x0805f03e        0x5 main.o
                0x0805f03e                std::codecvt<char, char, _Mbstatet>::_Init(std::_Locinfo const&)
 .text._ZNSt8numpunctIcE7_GetcatEPPKNSt6locale5facetE
                0x0805f043       0x66 main.o
                0x0805f043                std::numpunct<char>::_Getcat(std::locale::facet const**)
 *fill*         0x0805f0a9        0x1 9090
 .text._ZNKSt8numpunctIcE11do_groupingEv
                0x0805f0aa       0x2a main.o
                0x0805f0aa                std::numpunct<char>::do_grouping() const
 .text._ZNKSt8numpunctIcE16do_thousands_sepEv
                0x0805f0d4        0xc main.o
                0x0805f0d4                std::numpunct<char>::do_thousands_sep() const
 .text._ZNSt19istreambuf_iteratorIcSt11char_traitsIcEE5_PeekEv
                0x0805f0e0       0x79 main.o
                0x0805f0e0                std::istreambuf_iterator<char, std::char_traits<char> >::_Peek()
 *fill*         0x0805f159        0x1 9090
 .text._ZNSt19istreambuf_iteratorIcSt11char_traitsIcEE4_IncEv
                0x0805f15a       0x68 main.o
                0x0805f15a                std::istreambuf_iterator<char, std::char_traits<char> >::_Inc()
 .text._ZNKSt7codecvtIcc9_MbstatetE6do_outERS0_PKcS4_RS4_PcS6_RS6_
                0x0805f1c2       0x1a main.o
                0x0805f1c2                std::codecvt<char, char, _Mbstatet>::do_out(_Mbstatet&, char const*, char const*, char const*&, char*, char*, char*&) const
 .text._ZNSt22_String_const_iteratorIcSt11char_traitsIcESaIcEEC2EPKc
                0x0805f1dc       0x1b main.o
                0x0805f1dc                std::_String_const_iterator<char, std::char_traits<char>, std::allocator<char> >::_String_const_iterator(char const*)
 *fill*         0x0805f1f7        0x1 9090
 .text._ZNSt19ostreambuf_iteratorIcSt11char_traitsIcEEppEv
                0x0805f1f8        0x8 main.o
                0x0805f1f8                std::ostreambuf_iterator<char, std::char_traits<char> >::operator++()
 .text._ZNSt19ostreambuf_iteratorIcSt11char_traitsIcEEdeEv
                0x0805f200        0x8 main.o
                0x0805f200                std::ostreambuf_iterator<char, std::char_traits<char> >::operator*()
 .text._ZNSt19ostreambuf_iteratorIcSt11char_traitsIcEEaSEc
                0x0805f208       0x68 main.o
                0x0805f208                std::ostreambuf_iterator<char, std::char_traits<char> >::operator=(char)
 .text._ZNSt8numpunctIcEC1Ej
                0x0805f270       0x8b main.o
                0x0805f270                std::numpunct<char>::numpunct(unsigned int)
 *fill*         0x0805f2fb        0x1 9090
 .text._ZNSt8numpunctIcE5_InitERKSt8_Locinfo
                0x0805f2fc      0x199 main.o
                0x0805f2fc                std::numpunct<char>::_Init(std::_Locinfo const&)
 .text._ZSt10_MaklocstrIcEPT_PKcS1_RKSt7_Cvtvec
                0x0805f495       0x54 main.o
                0x0805f495                char* std::_Maklocstr<char>(char const*, char*, std::_Cvtvec const&)
 *fill*         0x0805f4e9        0x1 9090
 .text._ZNSt8numpunctIcE5_TidyEv
                0x0805f4ea       0x50 main.o
                0x0805f4ea                std::numpunct<char>::_Tidy()
 .text._ZNSt8numpunctIcED1Ev
                0x0805f53a       0x3b main.o
                0x0805f53a                std::numpunct<char>::~numpunct()
 *fill*         0x0805f575        0x1 9090
 .text._ZNSt8numpunctIcED0Ev
                0x0805f576       0x3b main.o
                0x0805f576                std::numpunct<char>::~numpunct()
 *fill*         0x0805f5b1        0x1 9090
 .text._ZNKSt8numpunctIcE16do_decimal_pointEv
                0x0805f5b2        0xc main.o
                0x0805f5b2                std::numpunct<char>::do_decimal_point() const
 .text._ZNKSt8numpunctIcE12do_falsenameEv
                0x0805f5be       0x2a main.o
                0x0805f5be                std::numpunct<char>::do_falsename() const
 .text._ZNKSt8numpunctIcE11do_truenameEv
                0x0805f5e8       0x2a main.o
                0x0805f5e8                std::numpunct<char>::do_truename() const
 .text._ZNSt7codecvtIcc9_MbstatetED1Ev
                0x0805f612       0x30 main.o
                0x0805f612                std::codecvt<char, char, _Mbstatet>::~codecvt()
 .text._ZNSt7codecvtIcc9_MbstatetED0Ev
                0x0805f642       0x30 main.o
                0x0805f642                std::codecvt<char, char, _Mbstatet>::~codecvt()
 .text._ZNKSt7codecvtIcc9_MbstatetE5do_inERS0_PKcS4_RS4_PcS6_RS6_
                0x0805f672       0x1a main.o
                0x0805f672                std::codecvt<char, char, _Mbstatet>::do_in(_Mbstatet&, char const*, char const*, char const*&, char*, char*, char*&) const
 .text._ZNKSt7codecvtIcc9_MbstatetE9do_lengthERKS0_PKcS5_j
                0x0805f68c       0x1a main.o
                0x0805f68c                std::codecvt<char, char, _Mbstatet>::do_length(_Mbstatet const&, char const*, char const*, unsigned int) const
 .text._ZNSt7num_putIcSt19ostreambuf_iteratorIcSt11char_traitsIcEEED1Ev
                0x0805f6a6       0x30 main.o
                0x0805f6a6                std::num_put<char, std::ostreambuf_iterator<char, std::char_traits<char> > >::~num_put()
 .text._ZNSt7num_putIcSt19ostreambuf_iteratorIcSt11char_traitsIcEEED0Ev
                0x0805f6d6       0x30 main.o
                0x0805f6d6                std::num_put<char, std::ostreambuf_iterator<char, std::char_traits<char> > >::~num_put()
 .text._ZNKSt7num_putIcSt19ostreambuf_iteratorIcSt11char_traitsIcEEE6do_putES3_RSt8ios_basecb
                0x0805f706      0x2f9 main.o
                0x0805f706                std::num_put<char, std::ostreambuf_iterator<char, std::char_traits<char> > >::do_put(std::ostreambuf_iterator<char, std::char_traits<char> >, std::ios_base&, char, bool) const
 *fill*         0x0805f9ff        0x1 9090
 .text._ZNKSt7num_putIcSt19ostreambuf_iteratorIcSt11char_traitsIcEEE6do_putES3_RSt8ios_basecm
                0x0805fa00       0x97 main.o
                0x0805fa00                std::num_put<char, std::ostreambuf_iterator<char, std::char_traits<char> > >::do_put(std::ostreambuf_iterator<char, std::char_traits<char> >, std::ios_base&, char, unsigned long) const
 *fill*         0x0805fa97        0x1 9090
 .text._ZNKSt7num_putIcSt19ostreambuf_iteratorIcSt11char_traitsIcEEE6do_putES3_RSt8ios_basecx
                0x0805fa98       0xac main.o
                0x0805fa98                std::num_put<char, std::ostreambuf_iterator<char, std::char_traits<char> > >::do_put(std::ostreambuf_iterator<char, std::char_traits<char> >, std::ios_base&, char, long long) const
 .text._ZNKSt7num_putIcSt19ostreambuf_iteratorIcSt11char_traitsIcEEE6do_putES3_RSt8ios_basecy
                0x0805fb44       0xac main.o
                0x0805fb44                std::num_put<char, std::ostreambuf_iterator<char, std::char_traits<char> > >::do_put(std::ostreambuf_iterator<char, std::char_traits<char> >, std::ios_base&, char, unsigned long long) const
 .text._ZNKSt7num_putIcSt19ostreambuf_iteratorIcSt11char_traitsIcEEE6do_putES3_RSt8ios_basecd
                0x0805fbf0      0x25d main.o
                0x0805fbf0                std::num_put<char, std::ostreambuf_iterator<char, std::char_traits<char> > >::do_put(std::ostreambuf_iterator<char, std::char_traits<char> >, std::ios_base&, char, double) const
 *fill*         0x0805fe4d        0x1 9090
 .text._ZNKSt7num_putIcSt19ostreambuf_iteratorIcSt11char_traitsIcEEE6do_putES3_RSt8ios_basece
                0x0805fe4e      0x23a main.o
                0x0805fe4e                std::num_put<char, std::ostreambuf_iterator<char, std::char_traits<char> > >::do_put(std::ostreambuf_iterator<char, std::char_traits<char> >, std::ios_base&, char, long double) const
 .text._ZNKSt7num_putIcSt19ostreambuf_iteratorIcSt11char_traitsIcEEE6do_putES3_RSt8ios_basecPKv
                0x08060088       0xb5 main.o
                0x08060088                std::num_put<char, std::ostreambuf_iterator<char, std::char_traits<char> > >::do_put(std::ostreambuf_iterator<char, std::char_traits<char> >, std::ios_base&, char, void const*) const
 *fill*         0x0806013d        0x1 9090
 .text._ZNSt7num_getIcSt19istreambuf_iteratorIcSt11char_traitsIcEEED1Ev
                0x0806013e       0x30 main.o
                0x0806013e                std::num_get<char, std::istreambuf_iterator<char, std::char_traits<char> > >::~num_get()
 .text._ZNSt7num_getIcSt19istreambuf_iteratorIcSt11char_traitsIcEEED0Ev
                0x0806016e       0x30 main.o
                0x0806016e                std::num_get<char, std::istreambuf_iterator<char, std::char_traits<char> > >::~num_get()
 .text._ZNKSt7num_getIcSt19istreambuf_iteratorIcSt11char_traitsIcEEE6do_getES3_S3_RSt8ios_baseRNSt5_IosbIiE8_IostateERb
                0x0806019e      0x2cb main.o
                0x0806019e                std::num_get<char, std::istreambuf_iterator<char, std::char_traits<char> > >::do_get(std::istreambuf_iterator<char, std::char_traits<char> >, std::istreambuf_iterator<char, std::char_traits<char> >, std::ios_base&, std::_Iosb<int>::_Iostate&, bool&) const
 *fill*         0x08060469        0x1 9090
 .text._ZNKSt7num_getIcSt19istreambuf_iteratorIcSt11char_traitsIcEEE6do_getES3_S3_RSt8ios_baseRNSt5_IosbIiE8_IostateERt
                0x0806046a      0x148 main.o
                0x0806046a                std::num_get<char, std::istreambuf_iterator<char, std::char_traits<char> > >::do_get(std::istreambuf_iterator<char, std::char_traits<char> >, std::istreambuf_iterator<char, std::char_traits<char> >, std::ios_base&, std::_Iosb<int>::_Iostate&, unsigned short&) const
 .text._ZNKSt7num_getIcSt19istreambuf_iteratorIcSt11char_traitsIcEEE6do_getES3_S3_RSt8ios_baseRNSt5_IosbIiE8_IostateERl
                0x080605b2      0x115 main.o
                0x080605b2                std::num_get<char, std::istreambuf_iterator<char, std::char_traits<char> > >::do_get(std::istreambuf_iterator<char, std::char_traits<char> >, std::istreambuf_iterator<char, std::char_traits<char> >, std::ios_base&, std::_Iosb<int>::_Iostate&, long&) const
 *fill*         0x080606c7        0x1 9090
 .text._ZNKSt7num_getIcSt19istreambuf_iteratorIcSt11char_traitsIcEEE6do_getES3_S3_RSt8ios_baseRNSt5_IosbIiE8_IostateERm
                0x080606c8      0x115 main.o
                0x080606c8                std::num_get<char, std::istreambuf_iterator<char, std::char_traits<char> > >::do_get(std::istreambuf_iterator<char, std::char_traits<char> >, std::istreambuf_iterator<char, std::char_traits<char> >, std::ios_base&, std::_Iosb<int>::_Iostate&, unsigned long&) const
 *fill*         0x080607dd        0x1 9090
 .text._ZNKSt7num_getIcSt19istreambuf_iteratorIcSt11char_traitsIcEEE6do_getES3_S3_RSt8ios_baseRNSt5_IosbIiE8_IostateERx
                0x080607de      0x11e main.o
                0x080607de                std::num_get<char, std::istreambuf_iterator<char, std::char_traits<char> > >::do_get(std::istreambuf_iterator<char, std::char_traits<char> >, std::istreambuf_iterator<char, std::char_traits<char> >, std::ios_base&, std::_Iosb<int>::_Iostate&, long long&) const
 .text._ZNKSt7num_getIcSt19istreambuf_iteratorIcSt11char_traitsIcEEE6do_getES3_S3_RSt8ios_baseRNSt5_IosbIiE8_IostateERy
                0x080608fc      0x11e main.o
                0x080608fc                std::num_get<char, std::istreambuf_iterator<char, std::char_traits<char> > >::do_get(std::istreambuf_iterator<char, std::char_traits<char> >, std::istreambuf_iterator<char, std::char_traits<char> >, std::ios_base&, std::_Iosb<int>::_Iostate&, unsigned long long&) const
 .text._ZNKSt7num_getIcSt19istreambuf_iteratorIcSt11char_traitsIcEEE6do_getES3_S3_RSt8ios_baseRNSt5_IosbIiE8_IostateERf
                0x08060a1a      0x106 main.o
                0x08060a1a                std::num_get<char, std::istreambuf_iterator<char, std::char_traits<char> > >::do_get(std::istreambuf_iterator<char, std::char_traits<char> >, std::istreambuf_iterator<char, std::char_traits<char> >, std::ios_base&, std::_Iosb<int>::_Iostate&, float&) const
 .text._ZNKSt7num_getIcSt19istreambuf_iteratorIcSt11char_traitsIcEEE6do_getES3_S3_RSt8ios_baseRNSt5_IosbIiE8_IostateERd
                0x08060b20      0x106 main.o
                0x08060b20                std::num_get<char, std::istreambuf_iterator<char, std::char_traits<char> > >::do_get(std::istreambuf_iterator<char, std::char_traits<char> >, std::istreambuf_iterator<char, std::char_traits<char> >, std::ios_base&, std::_Iosb<int>::_Iostate&, double&) const
 .text._ZNKSt7num_getIcSt19istreambuf_iteratorIcSt11char_traitsIcEEE6do_getES3_S3_RSt8ios_baseRNSt5_IosbIiE8_IostateERe
                0x08060c26      0x115 main.o
                0x08060c26                std::num_get<char, std::istreambuf_iterator<char, std::char_traits<char> > >::do_get(std::istreambuf_iterator<char, std::char_traits<char> >, std::istreambuf_iterator<char, std::char_traits<char> >, std::ios_base&, std::_Iosb<int>::_Iostate&, long double&) const
 *fill*         0x08060d3b        0x1 9090
 .text._ZNKSt7num_getIcSt19istreambuf_iteratorIcSt11char_traitsIcEEE6do_getES3_S3_RSt8ios_baseRNSt5_IosbIiE8_IostateERPv
                0x08060d3c      0x11e main.o
                0x08060d3c                std::num_get<char, std::istreambuf_iterator<char, std::char_traits<char> > >::do_get(std::istreambuf_iterator<char, std::char_traits<char> >, std::istreambuf_iterator<char, std::char_traits<char> >, std::ios_base&, std::_Iosb<int>::_Iostate&, void*&) const
 .text._ZNSt13basic_filebufIcSt11char_traitsIcEE9pbackfailEi
                0x08060e5a      0x199 main.o
                0x08060e5a                std::basic_filebuf<char, std::char_traits<char> >::pbackfail(int)
 *fill*         0x08060ff3        0x1 9090
 .text._ZNSt13basic_filebufIcSt11char_traitsIcEE9underflowEv
                0x08060ff4       0xb1 main.o
                0x08060ff4                std::basic_filebuf<char, std::char_traits<char> >::underflow()
 *fill*         0x080610a5        0x1 9090
 .text._ZNSt13basic_filebufIcSt11char_traitsIcEE5uflowEv
                0x080610a6      0x31a main.o
                0x080610a6                std::basic_filebuf<char, std::char_traits<char> >::uflow()
 .text._ZNSt13basic_filebufIcSt11char_traitsIcEE7seekoffElNSt5_IosbIiE8_SeekdirENS4_9_OpenmodeE
                0x080613c0      0x16d main.o
                0x080613c0                std::basic_filebuf<char, std::char_traits<char> >::seekoff(long, std::_Iosb<int>::_Seekdir, std::_Iosb<int>::_Openmode)
 *fill*         0x0806152d        0x1 9090
 .text._ZNSt13basic_filebufIcSt11char_traitsIcEE7seekposESt4fposI9_MbstatetENSt5_IosbIiE9_OpenmodeE
                0x0806152e      0x1b7 main.o
                0x0806152e                std::basic_filebuf<char, std::char_traits<char> >::seekpos(std::fpos<_Mbstatet>, std::_Iosb<int>::_Openmode)
 *fill*         0x080616e5        0x1 9090
 .text._ZNSt13basic_filebufIcSt11char_traitsIcEE6setbufEPci
                0x080616e6       0x85 main.o
                0x080616e6                std::basic_filebuf<char, std::char_traits<char> >::setbuf(char*, int)
 *fill*         0x0806176b        0x1 9090
 .text._ZNSt13basic_filebufIcSt11char_traitsIcEE4syncEv
                0x0806176c       0x71 main.o
                0x0806176c                std::basic_filebuf<char, std::char_traits<char> >::sync()
 *fill*         0x080617dd        0x1 9090
 .text._ZNSt13basic_filebufIcSt11char_traitsIcEE5imbueERKSt6locale
                0x080617de       0x22 main.o
                0x080617de                std::basic_filebuf<char, std::char_traits<char> >::imbue(std::locale const&)
 .text._ZNKSt8numpunctIcE8truenameEv
                0x08061800       0x30 main.o
                0x08061800                std::numpunct<char>::truename() const
 .text._ZNKSt8numpunctIcE9falsenameEv
                0x08061830       0x30 main.o
                0x08061830                std::numpunct<char>::falsename() const
 .text._ZNKSt7num_putIcSt19ostreambuf_iteratorIcSt11char_traitsIcEEE4_PutES3_PKcj
                0x08061860       0x61 main.o
                0x08061860                std::num_put<char, std::ostreambuf_iterator<char, std::char_traits<char> > >::_Put(std::ostreambuf_iterator<char, std::char_traits<char> >, char const*, unsigned int) const
 *fill*         0x080618c1        0x1 9090
 .text._ZNKSt7num_putIcSt19ostreambuf_iteratorIcSt11char_traitsIcEEE5_FputES3_RSt8ios_basecPKcjjjj
                0x080618c2      0x895 main.o
                0x080618c2                std::num_put<char, std::ostreambuf_iterator<char, std::char_traits<char> > >::_Fput(std::ostreambuf_iterator<char, std::char_traits<char> >, std::ios_base&, char, char const*, unsigned int, unsigned int, unsigned int, unsigned int) const
 *fill*         0x08062157        0x1 9090
 .text._ZNKSt7num_putIcSt19ostreambuf_iteratorIcSt11char_traitsIcEEE5_FfmtEPccNSt5_IosbIiE9_FmtflagsE
                0x08062158       0xde main.o
                0x08062158                std::num_put<char, std::ostreambuf_iterator<char, std::char_traits<char> > >::_Ffmt(char*, char, std::_Iosb<int>::_Fmtflags) const
 .text._ZSt10_GetloctxtIcSt19istreambuf_iteratorIcSt11char_traitsIcEEEiRT0_S5_jPKT_
                0x08062236      0x25f main.o
                0x08062236                int std::_Getloctxt<char, std::istreambuf_iterator<char, std::char_traits<char> > >(std::istreambuf_iterator<char, std::char_traits<char> >&, std::istreambuf_iterator<char, std::char_traits<char> >&, unsigned int, char const*)
 *fill*         0x08062495        0x1 9090
 .text._ZNKSt7num_getIcSt19istreambuf_iteratorIcSt11char_traitsIcEEE8_GetffldEPcRS3_S6_RKSt6locale
                0x08062496      0x8c2 main.o
                0x08062496                std::num_get<char, std::istreambuf_iterator<char, std::char_traits<char> > >::_Getffld(char*, std::istreambuf_iterator<char, std::char_traits<char> >&, std::istreambuf_iterator<char, std::char_traits<char> >&, std::locale const&) const
 .text._ZNSt15basic_streambufIcSt11char_traitsIcEE6_GndecEv
                0x08062d58       0x14 main.o
                0x08062d58                std::basic_streambuf<char, std::char_traits<char> >::_Gndec()
 .text._ZNKSt7codecvtIcc9_MbstatetE2inERS0_PKcS4_RS4_PcS6_RS6_
                0x08062d6c       0x4b main.o
                0x08062d6c                std::codecvt<char, char, _Mbstatet>::in(_Mbstatet&, char const*, char const*, char const*&, char*, char*, char*&) const
 *fill*         0x08062db7        0x1 9090
 .text._ZNSt4fposI9_MbstatetEC1ES0_6_Fpost
                0x08062db8       0x53 main.o
                0x08062db8                std::fpos<_Mbstatet>::fpos(_Mbstatet, _Fpost)
 *fill*         0x08062e0b        0x1 9090
 .text._ZNKSt4fposI9_MbstatetE7seekposEv
                0x08062e0c       0x24 main.o
                0x08062e0c                std::fpos<_Mbstatet>::seekpos() const
 .text._ZNKSt4fposI9_MbstatetE5stateEv
                0x08062e30       0x18 main.o
                0x08062e30                std::fpos<_Mbstatet>::state() const
 .text._ZNSs6insertEjjc
                0x08062e48       0xfa main.o
                0x08062e48                std::string::insert(unsigned int, unsigned int, char)
 .text._ZNKSt8numpunctIcE13decimal_pointEv
                0x08062f42       0x1a main.o
                0x08062f42                std::numpunct<char>::decimal_point() const
 *fill*         0x08062f5c        0x4 9090
 .text          0x08062f60      0x458 /usr/qnx650/target/qnx6/x86/lib//libc.a(slog.o)
                0x08063260                slogi
                0x080632f0                slogb
                0x08063230                slogf
                0x080630d0                vslogf
 *fill*         0x080633b8        0x8 9090
 .text          0x080633c0       0x40 /usr/qnx650/host/qnx6/x86/usr/lib/gcc/i486-pc-nto-qnx6.5.0/4.4.2/crtend.o
 .text          0x08063400        0x0 /usr/qnx650/target/qnx6/x86/lib/crtn.o
 *(.gnu.warning)

.fini           0x08063400        0x8
 *(.fini)
 .fini          0x08063400        0x0 /usr/qnx650/target/qnx6/x86/lib/crti.o
                0x08063400                _fini
 .fini          0x08063400        0x5 /usr/qnx650/host/qnx6/x86/usr/lib/gcc/i486-pc-nto-qnx6.5.0/4.4.2/crtbegin.o
 .fini          0x08063405        0x3 /usr/qnx650/target/qnx6/x86/lib/crtn.o
                0x08063408                PROVIDE (__etext, .)
                0x08063408                PROVIDE (_etext, .)
                0x08063408                PROVIDE (etext, .)

.rodata         0x08063420     0x143a
 *(.rodata .rodata.* .gnu.linkonce.r.*)
 .rodata        0x08063420       0x34 program_settings.o
 .rodata        0x08063454      0x590 system_settings.o
 *fill*         0x080639e4        0x4 00
 .rodata._ZTV15system_settings
                0x080639e8       0x14 system_settings.o
                0x080639e8                vtable for system_settings
 *fill*         0x080639fc        0x4 00
 .rodata._ZTVSt12length_error
                0x08063a00       0x14 system_settings.o
                0x08063a00                vtable for std::length_error
 *fill*         0x08063a14        0x4 00
 .rodata._ZTVSt11logic_error
                0x08063a18       0x14 system_settings.o
                0x08063a18                vtable for std::logic_error
 .rodata._ZTS16spider_exception
                0x08063a2c       0x13 system_settings.o
                0x08063a2c                typeinfo name for spider_exception
 *fill*         0x08063a3f        0x1 00
 .rodata._ZTI16spider_exception
                0x08063a40        0x8 system_settings.o
                0x08063a40                typeinfo for spider_exception
 .rodata._ZTS15system_settings
                0x08063a48       0x12 system_settings.o
                0x08063a48                typeinfo name for system_settings
 *fill*         0x08063a5a        0x2 00
 .rodata._ZTI15system_settings
                0x08063a5c        0x8 system_settings.o
                0x08063a5c                typeinfo for system_settings
 .rodata._ZTSSt12length_error
                0x08063a64       0x11 system_settings.o
                0x08063a64                typeinfo name for std::length_error
 *fill*         0x08063a75        0x3 00
 .rodata._ZTISt12length_error
                0x08063a78        0xc system_settings.o
                0x08063a78                typeinfo for std::length_error
 .rodata._ZTSSt11logic_error
                0x08063a84       0x10 system_settings.o
                0x08063a84                typeinfo name for std::logic_error
 .rodata._ZTISt11logic_error
                0x08063a94        0xc system_settings.o
                0x08063a94                typeinfo for std::logic_error
 .rodata        0x08063aa0       0xf0 metro_device.o
 *fill*         0x08063b90       0x10 00
 .rodata._ZTV12metro_device
                0x08063ba0       0x24 metro_device.o
                0x08063ba0                vtable for metro_device
 *fill*         0x08063bc4       0x1c 00
 .rodata._ZTVSt19basic_ostringstreamIcSt11char_traitsIcESaIcEE
                0x08063be0       0x28 metro_device.o
                0x08063be0                vtable for std::basic_ostringstream<char, std::char_traits<char>, std::allocator<char> >
 .rodata._ZTTSt19basic_ostringstreamIcSt11char_traitsIcESaIcEE
                0x08063c08       0x10 metro_device.o
                0x08063c08                VTT for std::basic_ostringstream<char, std::char_traits<char>, std::allocator<char> >
 *fill*         0x08063c18        0x8 00
 .rodata._ZTCSt19basic_ostringstreamIcSt11char_traitsIcESaIcEE0_So
                0x08063c20       0x28 metro_device.o
                0x08063c20                construction vtable for std::ostream-in-std::basic_ostringstream<char, std::char_traits<char>, std::allocator<char> >
 *fill*         0x08063c48       0x18 00
 .rodata._ZTVSt15basic_stringbufIcSt11char_traitsIcESaIcEE
                0x08063c60       0x48 metro_device.o
                0x08063c60                vtable for std::basic_stringbuf<char, std::char_traits<char>, std::allocator<char> >
 *fill*         0x08063ca8       0x18 00
 .rodata._ZTVSt15basic_streambufIcSt11char_traitsIcEE
                0x08063cc0       0x48 metro_device.o
                0x08063cc0                vtable for std::basic_streambuf<char, std::char_traits<char> >
 *fill*         0x08063d08       0x18 00
 .rodata._ZTVSo
                0x08063d20       0x28 metro_device.o
                0x08063d20                vtable for std::ostream
 .rodata._ZTTSo
                0x08063d48        0x8 metro_device.o
                0x08063d48                VTT for std::ostream
 .rodata._ZTVSt9basic_iosIcSt11char_traitsIcEE
                0x08063d50       0x10 metro_device.o
                0x08063d50                vtable for std::basic_ios<char, std::char_traits<char> >
 .rodata._ZTVSt5ctypeIcE
                0x08063d60       0x30 metro_device.o
                0x08063d60                vtable for std::ctype<char>
 .rodata._ZTVSt10ctype_base
                0x08063d90       0x10 metro_device.o
                0x08063d90                vtable for std::ctype_base
 .rodata._ZTVNSt6locale5facetE
                0x08063da0       0x10 metro_device.o
                0x08063da0                vtable for std::locale::facet
 .rodata._ZTVSt8bad_cast
                0x08063db0       0x14 metro_device.o
                0x08063db0                vtable for std::bad_cast
 *fill*         0x08063dc4       0x1c 00
 .rodata._ZTSN12metro_device22metro_device_exceptionE
                0x08063de0       0x29 metro_device.o
                0x08063de0                typeinfo name for metro_device::metro_device_exception
 *fill*         0x08063e09        0x3 00
 .rodata._ZTIN12metro_device22metro_device_exceptionE
                0x08063e0c        0x8 metro_device.o
                0x08063e0c                typeinfo for metro_device::metro_device_exception
 *fill*         0x08063e14        0xc 00
 .rodata._ZTSSt19basic_ostringstreamIcSt11char_traitsIcESaIcEE
                0x08063e20       0x32 metro_device.o
                0x08063e20                typeinfo name for std::basic_ostringstream<char, std::char_traits<char>, std::allocator<char> >
 *fill*         0x08063e52        0x2 00
 .rodata._ZTISt19basic_ostringstreamIcSt11char_traitsIcESaIcEE
                0x08063e54        0xc metro_device.o
                0x08063e54                typeinfo for std::basic_ostringstream<char, std::char_traits<char>, std::allocator<char> >
 .rodata._ZTSSt15basic_stringbufIcSt11char_traitsIcESaIcEE
                0x08063e60       0x2e metro_device.o
                0x08063e60                typeinfo name for std::basic_stringbuf<char, std::char_traits<char>, std::allocator<char> >
 *fill*         0x08063e8e        0x2 00
 .rodata._ZTISt15basic_stringbufIcSt11char_traitsIcESaIcEE
                0x08063e90        0xc metro_device.o
                0x08063e90                typeinfo for std::basic_stringbuf<char, std::char_traits<char>, std::allocator<char> >
 *fill*         0x08063e9c        0x4 00
 .rodata._ZTSSt15basic_streambufIcSt11char_traitsIcEE
                0x08063ea0       0x29 metro_device.o
                0x08063ea0                typeinfo name for std::basic_streambuf<char, std::char_traits<char> >
 *fill*         0x08063ec9        0x3 00
 .rodata._ZTISt15basic_streambufIcSt11char_traitsIcEE
                0x08063ecc        0x8 metro_device.o
                0x08063ecc                typeinfo for std::basic_streambuf<char, std::char_traits<char> >
 .rodata._ZTSSo
                0x08063ed4        0x3 metro_device.o
                0x08063ed4                typeinfo name for std::ostream
 *fill*         0x08063ed7        0x1 00
 .rodata._ZTISo
                0x08063ed8       0x18 metro_device.o
                0x08063ed8                typeinfo for std::ostream
 *fill*         0x08063ef0       0x10 00
 .rodata._ZTSSt9basic_iosIcSt11char_traitsIcEE
                0x08063f00       0x22 metro_device.o
                0x08063f00                typeinfo name for std::basic_ios<char, std::char_traits<char> >
 *fill*         0x08063f22        0x2 00
 .rodata._ZTISt9basic_iosIcSt11char_traitsIcEE
                0x08063f24        0xc metro_device.o
                0x08063f24                typeinfo for std::basic_ios<char, std::char_traits<char> >
 .rodata._ZTI12metro_device
                0x08063f30        0x8 metro_device.o
                0x08063f30                typeinfo for metro_device
 .rodata._ZTS12metro_device
                0x08063f38        0xf metro_device.o
                0x08063f38                typeinfo name for metro_device
 .rodata._ZTSSt5ctypeIcE
                0x08063f47        0xc metro_device.o
                0x08063f47                typeinfo name for std::ctype<char>
 *fill*         0x08063f53        0x1 00
 .rodata._ZTISt5ctypeIcE
                0x08063f54        0xc metro_device.o
                0x08063f54                typeinfo for std::ctype<char>
 .rodata._ZTSSt10ctype_base
                0x08063f60        0xf metro_device.o
                0x08063f60                typeinfo name for std::ctype_base
 *fill*         0x08063f6f        0x1 00
 .rodata._ZTISt10ctype_base
                0x08063f70        0xc metro_device.o
                0x08063f70                typeinfo for std::ctype_base
 .rodata._ZTSNSt6locale5facetE
                0x08063f7c       0x12 metro_device.o
                0x08063f7c                typeinfo name for std::locale::facet
 *fill*         0x08063f8e        0x2 00
 .rodata._ZTINSt6locale5facetE
                0x08063f90        0x8 metro_device.o
                0x08063f90                typeinfo for std::locale::facet
 .rodata._ZTSSt8bad_cast
                0x08063f98        0xc metro_device.o
                0x08063f98                typeinfo name for std::bad_cast
 .rodata._ZTISt8bad_cast
                0x08063fa4        0xc metro_device.o
                0x08063fa4                typeinfo for std::bad_cast
 .rodata        0x08063fb0      0x3bc main.o
 *fill*         0x0806436c       0x14 00
 .rodata._ZTVSt8numpunctIcE
                0x08064380       0x24 main.o
                0x08064380                vtable for std::numpunct<char>
 *fill*         0x080643a4       0x1c 00
 .rodata._ZTVSt7codecvtIcc9_MbstatetE
                0x080643c0       0x2c main.o
                0x080643c0                vtable for std::codecvt<char, char, _Mbstatet>
 *fill*         0x080643ec       0x14 00
 .rodata._ZTVSt7num_putIcSt19ostreambuf_iteratorIcSt11char_traitsIcEEE
                0x08064400       0x30 main.o
                0x08064400                vtable for std::num_put<char, std::ostreambuf_iterator<char, std::char_traits<char> > >
 *fill*         0x08064430       0x10 00
 .rodata._ZTVSt7num_getIcSt19istreambuf_iteratorIcSt11char_traitsIcEEE
                0x08064440       0x3c main.o
                0x08064440                vtable for std::num_get<char, std::istreambuf_iterator<char, std::char_traits<char> > >
 *fill*         0x0806447c        0x4 00
 .rodata._ZTVSt19basic_istringstreamIcSt11char_traitsIcESaIcEE
                0x08064480       0x28 main.o
                0x08064480                vtable for std::basic_istringstream<char, std::char_traits<char>, std::allocator<char> >
 .rodata._ZTTSt19basic_istringstreamIcSt11char_traitsIcESaIcEE
                0x080644a8       0x10 main.o
                0x080644a8                VTT for std::basic_istringstream<char, std::char_traits<char>, std::allocator<char> >
 *fill*         0x080644b8        0x8 00
 .rodata._ZTCSt19basic_istringstreamIcSt11char_traitsIcESaIcEE0_Si
                0x080644c0       0x28 main.o
                0x080644c0                construction vtable for std::istream-in-std::basic_istringstream<char, std::char_traits<char>, std::allocator<char> >
 *fill*         0x080644e8       0x18 00
 .rodata._ZTVSt14basic_ifstreamIcSt11char_traitsIcEE
                0x08064500       0x28 main.o
                0x08064500                vtable for std::basic_ifstream<char, std::char_traits<char> >
 .rodata._ZTTSt14basic_ifstreamIcSt11char_traitsIcEE
                0x08064528       0x10 main.o
                0x08064528                VTT for std::basic_ifstream<char, std::char_traits<char> >
 *fill*         0x08064538        0x8 00
 .rodata._ZTCSt14basic_ifstreamIcSt11char_traitsIcEE0_Si
                0x08064540       0x28 main.o
                0x08064540                construction vtable for std::istream-in-std::basic_ifstream<char, std::char_traits<char> >
 *fill*         0x08064568       0x18 00
 .rodata._ZTVSt13basic_filebufIcSt11char_traitsIcEE
                0x08064580       0x48 main.o
                0x08064580                vtable for std::basic_filebuf<char, std::char_traits<char> >
 *fill*         0x080645c8       0x18 00
 .rodata._ZTVSi
                0x080645e0       0x28 main.o
                0x080645e0                vtable for std::istream
 .rodata._ZTTSi
                0x08064608        0x8 main.o
                0x08064608                VTT for std::istream
 .rodata._ZTVSt12codecvt_base
                0x08064610       0x1c main.o
                0x08064610                vtable for std::codecvt_base
 .rodata._ZTSSt8numpunctIcE
                0x0806462c        0xf main.o
                0x0806462c                typeinfo name for std::numpunct<char>
 *fill*         0x0806463b        0x1 00
 .rodata._ZTISt8numpunctIcE
                0x0806463c        0xc main.o
                0x0806463c                typeinfo for std::numpunct<char>
 .rodata._ZTSSt7codecvtIcc9_MbstatetE
                0x08064648       0x19 main.o
                0x08064648                typeinfo name for std::codecvt<char, char, _Mbstatet>
 *fill*         0x08064661        0x3 00
 .rodata._ZTISt7codecvtIcc9_MbstatetE
                0x08064664        0xc main.o
                0x08064664                typeinfo for std::codecvt<char, char, _Mbstatet>
 *fill*         0x08064670       0x10 00
 .rodata._ZTSSt7num_putIcSt19ostreambuf_iteratorIcSt11char_traitsIcEEE
                0x08064680       0x3a main.o
                0x08064680                typeinfo name for std::num_put<char, std::ostreambuf_iterator<char, std::char_traits<char> > >
 *fill*         0x080646ba        0x2 00
 .rodata._ZTISt7num_putIcSt19ostreambuf_iteratorIcSt11char_traitsIcEEE
                0x080646bc        0xc main.o
                0x080646bc                typeinfo for std::num_put<char, std::ostreambuf_iterator<char, std::char_traits<char> > >
 *fill*         0x080646c8       0x18 00
 .rodata._ZTSSt7num_getIcSt19istreambuf_iteratorIcSt11char_traitsIcEEE
                0x080646e0       0x3a main.o
                0x080646e0                typeinfo name for std::num_get<char, std::istreambuf_iterator<char, std::char_traits<char> > >
 *fill*         0x0806471a        0x2 00
 .rodata._ZTISt7num_getIcSt19istreambuf_iteratorIcSt11char_traitsIcEEE
                0x0806471c        0xc main.o
                0x0806471c                typeinfo for std::num_get<char, std::istreambuf_iterator<char, std::char_traits<char> > >
 .rodata._ZTS17comport_exception
                0x08064728       0x14 main.o
                0x08064728                typeinfo name for comport_exception
 .rodata._ZTI17comport_exception
                0x0806473c        0x8 main.o
                0x0806473c                typeinfo for comport_exception
 *fill*         0x08064744       0x1c 00
 .rodata._ZTSSt19basic_istringstreamIcSt11char_traitsIcESaIcEE
                0x08064760       0x32 main.o
                0x08064760                typeinfo name for std::basic_istringstream<char, std::char_traits<char>, std::allocator<char> >
 *fill*         0x08064792        0x2 00
 .rodata._ZTISt19basic_istringstreamIcSt11char_traitsIcESaIcEE
                0x08064794        0xc main.o
                0x08064794                typeinfo for std::basic_istringstream<char, std::char_traits<char>, std::allocator<char> >
 .rodata._ZTSSt14basic_ifstreamIcSt11char_traitsIcEE
                0x080647a0       0x28 main.o
                0x080647a0                typeinfo name for std::basic_ifstream<char, std::char_traits<char> >
 .rodata._ZTISt14basic_ifstreamIcSt11char_traitsIcEE
                0x080647c8        0xc main.o
                0x080647c8                typeinfo for std::basic_ifstream<char, std::char_traits<char> >
 *fill*         0x080647d4        0xc 00
 .rodata._ZTSSt13basic_filebufIcSt11char_traitsIcEE
                0x080647e0       0x27 main.o
                0x080647e0                typeinfo name for std::basic_filebuf<char, std::char_traits<char> >
 *fill*         0x08064807        0x1 00
 .rodata._ZTISt13basic_filebufIcSt11char_traitsIcEE
                0x08064808        0xc main.o
                0x08064808                typeinfo for std::basic_filebuf<char, std::char_traits<char> >
 .rodata._ZTSSi
                0x08064814        0x3 main.o
                0x08064814                typeinfo name for std::istream
 *fill*         0x08064817        0x1 00
 .rodata._ZTISi
                0x08064818       0x18 main.o
                0x08064818                typeinfo for std::istream
 .rodata._ZTSSt12codecvt_base
                0x08064830       0x11 main.o
                0x08064830                typeinfo name for std::codecvt_base
 *fill*         0x08064841        0x3 00
 .rodata._ZTISt12codecvt_base
                0x08064844        0xc main.o
                0x08064844                typeinfo for std::codecvt_base
 .rodata.str1.1
                0x08064850        0xa /usr/qnx650/target/qnx6/x86/lib//libc.a(slog.o)

.rodata1
 *(.rodata1)

.sdata2
 *(.sdata2 .sdata2.* .gnu.linkonce.s2.*)

.sbss2
 *(.sbss2 .sbss2.* .gnu.linkonce.sb2.*)

.eh_frame_hdr
 *(.eh_frame_hdr)

.eh_frame       0x0806485c     0x4730
 *(.eh_frame)
 .eh_frame      0x0806485c        0x0 /usr/qnx650/host/qnx6/x86/usr/lib/gcc/i486-pc-nto-qnx6.5.0/4.4.2/crtbegin.o
 .eh_frame      0x0806485c      0x758 program_settings.o
 .eh_frame      0x08064fb4      0x6d4 system_settings.o
                                0xd60 (size before relaxing)
 .eh_frame      0x08065688     0x1b44 metro_device.o
                               0x21b4 (size before relaxing)
 .eh_frame      0x080671cc     0x1dbc main.o
                               0x3cec (size before relaxing)
 .eh_frame      0x08068f88        0x4 /usr/qnx650/host/qnx6/x86/usr/lib/gcc/i486-pc-nto-qnx6.5.0/4.4.2/crtend.o

.gcc_except_table
                0x08068f8c     0x1669
 *(.gcc_except_table .gcc_except_table.*)
 .gcc_except_table
                0x08068f8c       0x9c program_settings.o
 .gcc_except_table
                0x08069028      0x364 system_settings.o
 .gcc_except_table
                0x0806938c      0x530 metro_device.o
 .gcc_except_table
                0x080698bc      0xd39 main.o
                0x0806b5f5                . = (ALIGN (0x1000) + (. & 0xfff))

.eh_frame
 *(.eh_frame)

.gcc_except_table
 *(.gcc_except_table .gcc_except_table.*)

.tdata
 *(.tdata .tdata.* .gnu.linkonce.td.*)

.tbss
 *(.tbss .tbss.* .gnu.linkonce.tb.*)
 *(.tcommon)

.preinit_array  0x0806b5f5        0x0
                0x0806b5f5                PROVIDE (__preinit_array_start, .)
 *(.preinit_array)
                0x0806b5f5                PROVIDE (__preinit_array_end, .)

.init_array     0x0806b5f5        0x0
                0x0806b5f5                PROVIDE (__init_array_start, .)
 *(SORT(.init_array.*))
 *(.init_array)
                0x0806b5f5                PROVIDE (__init_array_end, .)

.fini_array     0x0806b5f5        0x0
                0x0806b5f5                PROVIDE (__fini_array_start, .)
 *(.fini_array)
 *(SORT(.fini_array.*))
                0x0806b5f5                PROVIDE (__fini_array_end, .)

.ctors          0x0806b5f8       0x14
 *crtbegin.o(.ctors)
 .ctors         0x0806b5f8        0x4 /usr/qnx650/host/qnx6/x86/usr/lib/gcc/i486-pc-nto-qnx6.5.0/4.4.2/crtbegin.o
 *crtbegin?.o(.ctors)
 *(EXCLUDE_FILE(*crtend?.o *crtend.o) .ctors)
 .ctors         0x0806b5fc        0x4 program_settings.o
 .ctors         0x0806b600        0x4 system_settings.o
 .ctors         0x0806b604        0x4 main.o
 *(SORT(.ctors.*))
 *(.ctors)
 .ctors         0x0806b608        0x4 /usr/qnx650/host/qnx6/x86/usr/lib/gcc/i486-pc-nto-qnx6.5.0/4.4.2/crtend.o

.dtors          0x0806b60c        0x8
 *crtbegin.o(.dtors)
 .dtors         0x0806b60c        0x4 /usr/qnx650/host/qnx6/x86/usr/lib/gcc/i486-pc-nto-qnx6.5.0/4.4.2/crtbegin.o
 *crtbegin?.o(.dtors)
 *(EXCLUDE_FILE(*crtend?.o *crtend.o) .dtors)
 *(SORT(.dtors.*))
 *(.dtors)
 .dtors         0x0806b610        0x4 /usr/qnx650/host/qnx6/x86/usr/lib/gcc/i486-pc-nto-qnx6.5.0/4.4.2/crtend.o
                0x0806b610                __DTOR_END__

.jcr            0x0806b614        0x4
 *(.jcr)
 .jcr           0x0806b614        0x0 /usr/qnx650/host/qnx6/x86/usr/lib/gcc/i486-pc-nto-qnx6.5.0/4.4.2/crtbegin.o
 .jcr           0x0806b614        0x4 /usr/qnx650/host/qnx6/x86/usr/lib/gcc/i486-pc-nto-qnx6.5.0/4.4.2/crtend.o

.data.rel.ro
 *(.data.rel.ro.local* .gnu.linkonce.d.rel.ro.local.*)
 *(.data.rel.ro* .gnu.linkonce.d.rel.ro.*)

.dynamic        0x0806b618       0xd0
 *(.dynamic)
 .dynamic       0x0806b618       0xd0 /usr/qnx650/target/qnx6/x86/lib/crt1.o
                0x0806b618                _DYNAMIC

.data           0x0806b700      0x420
 *(.data .data.* .gnu.linkonce.d.*)
 .data          0x0806b700        0x0 /usr/qnx650/target/qnx6/x86/lib/crt1.o
 .data          0x0806b700        0x0 /usr/qnx650/target/qnx6/x86/lib/crti.o
 .data          0x0806b700        0x0 /usr/qnx650/host/qnx6/x86/usr/lib/gcc/i486-pc-nto-qnx6.5.0/4.4.2/crtbegin.o
 .data.rel      0x0806b700        0x4 /usr/qnx650/host/qnx6/x86/usr/lib/gcc/i486-pc-nto-qnx6.5.0/4.4.2/crtbegin.o
                0x0806b700                __dso_handle
 *fill*         0x0806b704       0x1c 00
 .data          0x0806b720      0x200 program_settings.o
 .data          0x0806b920      0x200 system_settings.o
 .data          0x0806bb20        0x0 metro_device.o
 .data          0x0806bb20        0x0 main.o
 .data          0x0806bb20        0x0 /usr/qnx650/target/qnx6/x86/lib//libc.a(slog.o)
 .data          0x0806bb20        0x0 /usr/qnx650/host/qnx6/x86/usr/lib/gcc/i486-pc-nto-qnx6.5.0/4.4.2/crtend.o
 .data          0x0806bb20        0x0 /usr/qnx650/target/qnx6/x86/lib/crtn.o

.data1
 *(.data1)

.got            0x0806bb20      0x200
 *(.got.plt)
 .got.plt       0x0806bb20      0x1f0 /usr/qnx650/target/qnx6/x86/lib/crt1.o
                0x0806bb20                _GLOBAL_OFFSET_TABLE_
 *(.got)
 .got           0x0806bd10       0x10 /usr/qnx650/target/qnx6/x86/lib/crt1.o

.sdata
 *(.sdata .sdata.* .gnu.linkonce.s.*)
                0x0806bd20                _edata = .
                0x0806bd20                PROVIDE (edata, .)
                0x0806bd20                __bss_start = .

.sbss
 *(.dynsbss)
 *(.sbss .sbss.* .gnu.linkonce.sb.*)
 *(.scommon)

.bss            0x0806bd20      0x4d0
 *(.dynbss)
 .dynbss        0x0806bd20      0x224 /usr/qnx650/target/qnx6/x86/lib/crt1.o
                0x0806bd20                _Locale
                0x0806bd98                typeinfo for std::exception
                0x0806bda0                _slogfd
                0x0806bda4                errno
                0x0806bdc0                std::_BADOFF
                0x0806bdc8                vtable for std::exception
                0x0806bddc                std::locale::id::_Id_cnt
                0x0806bde0                __slog_mux
                0x0806be00                std::_Fpz
                0x0806be20                vtable for __cxxabiv1::__vmi_class_type_info
                0x0806be60                vtable for __cxxabiv1::__class_type_info
                0x0806be90                _Tolotab
                0x0806bea0                std::cout
                0x0806bed8                _Touptab
                0x0806bee0                vtable for std::ios_base
                0x0806bef0                typeinfo for std::ios_base
                0x0806bf00                vtable for __cxxabiv1::__si_class_type_info
                0x0806bf30                std::ctype<char>::id
                0x0806bf38                __slog_once
 *(.bss .bss.* .gnu.linkonce.b.*)
 .bss           0x0806bf44        0x0 /usr/qnx650/target/qnx6/x86/lib/crt1.o
 .bss           0x0806bf44        0x0 /usr/qnx650/target/qnx6/x86/lib/crti.o
 .bss           0x0806bf44       0x20 /usr/qnx650/host/qnx6/x86/usr/lib/gcc/i486-pc-nto-qnx6.5.0/4.4.2/crtbegin.o
 .bss           0x0806bf64       0x24 program_settings.o
                0x0806bf64                program_settings::program_settings_instance
 .bss           0x0806bf88       0x1c system_settings.o
 .bss           0x0806bfa4        0x0 metro_device.o
 .bss._ZNSt9_FacetptrISt5ctypeIcEE6_PsaveE
                0x0806bfa4        0x4 metro_device.o
                0x0806bfa4                std::_Facetptr<std::ctype<char> >::_Psave
 .bss._ZNSt4fposI9_MbstatetE4_StzE
                0x0806bfa8        0x8 metro_device.o
                0x0806bfa8                std::fpos<_Mbstatet>::_Stz
 *fill*         0x0806bfb0       0x10 00
 .bss           0x0806bfc0      0x1e8 main.o
 .bss._ZNSt7num_getIcSt19istreambuf_iteratorIcSt11char_traitsIcEEE2idE
                0x0806c1a8        0x4 main.o
                0x0806c1a8                std::num_get<char, std::istreambuf_iterator<char, std::char_traits<char> > >::id
 .bss._ZNSt7num_putIcSt19ostreambuf_iteratorIcSt11char_traitsIcEEE2idE
                0x0806c1ac        0x4 main.o
                0x0806c1ac                std::num_put<char, std::ostreambuf_iterator<char, std::char_traits<char> > >::id
 .bss._ZNSt7codecvtIcc9_MbstatetE2idE
                0x0806c1b0        0x4 main.o
                0x0806c1b0                std::codecvt<char, char, _Mbstatet>::id
 .bss._ZNSt8numpunctIcE2idE
                0x0806c1b4        0x4 main.o
                0x0806c1b4                std::numpunct<char>::id
 .bss._ZGVNSt7num_getIcSt19istreambuf_iteratorIcSt11char_traitsIcEEE2idE
                0x0806c1b8        0x8 main.o
                0x0806c1b8                guard variable for std::num_get<char, std::istreambuf_iterator<char, std::char_traits<char> > >::id
 .bss._ZGVNSt7num_putIcSt19ostreambuf_iteratorIcSt11char_traitsIcEEE2idE
                0x0806c1c0        0x8 main.o
                0x0806c1c0                guard variable for std::num_put<char, std::ostreambuf_iterator<char, std::char_traits<char> > >::id
 .bss._ZGVNSt7codecvtIcc9_MbstatetE2idE
                0x0806c1c8        0x8 main.o
                0x0806c1c8                guard variable for std::codecvt<char, char, _Mbstatet>::id
 .bss._ZGVNSt8numpunctIcE2idE
                0x0806c1d0        0x8 main.o
                0x0806c1d0                guard variable for std::numpunct<char>::id
 .bss._ZNSt9_FacetptrISt7num_getIcSt19istreambuf_iteratorIcSt11char_traitsIcEEEE6_PsaveE
                0x0806c1d8        0x4 main.o
                0x0806c1d8                std::_Facetptr<std::num_get<char, std::istreambuf_iterator<char, std::char_traits<char> > > >::_Psave
 .bss._ZNSt9_FacetptrISt7num_putIcSt19ostreambuf_iteratorIcSt11char_traitsIcEEEE6_PsaveE
                0x0806c1dc        0x4 main.o
                0x0806c1dc                std::_Facetptr<std::num_put<char, std::ostreambuf_iterator<char, std::char_traits<char> > > >::_Psave
 .bss._ZNSt9_FacetptrISt7codecvtIcc9_MbstatetEE6_PsaveE
                0x0806c1e0        0x4 main.o
                0x0806c1e0                std::_Facetptr<std::codecvt<char, char, _Mbstatet> >::_Psave
 .bss._ZNSt9_FacetptrISt8numpunctIcEE6_PsaveE
                0x0806c1e4        0x4 main.o
                0x0806c1e4                std::_Facetptr<std::numpunct<char> >::_Psave
 .bss._ZZNSt13basic_filebufIcSt11char_traitsIcEE5_InitEP6_FiletNS2_7_InitflEE7_Stinit
                0x0806c1e8        0x8 main.o
                0x0806c1e8                std::basic_filebuf<char, std::char_traits<char> >::_Init(_Filet*, std::basic_filebuf<char, std::char_traits<char> >::_Initfl)::_Stinit
 .bss           0x0806c1f0        0x0 /usr/qnx650/target/qnx6/x86/lib//libc.a(slog.o)
 .bss           0x0806c1f0        0x0 /usr/qnx650/host/qnx6/x86/usr/lib/gcc/i486-pc-nto-qnx6.5.0/4.4.2/crtend.o
 .bss           0x0806c1f0        0x0 /usr/qnx650/target/qnx6/x86/lib/crtn.o
 *(COMMON)
                0x0806c1f0                . = ALIGN ((. != 0x0)?0x4:0x1)
                0x0806c1f0                . = ALIGN (0x4)
                0x0806c1f0                . = ALIGN (0x4)
                0x0806c1f0                _end = .
                0x0806c1f0                PROVIDE (end, .)

.stab
 *(.stab)

.stabstr
 *(.stabstr)

.stab.excl
 *(.stab.excl)

.stab.exclstr
 *(.stab.exclstr)

.stab.index
 *(.stab.index)

.stab.indexstr
 *(.stab.indexstr)

.comment        0x00000000       0x7e
 *(.comment)
 .comment       0x00000000       0x12 /usr/qnx650/host/qnx6/x86/usr/lib/gcc/i486-pc-nto-qnx6.5.0/4.4.2/crtbegin.o
 .comment       0x00000012       0x12 program_settings.o
 .comment       0x00000024       0x12 system_settings.o
 .comment       0x00000036       0x12 metro_device.o
 .comment       0x00000048       0x12 main.o
 .comment       0x0000005a       0x12 /usr/qnx650/target/qnx6/x86/lib//libc.a(slog.o)
 .comment       0x0000006c       0x12 /usr/qnx650/host/qnx6/x86/usr/lib/gcc/i486-pc-nto-qnx6.5.0/4.4.2/crtend.o

.debug
 *(.debug)

.line
 *(.line)

.debug_srcinfo
 *(.debug_srcinfo)

.debug_sfnames
 *(.debug_sfnames)

.debug_aranges  0x00000000     0x1e90
 *(.debug_aranges)
 .debug_aranges
                0x00000000      0x1e8 program_settings.o
 .debug_aranges
                0x000001e8      0x380 system_settings.o
 .debug_aranges
                0x00000568      0x918 metro_device.o
 .debug_aranges
                0x00000e80     0x1010 main.o

.debug_pubnames
                0x00000000    0x10ab9
 *(.debug_pubnames)
 .debug_pubnames
                0x00000000     0x110a program_settings.o
 .debug_pubnames
                0x0000110a     0x2bbc system_settings.o
 .debug_pubnames
                0x00003cc6     0x4be0 metro_device.o
 .debug_pubnames
                0x000088a6     0x8213 main.o

.debug_info     0x00000000    0x31bfe
 *(.debug_info .gnu.linkonce.wi.*)
 .debug_info    0x00000000     0x5110 program_settings.o
 .debug_info    0x00005110     0x823d system_settings.o
 .debug_info    0x0000d34d     0xc698 metro_device.o
 .debug_info    0x000199e5    0x18219 main.o

.debug_abbrev   0x00000000     0x23ac
 *(.debug_abbrev)
 .debug_abbrev  0x00000000      0x72f program_settings.o
 .debug_abbrev  0x0000072f      0x7bd system_settings.o
 .debug_abbrev  0x00000eec      0x972 metro_device.o
 .debug_abbrev  0x0000185e      0xb4e main.o

.debug_line     0x00000000     0x6f21
 *(.debug_line)
 .debug_line    0x00000000      0x7ed program_settings.o
 .debug_line    0x000007ed      0xe4f system_settings.o
 .debug_line    0x0000163c     0x1e64 metro_device.o
 .debug_line    0x000034a0     0x3a81 main.o

.debug_frame
 *(.debug_frame)

.debug_str      0x00000000    0x1140b
 *(.debug_str)
 .debug_str     0x00000000     0x3aa8 program_settings.o
                               0x3cce (size before relaxing)
 .debug_str     0x00003aa8     0x2550 system_settings.o
                               0x6253 (size before relaxing)
 .debug_str     0x00005ff8     0x578c metro_device.o
                               0x95f4 (size before relaxing)
 .debug_str     0x0000b784     0x5c87 main.o
                               0xda5f (size before relaxing)

.debug_loc      0x00000000     0xab88
 *(.debug_loc)
 .debug_loc     0x00000000      0xb00 program_settings.o
 .debug_loc     0x00000b00     0x13c4 system_settings.o
 .debug_loc     0x00001ec4     0x3288 metro_device.o
 .debug_loc     0x0000514c     0x5a3c main.o

.debug_macinfo
 *(.debug_macinfo)

.debug_weaknames
 *(.debug_weaknames)

.debug_funcnames
 *(.debug_funcnames)

.debug_typenames
 *(.debug_typenames)

.debug_varnames
 *(.debug_varnames)

.debug_pubtypes
 *(.debug_pubtypes)

.debug_ranges   0x00000000     0x2290
 *(.debug_ranges)
 .debug_ranges  0x00000000      0x228 program_settings.o
 .debug_ranges  0x00000228      0x3d8 system_settings.o
 .debug_ranges  0x00000600      0x9d0 metro_device.o
 .debug_ranges  0x00000fd0     0x12c0 main.o

.gnu.attributes
 *(.gnu.attributes)

/DISCARD/
 *(.note.GNU-stack)
 *(.gnu_debuglink)
OUTPUT(com_port_emulator elf32-i386)
